###############################################################################
#
# IAR C/C++ Compiler V7.10.6.1378 for Atmel AVR           12/Aug/2022  19:38:14
# Copyright 1996-2018 IAR Systems AB.
#
#    Source file  =  D:\Projects\CautoProjects\PSS48\PSS48\src\DataStore.cpp
#    Command line =  
#        -f C:\Users\ghost\AppData\Local\Temp\EW32F4.tmp
#        (--string_literals_in_flash
#        D:\Projects\CautoProjects\PSS48\PSS48\src\DataStore.cpp --cpu=m128a
#        -ms -o D:\Projects\CautoProjects\PSS48\PSS48\Debug\Obj -lC
#        D:\Projects\CautoProjects\PSS48\PSS48\Debug\List -lB
#        D:\Projects\CautoProjects\PSS48\PSS48\Debug\List -y
#        --initializers_in_flash --root_variables --debug
#        -DENABLE_BIT_DEFINITIONS -e -I
#        D:\Projects\CautoProjects\PSS48\PSS48\include\ -I
#        D:\Projects\CautoProjects\PSS48\PSS48\Modbus\ --eeprom_size 4096
#        --dlib --dlib_config "C:\Program Files (x86)\IAR Systems\Embedded
#        Workbench 8.0\avr\LIB\DLIB\dlAVR-3s-ec_mul-n.h" -Ohz --eec++)
#    Locale       =  Russian_RUS.1251
#    List file    =  
#        D:\Projects\CautoProjects\PSS48\PSS48\Debug\List\DataStore.lst
#    Object file  =  
#        D:\Projects\CautoProjects\PSS48\PSS48\Debug\Obj\DataStore.r90
#
###############################################################################

D:\Projects\CautoProjects\PSS48\PSS48\src\DataStore.cpp
      1          
      2          //-----------------------------------------------------------------------------------------------------
      3          //  Sourse      : FileName.cpp
      4          //  Created     : 01.06.2022
      5          //  Author      : Alexandr Volvenkin
      6          //  email       : aav-36@mail.ru
      7          //  GitHub      : https://github.com/AlexandrVolvenkin
      8          //-----------------------------------------------------------------------------------------------------
      9          #include "DataStore.h"

   \                                 In  segment ABSOLUTE, at 0x9d, root
   \   union <unnamed> volatile __io _A_UCSR1C
   \                     _A_UCSR1C:
   \   00000000                      DS8 1

   \                                 In  segment ABSOLUTE, at 0x9c, root
   \   union <unnamed> volatile __io _A_UDR1
   \                     _A_UDR1:
   \   00000000                      DS8 1

   \                                 In  segment ABSOLUTE, at 0x9b, root
   \   union <unnamed> volatile __io _A_UCSR1A
   \                     _A_UCSR1A:
   \   00000000                      DS8 1

   \                                 In  segment ABSOLUTE, at 0x9a, root
   \   union <unnamed> volatile __io _A_UCSR1B
   \                     _A_UCSR1B:
   \   00000000                      DS8 1

   \                                 In  segment ABSOLUTE, at 0x99, root
   \   union <unnamed> volatile __io _A_UBRR1L
   \                     _A_UBRR1L:
   \   00000000                      DS8 1

   \                                 In  segment ABSOLUTE, at 0x98, root
   \   union <unnamed> volatile __io _A_UBRR1H
   \                     _A_UBRR1H:
   \   00000000                      DS8 1

   \                                 In  segment ABSOLUTE, at 0x95, root
   \   union <unnamed> volatile __io _A_UCSR0C
   \                     _A_UCSR0C:
   \   00000000                      DS8 1

   \                                 In  segment ABSOLUTE, at 0x90, root
   \   union <unnamed> volatile __io _A_UBRR0H
   \                     _A_UBRR0H:
   \   00000000                      DS8 1

   \                                 In  segment ABSOLUTE, at 0x8c, root
   \   union <unnamed> volatile __io _A_TCCR3C
   \                     _A_TCCR3C:
   \   00000000                      DS8 1

   \                                 In  segment ABSOLUTE, at 0x8b, root
   \   union <unnamed> volatile __io _A_TCCR3A
   \                     _A_TCCR3A:
   \   00000000                      DS8 1

   \                                 In  segment ABSOLUTE, at 0x8a, root
   \   union <unnamed> volatile __io _A_TCCR3B
   \                     _A_TCCR3B:
   \   00000000                      DS8 1

   \                                 In  segment ABSOLUTE, at 0x88, root
   \   union <unnamed> volatile __io _A_TCNT3
   \                     _A_TCNT3:
   \   00000000                      DS8 2

   \                                 In  segment ABSOLUTE, at 0x86, root
   \   union <unnamed> volatile __io _A_OCR3A
   \                     _A_OCR3A:
   \   00000000                      DS8 2

   \                                 In  segment ABSOLUTE, at 0x84, root
   \   union <unnamed> volatile __io _A_OCR3B
   \                     _A_OCR3B:
   \   00000000                      DS8 2

   \                                 In  segment ABSOLUTE, at 0x82, root
   \   union <unnamed> volatile __io _A_OCR3C
   \                     _A_OCR3C:
   \   00000000                      DS8 2

   \                                 In  segment ABSOLUTE, at 0x80, root
   \   union <unnamed> volatile __io _A_ICR3
   \                     _A_ICR3:
   \   00000000                      DS8 2

   \                                 In  segment ABSOLUTE, at 0x7d, root
   \   union <unnamed> volatile __io _A_ETIMSK
   \                     _A_ETIMSK:
   \   00000000                      DS8 1

   \                                 In  segment ABSOLUTE, at 0x7c, root
   \   union <unnamed> volatile __io _A_ETIFR
   \                     _A_ETIFR:
   \   00000000                      DS8 1

   \                                 In  segment ABSOLUTE, at 0x7a, root
   \   union <unnamed> volatile __io _A_TCCR1C
   \                     _A_TCCR1C:
   \   00000000                      DS8 1

   \                                 In  segment ABSOLUTE, at 0x78, root
   \   union <unnamed> volatile __io _A_OCR1C
   \                     _A_OCR1C:
   \   00000000                      DS8 2

   \                                 In  segment ABSOLUTE, at 0x74, root
   \   union <unnamed> volatile __io _A_TWCR
   \                     _A_TWCR:
   \   00000000                      DS8 1

   \                                 In  segment ABSOLUTE, at 0x73, root
   \   union <unnamed> volatile __io _A_TWDR
   \                     _A_TWDR:
   \   00000000                      DS8 1

   \                                 In  segment ABSOLUTE, at 0x72, root
   \   union <unnamed> volatile __io _A_TWAR
   \                     _A_TWAR:
   \   00000000                      DS8 1

   \                                 In  segment ABSOLUTE, at 0x71, root
   \   union <unnamed> volatile __io _A_TWSR
   \                     _A_TWSR:
   \   00000000                      DS8 1

   \                                 In  segment ABSOLUTE, at 0x70, root
   \   union <unnamed> volatile __io _A_TWBR
   \                     _A_TWBR:
   \   00000000                      DS8 1

   \                                 In  segment ABSOLUTE, at 0x6f, root
   \   union <unnamed> volatile __io _A_OSCCAL
   \                     _A_OSCCAL:
   \   00000000                      DS8 1

   \                                 In  segment ABSOLUTE, at 0x6d, root
   \   union <unnamed> volatile __io _A_XMCRA
   \                     _A_XMCRA:
   \   00000000                      DS8 1

   \                                 In  segment ABSOLUTE, at 0x6c, root
   \   union <unnamed> volatile __io _A_XMCRB
   \                     _A_XMCRB:
   \   00000000                      DS8 1

   \                                 In  segment ABSOLUTE, at 0x6a, root
   \   union <unnamed> volatile __io _A_EICRA
   \                     _A_EICRA:
   \   00000000                      DS8 1

   \                                 In  segment ABSOLUTE, at 0x68, root
   \   union <unnamed> volatile __io _A_SPMCSR
   \                     _A_SPMCSR:
   \   00000000                      DS8 1

   \                                 In  segment ABSOLUTE, at 0x65, root
   \   union <unnamed> volatile __io _A_PORTG
   \                     _A_PORTG:
   \   00000000                      DS8 1

   \                                 In  segment ABSOLUTE, at 0x64, root
   \   union <unnamed> volatile __io _A_DDRG
   \                     _A_DDRG:
   \   00000000                      DS8 1

   \                                 In  segment ABSOLUTE, at 0x63, root
   \   union <unnamed> volatile __io _A_PING
   \                     _A_PING:
   \   00000000                      DS8 1

   \                                 In  segment ABSOLUTE, at 0x62, root
   \   union <unnamed> volatile __io _A_PORTF
   \                     _A_PORTF:
   \   00000000                      DS8 1

   \                                 In  segment ABSOLUTE, at 0x61, root
   \   union <unnamed> volatile __io _A_DDRF
   \                     _A_DDRF:
   \   00000000                      DS8 1

   \                                 In  segment ABSOLUTE, at 0x5f, root
   \   union <unnamed> volatile __io _A_SREG
   \                     _A_SREG:
   \   00000000                      DS8 1

   \                                 In  segment ABSOLUTE, at 0x5d, root
   \   union <unnamed> volatile __io _A_SP
   \                     _A_SP:
   \   00000000                      DS8 2

   \                                 In  segment ABSOLUTE, at 0x5c, root
   \   union <unnamed> volatile __io _A_XDIV
   \                     _A_XDIV:
   \   00000000                      DS8 1

   \                                 In  segment ABSOLUTE, at 0x5b, root
   \   union <unnamed> volatile __io _A_RAMPZ
   \                     _A_RAMPZ:
   \   00000000                      DS8 1

   \                                 In  segment ABSOLUTE, at 0x5a, root
   \   union <unnamed> volatile __io _A_EICRB
   \                     _A_EICRB:
   \   00000000                      DS8 1

   \                                 In  segment ABSOLUTE, at 0x59, root
   \   union <unnamed> volatile __io _A_EIMSK
   \                     _A_EIMSK:
   \   00000000                      DS8 1

   \                                 In  segment ABSOLUTE, at 0x58, root
   \   union <unnamed> volatile __io _A_EIFR
   \                     _A_EIFR:
   \   00000000                      DS8 1

   \                                 In  segment ABSOLUTE, at 0x57, root
   \   union <unnamed> volatile __io _A_TIMSK
   \                     _A_TIMSK:
   \   00000000                      DS8 1

   \                                 In  segment ABSOLUTE, at 0x56, root
   \   union <unnamed> volatile __io _A_TIFR
   \                     _A_TIFR:
   \   00000000                      DS8 1

   \                                 In  segment ABSOLUTE, at 0x55, root
   \   union <unnamed> volatile __io _A_MCUCR
   \                     _A_MCUCR:
   \   00000000                      DS8 1

   \                                 In  segment ABSOLUTE, at 0x54, root
   \   union <unnamed> volatile __io _A_MCUCSR
   \                     _A_MCUCSR:
   \   00000000                      DS8 1

   \                                 In  segment ABSOLUTE, at 0x53, root
   \   union <unnamed> volatile __io _A_TCCR0
   \                     _A_TCCR0:
   \   00000000                      DS8 1

   \                                 In  segment ABSOLUTE, at 0x52, root
   \   union <unnamed> volatile __io _A_TCNT0
   \                     _A_TCNT0:
   \   00000000                      DS8 1

   \                                 In  segment ABSOLUTE, at 0x51, root
   \   union <unnamed> volatile __io _A_OCR0
   \                     _A_OCR0:
   \   00000000                      DS8 1

   \                                 In  segment ABSOLUTE, at 0x50, root
   \   union <unnamed> volatile __io _A_ASSR
   \                     _A_ASSR:
   \   00000000                      DS8 1

   \                                 In  segment ABSOLUTE, at 0x4f, root
   \   union <unnamed> volatile __io _A_TCCR1A
   \                     _A_TCCR1A:
   \   00000000                      DS8 1

   \                                 In  segment ABSOLUTE, at 0x4e, root
   \   union <unnamed> volatile __io _A_TCCR1B
   \                     _A_TCCR1B:
   \   00000000                      DS8 1

   \                                 In  segment ABSOLUTE, at 0x4c, root
   \   union <unnamed> volatile __io _A_TCNT1
   \                     _A_TCNT1:
   \   00000000                      DS8 2

   \                                 In  segment ABSOLUTE, at 0x4a, root
   \   union <unnamed> volatile __io _A_OCR1A
   \                     _A_OCR1A:
   \   00000000                      DS8 2

   \                                 In  segment ABSOLUTE, at 0x48, root
   \   union <unnamed> volatile __io _A_OCR1B
   \                     _A_OCR1B:
   \   00000000                      DS8 2

   \                                 In  segment ABSOLUTE, at 0x46, root
   \   union <unnamed> volatile __io _A_ICR1
   \                     _A_ICR1:
   \   00000000                      DS8 2

   \                                 In  segment ABSOLUTE, at 0x45, root
   \   union <unnamed> volatile __io _A_TCCR2
   \                     _A_TCCR2:
   \   00000000                      DS8 1

   \                                 In  segment ABSOLUTE, at 0x44, root
   \   union <unnamed> volatile __io _A_TCNT2
   \                     _A_TCNT2:
   \   00000000                      DS8 1

   \                                 In  segment ABSOLUTE, at 0x43, root
   \   union <unnamed> volatile __io _A_OCR2
   \                     _A_OCR2:
   \   00000000                      DS8 1

   \                                 In  segment ABSOLUTE, at 0x42, root
   \   union <unnamed> volatile __io _A_OCDR
   \                     _A_OCDR:
   \   00000000                      DS8 1

   \                                 In  segment ABSOLUTE, at 0x41, root
   \   union <unnamed> volatile __io _A_WDTCR
   \                     _A_WDTCR:
   \   00000000                      DS8 1

   \                                 In  segment ABSOLUTE, at 0x40, root
   \   union <unnamed> volatile __io _A_SFIOR
   \                     _A_SFIOR:
   \   00000000                      DS8 1

   \                                 In  segment ABSOLUTE, at 0x3e, root
   \   union <unnamed> volatile __io _A_EEAR
   \                     _A_EEAR:
   \   00000000                      DS8 2

   \                                 In  segment ABSOLUTE, at 0x3d, root
   \   union <unnamed> volatile __io _A_EEDR
   \                     _A_EEDR:
   \   00000000                      DS8 1

   \                                 In  segment ABSOLUTE, at 0x3c, root
   \   union <unnamed> volatile __io _A_EECR
   \                     _A_EECR:
   \   00000000                      DS8 1

   \                                 In  segment ABSOLUTE, at 0x3b, root
   \   union <unnamed> volatile __io _A_PORTA
   \                     _A_PORTA:
   \   00000000                      DS8 1

   \                                 In  segment ABSOLUTE, at 0x3a, root
   \   union <unnamed> volatile __io _A_DDRA
   \                     _A_DDRA:
   \   00000000                      DS8 1

   \                                 In  segment ABSOLUTE, at 0x39, root
   \   union <unnamed> volatile __io _A_PINA
   \                     _A_PINA:
   \   00000000                      DS8 1

   \                                 In  segment ABSOLUTE, at 0x38, root
   \   union <unnamed> volatile __io _A_PORTB
   \                     _A_PORTB:
   \   00000000                      DS8 1

   \                                 In  segment ABSOLUTE, at 0x37, root
   \   union <unnamed> volatile __io _A_DDRB
   \                     _A_DDRB:
   \   00000000                      DS8 1

   \                                 In  segment ABSOLUTE, at 0x36, root
   \   union <unnamed> volatile __io _A_PINB
   \                     _A_PINB:
   \   00000000                      DS8 1

   \                                 In  segment ABSOLUTE, at 0x35, root
   \   union <unnamed> volatile __io _A_PORTC
   \                     _A_PORTC:
   \   00000000                      DS8 1

   \                                 In  segment ABSOLUTE, at 0x34, root
   \   union <unnamed> volatile __io _A_DDRC
   \                     _A_DDRC:
   \   00000000                      DS8 1

   \                                 In  segment ABSOLUTE, at 0x33, root
   \   union <unnamed> volatile __io _A_PINC
   \                     _A_PINC:
   \   00000000                      DS8 1

   \                                 In  segment ABSOLUTE, at 0x32, root
   \   union <unnamed> volatile __io _A_PORTD
   \                     _A_PORTD:
   \   00000000                      DS8 1

   \                                 In  segment ABSOLUTE, at 0x31, root
   \   union <unnamed> volatile __io _A_DDRD
   \                     _A_DDRD:
   \   00000000                      DS8 1

   \                                 In  segment ABSOLUTE, at 0x30, root
   \   union <unnamed> volatile __io _A_PIND
   \                     _A_PIND:
   \   00000000                      DS8 1

   \                                 In  segment ABSOLUTE, at 0x2f, root
   \   union <unnamed> volatile __io _A_SPDR
   \                     _A_SPDR:
   \   00000000                      DS8 1

   \                                 In  segment ABSOLUTE, at 0x2e, root
   \   union <unnamed> volatile __io _A_SPSR
   \                     _A_SPSR:
   \   00000000                      DS8 1

   \                                 In  segment ABSOLUTE, at 0x2d, root
   \   union <unnamed> volatile __io _A_SPCR
   \                     _A_SPCR:
   \   00000000                      DS8 1

   \                                 In  segment ABSOLUTE, at 0x2c, root
   \   union <unnamed> volatile __io _A_UDR0
   \                     _A_UDR0:
   \   00000000                      DS8 1

   \                                 In  segment ABSOLUTE, at 0x2b, root
   \   union <unnamed> volatile __io _A_UCSR0A
   \                     _A_UCSR0A:
   \   00000000                      DS8 1

   \                                 In  segment ABSOLUTE, at 0x2a, root
   \   union <unnamed> volatile __io _A_UCSR0B
   \                     _A_UCSR0B:
   \   00000000                      DS8 1

   \                                 In  segment ABSOLUTE, at 0x29, root
   \   union <unnamed> volatile __io _A_UBRR0L
   \                     _A_UBRR0L:
   \   00000000                      DS8 1

   \                                 In  segment ABSOLUTE, at 0x28, root
   \   union <unnamed> volatile __io _A_ACSR
   \                     _A_ACSR:
   \   00000000                      DS8 1

   \                                 In  segment ABSOLUTE, at 0x27, root
   \   union <unnamed> volatile __io _A_ADMUX
   \                     _A_ADMUX:
   \   00000000                      DS8 1

   \                                 In  segment ABSOLUTE, at 0x26, root
   \   union <unnamed> volatile __io _A_ADCSRA
   \                     _A_ADCSRA:
   \   00000000                      DS8 1

   \                                 In  segment ABSOLUTE, at 0x24, root
   \   union <unnamed> volatile __io _A_ADC
   \                     _A_ADC:
   \   00000000                      DS8 2

   \                                 In  segment ABSOLUTE, at 0x23, root
   \   union <unnamed> volatile __io _A_PORTE
   \                     _A_PORTE:
   \   00000000                      DS8 1

   \                                 In  segment ABSOLUTE, at 0x22, root
   \   union <unnamed> volatile __io _A_DDRE
   \                     _A_DDRE:
   \   00000000                      DS8 1

   \                                 In  segment ABSOLUTE, at 0x21, root
   \   union <unnamed> volatile __io _A_PINE
   \                     _A_PINE:
   \   00000000                      DS8 1

   \                                 In  segment ABSOLUTE, at 0x20, root
   \   union <unnamed> volatile __io _A_PINF
   \                     _A_PINF:
   \   00000000                      DS8 1

   \                                 In  segment CODE, align 2, keep-with-next
   \   __version_3 void CEeprom::StartWrite()
   \                     ??StartWrite:
   \   00000000   E000               LDI     R16, 0
   \   00000002   9300....           STS     ??m_bBufferIsWrited, R16
   \   00000006   9AE3               SBI     0x1C, 0x03
   \   00000008   9508               RET
   \   0000000A                      REQUIRE _A_EECR

      static __flash TDataBase CFlash::xMainDataBase;
                               ^
"D:\Projects\CautoProjects\PSS48\PSS48\include\Platform.h",366  Warning[Pe427]: 
          qualified name is not allowed in member declaration

      static __flash TDataBaseBlockPositionData CFlash::axDataBaseBlocksPositionData[];
                                                ^
"D:\Projects\CautoProjects\PSS48\PSS48\include\Platform.h",367  Warning[Pe427]: 
          qualified name is not allowed in member declaration
     10          #include "Platform.h"
     11          #include "Pss21.h"
     12          #include "Crc.h"
     13          #include "HammingCodes.h"
     14          
     15          
     16          // —лужебные данные системы хранени€.

   \                                 In  segment NEAR_Z, align 1, keep-with-next, root
   \   00000000                      REQUIRE `?<Segment init: NEAR_Z>`
     17          CDataStore::TBlocksControlData CDataStore::m_xBlocksControlData;
   \                     ??m_xBlocksControlData:
   \   00000000                      DS8 100
     18          // ћассив контрольных сумм блоков.

   \                                 In  segment NEAR_Z, align 1, keep-with-next, root
   \   00000000                      REQUIRE `?<Segment init: NEAR_Z>`
     19          uint16_t CDataStore::m_auiBlocksCurrentCrc[MAX_BLOCKS_NUMBER];
   \                     ??m_auiBlocksCurrentCrc:
   \   00000000                      DS8 24
     20          uint8_t* CDataStore::m_puiIntermediateBuff;

   \                                 In  segment CODE, align 2, keep-with-next
   \   static __intrinsic __version_3 void __sti__routine()
   \                     ??__sti__routine:
     21          CTimer CDataStore::m_xTimer;
   \   00000000   ....               LDI     R16, LOW((??m_puiIntermediateBuff + 4))
   \   00000002   ....               LDI     R17, HIGH((??m_puiIntermediateBuff + 4))
   \   00000004   ........           JMP     ??CTimer

   \                                 In  segment NEAR_Z, align 1, keep-with-next, root
   \   00000000                      REQUIRE `?<Segment init: NEAR_Z>`
   \                     ??m_puiIntermediateBuff:
   \   00000000                      DS8 2
     22          uint8_t CDataStore::m_uiFsmState;
   \                     ??m_uiFsmState:
   \   00000002                      DS8 1
     23          uint8_t CDataStore::m_uiFsmEvent;
   \                     ??m_uiFsmEvent:
   \   00000003                      DS8 1
   \                     ??m_xTimer:
   \   00000004                      DS8 4
     24          
     25          ////-----------------------------------------------------------------------------------------------------
     26          //CDataStore::CDataStore()
     27          //{
     28          ////    m_pxStorageDevice = new CEeprom();
     29          //    m_puiIntermediateBuff = CPss21::m_auiIntermediateBuff;
     30          //    SetFsmState(IDDLE);
     31          //    SetSavedFsmState(IDDLE);
     32          //}
     33          //
     34          ////-----------------------------------------------------------------------------------------------------
     35          //CDataStore::~CDataStore()
     36          //{
     37          ////    delete m_pxStorageDevice;
     38          //}
     39          
     40          //-----------------------------------------------------------------------------------------------------

   \                                 In  segment CODE, align 2, keep-with-next
     41          void CDataStore::Init(void)
   \                     ??Init:
     42          {
     43              m_puiIntermediateBuff = CPss21::m_auiIntermediateBuff;
   \   00000000   ....               LDI     R30, LOW(??m_puiIntermediateBuff)
   \   00000002   ....               LDI     R31, (??m_puiIntermediateBuff) >> 8
   \   00000004   ....               LDI     R16, LOW(??m_auiIntermediateBuff)
   \   00000006   ....               LDI     R17, (??m_auiIntermediateBuff) >> 8
   \   00000008   ....               RCALL   ?Subroutine10
     44              SetFsmState(IDDLE);
   \                     ??CrossCallReturnLabel_24:
   \   0000000A   E000               LDI     R16, 0
   \   0000000C   8302               STD     Z+2, R16
     45          
     46              // ќчистим служебный контекст.
     47              memset(reinterpret_cast<uint8_t*>(&m_xBlocksControlData),
     48                     0,
     49                     sizeof(m_xBlocksControlData));
   \   0000000E   E644               LDI     R20, 100
   \   00000010   E050               LDI     R21, 0
   \   00000012   E020               LDI     R18, 0
   \   00000014   E030               LDI     R19, 0
   \   00000016   ....               LDI     R16, LOW(??m_xBlocksControlData)
   \   00000018   ....               LDI     R17, (??m_xBlocksControlData) >> 8
   \   0000001A   ........           CALL    memset
     50          
     51              // ”становим смещение на закодированные данные.
     52              m_xBlocksControlData.
     53              axBlockPositionData[BLOCKS_CONTROL_DATA].uiOffset = BLOCKS_CONTROL_DATA_BEGIN;
   \   0000001E   ....               LDI     R30, LOW(??m_xBlocksControlData)
   \   00000020   ....               LDI     R31, (??m_xBlocksControlData) >> 8
   \   00000022   E100               LDI     R16, 16
   \   00000024   E010               LDI     R17, 0
   \   00000026   8304               STD     Z+4, R16
   \   00000028   8315               STD     Z+5, R17
     54              // ”становим размер первичных данных.
     55              m_xBlocksControlData.
     56              axBlockPositionData[BLOCKS_CONTROL_DATA].uiLength = sizeof(struct TBlocksControlData);
   \   0000002A   E604               LDI     R16, 100
   \   0000002C   8306               STD     Z+6, R16
   \   0000002E   8317               STD     Z+7, R17
     57              // ”становим размер закодированных данных.
     58              m_xBlocksControlData.
     59              axBlockPositionData[BLOCKS_CONTROL_DATA].uiEncodedLength = BLOCKS_CONTROL_DATA_LENGTH;
   \   00000030   E909               LDI     R16, 153
   \   00000032   8700               STD     Z+8, R16
   \   00000034   8711               STD     Z+9, R17
     60              // ”становим смещение дл€ служебного контекста.
     61              m_xBlocksControlData.uiFreeSpaceOffset = (BLOCKS_CONTROL_DATA_BEGIN + BLOCKS_CONTROL_DATA_LENGTH);
   \   00000036   EA09               LDI     R16, 169
   \   00000038   8302               STD     Z+2, R16
   \   0000003A   8313               STD     Z+3, R17
     62              // ”становим признак - база данных не подтверждена пользователем.
     63              m_xBlocksControlData.uiCrcOfBlocksCrc = 0;
   \   0000003C   8310               ST      Z, R17
   \   0000003E                      REQUIRE ?Subroutine15
   \   0000003E                      ;               // Fall through to label ?Subroutine15
     64          }

   \                                 In  segment CODE, align 2, keep-with-next
   \                     ?Subroutine15:
   \   00000000   8311               STD     Z+1, R17
   \   00000002   9508               RET

   \                                 In  segment CODE, align 2, keep-with-next
   \                     ?Subroutine10:
   \   00000000   8300               ST      Z, R16
   \   00000002   ....               RJMP    ?Subroutine15
     65          
     66          //-----------------------------------------------------------------------------------------------------

   \                                 In  segment CODE, align 2, keep-with-next
     67          uint8_t CDataStore::Check(void)
   \                     ??Check:
     68          {
   \   00000000   ........           CALL    ?PROLOGUE6_L09
   \   00000004                      REQUIRE ?Register_R4_is_cg_reg
   \   00000004                      REQUIRE ?Register_R5_is_cg_reg
     69              CDataStore::Init();
   \   00000004   ....               RCALL   ??Init
     70          
     71              // —лужебный блок повреждЄн?
     72              if (!(ReadBlock(reinterpret_cast<uint8_t*>(&m_xBlocksControlData), BLOCKS_CONTROL_DATA)))
   \   00000006   E020               LDI     R18, 0
   \   00000008   ....               LDI     R16, LOW(??m_xBlocksControlData)
   \   0000000A   ....               LDI     R17, (??m_xBlocksControlData) >> 8
   \   0000000C   ....               RCALL   ??ReadBlock
   \   0000000E   2B01               OR      R16, R17
   \   00000010   F121               BREQ    ??Check_1
     73              {
     74                  return 0;
     75              }
     76          
     77              enum
     78              {
     79                  IDDLE = 0,
     80                  BLOCK_CHECK_START,
     81                  BLOCK_WRITE_START,
     82                  BLOCK_WRITE_END_WAITING,
     83                  NEXT_BLOCK,
     84                  BLOCK_ERROR,
     85                  ALL_BLOCKS_CHECKED,
     86              };
     87          
     88              uint8_t uiBlockCounter = 0;
   \   00000012   2455               CLR     R5
     89              uint8_t uiFsmState = BLOCK_CHECK_START;
     90              uint16_t uiLength;
     91          
     92              CHammingCodes::SetErrorCode(CHammingCodes::NONE_ERROR);
   \   00000014   9250....           STS     ??m_uiErrorCode_1, R5
   \   00000018   ....               LDI     R26, LOW(??m_puiIntermediateBuff)
   \   0000001A   ....               LDI     R27, (??m_puiIntermediateBuff) >> 8
   \   0000001C   C03A               RJMP    ??Check_2
     93          
     94              while (1)
     95              {
     96                  switch (uiFsmState)
     97                  {
     98                  case BLOCK_CHECK_START:
     99                      // ѕроверены не все блоки?
    100                      if (uiBlockCounter < MAX_BLOCKS_NUMBER)
    101                      {
    102                          uiLength = ReadBlock(m_puiIntermediateBuff, uiBlockCounter);
    103                          // Ѕлок не повреждЄн?
    104                          if (uiLength)
    105                          {
    106                              // Ѕлок восстановлен после обнаружени€ ошибки?
    107                              if (CHammingCodes::GetErrorCode() != CHammingCodes::NONE_ERROR)
    108                              {
    109                                  // ќбновим восстановленный блок в хранилище.
    110                                  uiFsmState = BLOCK_WRITE_START;
    111                              }
    112                              else
    113                              {
    114                                  uiFsmState = NEXT_BLOCK;
    115                              }
    116                          }
    117                          else
    118                          {
    119                              uiFsmState = BLOCK_ERROR;
    120                          }
    121                      }
    122                      else
    123                      {
    124                          uiFsmState = ALL_BLOCKS_CHECKED;
   \                     ??Check_3:
   \   0000001E   E006               LDI     R16, 6
   \   00000020   C018               RJMP    ??Check_4
    125                      }
    126                      break;
    127          
    128                  case BLOCK_WRITE_START:
    129                      // ѕоместим данные в хранилище.
    130                      // Ѕлок Ѕƒ прин€т к записи?
    131                      if (WriteBlock(m_puiIntermediateBuff, uiLength, uiBlockCounter))
   \                     ??Check_5:
   \   00000022   2D45               MOV     R20, R5
   \   00000024   019C               MOVW    R19:R18, R25:R24
   \   00000026   910D               LD      R16, X+
   \   00000028   911C               LD      R17, X
   \   0000002A   9711               SBIW    R27:R26, 1
   \   0000002C   ....               RCALL   ??WriteBlock
   \   0000002E   2300               TST     R16
   \   00000030   F011               BREQ    ??Check_6
    132                      {
    133                          uiFsmState = BLOCK_WRITE_END_WAITING;
   \   00000032   E003               LDI     R16, 3
   \   00000034   C00E               RJMP    ??Check_4
    134                      }
    135                      // ѕри записи блока Ѕƒ произошла ошибка?
    136                      else if (CDataStore::GetFsmEvent() == CDataStore::WRITE_ERROR_FSM_EVENT)
   \                     ??Check_6:
   \   00000036   9100....           LDS     R16, (??m_puiIntermediateBuff + 3)
   \   0000003A   3004               CPI     R16, 4
   \   0000003C   F499               BRNE    ??Check_7
   \   0000003E   C008               RJMP    ??Check_8
    137                      {
    138                          uiFsmState = BLOCK_ERROR;
    139                      }
    140                      break;
    141          
    142                  case BLOCK_WRITE_END_WAITING:
    143                      // Ѕлок записан успешно?
    144                      if (CDataStore::GetFsmEvent() == CDataStore::WRITE_OK_FSM_EVENT)
   \                     ??Check_9:
   \   00000040   9100....           LDS     R16, (??m_puiIntermediateBuff + 3)
   \   00000044   3003               CPI     R16, 3
   \   00000046   F411               BRNE    ??Check_10
    145                      {
    146                          uiFsmState = NEXT_BLOCK;
   \                     ??Check_11:
   \   00000048   E004               LDI     R16, 4
   \   0000004A   C003               RJMP    ??Check_4
    147                      }
    148                      // ѕри записи блока Ѕƒ произошла ошибка?
    149                      else if (CDataStore::GetFsmEvent() == CDataStore::WRITE_ERROR_FSM_EVENT)
   \                     ??Check_10:
   \   0000004C   3004               CPI     R16, 4
   \   0000004E   F451               BRNE    ??Check_7
    150                      {
    151                          uiFsmState = BLOCK_ERROR;
   \                     ??Check_8:
   \   00000050   E005               LDI     R16, 5
   \                     ??Check_4:
   \   00000052   2E40               MOV     R4, R16
   \   00000054   C007               RJMP    ??Check_7
    152                      }
    153                      break;
    154          
    155                  case NEXT_BLOCK:
    156                      uiBlockCounter++;
    157                      uiFsmState = BLOCK_CHECK_START;
    158                      break;
    159          
    160                  case ALL_BLOCKS_CHECKED:
    161                      // данные не повреждены.
    162                      return 1;
   \                     ??Check_12:
   \   00000056   E001               LDI     R16, 1
   \                     ??Check_13:
   \   00000058   ....               RJMP    ?Subroutine16
    163                      break;
    164          
    165                  case BLOCK_ERROR:
    166                      return 0;
   \                     ??Check_1:
   \   0000005A   E000               LDI     R16, 0
   \   0000005C   CFFD               RJMP    ??Check_13
   \                     ??Check_14:
   \   0000005E   9453               INC     R5
   \   00000060   2444               CLR     R4
   \   00000062   9443               INC     R4
    167                      break;
    168          
    169                  default:
    170                      break;
    171                  }
    172          
    173                  CDataStore::Fsm();
   \                     ??Check_7:
   \   00000064   ....               RCALL   ??Fsm
    174          
    175                  delay_ms(10);
   \   00000066   E00A               LDI     R16, 10
   \   00000068   E010               LDI     R17, 0
   \   0000006A   ........           CALL    ??delay_ms
    176          
    177                  CPlatform::WatchdogReset();
   \   0000006E   95A8               WDR
   \   00000070   2D04               MOV     R16, R4
   \   00000072   950A               DEC     R16
   \   00000074   F059               BREQ    ??Check_15
   \   00000076   950A               DEC     R16
   \   00000078   F2A1               BREQ    ??Check_5
   \   0000007A   950A               DEC     R16
   \   0000007C   F309               BREQ    ??Check_9
   \   0000007E   950A               DEC     R16
   \   00000080   F371               BREQ    ??Check_14
   \   00000082   950A               DEC     R16
   \   00000084   F351               BREQ    ??Check_1
   \   00000086   950A               DEC     R16
   \   00000088   F331               BREQ    ??Check_12
   \   0000008A   CFEC               RJMP    ??Check_7
   \                     ??Check_15:
   \   0000008C   E00C               LDI     R16, 12
   \   0000008E   1650               CP      R5, R16
   \   00000090   F630               BRCC    ??Check_3
   \                     ??Check_2:
   \   00000092   2D25               MOV     R18, R5
   \   00000094   910D               LD      R16, X+
   \   00000096   911C               LD      R17, X
   \   00000098   9711               SBIW    R27:R26, 1
   \   0000009A   ....               RCALL   ??ReadBlock
   \   0000009C   01C8               MOVW    R25:R24, R17:R16
   \   0000009E   2B01               OR      R16, R17
   \   000000A0   F2B9               BREQ    ??Check_8
   \   000000A2   9100....           LDS     R16, ??m_uiErrorCode_1
   \   000000A6   2300               TST     R16
   \   000000A8   F279               BREQ    ??Check_11
   \   000000AA   E002               LDI     R16, 2
   \   000000AC   CFD2               RJMP    ??Check_4
    178              }
    179          }

   \                                 In  segment CODE, align 2, keep-with-next
   \                     ?Subroutine16:
   \   00000000   E0E6               LDI     R30, 6
   \   00000002   ........           JMP     ?EPILOGUE_B6_L09
    180          
    181          //-----------------------------------------------------------------------------------------------------

   \                                 In  segment CODE, align 2, keep-with-next
    182          uint16_t CDataStore::ReadBlock(uint8_t *puiDestination, uint8_t uiBlock)
   \                     ??ReadBlock:
    183          {
   \   00000000   ........           CALL    ?PROLOGUE7_L09
   \   00000004                      REQUIRE ?Register_R4_is_cg_reg
   \   00000004                      REQUIRE ?Register_R5_is_cg_reg
   \   00000004                      REQUIRE ?Register_R6_is_cg_reg
   \   00000004   95DA               DEC     R29
   \   00000006   0128               MOVW    R5:R4, R17:R16
   \   00000008   2E62               MOV     R6, R18
    184              // ѕроизошЄл выход за границы буфера?
    185              if (uiBlock >= MAX_BLOCKS_NUMBER)
   \   0000000A   302C               CPI     R18, 12
   \   0000000C   F5E8               BRCC    ??ReadBlock_1
    186              {
    187                  // Ќет данных.
    188                  return 0;
    189              }
    190          
    191              uint16_t uiDecodedByteCounter;
    192              uint16_t uiEncodedLength;
    193              uint16_t uiSourseOffset;
    194              uint8_t auiTempArray[256];
    195          
    196              // Ѕлок существует?
    197              if ((m_xBlocksControlData.
    198                      axBlockPositionData[uiBlock].uiOffset != 0) &&
    199                      (m_xBlocksControlData.
    200                       axBlockPositionData[uiBlock].uiEncodedLength != 0))
   \   0000000E   E008               LDI     R16, 8
   \   00000010   9E60               MUL     R6, R16
   \   00000012   ....               RCALL   ?Subroutine4
   \                     ??CrossCallReturnLabel_6:
   \   00000014   8104               LDD     R16, Z+4
   \   00000016   8115               LDD     R17, Z+5
   \   00000018   2B01               OR      R16, R17
   \   0000001A   F1B1               BREQ    ??ReadBlock_1
   \   0000001C   8580               LDD     R24, Z+8
   \   0000001E   8591               LDD     R25, Z+9
   \   00000020   2F08               MOV     R16, R24
   \   00000022   2B09               OR      R16, R25
   \   00000024   F189               BREQ    ??ReadBlock_1
    201              {
    202                  // ѕолучим адрес блока в EEPROM.
    203                  uiSourseOffset = m_xBlocksControlData.
    204                                   axBlockPositionData[uiBlock].uiOffset;
    205                  // ѕолучим размер блока.
    206                  uiEncodedLength = m_xBlocksControlData.
    207                                    axBlockPositionData[uiBlock].uiEncodedLength;
    208              }
    209              else
    210              {
    211                  // Ќет данных.
    212                  return 0;
    213              }
    214          
    215              // ѕрочитаем закодированные данные.
    216              CEeprom::Read(auiTempArray, uiSourseOffset, uiEncodedLength);
   \   00000026   01AC               MOVW    R21:R20, R25:R24
   \   00000028   8124               LDD     R18, Z+4
   \   0000002A   2F31               MOV     R19, R17
   \   0000002C   018E               MOVW    R17:R16, R29:R28
   \   0000002E   ........           CALL    ??Read
    217          
    218              // ƒекодируем прочитанные данные.
    219              uiDecodedByteCounter = CHammingCodes::HammingCodesToBytes(auiTempArray, auiTempArray, uiEncodedLength);
   \   00000032   01AC               MOVW    R21:R20, R25:R24
   \   00000034   019E               MOVW    R19:R18, R29:R28
   \   00000036   018E               MOVW    R17:R16, R29:R28
   \   00000038   ........           CALL    ??HammingCodesToBytes
   \   0000003C   01C8               MOVW    R25:R24, R17:R16
    220              // —лишком короткий блок?
    221              // ћинимум 3 байта 1 - данные и 2 - Crc.
    222              if (uiDecodedByteCounter <= CRC_LENGTH)
   \   0000003E   3003               CPI     R16, 3
   \   00000040   4010               SBCI    R17, 0
   \   00000042   F0F8               BRCS    ??ReadBlock_2
    223              {
    224                  CPss21::SetErrorCode(DB_ERROR);
    225                  // Ќет данных.
    226                  return 0;
    227              }
    228          
    229              // ѕолучим длину блока.
    230              uiDecodedByteCounter -= CRC_LENGTH;
   \   00000044   9702               SBIW    R25:R24, 2
    231              // –азмер блока не совпадает?
    232              if (uiDecodedByteCounter !=
    233                      m_xBlocksControlData.
    234                      axBlockPositionData[uiBlock].uiLength)
   \   00000046   01FD               MOVW    R31:R30, R27:R26
   \   00000048   8106               LDD     R16, Z+6
   \   0000004A   8117               LDD     R17, Z+7
   \   0000004C   1780               CP      R24, R16
   \   0000004E   0791               CPC     R25, R17
   \   00000050   F4C1               BRNE    ??ReadBlock_2
    235              {
    236                  CPss21::SetErrorCode(DB_ERROR);
    237                  // Ќет данных.
    238                  return 0;
    239              }
    240          
    241              // ѕолучим контрольную сумму блока.
    242              uint16_t uiCrc = static_cast<uint16_t>(auiTempArray[uiDecodedByteCounter]);
    243              uiCrc |= (static_cast<uint16_t>(auiTempArray[uiDecodedByteCounter + 1]) << 8);
   \   00000052   01FE               MOVW    R31:R30, R29:R28
   \   00000054   0FE8               ADD     R30, R24
   \   00000056   1FF9               ADC     R31, R25
   \   00000058   81A0               LD      R26, Z
   \   0000005A   81B1               LDD     R27, Z+1
    244              // ¬ычислим контрольную сумму блока.
    245              uint16_t uiCalculatedCrc = usCrc16(auiTempArray, uiDecodedByteCounter);
    246          
    247              // Ѕлок не повреждЄн?
    248              if (uiCrc == uiCalculatedCrc)
   \   0000005C   019C               MOVW    R19:R18, R25:R24
   \   0000005E   ....               RCALL   ?Subroutine11
   \                     ??CrossCallReturnLabel_20:
   \   00000060   17A0               CP      R26, R16
   \   00000062   07B1               CPC     R27, R17
   \   00000064   F471               BRNE    ??ReadBlock_2
    249              {
    250                  m_auiBlocksCurrentCrc[uiBlock] = uiCrc;
   \   00000066   E002               LDI     R16, 2
   \   00000068   9E60               MUL     R6, R16
   \   0000006A   01F0               MOVW    R31:R30, R1:R0
   \   0000006C   ....               SUBI    R30, LOW((-(??m_auiBlocksCurrentCrc) & 0xFFFF))
   \   0000006E   ....               SBCI    R31, (-(??m_auiBlocksCurrentCrc) & 0xFFFF) >> 8
   \   00000070   83A0               ST      Z, R26
   \   00000072   83B1               STD     Z+1, R27
    251                  memcpy(puiDestination, auiTempArray, uiDecodedByteCounter);
   \   00000074   01AC               MOVW    R21:R20, R25:R24
   \   00000076   019E               MOVW    R19:R18, R29:R28
   \   00000078   0182               MOVW    R17:R16, R5:R4
   \   0000007A   ........           CALL    memcpy
    252                  return uiDecodedByteCounter;
   \   0000007E   018C               MOVW    R17:R16, R25:R24
   \   00000080   C005               RJMP    ??ReadBlock_3
    253              }
    254              else
    255              {
    256                  CPss21::SetErrorCode(DB_ERROR);
   \                     ??ReadBlock_2:
   \   00000082   E004               LDI     R16, 4
   \   00000084   9300....           STS     ??m_uiErrorCode, R16
    257                  // Ќет данных.
    258                  return 0;
   \                     ??ReadBlock_1:
   \   00000088   E000               LDI     R16, 0
   \   0000008A   E010               LDI     R17, 0
   \                     ??ReadBlock_3:
   \   0000008C   95D3               INC     R29
   \   0000008E   E0E7               LDI     R30, 7
   \   00000090   ........           JMP     ?EPILOGUE_B7_L09
    259              }
    260          }

   \                                 In  segment CODE, align 2, keep-with-next
   \                     ?Subroutine4:
   \   00000000   ....               LDI     R26, LOW(??m_xBlocksControlData)
   \   00000002   ....               LDI     R27, (??m_xBlocksControlData) >> 8
   \   00000004   0DA0               ADD     R26, R0
   \   00000006   1DB1               ADC     R27, R1
   \   00000008   01FD               MOVW    R31:R30, R27:R26
   \   0000000A   9508               RET

   \                                 In  segment CODE, align 2, keep-with-next
   \                     ?Subroutine11:
   \   00000000   018E               MOVW    R17:R16, R29:R28
   \   00000002   ........           JMP     ??usCrc16
    261          
    262          //-----------------------------------------------------------------------------------------------------

   \                                 In  segment CODE, align 2, keep-with-next
    263          uint16_t CDataStore::Write(uint8_t *puiSourse, uint16_t uiLength, uint8_t uiBlock)
   \                     ??Write:
    264          {
   \   00000000   ........           CALL    ?PROLOGUE6_L09
   \   00000004                      REQUIRE ?Register_R4_is_cg_reg
   \   00000004                      REQUIRE ?Register_R5_is_cg_reg
   \   00000004   95DA               DEC     R29
   \   00000006   01D8               MOVW    R27:R26, R17:R16
   \   00000008   01C9               MOVW    R25:R24, R19:R18
   \   0000000A   2E44               MOV     R4, R20
    265              // ѕроизошЄл выход за границы буфера?
    266              if (uiBlock >= MAX_BLOCKS_NUMBER)
   \   0000000C   304C               CPI     R20, 12
   \   0000000E   F018               BRCS    ??Write_1
    267              {
    268                  // Ќет данных.
    269                  return 0;
   \   00000010   E000               LDI     R16, 0
   \   00000012   E010               LDI     R17, 0
   \   00000014   C03B               RJMP    ??Write_2
    270              }
    271          
    272              uint16_t uiEncodedByteCounter;
    273              uint8_t auiTempArray[256];
    274          
    275              memcpy(auiTempArray, puiSourse, uiLength);
   \                     ??Write_1:
   \   00000016   01A9               MOVW    R21:R20, R19:R18
   \   00000018   0198               MOVW    R19:R18, R17:R16
   \   0000001A   018E               MOVW    R17:R16, R29:R28
   \   0000001C   ........           CALL    memcpy
    276              // ¬ычислим контрольную сумму поступивших данных.
    277              uint16_t uiCrc = usCrc16(puiSourse, uiLength);
   \   00000020   019C               MOVW    R19:R18, R25:R24
   \   00000022   018D               MOVW    R17:R16, R27:R26
   \   00000024   ........           CALL    ??usCrc16
    278              auiTempArray[uiLength] = static_cast<uint8_t>(uiCrc);
   \   00000028   01FE               MOVW    R31:R30, R29:R28
   \   0000002A   0FE8               ADD     R30, R24
   \   0000002C   1FF9               ADC     R31, R25
   \   0000002E   ....               RCALL   ?Subroutine10
    279              auiTempArray[uiLength + 1] = static_cast<uint8_t>(uiCrc >> 8);
    280          
    281              m_xBlocksControlData.
    282              axBlockPositionData[uiBlock].uiCrc = uiCrc;
   \                     ??CrossCallReturnLabel_23:
   \   00000030   E028               LDI     R18, 8
   \   00000032   9E42               MUL     R4, R18
   \   00000034   ....               RCALL   ?Subroutine4
   \                     ??CrossCallReturnLabel_7:
   \   00000036   8702               STD     Z+10, R16
   \   00000038   8713               STD     Z+11, R17
    283          
    284              uiEncodedByteCounter = CHammingCodes::BytesToHammingCodes(m_puiIntermediateBuff, auiTempArray, (uiLength + CRC_LENGTH));
   \   0000003A   01AC               MOVW    R21:R20, R25:R24
   \   0000003C   5F4E               SUBI    R20, 254
   \   0000003E   4F5F               SBCI    R21, 255
   \   00000040   019E               MOVW    R19:R18, R29:R28
   \   00000042   ....               LDI     R30, LOW(??m_puiIntermediateBuff)
   \   00000044   ....               LDI     R31, (??m_puiIntermediateBuff) >> 8
   \   00000046   8100               LD      R16, Z
   \   00000048   8111               LDD     R17, Z+1
   \   0000004A   ........           CALL    ??BytesToHammingCodes
   \   0000004E   0128               MOVW    R5:R4, R17:R16
    285          
    286              // ƒанные текущего блока данных - uiBlock сохран€ютс€ впервые?
    287              if (m_xBlocksControlData.
    288                      axBlockPositionData[uiBlock].uiEncodedLength == 0)
   \   00000050   01FD               MOVW    R31:R30, R27:R26
   \   00000052   8500               LDD     R16, Z+8
   \   00000054   8511               LDD     R17, Z+9
   \   00000056   2B01               OR      R16, R17
   \   00000058   F471               BRNE    ??Write_3
    289              {
    290                  // ƒобавили новый блок данных.
    291                  // —охраним смещение на блок.
    292                  m_xBlocksControlData.
    293                  axBlockPositionData[uiBlock].uiOffset = m_xBlocksControlData.uiFreeSpaceOffset;
   \   0000005A   ....               RCALL   ?Subroutine6
   \                     ??CrossCallReturnLabel_10:
   \   0000005C   01FD               MOVW    R31:R30, R27:R26
   \   0000005E   8304               STD     Z+4, R16
   \   00000060   8315               STD     Z+5, R17
    294                  // »зменим смещение на свободное место.
    295                  m_xBlocksControlData.uiFreeSpaceOffset += uiEncodedByteCounter;
   \   00000062   ....               RCALL   ?Subroutine6
   \                     ??CrossCallReturnLabel_11:
   \   00000064   0D04               ADD     R16, R4
   \   00000066   1D15               ADC     R17, R5
   \   00000068   8302               STD     Z+2, R16
   \   0000006A   8313               STD     Z+3, R17
    296                  // —охраним размер первичных данных.
    297                  m_xBlocksControlData.
    298                  axBlockPositionData[uiBlock].uiLength = uiLength;
   \   0000006C   01FD               MOVW    R31:R30, R27:R26
   \   0000006E   8386               STD     Z+6, R24
   \   00000070   8397               STD     Z+7, R25
    299                  // —охраним размер закодированных данных.
    300                  m_xBlocksControlData.
    301                  axBlockPositionData[uiBlock].uiEncodedLength = uiEncodedByteCounter;
   \   00000072   8640               STD     Z+8, R4
   \   00000074   8651               STD     Z+9, R5
    302              }
    303          
    304              CEeprom::WriteInterrupt(m_xBlocksControlData.
    305                                      axBlockPositionData[uiBlock].uiOffset,
    306                                      m_puiIntermediateBuff,
    307                                      uiEncodedByteCounter);
   \                     ??Write_3:
   \   00000076   01A2               MOVW    R21:R20, R5:R4
   \   00000078   ....               LDI     R30, LOW(??m_puiIntermediateBuff)
   \   0000007A   ....               LDI     R31, (??m_puiIntermediateBuff) >> 8
   \   0000007C   8120               LD      R18, Z
   \   0000007E   8131               LDD     R19, Z+1
   \   00000080   01FD               MOVW    R31:R30, R27:R26
   \   00000082   8104               LDD     R16, Z+4
   \   00000084   8115               LDD     R17, Z+5
   \   00000086   ........           CALL    ??WriteInterrupt
    308          
    309              // Out length.
    310              return uiEncodedByteCounter;
   \   0000008A   0182               MOVW    R17:R16, R5:R4
   \                     ??Write_2:
   \   0000008C   95D3               INC     R29
   \   0000008E                      REQUIRE ?Subroutine16
   \   0000008E                      ;               // Fall through to label ?Subroutine16
    311          }

   \                                 In  segment CODE, align 2, keep-with-next
   \                     ?Subroutine6:
   \   00000000   ....               LDI     R30, LOW(??m_xBlocksControlData)
   \   00000002   ....               LDI     R31, (??m_xBlocksControlData) >> 8
   \   00000004   8102               LDD     R16, Z+2
   \   00000006   8113               LDD     R17, Z+3
   \   00000008   9508               RET
    312          
    313          //-----------------------------------------------------------------------------------------------------

   \                                 In  segment CODE, align 2, keep-with-next
   \                     ?Subroutine14:
   \   00000000   9300....           STS     (??m_puiIntermediateBuff + 2), R16
   \   00000004   9508               RET

   \                                 In  segment CODE, align 2, keep-with-next
    314          bool CDataStore::WriteBlock(uint8_t *puiSourse, uint16_t uiLength, uint8_t uiBlock)
   \                     ??WriteBlock:
    315          {
   \   00000000   9150....           LDS     R21, (??m_puiIntermediateBuff + 2)
   \   00000004   2355               TST     R21
   \   00000006   F449               BRNE    ??WriteBlock_1
    316              if (GetFsmState() == IDDLE)
    317              {
    318                  if (Write(puiSourse,
    319                            uiLength,
    320                            uiBlock))
   \   00000008   ....               RCALL   ??Write
   \   0000000A   2B01               OR      R16, R17
   \   0000000C   F021               BREQ    ??WriteBlock_2
    321                  {
    322                      SetFsmEvent(WRITE_IN_PROGRESS_FSM_EVENT);
   \   0000000E   E001               LDI     R16, 1
   \   00000010   9300....           STS     (??m_puiIntermediateBuff + 3), R16
    323                      SetFsmState(START_WRITE);
   \   00000014   ....               RJMP    ?Subroutine14
    324                      return true;
    325                  }
    326                  else
    327                  {
    328                      SetFsmEvent(WRITE_ERROR_FSM_EVENT);
   \                     ??WriteBlock_2:
   \   00000016   E004               LDI     R16, 4
   \   00000018   C001               RJMP    ??WriteBlock_3
    329                      return false;
    330                  }
    331              }
    332              else
    333              {
    334                  SetFsmEvent(STORAGE_DEVICE_BUSY_FSM_EVENT);
   \                     ??WriteBlock_1:
   \   0000001A   E002               LDI     R16, 2
    335                  return false;
    336              }
   \                     ??WriteBlock_3:
   \   0000001C                      REQUIRE ?Subroutine8
   \   0000001C                      ;               // Fall through to label ?Subroutine8
    337          }

   \                                 In  segment CODE, align 2, keep-with-next
   \                     ?Subroutine8:
   \   00000000   9300....           STS     (??m_puiIntermediateBuff + 3), R16
   \   00000004   E000               LDI     R16, 0
   \   00000006   9508               RET
    338          
    339          //-----------------------------------------------------------------------------------------------------

   \                                 In  segment CODE, align 2, keep-with-next
    340          bool CDataStore::CompareCurrentWithStoredCrc(void)
   \                     ??CompareCurrentWithStoredCrc:
    341          {
   \   00000000   2F39               MOV     R19, R25
   \   00000002   2E08               MOV     R0, R24
    342              // —равним текущее Crc блока с его Crc сохранЄнном в служебном блоке в предыдущей сессии записи.
    343              for (uint16_t i = BLOCKS_CONTROL_DATA_BLOCK_NUMBER;
   \   00000004   E081               LDI     R24, 1
   \   00000006   E090               LDI     R25, 0
   \   00000008   E02A               LDI     R18, 10
    344                      i < (MAX_BLOCKS_NUMBER - BLOCKS_CONTROL_DATA_BLOCK_NUMBER);
    345                      i++)
    346              {
    347                  if (m_auiBlocksCurrentCrc[i] !=
    348                          m_xBlocksControlData.axBlockPositionData[i].uiCrc)
   \                     ??CompareCurrentWithStoredCrc_1:
   \   0000000A   018C               MOVW    R17:R16, R25:R24
   \   0000000C   0F00               LSL     R16
   \   0000000E   1F11               ROL     R17
   \   00000010   01F8               MOVW    R31:R30, R17:R16
   \   00000012   ....               SUBI    R30, LOW((-(??m_auiBlocksCurrentCrc) & 0xFFFF))
   \   00000014   ....               SBCI    R31, (-(??m_auiBlocksCurrentCrc) & 0xFFFF) >> 8
   \   00000016   8160               LD      R22, Z
   \   00000018   8171               LDD     R23, Z+1
   \   0000001A   ....               RCALL   ?Subroutine12
   \                     ??CrossCallReturnLabel_21:
   \   0000001C   8502               LDD     R16, Z+10
   \   0000001E   8513               LDD     R17, Z+11
   \   00000020   1760               CP      R22, R16
   \   00000022   0771               CPC     R23, R17
   \   00000024   F011               BREQ    ??CompareCurrentWithStoredCrc_2
    349                  {
    350                      return false;
   \   00000026   E000               LDI     R16, 0
   \   00000028   C004               RJMP    ??CompareCurrentWithStoredCrc_3
    351                  }
    352              }
   \                     ??CompareCurrentWithStoredCrc_2:
   \   0000002A   9601               ADIW    R25:R24, 1
   \   0000002C   952A               DEC     R18
   \   0000002E   F769               BRNE    ??CompareCurrentWithStoredCrc_1
    353          
    354              // ¬се блоки принадлежат текущей базе данных.
    355              return true;
   \   00000030   E001               LDI     R16, 1
   \                     ??CompareCurrentWithStoredCrc_3:
   \   00000032   2D80               MOV     R24, R0
   \   00000034   2F93               MOV     R25, R19
   \   00000036   9508               RET
    356          }

   \                                 In  segment CODE, align 2, keep-with-next
   \                     ?Subroutine12:
   \   00000000   E043               LDI     R20, 3
   \   00000002   018C               MOVW    R17:R16, R25:R24
   \   00000004   ........           CALL    ?S_SHL_L02
   \   00000008   01F8               MOVW    R31:R30, R17:R16
   \   0000000A   ....               SUBI    R30, LOW((-(??m_xBlocksControlData) & 0xFFFF))
   \   0000000C   ....               SBCI    R31, (-(??m_xBlocksControlData) & 0xFFFF) >> 8
   \   0000000E   9508               RET
    357          
    358          //-----------------------------------------------------------------------------------------------------
    359          // ¬ызываетс€ только если база данных подтверждена пользователем.

   \                                 In  segment CODE, align 2, keep-with-next
    360          void CDataStore::CrcOfBlocksCrcCreate(void)
   \                     ??CrcOfBlocksCrcCreate:
    361          {
   \   00000000   ....               RCALL   ?Subroutine7
    362              //  онтрольна€ сумма вычисленна€ из массива контрольных сумм блоков, не включа€ служебный.
    363              // —охран€етс€ при первой и последующих запис€х любых блоков через программатор.
    364              // Ќоль или еЄ несовпадение свидетельствует о том, что база данных создана по умоланию,
    365              // и не подтверждена пользователем. ¬ этом случае прибор переходит в режим сигнализации об ошибке,
    366              // ожида€ квитировани€ или записи базы данных.
    367              uint16_t auiBlocksCrc[MAX_BLOCKS_NUMBER - BLOCKS_CONTROL_DATA_BLOCK_NUMBER];
    368          
    369              // ѕолучим Crc всех блоков, не включа€ служебный.
    370              for (uint16_t i = 0;
    371                      i < (MAX_BLOCKS_NUMBER - BLOCKS_CONTROL_DATA_BLOCK_NUMBER);
    372                      i++)
    373              {
    374                  auiBlocksCrc[i] =
    375                      m_xBlocksControlData.axBlockPositionData[i + BLOCKS_CONTROL_DATA_BLOCK_NUMBER].uiCrc;
   \                     ??CrossCallReturnLabel_12:
   \   00000002   ....               RCALL   ?Subroutine5
    376              }
   \                     ??CrossCallReturnLabel_8:
   \   00000004   F7F1               BRNE    ??CrossCallReturnLabel_12
    377          
    378              // —охраним Crc всех блоков, не включа€ служебный.
    379              m_xBlocksControlData.uiCrcOfBlocksCrc =
    380                  usCrc16(reinterpret_cast<uint8_t*>(auiBlocksCrc),
    381                          ((MAX_BLOCKS_NUMBER - BLOCKS_CONTROL_DATA_BLOCK_NUMBER) * sizeof(uint16_t)));
   \   00000006   ....               RCALL   ?Subroutine2
   \                     ??CrossCallReturnLabel_2:
   \   00000008   ....               RCALL   ?Subroutine10
    382          
    383          }
   \                     ??CrossCallReturnLabel_25:
   \   0000000A                      REQUIRE ?Subroutine13
   \   0000000A                      ;               // Fall through to label ?Subroutine13

   \                                 In  segment CODE, align 2, keep-with-next
   \                     ?Subroutine13:
   \   00000000   9666               ADIW    R29:R28, 22
   \   00000002   9189               LD      R24, Y+
   \   00000004   9199               LD      R25, Y+
   \   00000006   9508               RET

   \                                 In  segment CODE, align 2, keep-with-next
   \                     ?Subroutine7:
   \   00000000   939A               ST      -Y, R25
   \   00000002   938A               ST      -Y, R24
   \   00000004   9766               SBIW    R29:R28, 22
   \   00000006   E080               LDI     R24, 0
   \   00000008   E090               LDI     R25, 0
   \   0000000A   E02B               LDI     R18, 11
   \   0000000C   9508               RET

   \                                 In  segment CODE, align 2, keep-with-next
   \                     ?Subroutine5:
   \   00000000   ....               RCALL   ?Subroutine12
   \                     ??CrossCallReturnLabel_22:
   \   00000002   8902               LDD     R16, Z+18
   \   00000004   8913               LDD     R17, Z+19
   \   00000006   01FE               MOVW    R31:R30, R29:R28
   \   00000008   01AC               MOVW    R21:R20, R25:R24
   \   0000000A   0F44               LSL     R20
   \   0000000C   1F55               ROL     R21
   \   0000000E   0FE4               ADD     R30, R20
   \   00000010   1FF5               ADC     R31, R21
   \   00000012   ....               RCALL   ?Subroutine10
   \                     ??CrossCallReturnLabel_26:
   \   00000014   9601               ADIW    R25:R24, 1
   \   00000016   952A               DEC     R18
   \   00000018   9508               RET

   \                                 In  segment CODE, align 2, keep-with-next
   \                     ?Subroutine2:
   \   00000000   E126               LDI     R18, 22
   \   00000002   E030               LDI     R19, 0
   \   00000004   ....               RCALL   ?Subroutine11
   \                     ??CrossCallReturnLabel_19:
   \   00000006   ....               LDI     R30, LOW(??m_xBlocksControlData)
   \   00000008   ....               LDI     R31, (??m_xBlocksControlData) >> 8
   \   0000000A   9508               RET
    384          
    385          //-----------------------------------------------------------------------------------------------------

   \                                 In  segment CODE, align 2, keep-with-next
    386          bool CDataStore::CrcOfBlocksCrcCheck(void)
   \                     ??CrcOfBlocksCrcCheck:
    387          {
   \   00000000   ....               RCALL   ?Subroutine7
    388              //  онтрольна€ сумма вычисленна€ из массива контрольных сумм блоков, не включа€ служебный.
    389              // —охран€етс€ при первой и последующих запис€х любых блоков через программатор.
    390              // Ќоль или еЄ несовпадение свидетельствует о том, что база данных создана по умоланию,
    391              // и не подтверждена пользователем. ¬ этом случае прибор переходит в режим сигнализации об ошибке,
    392              // ожида€ квитировани€ или записи базы данных.
    393              uint16_t auiBlocksCrc[MAX_BLOCKS_NUMBER - BLOCKS_CONTROL_DATA_BLOCK_NUMBER];
    394          
    395              // ѕолучим Crc всех блоков, не включа€ служебный.
    396              for (uint16_t i = 0;
    397                      i < (MAX_BLOCKS_NUMBER - BLOCKS_CONTROL_DATA_BLOCK_NUMBER);
    398                      i++)
    399              {
    400                  auiBlocksCrc[i] =
    401                      m_xBlocksControlData.axBlockPositionData[i + BLOCKS_CONTROL_DATA_BLOCK_NUMBER].uiCrc;
   \                     ??CrossCallReturnLabel_13:
   \   00000002   ....               RCALL   ?Subroutine5
    402              }
   \                     ??CrossCallReturnLabel_9:
   \   00000004   F7F1               BRNE    ??CrossCallReturnLabel_13
    403          
    404              // Crc из Crc всех блоков совпадает с сохранЄнным в служебном блоке?
    405              if (m_xBlocksControlData.uiCrcOfBlocksCrc ==
    406                      usCrc16(reinterpret_cast<uint8_t*>(auiBlocksCrc),
    407                              ((MAX_BLOCKS_NUMBER - BLOCKS_CONTROL_DATA_BLOCK_NUMBER) * sizeof(uint16_t))))
   \   00000006   ....               RCALL   ?Subroutine2
   \                     ??CrossCallReturnLabel_3:
   \   00000008   8120               LD      R18, Z
   \   0000000A   8131               LDD     R19, Z+1
   \   0000000C   1720               CP      R18, R16
   \   0000000E   0731               CPC     R19, R17
   \   00000010   F411               BRNE    ??CrcOfBlocksCrcCheck_1
    408              {
    409                  return true;
   \   00000012   E001               LDI     R16, 1
   \   00000014   C001               RJMP    ??CrcOfBlocksCrcCheck_2
    410              }
    411              else
    412              {
    413                  return false;
   \                     ??CrcOfBlocksCrcCheck_1:
   \   00000016   E000               LDI     R16, 0
    414              }
   \                     ??CrcOfBlocksCrcCheck_2:
   \   00000018   ....               RJMP    ?Subroutine13
    415          }
    416          
    417          //-----------------------------------------------------------------------------------------------------

   \                                 In  segment CODE, align 2, keep-with-next
    418          void CDataStore::Fsm(void)
   \                     ??Fsm:
    419          {
   \   00000000   9100....           LDS     R16, (??m_puiIntermediateBuff + 2)
   \   00000004   950A               DEC     R16
   \   00000006   F059               BREQ    ??Fsm_1
   \   00000008   950A               DEC     R16
   \   0000000A   F061               BREQ    ??Fsm_2
   \   0000000C   950A               DEC     R16
   \   0000000E   F079               BREQ    ??Fsm_3
   \   00000010   950A               DEC     R16
   \   00000012   F0C1               BREQ    ??Fsm_4
   \   00000014   950A               DEC     R16
   \   00000016   F109               BREQ    ??Fsm_5
   \   00000018   950A               DEC     R16
   \   0000001A   F121               BREQ    ??Fsm_6
   \   0000001C   9508               RET
    420              switch (GetFsmState())
    421              {
    422              case IDDLE:
    423                  break;
    424          
    425              case START_WRITE:
    426                  // ”становим врем€ ожидани€ готовности к записи.
    427                  GetTimerPointer() -> Set(READY_TO_WRITE_WAITING_TIMEOUT);
   \                     ??Fsm_1:
   \   0000001E   ....               RCALL   ?Subroutine1
    428                  SetFsmState(READY_TO_WRITE_WAITING);
   \                     ??CrossCallReturnLabel_17:
   \   00000020   E002               LDI     R16, 2
   \   00000022   C00F               RJMP    ??CrossCallReturnLabel_14
    429                  break;
    430          
    431              case READY_TO_WRITE_WAITING:
    432                  if (CEeprom::IsReadyToWrite())
   \                     ??Fsm_2:
   \   00000024   99E1               SBIC    0x1C, 0x01
   \   00000026   C009               RJMP    ??Fsm_7
    433                  {
    434                      // ”становим врем€ ожидани€ окончани€ записи записи.
    435                      GetTimerPointer() -> Set(WRITE_END_WAITING_TIMEOUT);
    436                      CEeprom::StartWrite();
    437                      SetFsmState(WRITE_END_WAITING);
    438                  }
    439                  // ¬рем€ ожидани€ готовности к записи закончилось?
    440                  else if (GetTimerPointer() -> IsOverflow())
   \   00000028   ....               RCALL   ?Subroutine0
   \                     ??CrossCallReturnLabel_1:
   \   0000002A   E003               LDI     R16, 3
   \   0000002C   C00A               RJMP    ??CrossCallReturnLabel_14
    441                  {
    442                      SetFsmEvent(WRITE_ERROR_FSM_EVENT);
    443                      SetFsmState(IDDLE);
    444                  }
    445                  break;
    446          
    447              case WRITE_END_WAITING:
    448                  if (CEeprom::GetBufferIsWrited())
   \                     ??Fsm_3:
   \   0000002E   9100....           LDS     R16, ??m_bBufferIsWrited
   \   00000032   2300               TST     R16
   \   00000034   F011               BREQ    ??Fsm_7
    449                  {
    450                      SetFsmState(START_WRITE_BLOCKS_CONTROL_DATA);
   \   00000036   E004               LDI     R16, 4
   \   00000038   C004               RJMP    ??CrossCallReturnLabel_14
    451                  }
    452                  // ¬рем€ ожидани€ окончани€ записи закончилось?
    453                  else if (GetTimerPointer() -> IsOverflow())
   \                     ??Fsm_7:
   \   0000003A   ....               RCALL   ?Subroutine3
   \                     ??CrossCallReturnLabel_4:
   \   0000003C   F0F9               BREQ    ??Fsm_8
    454                  {
    455                      SetFsmEvent(WRITE_ERROR_FSM_EVENT);
   \                     ??Fsm_9:
   \   0000003E   E004               LDI     R16, 4
    456                      SetFsmState(IDDLE);
    457                  }
   \                     ??Fsm_10:
   \   00000040   ....               RCALL   ?Subroutine8
   \                     ??CrossCallReturnLabel_14:
   \   00000042   ....               RJMP    ?Subroutine14
    458                  break;
    459          
    460          
    461                  // «апись служеьного блока.
    462              case START_WRITE_BLOCKS_CONTROL_DATA:
    463                  // ƒанные обновлены.
    464                  // —охраним изменЄнный служебный контекст.
    465                  if (Write(reinterpret_cast<uint8_t*>(&m_xBlocksControlData),
    466                            sizeof(m_xBlocksControlData),
    467                            BLOCKS_CONTROL_DATA))
   \                     ??Fsm_4:
   \   00000044   E040               LDI     R20, 0
   \   00000046   E624               LDI     R18, 100
   \   00000048   E030               LDI     R19, 0
   \   0000004A   ....               LDI     R16, LOW(??m_xBlocksControlData)
   \   0000004C   ....               LDI     R17, (??m_xBlocksControlData) >> 8
   \   0000004E   ....               RCALL   ??Write
   \   00000050   2B01               OR      R16, R17
   \   00000052   F3A9               BREQ    ??Fsm_9
    468                  {
    469                      // ”становим врем€ ожидани€ готовности к записи.
    470                      GetTimerPointer() -> Set(READY_TO_WRITE_WAITING_TIMEOUT);
   \   00000054   ....               RCALL   ?Subroutine1
    471                      SetFsmState(READY_TO_WRITE_WAITING_BLOCKS_CONTROL_DATA);
   \                     ??CrossCallReturnLabel_18:
   \   00000056   E005               LDI     R16, 5
   \   00000058   CFF4               RJMP    ??CrossCallReturnLabel_14
    472                  }
    473                  else
    474                  {
    475                      SetFsmEvent(WRITE_ERROR_FSM_EVENT);
    476                      SetFsmState(IDDLE);
    477                  }
    478                  break;
    479          
    480              case READY_TO_WRITE_WAITING_BLOCKS_CONTROL_DATA:
    481                  if (CEeprom::IsReadyToWrite())
   \                     ??Fsm_5:
   \   0000005A   99E1               SBIC    0x1C, 0x01
   \   0000005C   CFEE               RJMP    ??Fsm_7
    482                  {
    483                      // ”становим врем€ ожидани€ окончани€ записи.
    484                      GetTimerPointer() -> Set(WRITE_END_WAITING_TIMEOUT);
    485                      CEeprom::StartWrite();
    486                      SetFsmState(WRITE_END_WAITING_BLOCKS_CONTROL_DATA);
    487                  }
    488                  // ¬рем€ ожидани€ готовности к записи закончилось?
    489                  else if (GetTimerPointer() -> IsOverflow())
   \   0000005E   ....               RCALL   ?Subroutine0
   \                     ??CrossCallReturnLabel_0:
   \   00000060   E006               LDI     R16, 6
   \   00000062   CFEF               RJMP    ??CrossCallReturnLabel_14
    490                  {
    491                      SetFsmEvent(WRITE_ERROR_FSM_EVENT);
    492                      SetFsmState(IDDLE);
    493                  }
    494                  break;
    495          
    496              case WRITE_END_WAITING_BLOCKS_CONTROL_DATA:
    497                  if (CEeprom::GetBufferIsWrited())
   \                     ??Fsm_6:
   \   00000064   9100....           LDS     R16, ??m_bBufferIsWrited
   \   00000068   2300               TST     R16
   \   0000006A   F011               BREQ    ??Fsm_11
    498                  {
    499                      SetFsmEvent(WRITE_OK_FSM_EVENT);
   \   0000006C   E003               LDI     R16, 3
   \   0000006E   CFE8               RJMP    ??Fsm_10
    500                      SetFsmState(IDDLE);
    501                  }
    502                  // ¬рем€ ожидани€ окончани€ записи закончилось?
    503                  else if (GetTimerPointer() -> IsOverflow())
   \                     ??Fsm_11:
   \   00000070   ....               RCALL   ?Subroutine3
   \                     ??CrossCallReturnLabel_5:
   \   00000072   F021               BREQ    ??Fsm_8
    504                  {
    505                      SetFsmEvent(WRITE_ERROR_FSM_EVENT);
   \   00000074   E004               LDI     R16, 4
   \   00000076   ....               RCALL   ?Subroutine8
   \                     ??CrossCallReturnLabel_15:
   \   00000078   9300....           STS     (??m_puiIntermediateBuff + 2), R16
    506                      SetFsmState(IDDLE);
    507                  }
    508                  break;
    509          
    510              default:
    511                  break;
    512              }
    513          }
   \                     ??Fsm_8:
   \   0000007C   9508               RET
   \   0000007E                      REQUIRE _A_EECR

   \                                 In  segment CODE, align 2, keep-with-next
   \                     ?Subroutine3:
   \   00000000   ....               LDI     R16, LOW((??m_puiIntermediateBuff + 4))
   \   00000002   ....               LDI     R17, HIGH((??m_puiIntermediateBuff + 4))
   \   00000004   ........           CALL    ??IsOverflow
   \   00000008   2300               TST     R16
   \   0000000A   9508               RET

   \                                 In  segment CODE, align 2, keep-with-next
   \                     ?Subroutine1:
   \   00000000   EC28               LDI     R18, 200
   \   00000002   E030               LDI     R19, 0
   \   00000004                      REQUIRE ?Subroutine9
   \   00000004                      ;               // Fall through to label ?Subroutine9

   \                                 In  segment CODE, align 2, keep-with-next
   \                     ?Subroutine9:
   \   00000000   ....               LDI     R16, LOW((??m_puiIntermediateBuff + 4))
   \   00000002   ....               LDI     R17, HIGH((??m_puiIntermediateBuff + 4))
   \   00000004   ........           JMP     ??Set

   \                                 In  segment CODE, align 2, keep-with-next
   \                     ?Subroutine0:
   \   00000000   E120               LDI     R18, 16
   \   00000002   E237               LDI     R19, 39
   \   00000004   ....               RCALL   ?Subroutine9
   \                     ??CrossCallReturnLabel_16:
   \   00000006   ........           JMP     ??StartWrite
    514          
    515          //-----------------------------------------------------------------------------------------------------
    516          
    517          
    518          
    519          
    520          
    521          
    522          
    523          
    524          //-----------------------------------------------------------------------------------------------------

   \                                 In  segment CODE, align 2, keep-with-next
    525          uint16_t CDataStore::ReadBlockFlash(uint8_t *puiDestination, uint8_t uiBlock)
   \                     ??ReadBlockFlash:
    526          {
    527              return CFlash::ReadBlock(puiDestination, uiBlock);
   \   00000000   ........           JMP     ??ReadBlock_4
    528          }

   \                                 In  segment DIFUNCT, align 1, keep-with-next, root
   \   00000000                      REQUIRE ?call_ctors
   \   00000000   ....               DW      ??__sti__routine/2

   Maximum stack usage in bytes:

   CSTACK RSTACK Function
   ------ ------ --------
      6      2   CDataStore::Check()
        6      2   -> CDataStore::Fsm()
        6      2   -> CDataStore::Init()
        6      2   -> CDataStore::ReadBlock(uint8_t *, uint8_t)
        6      2   -> CDataStore::WriteBlock(uint8_t *, uint16_t, uint8_t)
        6      2   -> delay_ms(uint16_t)
      0      2   CDataStore::CompareCurrentWithStoredCrc()
        0      4 ?S_SHL_L02
     24      2   CDataStore::CrcOfBlocksCrcCheck()
       24      4   -> usCrc16(unsigned char const *, uint16_t)
       24      6 ?S_SHL_L02
     24      2   CDataStore::CrcOfBlocksCrcCreate()
       24      4   -> usCrc16(unsigned char const *, uint16_t)
       24      6 ?S_SHL_L02
      0      2   CDataStore::Fsm()
        0      2   -> CDataStore::Write(uint8_t *, uint16_t, uint8_t)
        0      2   -> CEeprom::StartWrite()
        0      4   -> CTimer::IsOverflow()
        0      2   -> CTimer::Set(uint16_t)
        0      4   -> CTimer::Set(uint16_t)
      0      2   CDataStore::Init()
        0      2   -> memset
    263      2   CDataStore::ReadBlock(uint8_t *, uint8_t)
      263      2   -> CEeprom::Read(uint8_t *, uint16_t, uint16_t)
      263      2   -> CHammingCodes::HammingCodesToBytes(uint8_t *, uint8_t *, uint16_t)
      263      2   -> memcpy
      263      2   -> usCrc16(unsigned char const *, uint16_t)
      0      2   CDataStore::ReadBlockFlash(uint8_t *, uint8_t)
        0      2   -> CFlash::ReadBlock(uint8_t *, uint8_t)
    262      2   CDataStore::Write(uint8_t *, uint16_t, uint8_t)
      262      2   -> CEeprom::WriteInterrupt(uint16_t, uint8_t *, uint16_t)
      262      2   -> CHammingCodes::BytesToHammingCodes(uint8_t *, uint8_t *, uint16_t)
      262      2   -> memcpy
      262      2   -> usCrc16(unsigned char const *, uint16_t)
      0      2   CDataStore::WriteBlock(uint8_t *, uint16_t, uint8_t)
        0      2   -> CDataStore::Write(uint8_t *, uint16_t, uint8_t)
      0      2   CEeprom::StartWrite()
      0      2   __sti__routine()
        0      2   -> CTimer::CTimer()


   Segment part sizes:

   Bytes  Function/Label
   -----  --------------
      10  ?Subroutine0
       4  ?Subroutine1
       4  ?Subroutine10
       6  ?Subroutine11
      16  ?Subroutine12
       8  ?Subroutine13
       6  ?Subroutine14
       4  ?Subroutine15
       6  ?Subroutine16
      12  ?Subroutine2
      12  ?Subroutine3
      12  ?Subroutine4
      26  ?Subroutine5
      10  ?Subroutine6
      14  ?Subroutine7
       8  ?Subroutine8
       8  ?Subroutine9
     174  CDataStore::Check()
      56  CDataStore::CompareCurrentWithStoredCrc()
      26  CDataStore::CrcOfBlocksCrcCheck()
      10  CDataStore::CrcOfBlocksCrcCreate()
     126  CDataStore::Fsm()
      62  CDataStore::Init()
     148  CDataStore::ReadBlock(uint8_t *, uint8_t)
       4  CDataStore::ReadBlockFlash(uint8_t *, uint8_t)
     142  CDataStore::Write(uint8_t *, uint16_t, uint8_t)
      28  CDataStore::WriteBlock(uint8_t *, uint16_t, uint8_t)
      24  CDataStore::m_auiBlocksCurrentCrc
       8  CDataStore::m_puiIntermediateBuff
          CDataStore::m_uiFsmState
          CDataStore::m_uiFsmEvent
          CDataStore::m_xTimer
     100  CDataStore::m_xBlocksControlData
      10  CEeprom::StartWrite()
       1  _A_ACSR
       2  _A_ADC
       1  _A_ADCSRA
       1  _A_ADMUX
       1  _A_ASSR
       1  _A_DDRA
       1  _A_DDRB
       1  _A_DDRC
       1  _A_DDRD
       1  _A_DDRE
       1  _A_DDRF
       1  _A_DDRG
       2  _A_EEAR
       1  _A_EECR
       1  _A_EEDR
       1  _A_EICRA
       1  _A_EICRB
       1  _A_EIFR
       1  _A_EIMSK
       1  _A_ETIFR
       1  _A_ETIMSK
       2  _A_ICR1
       2  _A_ICR3
       1  _A_MCUCR
       1  _A_MCUCSR
       1  _A_OCDR
       1  _A_OCR0
       2  _A_OCR1A
       2  _A_OCR1B
       2  _A_OCR1C
       1  _A_OCR2
       2  _A_OCR3A
       2  _A_OCR3B
       2  _A_OCR3C
       1  _A_OSCCAL
       1  _A_PINA
       1  _A_PINB
       1  _A_PINC
       1  _A_PIND
       1  _A_PINE
       1  _A_PINF
       1  _A_PING
       1  _A_PORTA
       1  _A_PORTB
       1  _A_PORTC
       1  _A_PORTD
       1  _A_PORTE
       1  _A_PORTF
       1  _A_PORTG
       1  _A_RAMPZ
       1  _A_SFIOR
       2  _A_SP
       1  _A_SPCR
       1  _A_SPDR
       1  _A_SPMCSR
       1  _A_SPSR
       1  _A_SREG
       1  _A_TCCR0
       1  _A_TCCR1A
       1  _A_TCCR1B
       1  _A_TCCR1C
       1  _A_TCCR2
       1  _A_TCCR3A
       1  _A_TCCR3B
       1  _A_TCCR3C
       1  _A_TCNT0
       2  _A_TCNT1
       1  _A_TCNT2
       2  _A_TCNT3
       1  _A_TIFR
       1  _A_TIMSK
       1  _A_TWAR
       1  _A_TWBR
       1  _A_TWCR
       1  _A_TWDR
       1  _A_TWSR
       1  _A_UBRR0H
       1  _A_UBRR0L
       1  _A_UBRR1H
       1  _A_UBRR1L
       1  _A_UCSR0A
       1  _A_UCSR0B
       1  _A_UCSR0C
       1  _A_UCSR1A
       1  _A_UCSR1B
       1  _A_UCSR1C
       1  _A_UDR0
       1  _A_UDR1
       1  _A_WDTCR
       1  _A_XDIV
       1  _A_XMCRA
       1  _A_XMCRB
       8  __sti__routine()
      13  -- Other

 
 105 bytes in segment ABSOLUTE
 960 bytes in segment CODE
   2 bytes in segment DIFUNCT
   7 bytes in segment INITTAB
   4 bytes in segment NEAR_F
 132 bytes in segment NEAR_Z
 
 956 bytes of CODE memory (+  17 bytes shared)
 132 bytes of DATA memory (+ 105 bytes shared)

Errors: none
Warnings: 2
