###############################################################################
#
# IAR C/C++ Compiler V7.10.6.1378 for Atmel AVR           09/Aug/2022  02:57:04
# Copyright 1996-2018 IAR Systems AB.
#
#    Source file  =  D:\Projects\CautoProjects\PSS48\PSS48\src\HammingCodes.cpp
#    Command line =  
#        -f C:\Users\ghost\AppData\Local\Temp\EWD592.tmp
#        (--string_literals_in_flash
#        D:\Projects\CautoProjects\PSS48\PSS48\src\HammingCodes.cpp --cpu=m128a
#        -ms -o D:\Projects\CautoProjects\PSS48\PSS48\Debug\Obj -lC
#        D:\Projects\CautoProjects\PSS48\PSS48\Debug\List -lB
#        D:\Projects\CautoProjects\PSS48\PSS48\Debug\List -y
#        --initializers_in_flash --root_variables --no_cse --no_inline
#        --no_code_motion --no_cross_call --no_clustering --no_tbaa --debug
#        -DENABLE_BIT_DEFINITIONS -e -I
#        D:\Projects\CautoProjects\PSS48\PSS48\include\ -I
#        D:\Projects\CautoProjects\PSS48\PSS48\Modbus\ --eeprom_size 4096
#        --dlib --dlib_config "C:\Program Files (x86)\IAR Systems\Embedded
#        Workbench 8.0\avr\LIB\DLIB\dlAVR-3s-ec_mul-n.h" -On --eec++)
#    Locale       =  Russian_RUS.1251
#    List file    =  
#        D:\Projects\CautoProjects\PSS48\PSS48\Debug\List\HammingCodes.lst
#    Object file  =  
#        D:\Projects\CautoProjects\PSS48\PSS48\Debug\Obj\HammingCodes.r90
#
###############################################################################

D:\Projects\CautoProjects\PSS48\PSS48\src\HammingCodes.cpp
      1          
      2          //-----------------------------------------------------------------------------------------------------
      3          //  Based on    : https://github.com/Minho-Cha/8bit-Hamming-Code
      4          //  Sourse      : FileName.cpp
      5          //  Created     : 01.06.2022
      6          //  Author      : Alexandr Volvenkin
      7          //  email       : aav-36@mail.ru
      8          //  GitHub      : https://github.com/AlexandrVolvenkin
      9          //-----------------------------------------------------------------------------------------------------
     10          #include "HammingCodes.h"
     11          #include "Crc.h"
     12          
     13          //-----------------------------------------------------------------------------------------------------

   \                                 In  segment NEAR_Z, align 1, keep-with-next, root
   \   00000000                      REQUIRE `?<Segment init: NEAR_Z>`
     14          uint8_t CHammingCodes::m_uiErrorCode;
   \                     ??m_uiErrorCode:
   \   00000000                      DS8 1
     15          
     16          //-----------------------------------------------------------------------------------------------------

   \                                 In  segment CODE, align 2, keep-with-next
     17          CHammingCodes::CHammingCodes()
   \                     ??CHammingCodes:
     18          {
   \   00000000   ....               LDI     R18, LOW(??__vtbl)
   \   00000002   ....               LDI     R19, (??__vtbl) >> 8
   \   00000004   01F8               MOVW    R31:R30, R17:R16
   \   00000006   8320               ST      Z, R18
   \   00000008   8331               STD     Z+1, R19
     19              //ctor
     20          }
   \   0000000A   9508               RET
     21          
     22          //-----------------------------------------------------------------------------------------------------

   \                                 In  segment CODE, align 2, keep-with-next
     23          CHammingCodes::~CHammingCodes()
   \                     `?~CHammingCodes`:
     24          {
   \   00000000   939A               ST      -Y, R25
   \   00000002   938A               ST      -Y, R24
   \   00000004   01C8               MOVW    R25:R24, R17:R16
   \   00000006   2F08               MOV     R16, R24
   \   00000008   2B09               OR      R16, R25
   \   0000000A   F029               BREQ    `?~CHammingCodes_1`
   \   0000000C   FB20               BST     R18, 0
   \   0000000E   F41E               BRTC    `?~CHammingCodes_1`
     25              //dtor
     26          }
   \   00000010   018C               MOVW    R17:R16, R25:R24
   \   00000012   ........           CALL    `??operator delete`
   \                     `?~CHammingCodes_1`:
   \   00000016   9189               LD      R24, Y+
   \   00000018   9199               LD      R25, Y+
   \   0000001A   9508               RET
     27          
     28          //-----------------------------------------------------------------------------------------------------

   \                                 In  segment CODE, align 2, keep-with-next
     29          uint8_t CHammingCodes::getEvenParityforTx(uint8_t data) //?? ???
   \                     ??getEvenParityforTx:
     30          {
   \   00000000   2F20               MOV     R18, R16
     31              uint8_t parity = 0;
   \   00000002   E030               LDI     R19, 0
     32              for (int i = 0; i < 8; i++)
   \   00000004   E0E0               LDI     R30, 0
   \   00000006   E0F0               LDI     R31, 0
   \                     ??getEvenParityforTx_1:
   \   00000008   30E8               CPI     R30, 8
   \   0000000A   E000               LDI     R16, 0
   \   0000000C   07F0               CPC     R31, R16
   \   0000000E   F44C               BRGE    ??getEvenParityforTx_2
     33              {
     34                  parity ^= (data >> i) & 0x01;
   \   00000010   2F02               MOV     R16, R18
   \   00000012   E010               LDI     R17, 0
   \   00000014   2F4E               MOV     R20, R30
   \   00000016   ........           CALL    ?SS_SHR_L02
   \   0000001A   7001               ANDI    R16, 0x01
   \   0000001C   2730               EOR     R19, R16
     35              }
   \   0000001E   9631               ADIW    R31:R30, 1
   \   00000020   CFF3               RJMP    ??getEvenParityforTx_1
     36          
     37              return !parity;
   \                     ??getEvenParityforTx_2:
   \   00000022   2333               TST     R19
   \   00000024   F411               BRNE    ??getEvenParityforTx_3
   \   00000026   E001               LDI     R16, 1
   \   00000028   9508               RET
   \                     ??getEvenParityforTx_3:
   \   0000002A   E000               LDI     R16, 0
   \   0000002C   9508               RET
     38          }
     39          
     40          //-----------------------------------------------------------------------------------------------------

   \                                 In  segment CODE, align 2, keep-with-next
     41          uint8_t CHammingCodes::getEvenParityforRx(uint16_t data) //?? ???
   \                     ??getEvenParityforRx:
     42          {
   \   00000000   0198               MOVW    R19:R18, R17:R16
     43              uint8_t parity = 0;
   \   00000002   E050               LDI     R21, 0
     44              for (int i = 0; i < 12; i++)
   \   00000004   E0E0               LDI     R30, 0
   \   00000006   E0F0               LDI     R31, 0
   \                     ??getEvenParityforRx_1:
   \   00000008   30EC               CPI     R30, 12
   \   0000000A   E000               LDI     R16, 0
   \   0000000C   07F0               CPC     R31, R16
   \   0000000E   F444               BRGE    ??getEvenParityforRx_2
     45              {
     46                  parity ^= (data >> i) & 0x01;
   \   00000010   2F4E               MOV     R20, R30
   \   00000012   0189               MOVW    R17:R16, R19:R18
   \   00000014   ........           CALL    ?US_SHR_L02
   \   00000018   7001               ANDI    R16, 0x01
   \   0000001A   2750               EOR     R21, R16
     47              }
   \   0000001C   9631               ADIW    R31:R30, 1
   \   0000001E   CFF4               RJMP    ??getEvenParityforRx_1
     48          
     49              return !parity;
   \                     ??getEvenParityforRx_2:
   \   00000020   2355               TST     R21
   \   00000022   F411               BRNE    ??getEvenParityforRx_3
   \   00000024   E001               LDI     R16, 1
   \   00000026   9508               RET
   \                     ??getEvenParityforRx_3:
   \   00000028   E000               LDI     R16, 0
   \   0000002A   9508               RET
     50          }
     51          
     52          //-----------------------------------------------------------------------------------------------------
     53          // Get Hamming code

   \                                 In  segment CODE, align 2, keep-with-next
     54          uint16_t CHammingCodes::enHamming(uint8_t data)
   \                     ??enHamming:
     55          {
   \   00000000   2F50               MOV     R21, R16
     56              uint16_t hamming = 0;
   \   00000002   E060               LDI     R22, 0
   \   00000004   E070               LDI     R23, 0
     57          
     58              // Set Data
     59              hamming = (data & BLOCK2) << BLOCK2_SHIFT;  //0b1111 0000 0000
   \   00000006   E100               LDI     R16, 16
   \   00000008   9F50               MUL     R21, R16
   \   0000000A   E000               LDI     R16, 0
   \   0000000C   2200               AND     R0, R16
   \   0000000E   E00F               LDI     R16, 15
   \   00000010   2210               AND     R1, R16
   \   00000012   01B0               MOVW    R23:R22, R1:R0
     60              hamming |= (data & BLOCK1) << BLOCK1_SHIFT;  //0b0000 0111 0000
   \   00000014   E008               LDI     R16, 8
   \   00000016   9F50               MUL     R21, R16
   \   00000018   E700               LDI     R16, 112
   \   0000001A   2200               AND     R0, R16
   \   0000001C   E000               LDI     R16, 0
   \   0000001E   2210               AND     R1, R16
   \   00000020   2960               OR      R22, R0
   \   00000022   2971               OR      R23, R1
     61              hamming |= (data & BLOCK0) << BLOCK0_SHIFT;  //0b0000 0000 0100
   \   00000024   2F05               MOV     R16, R21
   \   00000026   7001               ANDI    R16, 0x01
   \   00000028   E014               LDI     R17, 4
   \   0000002A   9F01               MUL     R16, R17
   \   0000002C   2960               OR      R22, R0
   \   0000002E   2971               OR      R23, R1
     62          
     63              // Set Parity
     64              hamming |= getEvenParityforTx(data & P3_POSI_8) << P3_BIT; // 0b1111 0000
   \   00000030   2F05               MOV     R16, R21
   \   00000032   7F00               ANDI    R16, 0xF0
   \   00000034   ....               RCALL   ??getEvenParityforTx
   \   00000036   E810               LDI     R17, 128
   \   00000038   9F01               MUL     R16, R17
   \   0000003A   2960               OR      R22, R0
   \   0000003C   2971               OR      R23, R1
     65              hamming |= getEvenParityforTx(data & P2_POSI_8) << P2_BIT; // 0b1000 1110
   \   0000003E   2F05               MOV     R16, R21
   \   00000040   780E               ANDI    R16, 0x8E
   \   00000042   ....               RCALL   ??getEvenParityforTx
   \   00000044   E018               LDI     R17, 8
   \   00000046   9F01               MUL     R16, R17
   \   00000048   2960               OR      R22, R0
   \   0000004A   2971               OR      R23, R1
     66              hamming |= getEvenParityforTx(data & P1_POSI_8) << P1_BIT; // 0b0110 1101
   \   0000004C   2F05               MOV     R16, R21
   \   0000004E   760D               ANDI    R16, 0x6D
   \   00000050   ....               RCALL   ??getEvenParityforTx
   \   00000052   E012               LDI     R17, 2
   \   00000054   9F01               MUL     R16, R17
   \   00000056   2960               OR      R22, R0
   \   00000058   2971               OR      R23, R1
     67              hamming |= getEvenParityforTx(data & P0_POSI_8) << P0_BIT; // 0b0101 1011
   \   0000005A   2F05               MOV     R16, R21
   \   0000005C   750B               ANDI    R16, 0x5B
   \   0000005E   ....               RCALL   ??getEvenParityforTx
   \   00000060   E010               LDI     R17, 0
   \   00000062   2B60               OR      R22, R16
   \   00000064   2B71               OR      R23, R17
     68          
     69              return hamming;
   \   00000066   018B               MOVW    R17:R16, R23:R22
   \   00000068   9508               RET
     70          }
     71          
     72          //-----------------------------------------------------------------------------------------------------

   \                                 In  segment CODE, align 2, keep-with-next
     73          uint8_t CHammingCodes::findHammingError(uint16_t hamming)
   \                     ??findHammingError:
     74          {
   \   00000000   0108               MOVW    R1:R0, R17:R16
     75              uint8_t errCode = 0;
   \   00000002   E060               LDI     R22, 0
     76          
     77              errCode  = ((getEvenParityforRx(hamming & P3_POSI_12)) != ((hamming >> P3_BIT) & 0x0001)) << 3;
   \   00000004   0180               MOVW    R17:R16, R1:R0
   \   00000006   7000               ANDI    R16, 0x00
   \   00000008   701F               ANDI    R17, 0x0F
   \   0000000A   ....               RCALL   ??getEvenParityforRx
   \   0000000C   2D10               MOV     R17, R0
   \   0000000E   FB17               BST     R17, 7
   \   00000010   E010               LDI     R17, 0
   \   00000012   F910               BLD     R17, 0
   \   00000014   1701               CP      R16, R17
   \   00000016   F011               BREQ    ??findHammingError_1
   \   00000018   E061               LDI     R22, 1
   \   0000001A   C001               RJMP    ??findHammingError_2
   \                     ??findHammingError_1:
   \   0000001C   E060               LDI     R22, 0
   \                     ??findHammingError_2:
   \   0000001E   0F66               LSL     R22
   \   00000020   0F66               LSL     R22
   \   00000022   0F66               LSL     R22
     78              errCode |= ((getEvenParityforRx(hamming & P2_POSI_12)) != ((hamming >> P2_BIT) & 0x0001)) << 2;
   \   00000024   0180               MOVW    R17:R16, R1:R0
   \   00000026   7700               ANDI    R16, 0x70
   \   00000028   7018               ANDI    R17, 0x08
   \   0000002A   ....               RCALL   ??getEvenParityforRx
   \   0000002C   2D10               MOV     R17, R0
   \   0000002E   FB13               BST     R17, 3
   \   00000030   E010               LDI     R17, 0
   \   00000032   F910               BLD     R17, 0
   \   00000034   1701               CP      R16, R17
   \   00000036   F011               BREQ    ??findHammingError_3
   \   00000038   E001               LDI     R16, 1
   \   0000003A   C001               RJMP    ??findHammingError_4
   \                     ??findHammingError_3:
   \   0000003C   E000               LDI     R16, 0
   \                     ??findHammingError_4:
   \   0000003E   0F00               LSL     R16
   \   00000040   0F00               LSL     R16
   \   00000042   2B60               OR      R22, R16
     79              errCode |= ((getEvenParityforRx(hamming & P1_POSI_12)) != ((hamming >> P1_BIT) & 0x0001)) << 1;
   \   00000044   0180               MOVW    R17:R16, R1:R0
   \   00000046   7604               ANDI    R16, 0x64
   \   00000048   7016               ANDI    R17, 0x06
   \   0000004A   ....               RCALL   ??getEvenParityforRx
   \   0000004C   2D10               MOV     R17, R0
   \   0000004E   FB11               BST     R17, 1
   \   00000050   E010               LDI     R17, 0
   \   00000052   F910               BLD     R17, 0
   \   00000054   1701               CP      R16, R17
   \   00000056   F011               BREQ    ??findHammingError_5
   \   00000058   E001               LDI     R16, 1
   \   0000005A   C001               RJMP    ??findHammingError_6
   \                     ??findHammingError_5:
   \   0000005C   E000               LDI     R16, 0
   \                     ??findHammingError_6:
   \   0000005E   0F00               LSL     R16
   \   00000060   2B60               OR      R22, R16
     80              errCode |= ((getEvenParityforRx(hamming & P0_POSI_12)) != ((hamming >> P0_BIT) & 0x0001)) << 0;
   \   00000062   0180               MOVW    R17:R16, R1:R0
   \   00000064   7504               ANDI    R16, 0x54
   \   00000066   7015               ANDI    R17, 0x05
   \   00000068   ....               RCALL   ??getEvenParityforRx
   \   0000006A   2D10               MOV     R17, R0
   \   0000006C   7011               ANDI    R17, 0x01
   \   0000006E   1701               CP      R16, R17
   \   00000070   F011               BREQ    ??findHammingError_7
   \   00000072   E001               LDI     R16, 1
   \   00000074   C001               RJMP    ??findHammingError_8
   \                     ??findHammingError_7:
   \   00000076   E000               LDI     R16, 0
   \                     ??findHammingError_8:
   \   00000078   2B60               OR      R22, R16
     81          
     82              return errCode;
   \   0000007A   2F06               MOV     R16, R22
   \   0000007C   9508               RET
     83          }
     84          
     85          //-----------------------------------------------------------------------------------------------------

   \                                 In  segment CODE, align 2, keep-with-next
     86          uint16_t CHammingCodes::fixError(uint16_t hammingData, uint8_t errorCode)
   \                     ??fixError:
     87          {
   \   00000000   01B8               MOVW    R23:R22, R17:R16
     88              if (errorCode == NONE_ERROR)
   \   00000002   2322               TST     R18
   \   00000004   F411               BRNE    ??fixError_1
     89              {
     90                  return hammingData;
   \   00000006   018B               MOVW    R17:R16, R23:R22
   \   00000008   9508               RET
     91              }
     92              else
     93              {
     94                  m_uiErrorCode = errorCode;
   \                     ??fixError_1:
   \   0000000A   9320....           STS     ??m_uiErrorCode, R18
     95                  return hammingData ^ (1 << (errorCode - 1));
   \   0000000E   952A               DEC     R18
   \   00000010   E001               LDI     R16, 1
   \   00000012   E010               LDI     R17, 0
   \   00000014   2F42               MOV     R20, R18
   \   00000016   ........           CALL    ?S_SHL_L02
   \   0000001A   2760               EOR     R22, R16
   \   0000001C   2771               EOR     R23, R17
   \   0000001E   018B               MOVW    R17:R16, R23:R22
   \   00000020   9508               RET
     96              }
     97          
     98          }
     99          
    100          //-----------------------------------------------------------------------------------------------------

   \                                 In  segment CODE, align 2, keep-with-next
    101          uint8_t CHammingCodes::deHamming(uint16_t hammingData)
   \                     ??deHamming:
    102          {
   \   00000000   01B8               MOVW    R23:R22, R17:R16
    103              uint8_t data = 0;
   \   00000002   E020               LDI     R18, 0
    104          
    105              data = (hammingData >> BLOCK2_SHIFT) & BLOCK2;
   \   00000004   E044               LDI     R20, 4
   \   00000006   018B               MOVW    R17:R16, R23:R22
   \   00000008   ........           CALL    ?US_SHR_L02
   \   0000000C   7F00               ANDI    R16, 0xF0
   \   0000000E   2F20               MOV     R18, R16
    106              data |= (hammingData >> BLOCK1_SHIFT) & BLOCK1;
   \   00000010   2F06               MOV     R16, R22
   \   00000012   9506               LSR     R16
   \   00000014   9506               LSR     R16
   \   00000016   9506               LSR     R16
   \   00000018   700E               ANDI    R16, 0x0E
   \   0000001A   2B20               OR      R18, R16
    107              data |= (hammingData >> BLOCK0_SHIFT) & BLOCK0;
   \   0000001C   2F06               MOV     R16, R22
   \   0000001E   FB02               BST     R16, 2
   \   00000020   E000               LDI     R16, 0
   \   00000022   F900               BLD     R16, 0
   \   00000024   2B20               OR      R18, R16
    108          
    109              return data;
   \   00000026   2F02               MOV     R16, R18
   \   00000028   9508               RET
    110          }
    111          
    112          //-----------------------------------------------------------------------------------------------------

   \                                 In  segment CODE, align 2, keep-with-next
    113          uint8_t CHammingCodes::Recovery(uint16_t uiHammingData)
   \                     ??Recovery:
    114          {
   \   00000000   0118               MOVW    R3:R2, R17:R16
    115              return deHamming(fixError(uiHammingData, findHammingError(uiHammingData)));
   \   00000002   0181               MOVW    R17:R16, R3:R2
   \   00000004   ....               RCALL   ??findHammingError
   \   00000006   2F20               MOV     R18, R16
   \   00000008   0181               MOVW    R17:R16, R3:R2
   \   0000000A   ....               RCALL   ??fixError
   \   0000000C   ....               RCALL   ??deHamming
   \   0000000E   9508               RET
    116          }
    117          
    118          //-----------------------------------------------------------------------------------------------------
    119          // Ęîäčđóĺň áóôĺđ â ęîä Őĺěěčíăŕ.

   \                                 In  segment CODE, align 2, keep-with-next
    120          uint16_t CHammingCodes::BytesToHammingCodes(uint8_t* puiDestination, uint8_t* puiSourse, uint16_t uiLength)
   \                     ??BytesToHammingCodes:
    121          {
   \   00000000   ........           CALL    ?PROLOGUE15_L09
   \   00000004                      REQUIRE ?Register_R4_is_cg_reg
   \   00000004                      REQUIRE ?Register_R5_is_cg_reg
   \   00000004                      REQUIRE ?Register_R6_is_cg_reg
   \   00000004                      REQUIRE ?Register_R7_is_cg_reg
   \   00000004                      REQUIRE ?Register_R8_is_cg_reg
   \   00000004                      REQUIRE ?Register_R9_is_cg_reg
   \   00000004                      REQUIRE ?Register_R10_is_cg_reg
   \   00000004                      REQUIRE ?Register_R11_is_cg_reg
   \   00000004                      REQUIRE ?Register_R12_is_cg_reg
   \   00000004                      REQUIRE ?Register_R13_is_cg_reg
   \   00000004                      REQUIRE ?Register_R14_is_cg_reg
   \   00000004   0138               MOVW    R7:R6, R17:R16
   \   00000006   0159               MOVW    R11:R10, R19:R18
   \   00000008   016A               MOVW    R13:R12, R21:R20
    122              uint16_t uiEncodedByteCounter = 0;
   \   0000000A   2422               CLR     R2
   \   0000000C   2433               CLR     R3
    123              uint16_t uiSourseIndex = 0;
   \   0000000E   2444               CLR     R4
   \   00000010   2455               CLR     R5
    124              bool bTailIsPresent = false;
   \   00000012   24EE               CLR     R14
    125          
    126              // Ęîëč÷ĺńňâî áŕéň äŕííűő íĺ÷¸ňíîĺ?
    127              if (uiLength & 1)
   \   00000014   FAC0               BST     R12, 0
   \   00000016   F436               BRTC    ??BytesToHammingCodes_1
    128              {
    129                  uiLength -= 1;
   \   00000018   EF0F               LDI     R16, 255
   \   0000001A   0EC0               ADD     R12, R16
   \   0000001C   EF0F               LDI     R16, 255
   \   0000001E   1ED0               ADC     R13, R16
    130                  bTailIsPresent = true;
   \   00000020   24EE               CLR     R14
   \   00000022   94E3               INC     R14
    131              }
    132          
    133              // Çŕęîäčđóĺě âńĺ äŕííűĺ.
    134              for (uint16_t i = 0; i < uiLength; i += 2)
   \                     ??BytesToHammingCodes_1:
   \   00000024   2488               CLR     R8
   \   00000026   2499               CLR     R9
   \                     ??BytesToHammingCodes_2:
   \   00000028   148C               CP      R8, R12
   \   0000002A   049D               CPC     R9, R13
   \   0000002C   F008               BRCS    $+2+2
   \   0000002E   C04B               RJMP    ??BytesToHammingCodes_3
    135              {
    136                  uint32_t uiData;
    137                  // Ďîëó÷čě ęîäîâîĺ ńëîâî 12 áčň.
    138                  uiData = static_cast<uint32_t>(enHamming(puiSourse[uiSourseIndex]));
   \   00000030   01F5               MOVW    R31:R30, R11:R10
   \   00000032   0DE4               ADD     R30, R4
   \   00000034   1DF5               ADC     R31, R5
   \   00000036   8100               LD      R16, Z
   \   00000038   ....               RCALL   ??enHamming
   \   0000003A   E020               LDI     R18, 0
   \   0000003C   E030               LDI     R19, 0
   \   0000003E   01C8               MOVW    R25:R24, R17:R16
   \   00000040   01D9               MOVW    R27:R26, R19:R18
    139                  // Ńëĺäóţůčé áŕéň čńňî÷íčęŕ.
    140                  uiSourseIndex++;
   \   00000042   E001               LDI     R16, 1
   \   00000044   0E40               ADD     R4, R16
   \   00000046   E000               LDI     R16, 0
   \   00000048   1E50               ADC     R5, R16
    141                  // Ďîëó÷čě ęîäîâîĺ ńëîâî 12 áčň.
    142                  uiData |= (static_cast<uint32_t>(enHamming(puiSourse[uiSourseIndex])) << HAMMING_CODE_8_4_BIT_NUMBER);
   \   0000004A   01F5               MOVW    R31:R30, R11:R10
   \   0000004C   0DE4               ADD     R30, R4
   \   0000004E   1DF5               ADC     R31, R5
   \   00000050   8100               LD      R16, Z
   \   00000052   ....               RCALL   ??enHamming
   \   00000054   01A8               MOVW    R21:R20, R17:R16
   \   00000056   E060               LDI     R22, 0
   \   00000058   E070               LDI     R23, 0
   \   0000005A   E0EC               LDI     R30, 12
   \   0000005C   018A               MOVW    R17:R16, R21:R20
   \   0000005E   019B               MOVW    R19:R18, R23:R22
   \   00000060   2F4E               MOV     R20, R30
   \   00000062   ........           CALL    ?L_SHL_L03
   \   00000066   2B80               OR      R24, R16
   \   00000068   2B91               OR      R25, R17
   \   0000006A   2BA2               OR      R26, R18
   \   0000006C   2BB3               OR      R27, R19
    143                  // Ńëĺäóţůčé áŕéň čńňî÷íčęŕ.
    144                  uiSourseIndex++;
   \   0000006E   E001               LDI     R16, 1
   \   00000070   0E40               ADD     R4, R16
   \   00000072   E000               LDI     R16, 0
   \   00000074   1E50               ADC     R5, R16
    145          
    146                  puiDestination[uiEncodedByteCounter] = static_cast<uint8_t>(uiData);
   \   00000076   018C               MOVW    R17:R16, R25:R24
   \   00000078   01F3               MOVW    R31:R30, R7:R6
   \   0000007A   0DE2               ADD     R30, R2
   \   0000007C   1DF3               ADC     R31, R3
   \   0000007E   8300               ST      Z, R16
    147                  // Ŕäđĺń ńëĺäóţůĺăî áŕéňŕ äë˙ ńîőđŕíĺíč˙.
    148                  // Óâĺëč÷čě ęîëč÷ĺńňâî çŕęîäčđîâŕííűő áŕéň.
    149                  uiEncodedByteCounter++;
   \   00000080   E001               LDI     R16, 1
   \   00000082   0E20               ADD     R2, R16
   \   00000084   E000               LDI     R16, 0
   \   00000086   1E30               ADC     R3, R16
    150                  uiData >>= 8;
   \   00000088   2F89               MOV     R24, R25
   \   0000008A   2F9A               MOV     R25, R26
   \   0000008C   2FAB               MOV     R26, R27
   \   0000008E   E0B0               LDI     R27, 0
    151                  puiDestination[uiEncodedByteCounter] = static_cast<uint8_t>(uiData);
   \   00000090   018C               MOVW    R17:R16, R25:R24
   \   00000092   01F3               MOVW    R31:R30, R7:R6
   \   00000094   0DE2               ADD     R30, R2
   \   00000096   1DF3               ADC     R31, R3
   \   00000098   8300               ST      Z, R16
    152                  // Ŕäđĺń ńëĺäóţůĺăî áŕéňŕ äë˙ ńîőđŕíĺíč˙.
    153                  // Óâĺëč÷čě ęîëč÷ĺńňâî çŕęîäčđîâŕííűő áŕéň.
    154                  uiEncodedByteCounter++;
   \   0000009A   E001               LDI     R16, 1
   \   0000009C   0E20               ADD     R2, R16
   \   0000009E   E000               LDI     R16, 0
   \   000000A0   1E30               ADC     R3, R16
    155                  uiData >>= 8;
   \   000000A2   2F89               MOV     R24, R25
   \   000000A4   2F9A               MOV     R25, R26
   \   000000A6   2FAB               MOV     R26, R27
   \   000000A8   E0B0               LDI     R27, 0
    156                  puiDestination[uiEncodedByteCounter] = static_cast<uint8_t>(uiData);
   \   000000AA   018C               MOVW    R17:R16, R25:R24
   \   000000AC   01F3               MOVW    R31:R30, R7:R6
   \   000000AE   0DE2               ADD     R30, R2
   \   000000B0   1DF3               ADC     R31, R3
   \   000000B2   8300               ST      Z, R16
    157                  // Ŕäđĺń ńëĺäóţůĺăî áŕéňŕ äë˙ ńîőđŕíĺíč˙.
    158                  // Óâĺëč÷čě ęîëč÷ĺńňâî çŕęîäčđîâŕííűő áŕéň.
    159                  uiEncodedByteCounter++;
   \   000000B4   E001               LDI     R16, 1
   \   000000B6   0E20               ADD     R2, R16
   \   000000B8   E000               LDI     R16, 0
   \   000000BA   1E30               ADC     R3, R16
    160              }
   \   000000BC   E002               LDI     R16, 2
   \   000000BE   0E80               ADD     R8, R16
   \   000000C0   E000               LDI     R16, 0
   \   000000C2   1E90               ADC     R9, R16
   \   000000C4   CFB1               RJMP    ??BytesToHammingCodes_2
    161          
    162              if (bTailIsPresent)
   \                     ??BytesToHammingCodes_3:
   \   000000C6   20EE               TST     R14
   \   000000C8   F0D1               BREQ    ??BytesToHammingCodes_4
    163              {
    164                  uint16_t uiData;
    165                  // Ďîëó÷čě ęîäîâîĺ ńëîâî 12 áčň.
    166                  uiData = static_cast<uint16_t>(enHamming(puiSourse[uiSourseIndex]));
   \   000000CA   01F5               MOVW    R31:R30, R11:R10
   \   000000CC   0DE4               ADD     R30, R4
   \   000000CE   1DF5               ADC     R31, R5
   \   000000D0   8100               LD      R16, Z
   \   000000D2   ....               RCALL   ??enHamming
   \   000000D4   01C8               MOVW    R25:R24, R17:R16
    167          
    168                  puiDestination[uiEncodedByteCounter] = static_cast<uint8_t>(uiData);
   \   000000D6   2F08               MOV     R16, R24
   \   000000D8   01F3               MOVW    R31:R30, R7:R6
   \   000000DA   0DE2               ADD     R30, R2
   \   000000DC   1DF3               ADC     R31, R3
   \   000000DE   8300               ST      Z, R16
    169                  // Ŕäđĺń ńëĺäóţůĺăî áŕéňŕ äë˙ ńîőđŕíĺíč˙.
    170                  // Óâĺëč÷čě ęîëč÷ĺńňâî çŕęîäčđîâŕííűő áŕéň.
    171                  uiEncodedByteCounter++;
   \   000000E0   E001               LDI     R16, 1
   \   000000E2   0E20               ADD     R2, R16
   \   000000E4   E000               LDI     R16, 0
   \   000000E6   1E30               ADC     R3, R16
    172                  uiData >>= 8;
   \   000000E8   2F89               MOV     R24, R25
   \   000000EA   E090               LDI     R25, 0
    173                  puiDestination[uiEncodedByteCounter] = static_cast<uint8_t>(uiData);
   \   000000EC   2F08               MOV     R16, R24
   \   000000EE   01F3               MOVW    R31:R30, R7:R6
   \   000000F0   0DE2               ADD     R30, R2
   \   000000F2   1DF3               ADC     R31, R3
   \   000000F4   8300               ST      Z, R16
    174                  // Ŕäđĺń ńëĺäóţůĺăî áŕéňŕ äë˙ ńîőđŕíĺíč˙.
    175                  // Óâĺëč÷čě ęîëč÷ĺńňâî çŕęîäčđîâŕííűő áŕéň.
    176                  uiEncodedByteCounter++;
   \   000000F6   E001               LDI     R16, 1
   \   000000F8   0E20               ADD     R2, R16
   \   000000FA   E000               LDI     R16, 0
   \   000000FC   1E30               ADC     R3, R16
    177              }
    178          
    179              return uiEncodedByteCounter;
   \                     ??BytesToHammingCodes_4:
   \   000000FE   0181               MOVW    R17:R16, R3:R2
   \   00000100   E0EF               LDI     R30, 15
   \   00000102   ........           JMP     ?EPILOGUE_B15_L09
    180          }
    181          
    182          //-----------------------------------------------------------------------------------------------------
    183          // Äĺęîäčđóĺň áóôĺđ ń ęîäîě Őĺěěčíăŕ.

   \                                 In  segment CODE, align 2, keep-with-next
    184          uint16_t CHammingCodes::HammingCodesToBytes(uint8_t* puiDestination, uint8_t* puiSourse, uint16_t uiLength)
   \                     ??HammingCodesToBytes:
    185          {
   \   00000000   ........           CALL    ?PROLOGUE16_L09
   \   00000004                      REQUIRE ?Register_R4_is_cg_reg
   \   00000004                      REQUIRE ?Register_R5_is_cg_reg
   \   00000004                      REQUIRE ?Register_R6_is_cg_reg
   \   00000004                      REQUIRE ?Register_R7_is_cg_reg
   \   00000004                      REQUIRE ?Register_R8_is_cg_reg
   \   00000004                      REQUIRE ?Register_R9_is_cg_reg
   \   00000004                      REQUIRE ?Register_R10_is_cg_reg
   \   00000004                      REQUIRE ?Register_R11_is_cg_reg
   \   00000004                      REQUIRE ?Register_R12_is_cg_reg
   \   00000004                      REQUIRE ?Register_R13_is_cg_reg
   \   00000004                      REQUIRE ?Register_R14_is_cg_reg
   \   00000004                      REQUIRE ?Register_R15_is_cg_reg
   \   00000004   9721               SBIW    R29:R28, 1
   \   00000006   0158               MOVW    R11:R10, R17:R16
   \   00000008   0149               MOVW    R9:R8, R19:R18
   \   0000000A   017A               MOVW    R15:R14, R21:R20
    186              uint16_t uiDecodedByteCounter = 0;
   \   0000000C   2466               CLR     R6
   \   0000000E   2477               CLR     R7
    187              uint16_t uiSourseIndex = 0;
   \   00000010   2444               CLR     R4
   \   00000012   2455               CLR     R5
    188              bool bTailIsPresent = false;
   \   00000014   E000               LDI     R16, 0
   \   00000016   8308               ST      Y, R16
    189          
    190              if ((uiLength % 3) == 1)
   \   00000018   E043               LDI     R20, 3
   \   0000001A   E050               LDI     R21, 0
   \   0000001C   0187               MOVW    R17:R16, R15:R14
   \   0000001E   ........           CALL    ?US_DIVMOD_L02
   \   00000022   3041               CPI     R20, 1
   \   00000024   4050               SBCI    R21, 0
   \   00000026   F419               BRNE    ??HammingCodesToBytes_1
    191              {
    192                  // Îřčáęŕ - íĺ äîńňŕňî÷íî äŕííűő äë˙ âîńńňŕíîâëĺíč˙.
    193                  return 0;
   \   00000028   E000               LDI     R16, 0
   \   0000002A   E010               LDI     R17, 0
   \   0000002C   C085               RJMP    ??HammingCodesToBytes_2
    194              }
    195          
    196              // Ęîëč÷ĺńňâî áŕéň äŕííűő íĺ÷¸ňíîĺ?
    197              if ((uiLength % 3) == 2)
   \                     ??HammingCodesToBytes_1:
   \   0000002E   E043               LDI     R20, 3
   \   00000030   E050               LDI     R21, 0
   \   00000032   0187               MOVW    R17:R16, R15:R14
   \   00000034   ........           CALL    ?US_DIVMOD_L02
   \   00000038   3042               CPI     R20, 2
   \   0000003A   4050               SBCI    R21, 0
   \   0000003C   F431               BRNE    ??HammingCodesToBytes_3
    198              {
    199                  uiLength -= 2;
   \   0000003E   EF0E               LDI     R16, 254
   \   00000040   0EE0               ADD     R14, R16
   \   00000042   EF0F               LDI     R16, 255
   \   00000044   1EF0               ADC     R15, R16
    200                  bTailIsPresent = true;
   \   00000046   E001               LDI     R16, 1
   \   00000048   8308               ST      Y, R16
    201              }
    202          
    203              // Äĺęîäčđóĺě âńĺ äŕííűĺ.
    204              for (uint16_t i = 0; i < uiLength; i += 3)
   \                     ??HammingCodesToBytes_3:
   \   0000004A   24CC               CLR     R12
   \   0000004C   24DD               CLR     R13
   \                     ??HammingCodesToBytes_4:
   \   0000004E   14CE               CP      R12, R14
   \   00000050   04DF               CPC     R13, R15
   \   00000052   F008               BRCS    $+2+2
   \   00000054   C050               RJMP    ??HammingCodesToBytes_5
    205              {
    206                  uint32_t uiData;
    207                  uint16_t uiHammingData;
                                  ^
Warning[Pe177]: variable "uiHammingData" was declared but never referenced
    208          
    209                  uiData = (static_cast<uint32_t>(puiSourse[uiSourseIndex]));
   \   00000056   01F4               MOVW    R31:R30, R9:R8
   \   00000058   0DE4               ADD     R30, R4
   \   0000005A   1DF5               ADC     R31, R5
   \   0000005C   8100               LD      R16, Z
   \   0000005E   E010               LDI     R17, 0
   \   00000060   E020               LDI     R18, 0
   \   00000062   E030               LDI     R19, 0
   \   00000064   01C8               MOVW    R25:R24, R17:R16
   \   00000066   01D9               MOVW    R27:R26, R19:R18
    210                  // Ńëĺäóţůčé áŕéň čńňî÷íčęŕ.
    211                  uiSourseIndex++;
   \   00000068   E001               LDI     R16, 1
   \   0000006A   0E40               ADD     R4, R16
   \   0000006C   E000               LDI     R16, 0
   \   0000006E   1E50               ADC     R5, R16
    212                  uiData |= (static_cast<uint32_t>(puiSourse[uiSourseIndex]) << 8);
   \   00000070   01F4               MOVW    R31:R30, R9:R8
   \   00000072   0DE4               ADD     R30, R4
   \   00000074   1DF5               ADC     R31, R5
   \   00000076   8100               LD      R16, Z
   \   00000078   E010               LDI     R17, 0
   \   0000007A   E020               LDI     R18, 0
   \   0000007C   E030               LDI     R19, 0
   \   0000007E   2F32               MOV     R19, R18
   \   00000080   2F21               MOV     R18, R17
   \   00000082   2F10               MOV     R17, R16
   \   00000084   E000               LDI     R16, 0
   \   00000086   2B80               OR      R24, R16
   \   00000088   2B91               OR      R25, R17
   \   0000008A   2BA2               OR      R26, R18
   \   0000008C   2BB3               OR      R27, R19
    213                  // Ńëĺäóţůčé áŕéň čńňî÷íčęŕ.
    214                  uiSourseIndex++;
   \   0000008E   E001               LDI     R16, 1
   \   00000090   0E40               ADD     R4, R16
   \   00000092   E000               LDI     R16, 0
   \   00000094   1E50               ADC     R5, R16
    215                  uiData |= (static_cast<uint32_t>(puiSourse[uiSourseIndex]) << 16);
   \   00000096   01F4               MOVW    R31:R30, R9:R8
   \   00000098   0DE4               ADD     R30, R4
   \   0000009A   1DF5               ADC     R31, R5
   \   0000009C   8120               LD      R18, Z
   \   0000009E   E030               LDI     R19, 0
   \   000000A0   E000               LDI     R16, 0
   \   000000A2   E010               LDI     R17, 0
   \   000000A4   2B80               OR      R24, R16
   \   000000A6   2B91               OR      R25, R17
   \   000000A8   2BA2               OR      R26, R18
   \   000000AA   2BB3               OR      R27, R19
    216                  // Ńëĺäóţůčé áŕéň čńňî÷íčęŕ.
    217                  uiSourseIndex++;
   \   000000AC   E001               LDI     R16, 1
   \   000000AE   0E40               ADD     R4, R16
   \   000000B0   E000               LDI     R16, 0
   \   000000B2   1E50               ADC     R5, R16
    218          
    219                  // Âîńńňŕíîâčě çŕęîäčđîâŕííűé áŕéň.
    220                  puiDestination[uiDecodedByteCounter] = Recovery((static_cast<uint16_t>(uiData) & 0x0FFF));
   \   000000B4   018C               MOVW    R17:R16, R25:R24
   \   000000B6   7F0F               ANDI    R16, 0xFF
   \   000000B8   701F               ANDI    R17, 0x0F
   \   000000BA   ....               RCALL   ??Recovery
   \   000000BC   01F5               MOVW    R31:R30, R11:R10
   \   000000BE   0DE6               ADD     R30, R6
   \   000000C0   1DF7               ADC     R31, R7
   \   000000C2   8300               ST      Z, R16
    221                  // Óâĺëč÷čě ęîëč÷ĺńňâî äĺęîäčđîâŕííűő áŕéň.
    222                  uiDecodedByteCounter++;
   \   000000C4   E001               LDI     R16, 1
   \   000000C6   0E60               ADD     R6, R16
   \   000000C8   E000               LDI     R16, 0
   \   000000CA   1E70               ADC     R7, R16
    223                  // Âîńńňŕíîâčě çŕęîäčđîâŕííűé áŕéň.
    224                  puiDestination[uiDecodedByteCounter] = Recovery((static_cast<uint16_t>(uiData >> HAMMING_CODE_8_4_BIT_NUMBER) & 0x0FFF));
   \   000000CC   E04C               LDI     R20, 12
   \   000000CE   018C               MOVW    R17:R16, R25:R24
   \   000000D0   019D               MOVW    R19:R18, R27:R26
   \   000000D2   ........           CALL    ?UL_SHR_L03
   \   000000D6   7F0F               ANDI    R16, 0xFF
   \   000000D8   701F               ANDI    R17, 0x0F
   \   000000DA   ....               RCALL   ??Recovery
   \   000000DC   01F5               MOVW    R31:R30, R11:R10
   \   000000DE   0DE6               ADD     R30, R6
   \   000000E0   1DF7               ADC     R31, R7
   \   000000E2   8300               ST      Z, R16
    225                  // Óâĺëč÷čě ęîëč÷ĺńňâî äĺęîäčđîâŕííűő áŕéň.
    226                  uiDecodedByteCounter++;
   \   000000E4   E001               LDI     R16, 1
   \   000000E6   0E60               ADD     R6, R16
   \   000000E8   E000               LDI     R16, 0
   \   000000EA   1E70               ADC     R7, R16
    227              }
   \   000000EC   E003               LDI     R16, 3
   \   000000EE   0EC0               ADD     R12, R16
   \   000000F0   E000               LDI     R16, 0
   \   000000F2   1ED0               ADC     R13, R16
   \   000000F4   CFAC               RJMP    ??HammingCodesToBytes_4
    228          
    229              if (bTailIsPresent)
   \                     ??HammingCodesToBytes_5:
   \   000000F6   8108               LD      R16, Y
   \   000000F8   2300               TST     R16
   \   000000FA   F0E9               BREQ    ??HammingCodesToBytes_6
    230              {
    231                  uint16_t uiData;
    232                  uint16_t uiHammingData;
                                  ^
Warning[Pe177]: variable "uiHammingData" was declared but never referenced
    233          
    234                  uiData = (static_cast<uint16_t>(puiSourse[uiSourseIndex]));
   \   000000FC   01F4               MOVW    R31:R30, R9:R8
   \   000000FE   0DE4               ADD     R30, R4
   \   00000100   1DF5               ADC     R31, R5
   \   00000102   8100               LD      R16, Z
   \   00000104   E010               LDI     R17, 0
   \   00000106   01C8               MOVW    R25:R24, R17:R16
    235                  // Ńëĺäóţůčé áŕéň čńňî÷íčęŕ.
    236                  uiSourseIndex++;
   \   00000108   E001               LDI     R16, 1
   \   0000010A   0E40               ADD     R4, R16
   \   0000010C   E000               LDI     R16, 0
   \   0000010E   1E50               ADC     R5, R16
    237                  uiData |= (static_cast<uint16_t>(puiSourse[uiSourseIndex]) << 8);
   \   00000110   01F4               MOVW    R31:R30, R9:R8
   \   00000112   0DE4               ADD     R30, R4
   \   00000114   1DF5               ADC     R31, R5
   \   00000116   8110               LD      R17, Z
   \   00000118   E000               LDI     R16, 0
   \   0000011A   2B80               OR      R24, R16
   \   0000011C   2B91               OR      R25, R17
    238          
    239                  // Âîńńňŕíîâčě çŕęîäčđîâŕííűé áŕéň.
    240                  puiDestination[uiDecodedByteCounter] = Recovery(uiData & 0x0FFF);
   \   0000011E   018C               MOVW    R17:R16, R25:R24
   \   00000120   7F0F               ANDI    R16, 0xFF
   \   00000122   701F               ANDI    R17, 0x0F
   \   00000124   ....               RCALL   ??Recovery
   \   00000126   01F5               MOVW    R31:R30, R11:R10
   \   00000128   0DE6               ADD     R30, R6
   \   0000012A   1DF7               ADC     R31, R7
   \   0000012C   8300               ST      Z, R16
    241                  // Óâĺëč÷čě ęîëč÷ĺńňâî äĺęîäčđîâŕííűő áŕéň.
    242                  uiDecodedByteCounter++;
   \   0000012E   E001               LDI     R16, 1
   \   00000130   0E60               ADD     R6, R16
   \   00000132   E000               LDI     R16, 0
   \   00000134   1E70               ADC     R7, R16
    243              }
    244          
    245              return uiDecodedByteCounter;
   \                     ??HammingCodesToBytes_6:
   \   00000136   0183               MOVW    R17:R16, R7:R6
   \                     ??HammingCodesToBytes_2:
   \   00000138   9621               ADIW    R29:R28, 1
   \   0000013A   E1E0               LDI     R30, 16
   \   0000013C   ........           JMP     ?EPILOGUE_B16_L09
    246          }

   \                                 In  segment CODE, align 2, keep-with-next
   \   __version_3 CHammingCodes &CHammingCodes::new CHammingCodes()
   \                     `??new CHammingCodes`:
   \   00000000   E002               LDI     R16, 2
   \   00000002   E010               LDI     R17, 0
   \   00000004   ........           CALL    `??operator new`
   \   00000008   2F20               MOV     R18, R16
   \   0000000A   2B21               OR      R18, R17
   \   0000000C   F011               BREQ    `??new CHammingCodes_1`
   \   0000000E   ....               RCALL   ??CHammingCodes
   \   00000010   9508               RET
   \                     `??new CHammingCodes_1`:
   \   00000012   E000               LDI     R16, 0
   \   00000014   E010               LDI     R17, 0
   \   00000016   9508               RET
    247          
    248          //-----------------------------------------------------------------------------------------------------

   Maximum stack usage in bytes:

   CSTACK RSTACK Function
   ------ ------ --------
     15      2   CHammingCodes::BytesToHammingCodes(uint8_t *, uint8_t *, uint16_t)
       15      2   -> CHammingCodes::enHamming(uint8_t)
       15      2 ?L_SHL_L03
      0      2   CHammingCodes::CHammingCodes()
     17      2   CHammingCodes::HammingCodesToBytes(uint8_t *, uint8_t *, uint16_t)
       17      2   -> CHammingCodes::Recovery(uint16_t)
       17      2 ?UL_SHR_L03
       17      2 ?US_DIVMOD_L02
      0      2   CHammingCodes::Recovery(uint16_t)
        0      2   -> CHammingCodes::deHamming(uint16_t)
        0      2   -> CHammingCodes::findHammingError(uint16_t)
        0      2   -> CHammingCodes::fixError(uint16_t, uint8_t)
      0      2   CHammingCodes::deHamming(uint16_t)
        0      2 ?US_SHR_L02
      0      2   CHammingCodes::enHamming(uint8_t)
        0      2   -> CHammingCodes::getEvenParityforTx(uint8_t)
      0      2   CHammingCodes::findHammingError(uint16_t)
        0      2   -> CHammingCodes::getEvenParityforRx(uint16_t)
      0      2   CHammingCodes::fixError(uint16_t, uint8_t)
        0      2 ?S_SHL_L02
      0      2   CHammingCodes::getEvenParityforRx(uint16_t)
        0      2 ?US_SHR_L02
      0      2   CHammingCodes::getEvenParityforTx(uint8_t)
        0      2 ?SS_SHR_L02
      0      2   CHammingCodes::new CHammingCodes()
        0      2   -> CHammingCodes::CHammingCodes()
        0      2   -> operator new(unsigned int)
      2      2   CHammingCodes::~CHammingCodes()
        2      2   -> operator delete(void *)


   Segment part sizes:

   Bytes  Function/Label
   -----  --------------
     262  CHammingCodes::BytesToHammingCodes(uint8_t *, uint8_t *, uint16_t)
      12  CHammingCodes::CHammingCodes()
     320  CHammingCodes::HammingCodesToBytes(uint8_t *, uint8_t *, uint16_t)
      16  CHammingCodes::Recovery(uint16_t)
      42  CHammingCodes::deHamming(uint16_t)
     106  CHammingCodes::enHamming(uint8_t)
     126  CHammingCodes::findHammingError(uint16_t)
      34  CHammingCodes::fixError(uint16_t, uint8_t)
      44  CHammingCodes::getEvenParityforRx(uint16_t)
      46  CHammingCodes::getEvenParityforTx(uint8_t)
       1  CHammingCodes::m_uiErrorCode
      24  CHammingCodes::new CHammingCodes()
      28  CHammingCodes::~CHammingCodes()
       9  -- Other

 
 1 060 bytes in segment CODE
     7 bytes in segment INITTAB
     2 bytes in segment NEAR_F
     1 byte  in segment NEAR_Z
 
 1 060 bytes of CODE memory (+ 9 bytes shared)
     1 byte  of DATA memory

Errors: none
Warnings: 2
