###############################################################################
#
# IAR C/C++ Compiler V7.10.6.1378 for Atmel AVR           12/Aug/2022  14:49:55
# Copyright 1996-2018 IAR Systems AB.
#
#    Source file  =  D:\Projects\CautoProjects\PSS48\PSS48\src\HammingCodes.cpp
#    Command line =  
#        -f C:\Users\ghost\AppData\Local\Temp\EWB5BA.tmp
#        (--string_literals_in_flash
#        D:\Projects\CautoProjects\PSS48\PSS48\src\HammingCodes.cpp --cpu=m128a
#        -ms -o D:\Projects\CautoProjects\PSS48\PSS48\Debug\Obj -lC
#        D:\Projects\CautoProjects\PSS48\PSS48\Debug\List -lB
#        D:\Projects\CautoProjects\PSS48\PSS48\Debug\List -y
#        --initializers_in_flash --root_variables --debug
#        -DENABLE_BIT_DEFINITIONS -e -I
#        D:\Projects\CautoProjects\PSS48\PSS48\include\ -I
#        D:\Projects\CautoProjects\PSS48\PSS48\Modbus\ --eeprom_size 4096
#        --dlib --dlib_config "C:\Program Files (x86)\IAR Systems\Embedded
#        Workbench 8.0\avr\LIB\DLIB\dlAVR-3s-ec_mul-n.h" -Ohz --eec++)
#    Locale       =  Russian_RUS.1251
#    List file    =  
#        D:\Projects\CautoProjects\PSS48\PSS48\Debug\List\HammingCodes.lst
#    Object file  =  
#        D:\Projects\CautoProjects\PSS48\PSS48\Debug\Obj\HammingCodes.r90
#
###############################################################################

D:\Projects\CautoProjects\PSS48\PSS48\src\HammingCodes.cpp
      1          
      2          //-----------------------------------------------------------------------------------------------------
      3          //  Based on    : https://github.com/Minho-Cha/8bit-Hamming-Code
      4          //  Sourse      : FileName.cpp
      5          //  Created     : 01.06.2022
      6          //  Author      : Alexandr Volvenkin
      7          //  email       : aav-36@mail.ru
      8          //  GitHub      : https://github.com/AlexandrVolvenkin
      9          //-----------------------------------------------------------------------------------------------------
     10          #include "HammingCodes.h"
     11          #include "Crc.h"
     12          
     13          //-----------------------------------------------------------------------------------------------------

   \                                 In  segment NEAR_Z, align 1, keep-with-next, root
   \   00000000                      REQUIRE `?<Segment init: NEAR_Z>`
     14          uint8_t CHammingCodes::m_uiErrorCode;
   \                     ??m_uiErrorCode:
   \   00000000                      DS8 1
     15          
     16          ////-----------------------------------------------------------------------------------------------------
     17          //CHammingCodes::CHammingCodes()
     18          //{
     19          //    //ctor
     20          //}
     21          //
     22          ////-----------------------------------------------------------------------------------------------------
     23          //CHammingCodes::~CHammingCodes()
     24          //{
     25          //    //dtor
     26          //}
     27          
     28          //-----------------------------------------------------------------------------------------------------

   \                                 In  segment CODE, align 2, keep-with-next
     29          uint8_t CHammingCodes::getEvenParityforTx(uint8_t data) //?? ???
   \                     ??getEvenParityforTx:
     30          {
   \   00000000   2F30               MOV     R19, R16
     31              uint8_t parity = 0;
   \   00000002   E050               LDI     R21, 0
     32              for (int i = 0; i < 8; i++)
   \   00000004   E0E0               LDI     R30, 0
   \   00000006   E0F0               LDI     R31, 0
   \   00000008   E028               LDI     R18, 8
     33              {
     34                  parity ^= (data >> i) & 0x01;
   \                     ??getEvenParityforTx_1:
   \   0000000A   2F03               MOV     R16, R19
   \   0000000C   E010               LDI     R17, 0
   \   0000000E   2F4E               MOV     R20, R30
   \   00000010   ........           CALL    ?SS_SHR_L02
   \   00000014   7001               ANDI    R16, 0x01
   \   00000016   2750               EOR     R21, R16
     35              }
   \   00000018   9631               ADIW    R31:R30, 1
   \   0000001A   952A               DEC     R18
   \   0000001C   F7B1               BRNE    ??getEvenParityforTx_1
     36          
     37              return !parity;
   \   0000001E   2355               TST     R21
   \   00000020   F409               BRNE    ??getEvenParityforTx_2
   \   00000022   ....               RJMP    ?Subroutine12
   \                     ??getEvenParityforTx_2:
   \   00000024   ....               RJMP    ?Subroutine13
     38          }

   \                                 In  segment CODE, align 2, keep-with-next
   \                     ?Subroutine12:
   \   00000000   E001               LDI     R16, 1
   \   00000002   9508               RET

   \                                 In  segment CODE, align 2, keep-with-next
   \                     ?Subroutine13:
   \   00000000   E000               LDI     R16, 0
   \   00000002   9508               RET
     39          
     40          //-----------------------------------------------------------------------------------------------------

   \                                 In  segment CODE, align 2, keep-with-next
     41          uint8_t CHammingCodes::getEvenParityforRx(uint16_t data) //?? ???
   \                     ??getEvenParityforRx:
     42          {
   \   00000000   01B8               MOVW    R23:R22, R17:R16
     43              uint8_t parity = 0;
   \   00000002   E030               LDI     R19, 0
     44              for (int i = 0; i < 12; i++)
   \   00000004   E0E0               LDI     R30, 0
   \   00000006   E0F0               LDI     R31, 0
   \   00000008   E02C               LDI     R18, 12
     45              {
     46                  parity ^= (data >> i) & 0x01;
   \                     ??getEvenParityforRx_1:
   \   0000000A   2F4E               MOV     R20, R30
   \   0000000C   018B               MOVW    R17:R16, R23:R22
   \   0000000E   ........           CALL    ?US_SHR_L02
   \   00000012   7001               ANDI    R16, 0x01
   \   00000014   2730               EOR     R19, R16
     47              }
   \   00000016   9631               ADIW    R31:R30, 1
   \   00000018   952A               DEC     R18
   \   0000001A   F7B9               BRNE    ??getEvenParityforRx_1
     48          
     49              return !parity;
   \   0000001C   2333               TST     R19
   \   0000001E   F409               BRNE    ??getEvenParityforRx_2
   \   00000020   ....               RJMP    ?Subroutine12
   \                     ??getEvenParityforRx_2:
   \   00000022   ....               RJMP    ?Subroutine13
     50          }
     51          
     52          //-----------------------------------------------------------------------------------------------------
     53          // Get Hamming code

   \                                 In  segment CODE, align 2, keep-with-next
     54          uint16_t CHammingCodes::enHamming(uint8_t data)
   \                     ??enHamming:
     55          {
   \   00000000   938A               ST      -Y, R24
   \   00000002   2F80               MOV     R24, R16
     56              uint16_t hamming = 0;
     57          
     58              // Set Data
     59              hamming = (data & BLOCK2) << BLOCK2_SHIFT;  //0b1111 0000 0000
     60              hamming |= (data & BLOCK1) << BLOCK1_SHIFT;  //0b0000 0111 0000
     61              hamming |= (data & BLOCK0) << BLOCK0_SHIFT;  //0b0000 0000 0100
     62          
     63              // Set Parity
     64              hamming |= getEvenParityforTx(data & P3_POSI_8) << P3_BIT; // 0b1111 0000
   \   00000004   7F00               ANDI    R16, 0xF0
   \   00000006   ....               RCALL   ?Subroutine1
   \                     ??CrossCallReturnLabel_5:
   \   00000008   2E30               MOV     R3, R16
     65              hamming |= getEvenParityforTx(data & P2_POSI_8) << P2_BIT; // 0b1000 1110
   \   0000000A   2F08               MOV     R16, R24
   \   0000000C   780E               ANDI    R16, 0x8E
   \   0000000E   ....               RCALL   ?Subroutine1
   \                     ??CrossCallReturnLabel_4:
   \   00000010   2E20               MOV     R2, R16
     66              hamming |= getEvenParityforTx(data & P1_POSI_8) << P1_BIT; // 0b0110 1101
   \   00000012   2F08               MOV     R16, R24
   \   00000014   760D               ANDI    R16, 0x6D
   \   00000016   ....               RCALL   ?Subroutine1
   \                     ??CrossCallReturnLabel_3:
   \   00000018   2F10               MOV     R17, R16
     67              hamming |= getEvenParityforTx(data & P0_POSI_8) << P0_BIT; // 0b0101 1011
     68          
     69              return hamming;
   \   0000001A   E100               LDI     R16, 16
   \   0000001C   9F80               MUL     R24, R16
   \   0000001E   2D71               MOV     R23, R1
   \   00000020   E008               LDI     R16, 8
   \   00000022   9F80               MUL     R24, R16
   \   00000024   E700               LDI     R16, 112
   \   00000026   2200               AND     R0, R16
   \   00000028   2D60               MOV     R22, R0
   \   0000002A   2F08               MOV     R16, R24
   \   0000002C   7001               ANDI    R16, 0x01
   \   0000002E   E024               LDI     R18, 4
   \   00000030   9F02               MUL     R16, R18
   \   00000032   2960               OR      R22, R0
   \   00000034   E800               LDI     R16, 128
   \   00000036   9E30               MUL     R3, R16
   \   00000038   2960               OR      R22, R0
   \   0000003A   2971               OR      R23, R1
   \   0000003C   E008               LDI     R16, 8
   \   0000003E   9E20               MUL     R2, R16
   \   00000040   2960               OR      R22, R0
   \   00000042   2971               OR      R23, R1
   \   00000044   E002               LDI     R16, 2
   \   00000046   9F10               MUL     R17, R16
   \   00000048   2960               OR      R22, R0
   \   0000004A   2971               OR      R23, R1
   \   0000004C   758B               ANDI    R24, 0x5B
   \   0000004E   2F08               MOV     R16, R24
   \   00000050   ....               RCALL   ?Subroutine1
   \                     ??CrossCallReturnLabel_2:
   \   00000052   2B06               OR      R16, R22
   \   00000054   2F17               MOV     R17, R23
   \   00000056   9189               LD      R24, Y+
   \   00000058   9508               RET
     70          }

   \                                 In  segment CODE, align 2, keep-with-next
   \                     ?Subroutine1:
   \   00000000   ....               RJMP    ??getEvenParityforTx
     71          
     72          //-----------------------------------------------------------------------------------------------------

   \                                 In  segment CODE, align 2, keep-with-next
     73          uint8_t CHammingCodes::findHammingError(uint16_t hamming)
   \                     ??findHammingError:
     74          {
   \   00000000   0108               MOVW    R1:R0, R17:R16
     75              uint8_t errCode = 0;
     76          
     77              errCode  = ((getEvenParityforRx(hamming & P3_POSI_12)) != ((hamming >> P3_BIT) & 0x0001)) << 3;
   \   00000002   E000               LDI     R16, 0
   \   00000004   701F               ANDI    R17, 0x0F
   \   00000006   ....               RCALL   ?Subroutine3
   \                     ??CrossCallReturnLabel_11:
   \   00000008   FA07               BST     R0, 7
   \   0000000A   E010               LDI     R17, 0
   \   0000000C   F910               BLD     R17, 0
   \   0000000E   1701               CP      R16, R17
   \   00000010   F011               BREQ    ??findHammingError_1
   \   00000012   E058               LDI     R21, 8
   \   00000014   C001               RJMP    ??findHammingError_2
   \                     ??findHammingError_1:
   \   00000016   E050               LDI     R21, 0
     78              errCode |= ((getEvenParityforRx(hamming & P2_POSI_12)) != ((hamming >> P2_BIT) & 0x0001)) << 2;
   \                     ??findHammingError_2:
   \   00000018   0180               MOVW    R17:R16, R1:R0
   \   0000001A   7700               ANDI    R16, 0x70
   \   0000001C   7018               ANDI    R17, 0x08
   \   0000001E   ....               RCALL   ?Subroutine3
   \                     ??CrossCallReturnLabel_10:
   \   00000020   FA03               BST     R0, 3
   \   00000022   ....               RCALL   ?Subroutine0
   \                     ??CrossCallReturnLabel_0:
   \   00000024   0F00               LSL     R16
   \   00000026   2B50               OR      R21, R16
     79              errCode |= ((getEvenParityforRx(hamming & P1_POSI_12)) != ((hamming >> P1_BIT) & 0x0001)) << 1;
   \   00000028   0180               MOVW    R17:R16, R1:R0
   \   0000002A   7604               ANDI    R16, 0x64
   \   0000002C   7016               ANDI    R17, 0x06
   \   0000002E   ....               RCALL   ?Subroutine3
   \                     ??CrossCallReturnLabel_9:
   \   00000030   FA01               BST     R0, 1
   \   00000032   ....               RCALL   ?Subroutine0
   \                     ??CrossCallReturnLabel_1:
   \   00000034   2B50               OR      R21, R16
     80              errCode |= ((getEvenParityforRx(hamming & P0_POSI_12)) != ((hamming >> P0_BIT) & 0x0001)) << 0;
   \   00000036   0180               MOVW    R17:R16, R1:R0
   \   00000038   7504               ANDI    R16, 0x54
   \   0000003A   7015               ANDI    R17, 0x05
   \   0000003C   ....               RCALL   ?Subroutine3
   \                     ??CrossCallReturnLabel_8:
   \   0000003E   2D10               MOV     R17, R0
   \   00000040   7011               ANDI    R17, 0x01
   \   00000042   ....               RCALL   ?Subroutine9
     81          
     82              return errCode;
   \                     ??CrossCallReturnLabel_26:
   \   00000044   2B05               OR      R16, R21
   \   00000046   9508               RET
     83          }

   \                                 In  segment CODE, align 2, keep-with-next
   \                     ?Subroutine3:
   \   00000000   ....               RJMP    ??getEvenParityforRx

   \                                 In  segment CODE, align 2, keep-with-next
   \                     ?Subroutine0:
   \   00000000   E010               LDI     R17, 0
   \   00000002   F910               BLD     R17, 0
   \   00000004   ....               RCALL   ?Subroutine9
   \                     ??CrossCallReturnLabel_27:
   \   00000006   0F00               LSL     R16
   \   00000008   9508               RET

   \                                 In  segment CODE, align 2, keep-with-next
   \                     ?Subroutine9:
   \   00000000   1701               CP      R16, R17
   \   00000002   F009               BREQ    ??Subroutine9_0
   \   00000004   ....               RJMP    ?Subroutine12
   \                     ??Subroutine9_0:
   \   00000006   ....               RJMP    ?Subroutine13
     84          
     85          //-----------------------------------------------------------------------------------------------------

   \                                 In  segment CODE, align 2, keep-with-next
     86          uint16_t CHammingCodes::fixError(uint16_t hammingData, uint8_t errorCode)
   \                     ??fixError:
     87          {
   \   00000000   01B8               MOVW    R23:R22, R17:R16
     88              if (errorCode == NONE_ERROR)
   \   00000002   2322               TST     R18
   \   00000004   F051               BREQ    ??fixError_1
     89              {
     90                  return hammingData;
     91              }
     92              else
     93              {
     94                  m_uiErrorCode = errorCode;
   \   00000006   9320....           STS     ??m_uiErrorCode, R18
     95                  return hammingData ^ (1 << (errorCode - 1));
   \   0000000A   952A               DEC     R18
   \   0000000C   E001               LDI     R16, 1
   \   0000000E   E010               LDI     R17, 0
   \   00000010   2F42               MOV     R20, R18
   \   00000012   ........           CALL    ?S_SHL_L02
   \   00000016   2706               EOR     R16, R22
   \   00000018   2717               EOR     R17, R23
   \                     ??fixError_1:
   \   0000001A   9508               RET
     96              }
     97          
     98          }
     99          
    100          //-----------------------------------------------------------------------------------------------------

   \                                 In  segment CODE, align 2, keep-with-next
    101          uint8_t CHammingCodes::deHamming(uint16_t hammingData)
   \                     ??deHamming:
    102          {
   \   00000000   2F20               MOV     R18, R16
    103              uint8_t data = 0;
    104          
    105              data = (hammingData >> BLOCK2_SHIFT) & BLOCK2;
    106              data |= (hammingData >> BLOCK1_SHIFT) & BLOCK1;
    107              data |= (hammingData >> BLOCK0_SHIFT) & BLOCK0;
    108          
    109              return data;
   \   00000002   E044               LDI     R20, 4
   \   00000004   ........           CALL    ?US_SHR_L02
   \   00000008   7F00               ANDI    R16, 0xF0
   \   0000000A   2F12               MOV     R17, R18
   \   0000000C   9516               LSR     R17
   \   0000000E   9516               LSR     R17
   \   00000010   9516               LSR     R17
   \   00000012   701E               ANDI    R17, 0x0E
   \   00000014   2B01               OR      R16, R17
   \   00000016   FB22               BST     R18, 2
   \   00000018   E010               LDI     R17, 0
   \   0000001A   F910               BLD     R17, 0
   \   0000001C   2B01               OR      R16, R17
   \   0000001E   9508               RET
    110          }
    111          
    112          //-----------------------------------------------------------------------------------------------------

   \                                 In  segment CODE, align 2, keep-with-next
    113          uint8_t CHammingCodes::Recovery(uint16_t uiHammingData)
   \                     ??Recovery:
    114          {
   \   00000000   0118               MOVW    R3:R2, R17:R16
    115              return deHamming(fixError(uiHammingData, findHammingError(uiHammingData)));
   \   00000002   ....               RCALL   ??findHammingError
   \   00000004   2F20               MOV     R18, R16
   \   00000006   0181               MOVW    R17:R16, R3:R2
   \   00000008   ....               RCALL   ??fixError
   \   0000000A   ....               RJMP    ??deHamming
    116          }
    117          
    118          //-----------------------------------------------------------------------------------------------------
    119          // Кодирует буфер в код Хемминга.

   \                                 In  segment CODE, align 2, keep-with-next
    120          uint16_t CHammingCodes::BytesToHammingCodes(uint8_t* puiDestination, uint8_t* puiSourse, uint16_t uiLength)
   \                     ??BytesToHammingCodes:
    121          {
   \   00000000   ........           CALL    ?PROLOGUE14_L09
   \   00000004                      REQUIRE ?Register_R4_is_cg_reg
   \   00000004                      REQUIRE ?Register_R5_is_cg_reg
   \   00000004                      REQUIRE ?Register_R6_is_cg_reg
   \   00000004                      REQUIRE ?Register_R7_is_cg_reg
   \   00000004                      REQUIRE ?Register_R8_is_cg_reg
   \   00000004                      REQUIRE ?Register_R9_is_cg_reg
   \   00000004                      REQUIRE ?Register_R10_is_cg_reg
   \   00000004                      REQUIRE ?Register_R11_is_cg_reg
   \   00000004                      REQUIRE ?Register_R12_is_cg_reg
   \   00000004                      REQUIRE ?Register_R13_is_cg_reg
   \   00000004   9723               SBIW    R29:R28, 3
   \   00000006   8349               STD     Y+1, R20
   \   00000008   835A               STD     Y+2, R21
   \   0000000A   0138               MOVW    R7:R6, R17:R16
   \   0000000C   0149               MOVW    R9:R8, R19:R18
    122              uint16_t uiEncodedByteCounter = 0;
   \   0000000E   E080               LDI     R24, 0
   \   00000010   E090               LDI     R25, 0
    123              uint16_t uiSourseIndex = 0;
   \   00000012   2444               CLR     R4
   \   00000014   2455               CLR     R5
    124              bool bTailIsPresent = false;
   \   00000016   8388               ST      Y, R24
    125          
    126              // Количество байт данных нечётное?
    127              if (uiLength & 1)
   \   00000018   8109               LDD     R16, Y+1
   \   0000001A   FF00               SBRS    R16, 0
   \   0000001C   C003               RJMP    ??CrossCallReturnLabel_12
    128              {
    129                  uiLength -= 1;
   \   0000001E   811A               LDD     R17, Y+2
   \   00000020   5001               SUBI    R16, 1
   \   00000022   ....               RCALL   ?Subroutine5
    130                  bTailIsPresent = true;
    131              }
    132          
    133              // Закодируем все данные.
    134              for (uint16_t i = 0; i < uiLength; i += 2)
   \                     ??CrossCallReturnLabel_12:
   \   00000024   24AA               CLR     R10
   \   00000026   24BB               CLR     R11
   \   00000028   C01A               RJMP    ??BytesToHammingCodes_1
    135              {
    136                  uint32_t uiData;
    137                  // Получим кодовое слово 12 бит.
    138                  uiData = static_cast<uint32_t>(enHamming(puiSourse[uiSourseIndex]));
   \                     ??BytesToHammingCodes_2:
   \   0000002A   ....               RCALL   ?Subroutine4
    139                  // Следующий байт источника.
    140                  uiSourseIndex++;
    141                  // Получим кодовое слово 12 бит.
    142                  uiData |= (static_cast<uint32_t>(enHamming(puiSourse[uiSourseIndex])) << HAMMING_CODE_8_4_BIT_NUMBER);
   \                     ??CrossCallReturnLabel_23:
   \   0000002C   0168               MOVW    R13:R12, R17:R16
   \   0000002E   E001               LDI     R16, 1
   \   00000030   0E40               ADD     R4, R16
   \   00000032   E000               LDI     R16, 0
   \   00000034   1E50               ADC     R5, R16
   \   00000036   ....               RCALL   ?Subroutine4
   \                     ??CrossCallReturnLabel_24:
   \   00000038   E020               LDI     R18, 0
   \   0000003A   E030               LDI     R19, 0
   \   0000003C   E04C               LDI     R20, 12
   \   0000003E   ........           CALL    ?L_SHL_L03
   \   00000042   291D               OR      R17, R13
    143                  // Следующий байт источника.
    144                  uiSourseIndex++;
   \   00000044   E041               LDI     R20, 1
   \   00000046   0E44               ADD     R4, R20
   \   00000048   E040               LDI     R20, 0
   \   0000004A   1E50               ADC     R5, R16
    145          
    146                  puiDestination[uiEncodedByteCounter] = static_cast<uint8_t>(uiData);
   \   0000004C   92CC               ST      X, R12
    147                  // Адрес следующего байта для сохранения.
    148                  // Увеличим количество закодированных байт.
    149                  uiEncodedByteCounter++;
    150                  uiData >>= 8;
    151                  puiDestination[uiEncodedByteCounter] = static_cast<uint8_t>(uiData);
   \   0000004E   ....               RCALL   ?Subroutine8
   \                     ??CrossCallReturnLabel_21:
   \   00000050   8310               ST      Z, R17
    152                  // Адрес следующего байта для сохранения.
    153                  // Увеличим количество закодированных байт.
    154                  uiEncodedByteCounter++;
    155                  uiData >>= 8;
    156                  puiDestination[uiEncodedByteCounter] = static_cast<uint8_t>(uiData);
   \   00000052   ....               RCALL   ?Subroutine8
   \                     ??CrossCallReturnLabel_22:
   \   00000054   8320               ST      Z, R18
    157                  // Адрес следующего байта для сохранения.
    158                  // Увеличим количество закодированных байт.
    159                  uiEncodedByteCounter++;
   \   00000056   9601               ADIW    R25:R24, 1
    160              }
   \   00000058   E002               LDI     R16, 2
   \   0000005A   0EA0               ADD     R10, R16
   \   0000005C   1EB4               ADC     R11, R20
   \                     ??BytesToHammingCodes_1:
   \   0000005E   01D3               MOVW    R27:R26, R7:R6
   \   00000060   0FA8               ADD     R26, R24
   \   00000062   1FB9               ADC     R27, R25
   \   00000064   ....               RCALL   ?Subroutine7
   \                     ??CrossCallReturnLabel_17:
   \   00000066   16A0               CP      R10, R16
   \   00000068   06B1               CPC     R11, R17
   \   0000006A   F2F8               BRCS    ??BytesToHammingCodes_2
    161          
    162              if (bTailIsPresent)
   \   0000006C   8108               LD      R16, Y
   \   0000006E   2300               TST     R16
   \   00000070   F059               BREQ    ??BytesToHammingCodes_3
    163              {
    164                  uint16_t uiData;
    165                  // Получим кодовое слово 12 бит.
    166                  uiData = static_cast<uint16_t>(enHamming(puiSourse[uiSourseIndex]));
   \   00000072   0C84               ADD     R8, R4
   \   00000074   1C95               ADC     R9, R5
   \   00000076   01F4               MOVW    R31:R30, R9:R8
   \   00000078   ....               RCALL   ?Subroutine10
    167          
    168                  puiDestination[uiEncodedByteCounter] = static_cast<uint8_t>(uiData);
   \                     ??CrossCallReturnLabel_25:
   \   0000007A   930C               ST      X, R16
    169                  // Адрес следующего байта для сохранения.
    170                  // Увеличим количество закодированных байт.
    171                  uiEncodedByteCounter++;
    172                  uiData >>= 8;
    173                  puiDestination[uiEncodedByteCounter] = static_cast<uint8_t>(uiData);
   \   0000007C   9601               ADIW    R25:R24, 1
   \   0000007E   0E68               ADD     R6, R24
   \   00000080   1E79               ADC     R7, R25
   \   00000082   01F3               MOVW    R31:R30, R7:R6
   \   00000084   8310               ST      Z, R17
    174                  // Адрес следующего байта для сохранения.
    175                  // Увеличим количество закодированных байт.
    176                  uiEncodedByteCounter++;
   \   00000086   9601               ADIW    R25:R24, 1
    177              }
    178          
    179              return uiEncodedByteCounter;
   \                     ??BytesToHammingCodes_3:
   \   00000088   018C               MOVW    R17:R16, R25:R24
   \   0000008A   9623               ADIW    R29:R28, 3
   \   0000008C   E0EE               LDI     R30, 14
   \   0000008E   ........           JMP     ?EPILOGUE_B14_L09
    180          }

   \                                 In  segment CODE, align 2, keep-with-next
   \                     ?Subroutine8:
   \   00000000   9601               ADIW    R25:R24, 1
   \   00000002   01F3               MOVW    R31:R30, R7:R6
   \   00000004   0FE8               ADD     R30, R24
   \   00000006   1FF9               ADC     R31, R25
   \   00000008   9508               RET

   \                                 In  segment CODE, align 2, keep-with-next
   \                     ?Subroutine4:
   \   00000000   01F4               MOVW    R31:R30, R9:R8
   \   00000002   0DE4               ADD     R30, R4
   \   00000004   1DF5               ADC     R31, R5
   \   00000006                      REQUIRE ?Subroutine10
   \   00000006                      ;               // Fall through to label ?Subroutine10

   \                                 In  segment CODE, align 2, keep-with-next
   \                     ?Subroutine10:
   \   00000000   8100               LD      R16, Z
   \   00000002   ....               RJMP    ??enHamming

   \                                 In  segment CODE, align 2, keep-with-next
   \                     ?Subroutine7:
   \   00000000   8109               LDD     R16, Y+1
   \   00000002   811A               LDD     R17, Y+2
   \   00000004   9508               RET

   \                                 In  segment CODE, align 2, keep-with-next
   \                     ?Subroutine5:
   \   00000000   4010               SBCI    R17, 0
   \   00000002   8309               STD     Y+1, R16
   \   00000004   831A               STD     Y+2, R17
   \   00000006   E001               LDI     R16, 1
   \   00000008   8308               ST      Y, R16
   \   0000000A   9508               RET
    181          
    182          //-----------------------------------------------------------------------------------------------------
    183          // Декодирует буфер с кодом Хемминга.

   \                                 In  segment CODE, align 2, keep-with-next
    184          uint16_t CHammingCodes::HammingCodesToBytes(uint8_t* puiDestination, uint8_t* puiSourse, uint16_t uiLength)
   \                     ??HammingCodesToBytes:
    185          {
   \   00000000   ........           CALL    ?PROLOGUE16_L09
   \   00000004                      REQUIRE ?Register_R4_is_cg_reg
   \   00000004                      REQUIRE ?Register_R5_is_cg_reg
   \   00000004                      REQUIRE ?Register_R6_is_cg_reg
   \   00000004                      REQUIRE ?Register_R7_is_cg_reg
   \   00000004                      REQUIRE ?Register_R8_is_cg_reg
   \   00000004                      REQUIRE ?Register_R9_is_cg_reg
   \   00000004                      REQUIRE ?Register_R10_is_cg_reg
   \   00000004                      REQUIRE ?Register_R11_is_cg_reg
   \   00000004                      REQUIRE ?Register_R12_is_cg_reg
   \   00000004                      REQUIRE ?Register_R13_is_cg_reg
   \   00000004                      REQUIRE ?Register_R14_is_cg_reg
   \   00000004                      REQUIRE ?Register_R15_is_cg_reg
   \   00000004   9723               SBIW    R29:R28, 3
   \   00000006   8349               STD     Y+1, R20
   \   00000008   835A               STD     Y+2, R21
   \   0000000A   0168               MOVW    R13:R12, R17:R16
   \   0000000C   0159               MOVW    R11:R10, R19:R18
    186              uint16_t uiDecodedByteCounter = 0;
   \   0000000E   2488               CLR     R8
   \   00000010   2499               CLR     R9
    187              uint16_t uiSourseIndex = 0;
   \   00000012   2466               CLR     R6
   \   00000014   2477               CLR     R7
    188              bool bTailIsPresent = false;
   \   00000016   8288               ST      Y, R8
    189          
    190              if ((uiLength % 3) == 1)
   \   00000018   E043               LDI     R20, 3
   \   0000001A   E050               LDI     R21, 0
   \   0000001C   ....               RCALL   ?Subroutine7
   \                     ??CrossCallReturnLabel_18:
   \   0000001E   ........           CALL    ?US_DIVMOD_L02
   \   00000022   3041               CPI     R20, 1
   \   00000024   E000               LDI     R16, 0
   \   00000026   0558               CPC     R21, R8
   \   00000028   F411               BRNE    ??HammingCodesToBytes_1
    191              {
    192                  // Ошибка - не достаточно данных для восстановления.
    193                  return 0;
   \   0000002A   E010               LDI     R17, 0
   \   0000002C   C041               RJMP    ??HammingCodesToBytes_2
    194              }
    195          
    196              // Количество байт данных нечётное?
    197              if ((uiLength % 3) == 2)
   \                     ??HammingCodesToBytes_1:
   \   0000002E   3042               CPI     R20, 2
   \   00000030   4050               SBCI    R21, 0
   \   00000032   F419               BRNE    ??CrossCallReturnLabel_13
    198              {
    199                  uiLength -= 2;
   \   00000034   ....               RCALL   ?Subroutine7
    200                  bTailIsPresent = true;
    201              }
   \                     ??CrossCallReturnLabel_19:
   \   00000036   5002               SUBI    R16, 2
   \   00000038   ....               RCALL   ?Subroutine5
    202          
    203              // Декодируем все данные.
    204              for (uint16_t i = 0; i < uiLength; i += 3)
   \                     ??CrossCallReturnLabel_13:
   \   0000003A   24EE               CLR     R14
   \   0000003C   24FF               CLR     R15
   \   0000003E   C025               RJMP    ??HammingCodesToBytes_3
    205              {
    206                  uint32_t uiData;
    207          
    208                  uiData = (static_cast<uint32_t>(puiSourse[uiSourseIndex]));
   \                     ??HammingCodesToBytes_4:
   \   00000040   8180               LD      R24, Z
   \   00000042   E090               LDI     R25, 0
   \   00000044   E0A0               LDI     R26, 0
   \   00000046   E0B0               LDI     R27, 0
    209                  // Следующий байт источника.
    210                  uiSourseIndex++;
    211                  uiData |= (static_cast<uint32_t>(puiSourse[uiSourseIndex]) << 8);
   \   00000048   E001               LDI     R16, 1
   \   0000004A   0E60               ADD     R6, R16
   \   0000004C   1E79               ADC     R7, R25
   \   0000004E   ....               RCALL   ?Subroutine6
   \                     ??CrossCallReturnLabel_14:
   \   00000050   8110               LD      R17, Z
   \   00000052   2F91               MOV     R25, R17
    212                  // Следующий байт источника.
    213                  uiSourseIndex++;
    214                  uiData |= (static_cast<uint32_t>(puiSourse[uiSourseIndex]) << 16);
   \   00000054   0E60               ADD     R6, R16
   \   00000056   1E7A               ADC     R7, R26
   \   00000058   ....               RCALL   ?Subroutine6
   \                     ??CrossCallReturnLabel_15:
   \   0000005A   81A0               LD      R26, Z
    215                  // Следующий байт источника.
    216                  uiSourseIndex++;
   \   0000005C   0E60               ADD     R6, R16
   \   0000005E   1E7B               ADC     R7, R27
    217          
    218                  // Восстановим закодированный байт.
    219                  puiDestination[uiDecodedByteCounter] = Recovery((static_cast<uint16_t>(uiData) & 0x0FFF));
   \   00000060   2F08               MOV     R16, R24
   \   00000062   ....               RCALL   ?Subroutine2
    220                  // Увеличим количество декодированных байт.
    221                  uiDecodedByteCounter++;
    222                  // Восстановим закодированный байт.
    223                  puiDestination[uiDecodedByteCounter] = Recovery((static_cast<uint16_t>(uiData >> HAMMING_CODE_8_4_BIT_NUMBER) & 0x0FFF));
   \                     ??CrossCallReturnLabel_6:
   \   00000064   E04C               LDI     R20, 12
   \   00000066   018C               MOVW    R17:R16, R25:R24
   \   00000068   019D               MOVW    R19:R18, R27:R26
   \   0000006A   ........           CALL    ?UL_SHR_L03
   \   0000006E   ....               RCALL   ??Recovery
   \   00000070   2F10               MOV     R17, R16
   \   00000072   E001               LDI     R16, 1
   \   00000074   0E80               ADD     R8, R16
   \   00000076   1E9B               ADC     R9, R27
   \   00000078   01F6               MOVW    R31:R30, R13:R12
   \   0000007A   0DE8               ADD     R30, R8
   \   0000007C   1DF9               ADC     R31, R9
   \   0000007E   8310               ST      Z, R17
    224                  // Увеличим количество декодированных байт.
    225                  uiDecodedByteCounter++;
   \   00000080   0E80               ADD     R8, R16
   \   00000082   1E9B               ADC     R9, R27
    226              }
   \   00000084   E003               LDI     R16, 3
   \   00000086   0EE0               ADD     R14, R16
   \   00000088   1EFB               ADC     R15, R27
   \                     ??HammingCodesToBytes_3:
   \   0000008A   0126               MOVW    R5:R4, R13:R12
   \   0000008C   0C48               ADD     R4, R8
   \   0000008E   1C59               ADC     R5, R9
   \   00000090   ....               RCALL   ?Subroutine6
   \                     ??CrossCallReturnLabel_16:
   \   00000092   ....               RCALL   ?Subroutine7
   \                     ??CrossCallReturnLabel_20:
   \   00000094   16E0               CP      R14, R16
   \   00000096   06F1               CPC     R15, R17
   \   00000098   F298               BRCS    ??HammingCodesToBytes_4
    227          
    228              if (bTailIsPresent)
   \   0000009A   8108               LD      R16, Y
   \   0000009C   2300               TST     R16
   \   0000009E   F039               BREQ    ??HammingCodesToBytes_5
    229              {
    230                  uint16_t uiData;
    231          
    232                  uiData = (static_cast<uint16_t>(puiSourse[uiSourseIndex]));
    233                  // Следующий байт источника.
    234                  uiSourseIndex++;
    235                  uiData |= (static_cast<uint16_t>(puiSourse[uiSourseIndex]) << 8);
    236          
    237                  // Восстановим закодированный байт.
    238                  puiDestination[uiDecodedByteCounter] = Recovery(uiData & 0x0FFF);
   \   000000A0   8100               LD      R16, Z
   \   000000A2   8111               LDD     R17, Z+1
   \   000000A4   ....               RCALL   ?Subroutine2
    239                  // Увеличим количество декодированных байт.
    240                  uiDecodedByteCounter++;
   \                     ??CrossCallReturnLabel_7:
   \   000000A6   E001               LDI     R16, 1
   \   000000A8   0E80               ADD     R8, R16
   \   000000AA   E000               LDI     R16, 0
   \   000000AC   1E90               ADC     R9, R16
    241              }
    242          
    243              return uiDecodedByteCounter;
   \                     ??HammingCodesToBytes_5:
   \   000000AE   0184               MOVW    R17:R16, R9:R8
   \                     ??HammingCodesToBytes_2:
   \   000000B0   9623               ADIW    R29:R28, 3
   \   000000B2   E1E0               LDI     R30, 16
   \   000000B4   ........           JMP     ?EPILOGUE_B16_L09
    244          }

   \                                 In  segment CODE, align 2, keep-with-next
   \                     ?Subroutine6:
   \   00000000   01F5               MOVW    R31:R30, R11:R10
   \   00000002   0DE6               ADD     R30, R6
   \   00000004   1DF7               ADC     R31, R7
   \   00000006   9508               RET

   \                                 In  segment CODE, align 2, keep-with-next
   \                     ?Subroutine2:
   \   00000000   701F               ANDI    R17, 0x0F
   \   00000002   ....               RCALL   ??Recovery
   \   00000004   01F2               MOVW    R31:R30, R5:R4
   \   00000006   8300               ST      Z, R16
   \   00000008   9508               RET
    245          
    246          //-----------------------------------------------------------------------------------------------------

   Maximum stack usage in bytes:

   CSTACK RSTACK Function
   ------ ------ --------
     17      2   CHammingCodes::BytesToHammingCodes(uint8_t *, uint8_t *, uint16_t)
       17      2   -> CHammingCodes::enHamming(uint8_t)
       17      2 ?L_SHL_L03
     19      2   CHammingCodes::HammingCodesToBytes(uint8_t *, uint8_t *, uint16_t)
       19      2   -> CHammingCodes::Recovery(uint16_t)
       19      4   -> CHammingCodes::Recovery(uint16_t)
       19      2 ?UL_SHR_L03
       19      2 ?US_DIVMOD_L02
      0      2   CHammingCodes::Recovery(uint16_t)
        0      2   -> CHammingCodes::deHamming(uint16_t)
        0      2   -> CHammingCodes::findHammingError(uint16_t)
        0      2   -> CHammingCodes::fixError(uint16_t, uint8_t)
      0      2   CHammingCodes::deHamming(uint16_t)
        0      2 ?US_SHR_L02
      1      2   CHammingCodes::enHamming(uint8_t)
        1      2   -> CHammingCodes::getEvenParityforTx(uint8_t)
      0      2   CHammingCodes::findHammingError(uint16_t)
        0      2   -> CHammingCodes::getEvenParityforRx(uint16_t)
      0      2   CHammingCodes::fixError(uint16_t, uint8_t)
        0      2 ?S_SHL_L02
      0      2   CHammingCodes::getEvenParityforRx(uint16_t)
        0      2 ?US_SHR_L02
      0      2   CHammingCodes::getEvenParityforTx(uint8_t)
        0      2 ?SS_SHR_L02


   Segment part sizes:

   Bytes  Function/Label
   -----  --------------
      10  ?Subroutine0
       2  ?Subroutine1
       4  ?Subroutine10
       4  ?Subroutine12
       4  ?Subroutine13
      10  ?Subroutine2
       2  ?Subroutine3
       6  ?Subroutine4
      12  ?Subroutine5
       8  ?Subroutine6
       6  ?Subroutine7
      10  ?Subroutine8
       8  ?Subroutine9
     146  CHammingCodes::BytesToHammingCodes(uint8_t *, uint8_t *, uint16_t)
     184  CHammingCodes::HammingCodesToBytes(uint8_t *, uint8_t *, uint16_t)
      12  CHammingCodes::Recovery(uint16_t)
      32  CHammingCodes::deHamming(uint16_t)
      90  CHammingCodes::enHamming(uint8_t)
      72  CHammingCodes::findHammingError(uint16_t)
      28  CHammingCodes::fixError(uint16_t, uint8_t)
      36  CHammingCodes::getEvenParityforRx(uint16_t)
      38  CHammingCodes::getEvenParityforTx(uint8_t)
       1  CHammingCodes::m_uiErrorCode
       7  -- Other

 
 724 bytes in segment CODE
   7 bytes in segment INITTAB
   1 byte  in segment NEAR_Z
 
 724 bytes of CODE memory (+ 7 bytes shared)
   1 byte  of DATA memory

Errors: none
Warnings: none
