###############################################################################
#
# IAR C/C++ Compiler V7.10.6.1378 for Atmel AVR           12/Aug/2022  19:38:15
# Copyright 1996-2018 IAR Systems AB.
#
#    Source file  =  D:\Projects\CautoProjects\PSS48\PSS48\src\InputDevice.cpp
#    Command line =  
#        -f C:\Users\ghost\AppData\Local\Temp\EW3910.tmp
#        (--string_literals_in_flash
#        D:\Projects\CautoProjects\PSS48\PSS48\src\InputDevice.cpp --cpu=m128a
#        -ms -o D:\Projects\CautoProjects\PSS48\PSS48\Debug\Obj -lC
#        D:\Projects\CautoProjects\PSS48\PSS48\Debug\List -lB
#        D:\Projects\CautoProjects\PSS48\PSS48\Debug\List -y
#        --initializers_in_flash --root_variables --debug
#        -DENABLE_BIT_DEFINITIONS -e -I
#        D:\Projects\CautoProjects\PSS48\PSS48\include\ -I
#        D:\Projects\CautoProjects\PSS48\PSS48\Modbus\ --eeprom_size 4096
#        --dlib --dlib_config "C:\Program Files (x86)\IAR Systems\Embedded
#        Workbench 8.0\avr\LIB\DLIB\dlAVR-3s-ec_mul-n.h" -Ohz --eec++)
#    Locale       =  Russian_RUS.1251
#    List file    =  
#        D:\Projects\CautoProjects\PSS48\PSS48\Debug\List\InputDevice.lst
#    Object file  =  
#        D:\Projects\CautoProjects\PSS48\PSS48\Debug\Obj\InputDevice.r90
#
###############################################################################

D:\Projects\CautoProjects\PSS48\PSS48\src\InputDevice.cpp
      1          //-----------------------------------------------------------------------------------------------------
      2          //  Sourse      : FileName.cpp
      3          //  Created     : 01.06.2022
      4          //  Author      : Alexandr Volvenkin
      5          //  email       : aav-36@mail.ru
      6          //  GitHub      : https://github.com/AlexandrVolvenkin
      7          //-----------------------------------------------------------------------------------------------------
      8          #include "InputDevice.h"
      9          
     10          ////-----------------------------------------------------------------------------------------------------
     11          //CInputDevice::CInputDevice()
     12          //{
     13          //
     14          //}
     15          //
     16          ////-----------------------------------------------------------------------------------------------------
     17          //CInputDevice::CInputDevice(uint8_t (*fpuiEventSourse)(void)) :
     18          //    m_fpuiEventSourse(fpuiEventSourse)
     19          //{
     20          //    m_uiEventCode = KEY_EVENT_UNPRESSED;
     21          //    SetFsmState(KEY_EVENT_UNPRESSED);
     22          //}
     23          //
     24          ////-----------------------------------------------------------------------------------------------------
     25          //CInputDevice::~CInputDevice()
     26          //{
     27          //
     28          //}
     29          //
     30          ////-----------------------------------------------------------------------------------------------------
     31          //void CInputDevice::SetCapabilities(uint8_t (*fpuiEventSourse)(void))
     32          //{
     33          //    m_fpuiEventSourse = fpuiEventSourse;
     34          //    m_uiEventCode = KEY_EVENT_UNPRESSED;
     35          //    SetFsmState(KEY_EVENT_UNPRESSED);
     36          //}
     37          //
     38          ////-----------------------------------------------------------------------------------------------------
     39          //uint8_t CInputDevice::EventHappened(void)
     40          //{
     41          //    if (m_fpuiEventSourse())
     42          //    {
     43          //        return 1;
     44          //    }
     45          //    else
     46          //    {
     47          //        return 0;
     48          //    }
     49          //
     50          //}
     51          //
     52          ////-----------------------------------------------------------------------------------------------------
     53          //uint8_t CInputDevice::KeyEventHappened(uint8_t uiCode)
     54          //{
     55          //    Fsm();
     56          //
     57          //    if (m_uiEventCode == uiCode)
     58          //    {
     59          //        m_uiEventCode = KEY_EVENT_UNPRESSED;
     60          //        m_uiPreliminaryEventCode = KEY_EVENT_UNPRESSED;
     61          //        return 1;
     62          //    }
     63          //    else
     64          //    {
     65          //        return 0;
     66          //    }
     67          //
     68          //}
     69          //
     70          ////-----------------------------------------------------------------------------------------------------
     71          //void CInputDevice::Fsm(void)
     72          //{
     73          //    // ъръюх ёюс√Ґшх юсЁрсрҐ√трхь?
     74          //    switch (GetFsmState())
     75          //    {
     76          //    case KEY_EVENT_UNPRESSED:
     77          //        SetFsmState(KEY_EVENT_WAITING_PRESSED);
     78          //        break;
     79          //
     80          //    case KEY_EVENT_WAITING_PRESSED:
     81          //        // ъэюяър эрцрҐр?
     82          //        if (EventHappened())
     83          //        {
     84          //            m_xTimer.Set(KEY_PRESSED_TIME_PUSH());
     85          //            SetFsmState(KEY_EVENT_PRESSED_PUSH);
     86          //        }
     87          //        break;
     88          //    case KEY_EVENT_PRESSED_PUSH:
     89          //        // ъэюяър эрцрҐр?
     90          //        if (EventHappened())
     91          //        {
     92          //            if (m_xTimer.IsOverflow())
     93          //            {
     94          //                m_xTimer.Set(KEY_PRESSED_TIME_HOLD());
     95          //                m_uiEventCode = KEY_EVENT_PRESSED_PUSH;
     96          //                SetFsmState(KEY_EVENT_PRESSED_HOLD);
     97          //
     98          //            }
     99          //        }
    100          //        else
    101          //        {
    102          //            SetFsmState(KEY_EVENT_UNPRESSED);
    103          //        }
    104          //        break;
    105          //    case KEY_EVENT_PRESSED_HOLD:
    106          //        // ъэюяър эрцрҐр?
    107          //        if (EventHappened())
    108          //        {
    109          //            if (m_xTimer.IsOverflow())
    110          //            {
    111          //                m_xTimer.Set(KEY_PRESSED_HOLD_REPEAT_TIME());
    112          //                m_uiEventCode = KEY_EVENT_PRESSED_HOLD;
    113          //                SetFsmState(KEY_EVENT_PRESSED_REPEAT);
    114          //
    115          //            }
    116          //        }
    117          //        else
    118          //        {
    119          //            SetFsmState(KEY_EVENT_UNPRESSED);
    120          //        }
    121          //        break;
    122          //
    123          //    case KEY_EVENT_PRESSED_REPEAT:
    124          //        // ъэюяър эрцрҐр?
    125          //        if (EventHappened())
    126          //        {
    127          //            if (m_xTimer.IsOverflow())
    128          //            {
    129          //                m_xTimer.Set(KEY_PRESSED_HOLD_REPEAT_TIME());
    130          //                m_uiEventCode = KEY_EVENT_PRESSED_REPEAT;
    131          //            }
    132          //        }
    133          //        else
    134          //        {
    135          //            SetFsmState(KEY_EVENT_UNPRESSED);
    136          //        }
    137          //        break;
    138          //    default:
    139          //        break;
    140          //    }
    141          //}
    142          ////-----------------------------------------------------------------------------------------------------
    143          
    144          
    145          
    146          
    147          
    148          
    149          //-----------------------------------------------------------------------------------------------------

   \                                 In  segment CODE, align 2, keep-with-next
    150          CMultiFunctionKey::CMultiFunctionKey()
   \                     ??CMultiFunctionKey:
   \   00000000   ....               RCALL   ?Subroutine4
    151          {
   \                     ??CrossCallReturnLabel_9:
   \   00000002   ....               RCALL   ?Subroutine2
    152          
    153          }
   \                     ??CrossCallReturnLabel_5:
   \   00000004   018D               MOVW    R17:R16, R27:R26
   \   00000006                      REQUIRE ?Subroutine8
   \   00000006                      ;               // Fall through to label ?Subroutine8

   \                                 In  segment CODE, align 2, keep-with-next
   \                     ?Subroutine8:
   \   00000000   91A9               LD      R26, Y+
   \   00000002   91B9               LD      R27, Y+
   \   00000004   9508               RET

   \                                 In  segment CODE, align 2, keep-with-next
   \                     ?Subroutine2:
   \   00000000   ........           CALL    ??CDfa
   \   00000004   ....               LDI     R16, LOW(??__vtbl)
   \   00000006   ....               LDI     R17, (??__vtbl) >> 8
   \   00000008   01FD               MOVW    R31:R30, R27:R26
   \   0000000A   8301               STD     Z+1, R16
   \   0000000C   8312               STD     Z+2, R17
   \   0000000E   ....               RCALL   ?Subroutine7
   \                     ??CrossCallReturnLabel_14:
   \   00000010   ........           JMP     ??CTimer

   \                                 In  segment CODE, align 2, keep-with-next
   \                     ?Subroutine4:
   \   00000000   93BA               ST      -Y, R27
   \   00000002   93AA               ST      -Y, R26
   \   00000004   01D8               MOVW    R27:R26, R17:R16
   \   00000006   9508               RET

   \                                 In  segment CODE, align 2, keep-with-next
   \                     ?Subroutine7:
   \   00000000   018D               MOVW    R17:R16, R27:R26
   \   00000002   5F07               SUBI    R16, 247
   \   00000004   4F1F               SBCI    R17, 255
   \   00000006   9508               RET
    154          
    155          //-----------------------------------------------------------------------------------------------------

   \                                 In  segment CODE, align 2, keep-with-next
    156          CMultiFunctionKey::CMultiFunctionKey(uint8_t (*fpuiEventSourse)(void))
   \                     ??CMultiFunctionKey_1:
   \   00000000   ........           CALL    ?PROLOGUE4_L09
   \   00000004   01D8               MOVW    R27:R26, R17:R16
   \   00000006   01C9               MOVW    R25:R24, R19:R18
    157          {
   \   00000008   ....               RCALL   ?Subroutine2
    158              m_fpuiEventSourse = fpuiEventSourse;
   \                     ??CrossCallReturnLabel_4:
   \   0000000A   01FD               MOVW    R31:R30, R27:R26
   \   0000000C   8385               STD     Z+5, R24
   \   0000000E   8396               STD     Z+6, R25
    159              m_uiPreliminaryEventCode = KEY_EVENT_UNPRESSED;
   \   00000010   E000               LDI     R16, 0
   \   00000012   8700               STD     Z+8, R16
    160              m_uiEventCode = KEY_EVENT_UNPRESSED;
   \   00000014   8307               STD     Z+7, R16
    161              SetFsmState(KEY_EVENT_UNPRESSED);
   \   00000016   930C               ST      X, R16
    162          }
   \   00000018   018D               MOVW    R17:R16, R27:R26
   \   0000001A                      REQUIRE ?Subroutine10
   \   0000001A                      ;               // Fall through to label ?Subroutine10

   \                                 In  segment CODE, align 2, keep-with-next
   \                     ?Subroutine10:
   \   00000000   E0E4               LDI     R30, 4
   \   00000002   ........           JMP     ?EPILOGUE_B4_L09
    163          
    164          //-----------------------------------------------------------------------------------------------------

   \                                 In  segment CODE, align 2, keep-with-next
    165          CMultiFunctionKey::~CMultiFunctionKey()
   \                     `?~CMultiFunctionKey`:
    166          {
   \   00000000   ........           CALL    ?PROLOGUE3_L09
   \   00000004   01C8               MOVW    R25:R24, R17:R16
   \   00000006   2FA2               MOV     R26, R18
   \   00000008   2B01               OR      R16, R17
   \   0000000A   F051               BREQ    `?~CMultiFunctionKey_1`
    167          
    168          }
   \   0000000C   E020               LDI     R18, 0
   \   0000000E   E030               LDI     R19, 0
   \   00000010   2F08               MOV     R16, R24
   \   00000012   ........           CALL    `?~CDfa`
   \   00000016   FBA0               BST     R26, 0
   \   00000018   F41E               BRTC    `?~CMultiFunctionKey_1`
   \   0000001A   018C               MOVW    R17:R16, R25:R24
   \   0000001C   ........           CALL    `??operator delete`
   \                     `?~CMultiFunctionKey_1`:
   \   00000020   E0E3               LDI     R30, 3
   \   00000022   ........           JMP     ?EPILOGUE_B3_L09
    169          
    170          //-----------------------------------------------------------------------------------------------------

   \                                 In  segment CODE, align 2, keep-with-next
    171          void CMultiFunctionKey::SetCapabilities(uint8_t (*fpuiEventSourse)(void))
   \                     ??SetCapabilities:
    172          {
    173              m_fpuiEventSourse = fpuiEventSourse;
   \   00000000   01F8               MOVW    R31:R30, R17:R16
   \   00000002   8325               STD     Z+5, R18
   \   00000004   8336               STD     Z+6, R19
    174              m_uiEventCode = KEY_EVENT_UNPRESSED;
   \   00000006   E020               LDI     R18, 0
   \   00000008   8327               STD     Z+7, R18
    175              SetFsmState(KEY_EVENT_UNPRESSED);
   \   0000000A   8320               ST      Z, R18
    176          }
   \   0000000C   9508               RET
    177          
    178          //-----------------------------------------------------------------------------------------------------

   \                                 In  segment CODE, align 2, keep-with-next
    179          uint8_t CMultiFunctionKey::EventHappened(void)
   \                     ??EventHappened:
    180          {
   \   00000000   ....               RCALL   ?Subroutine4
    181              if (m_fpuiEventSourse())
   \                     ??CrossCallReturnLabel_8:
   \   00000002   9615               ADIW    R27:R26, 5
   \   00000004   91ED               LD      R30, X+
   \   00000006   91FC               LD      R31, X
   \   00000008   9509               ICALL
   \   0000000A   2300               TST     R16
   \   0000000C   F011               BREQ    ??EventHappened_1
    182              {
    183                  return 1;
   \   0000000E   E001               LDI     R16, 1
   \   00000010   C001               RJMP    ??EventHappened_2
    184              }
    185              else
    186              {
    187                  return 0;
   \                     ??EventHappened_1:
   \   00000012   E000               LDI     R16, 0
    188              }
   \                     ??EventHappened_2:
   \   00000014   ....               RJMP    ?Subroutine8
    189          
    190          }
    191          
    192          //-----------------------------------------------------------------------------------------------------

   \                                 In  segment CODE, align 2, keep-with-next
    193          uint8_t CMultiFunctionKey::KeyEventHappened(uint8_t uiCode)
   \                     ??KeyEventHappened:
    194          {
   \   00000000   ........           CALL    ?PROLOGUE4_L09
   \   00000004   01D8               MOVW    R27:R26, R17:R16
   \   00000006   2F82               MOV     R24, R18
    195              Fsm();
   \   00000008   01F8               MOVW    R31:R30, R17:R16
   \   0000000A   8121               LDD     R18, Z+1
   \   0000000C   81F2               LDD     R31, Z+2
   \   0000000E   2FE2               MOV     R30, R18
   \   00000010   9632               ADIW    R31:R30, 2
   \   00000012   9125               LPM     R18, Z+
   \   00000014   91F4               LPM     R31, Z
   \   00000016   2FE2               MOV     R30, R18
   \   00000018   9509               ICALL
    196          
    197              if (m_uiEventCode == uiCode)
   \   0000001A   01FD               MOVW    R31:R30, R27:R26
   \   0000001C   8107               LDD     R16, Z+7
   \   0000001E   1708               CP      R16, R24
   \   00000020   E000               LDI     R16, 0
   \   00000022   F419               BRNE    ??KeyEventHappened_1
    198              {
    199                  m_uiEventCode = KEY_EVENT_UNPRESSED;
   \   00000024   8307               STD     Z+7, R16
    200                  m_uiPreliminaryEventCode = KEY_EVENT_UNPRESSED;
   \   00000026   8700               STD     Z+8, R16
    201                  return 1;
   \   00000028   E001               LDI     R16, 1
    202              }
    203              else
    204              {
    205                  return 0;
   \                     ??KeyEventHappened_1:
   \   0000002A   ....               RJMP    ?Subroutine10
    206              }
    207          
    208          }
    209          
    210          //-----------------------------------------------------------------------------------------------------

   \                                 In  segment CODE, align 2, keep-with-next
    211          void CMultiFunctionKey::Fsm(void)
   \                     ??Fsm:
    212          {
   \   00000000   ....               RCALL   ?Subroutine4
    213              // ъръюх ёюс√Ґшх юсЁрсрҐ√трхь?
    214              switch (GetFsmState())
   \                     ??CrossCallReturnLabel_10:
   \   00000002   910C               LD      R16, X
   \   00000004   2300               TST     R16
   \   00000006   F069               BREQ    ??Fsm_1
   \   00000008   950A               DEC     R16
   \   0000000A   F081               BREQ    ??Fsm_2
   \   0000000C   950A               DEC     R16
   \   0000000E   F0A9               BREQ    ??Fsm_3
   \   00000010   950A               DEC     R16
   \   00000012   F0F1               BREQ    ??Fsm_4
   \   00000014   950A               DEC     R16
   \   00000016   F139               BREQ    ??Fsm_5
   \   00000018   950A               DEC     R16
   \   0000001A   F1A1               BREQ    ??Fsm_6
   \   0000001C   5002               SUBI    R16, 2
   \   0000001E   F1F1               BREQ    ??Fsm_7
   \   00000020   C041               RJMP    ??Fsm_8
    215              {
    216              case KEY_EVENT_UNPRESSED:
    217                  m_uiEventCode = m_uiPreliminaryEventCode;
   \                     ??Fsm_1:
   \   00000022   01FD               MOVW    R31:R30, R27:R26
   \   00000024   8500               LDD     R16, Z+8
   \   00000026   8307               STD     Z+7, R16
    218                  SetFsmState(KEY_EVENT_WAITING_PRESSED);
   \   00000028   E001               LDI     R16, 1
   \   0000002A   C03B               RJMP    ??Fsm_9
    219                  break;
    220          
    221              case KEY_EVENT_WAITING_PRESSED:
    222                  // ъэюяър эрцрҐр?
    223                  if (EventHappened())
   \                     ??Fsm_2:
   \   0000002C   ....               RCALL   ?Subroutine5
   \                     ??CrossCallReturnLabel_20:
   \   0000002E   F1D1               BREQ    ??Fsm_8
    224                  {
    225                      m_xTimer.Set(KEY_PRESSED_TIME_RECEIPT());
   \   00000030   E624               LDI     R18, 100
   \   00000032   E030               LDI     R19, 0
   \   00000034   ....               RCALL   ?Subroutine6
    226                      SetFsmState(KEY_EVENT_PRESSED_RECEIPT);
   \                     ??CrossCallReturnLabel_12:
   \   00000036   E002               LDI     R16, 2
   \   00000038   C034               RJMP    ??Fsm_9
    227                  }
    228                  break;
    229              case KEY_EVENT_PRESSED_RECEIPT:
    230                  // ъэюяър эрцрҐр?
    231                  if (EventHappened())
   \                     ??Fsm_3:
   \   0000003A   ....               RCALL   ?Subroutine5
   \                     ??CrossCallReturnLabel_21:
   \   0000003C   F0F9               BREQ    ??Fsm_10
    232                  {
    233                      if (m_xTimer.IsOverflow())
   \   0000003E   ....               RCALL   ?Subroutine1
   \                     ??CrossCallReturnLabel_16:
   \   00000040   F189               BREQ    ??Fsm_8
    234                      {
    235                          m_xTimer.Set(KEY_PRESSED_TIME_RESET());
   \   00000042   ED2C               LDI     R18, 220
   \   00000044   E035               LDI     R19, 5
   \   00000046   ....               RCALL   ?Subroutine0
   \                     ??CrossCallReturnLabel_0:
   \   00000048   E002               LDI     R16, 2
   \   0000004A   8700               STD     Z+8, R16
    236                          m_uiPreliminaryEventCode = KEY_EVENT_PRESSED_RECEIPT;
    237                          SetFsmState(KEY_EVENT_PRESSED_RESET);
   \   0000004C   E003               LDI     R16, 3
   \   0000004E   C029               RJMP    ??Fsm_9
    238                      }
    239                  }
    240                  else
    241                  {
    242                      m_uiEventCode = m_uiPreliminaryEventCode;
    243                      SetFsmState(KEY_EVENT_UNPRESSED);
    244                  }
    245                  break;
    246              case KEY_EVENT_PRESSED_RESET:
    247                  // ъэюяър эрцрҐр?
    248                  if (EventHappened())
   \                     ??Fsm_4:
   \   00000050   ....               RCALL   ?Subroutine5
   \                     ??CrossCallReturnLabel_22:
   \   00000052   F0A1               BREQ    ??Fsm_10
    249                  {
    250                      if (m_xTimer.IsOverflow())
   \   00000054   ....               RCALL   ?Subroutine1
   \                     ??CrossCallReturnLabel_17:
   \   00000056   F131               BREQ    ??Fsm_8
    251                      {
    252                          m_xTimer.Set(KEY_PRESSED_TIME_CHECK());
   \   00000058   EB28               LDI     R18, 184
   \   0000005A   E03B               LDI     R19, 11
   \   0000005C   ....               RCALL   ?Subroutine0
   \                     ??CrossCallReturnLabel_1:
   \   0000005E   E003               LDI     R16, 3
   \   00000060   8700               STD     Z+8, R16
    253                          m_uiPreliminaryEventCode = KEY_EVENT_PRESSED_RESET;
    254                          SetFsmState(KEY_EVENT_PRESSED_CHECK);
   \   00000062   E004               LDI     R16, 4
   \   00000064   C01E               RJMP    ??Fsm_9
    255          
    256                      }
    257                  }
    258                  else
    259                  {
    260                      m_uiEventCode = m_uiPreliminaryEventCode;
    261                      SetFsmState(KEY_EVENT_UNPRESSED);
    262                  }
    263                  break;
    264          
    265              case KEY_EVENT_PRESSED_CHECK:
    266                  // ъэюяър эрцрҐр?
    267                  if (EventHappened())
   \                     ??Fsm_5:
   \   00000066   ....               RCALL   ?Subroutine5
   \                     ??CrossCallReturnLabel_23:
   \   00000068   F049               BREQ    ??Fsm_10
    268                  {
    269                      if (m_xTimer.IsOverflow())
   \   0000006A   ....               RCALL   ?Subroutine1
   \                     ??CrossCallReturnLabel_18:
   \   0000006C   F0D9               BREQ    ??Fsm_8
    270                      {
    271                          m_xTimer.Set(KEY_PRESSED_TIME_SET_DEFAULT());
   \   0000006E   E828               LDI     R18, 136
   \   00000070   E133               LDI     R19, 19
   \   00000072   ....               RCALL   ?Subroutine0
   \                     ??CrossCallReturnLabel_2:
   \   00000074   E004               LDI     R16, 4
   \   00000076   8700               STD     Z+8, R16
    272                          m_uiPreliminaryEventCode = KEY_EVENT_PRESSED_CHECK;
    273                          SetFsmState(KEY_EVENT_PRESSED_SET_DEFAULT);
   \   00000078   E005               LDI     R16, 5
   \   0000007A   C013               RJMP    ??Fsm_9
    274          
    275                      }
    276                  }
    277                  else
    278                  {
    279                      m_uiEventCode = m_uiPreliminaryEventCode;
   \                     ??Fsm_10:
   \   0000007C   01FD               MOVW    R31:R30, R27:R26
   \   0000007E   8500               LDD     R16, Z+8
   \   00000080   8307               STD     Z+7, R16
    280                      SetFsmState(KEY_EVENT_UNPRESSED);
   \   00000082   C00E               RJMP    ??Fsm_11
    281                  }
    282                  break;
    283          
    284              case KEY_EVENT_PRESSED_SET_DEFAULT:
    285                  // ъэюяър эрцрҐр?
    286                  if (EventHappened())
   \                     ??Fsm_6:
   \   00000084   ....               RCALL   ?Subroutine5
   \                     ??CrossCallReturnLabel_24:
   \   00000086   F061               BREQ    ??Fsm_11
    287                  {
    288                      if (m_xTimer.IsOverflow())
   \   00000088   ....               RCALL   ?Subroutine1
   \                     ??CrossCallReturnLabel_19:
   \   0000008A   F061               BREQ    ??Fsm_8
    289                      {
    290                          m_xTimer.Set(KEY_PRESSED_CHECK_REPEAT_TIME());
   \   0000008C   E322               LDI     R18, 50
   \   0000008E   E030               LDI     R19, 0
   \   00000090   ....               RCALL   ?Subroutine0
    291                          m_uiPreliminaryEventCode = KEY_EVENT_PRESSED_SET_DEFAULT;
   \                     ??CrossCallReturnLabel_3:
   \   00000092   E005               LDI     R16, 5
   \   00000094   8700               STD     Z+8, R16
    292                          m_uiEventCode = m_uiPreliminaryEventCode;
   \   00000096   8307               STD     Z+7, R16
    293                          SetFsmState(KEY_EVENT_UNPRESSED_WAITING);
   \   00000098   E007               LDI     R16, 7
   \   0000009A   C003               RJMP    ??Fsm_9
    294          
    295                      }
    296                  }
    297                  else
    298                  {
    299                      SetFsmState(KEY_EVENT_UNPRESSED);
    300                  }
    301                  break;
    302          
    303              case KEY_EVENT_UNPRESSED_WAITING:
    304                  // ъэюяър эрцрҐр?
    305                  if (!(EventHappened()))
   \                     ??Fsm_7:
   \   0000009C   ....               RCALL   ?Subroutine5
   \                     ??CrossCallReturnLabel_25:
   \   0000009E   F411               BRNE    ??Fsm_8
    306                  {
    307                      SetFsmState(KEY_EVENT_UNPRESSED);
   \                     ??Fsm_11:
   \   000000A0   E000               LDI     R16, 0
   \                     ??Fsm_9:
   \   000000A2   930C               ST      X, R16
    308                  }
    309                  break;
    310          
    311          
    312              default:
    313                  break;
    314              }
    315          }
   \                     ??Fsm_8:
   \   000000A4   ....               RJMP    ?Subroutine8

   \                                 In  segment CODE, align 2, keep-with-next
   \                     ?Subroutine5:
   \   00000000   2F0A               MOV     R16, R26
   \   00000002   ....               RCALL   ??EventHappened
   \   00000004                      REQUIRE ?Subroutine9
   \   00000004                      ;               // Fall through to label ?Subroutine9

   \                                 In  segment CODE, align 2, keep-with-next
   \                     ?Subroutine9:
   \   00000000   2300               TST     R16
   \   00000002   9508               RET

   \                                 In  segment CODE, align 2, keep-with-next
   \                     ?Subroutine1:
   \   00000000   ....               RCALL   ?Subroutine7
   \                     ??CrossCallReturnLabel_13:
   \   00000002   ........           CALL    ??IsOverflow
   \   00000006   ....               RJMP    ?Subroutine9

   \                                 In  segment CODE, align 2, keep-with-next
   \                     ?Subroutine0:
   \   00000000   ....               RCALL   ?Subroutine6
   \                     ??CrossCallReturnLabel_11:
   \   00000002   01FD               MOVW    R31:R30, R27:R26
   \   00000004   9508               RET

   \                                 In  segment CODE, align 2, keep-with-next
   \                     ?Subroutine6:
   \   00000000   ....               RCALL   ?Subroutine7
   \                     ??CrossCallReturnLabel_15:
   \   00000002   ........           JMP     ??Set

   \                                 In  segment CODE, align 2, keep-with-next
   \   __version_3 CMultiFunctionKey &CMultiFunctionKey::new CMultiFunctionKey()
   \                     `??new CMultiFunctionKey`:
   \   00000000   ....               RCALL   ?Subroutine3
   \                     ??CrossCallReturnLabel_6:
   \   00000002   F009               BREQ    `??new CMultiFunctionKey_2`
   \   00000004   ....               RJMP    ??CMultiFunctionKey
   \                     `??new CMultiFunctionKey_2`:
   \   00000006   E000               LDI     R16, 0
   \   00000008   E010               LDI     R17, 0
   \   0000000A   9508               RET

   \                                 In  segment CODE, align 2, keep-with-next
   \   __version_3 CMultiFunctionKey &CMultiFunctionKey::new CMultiFunctionKey(uint8_t (*)())
   \                     `??new CMultiFunctionKey_1`:
   \   00000000   939A               ST      -Y, R25
   \   00000002   938A               ST      -Y, R24
   \   00000004   01C8               MOVW    R25:R24, R17:R16
   \   00000006   ....               RCALL   ?Subroutine3
   \                     ??CrossCallReturnLabel_7:
   \   00000008   F019               BREQ    `??new CMultiFunctionKey_3`
   \   0000000A   019C               MOVW    R19:R18, R25:R24
   \   0000000C   ....               RCALL   ??CMultiFunctionKey_1
   \   0000000E   C002               RJMP    `??new CMultiFunctionKey_4`
   \                     `??new CMultiFunctionKey_3`:
   \   00000010   E000               LDI     R16, 0
   \   00000012   E010               LDI     R17, 0
   \                     `??new CMultiFunctionKey_4`:
   \   00000014   9189               LD      R24, Y+
   \   00000016   9199               LD      R25, Y+
   \   00000018   9508               RET

   \                                 In  segment CODE, align 2, keep-with-next
   \                     ?Subroutine3:
   \   00000000   E00D               LDI     R16, 13
   \   00000002   E010               LDI     R17, 0
   \   00000004   ........           CALL    `??operator new`
   \   00000008   2F20               MOV     R18, R16
   \   0000000A   2B21               OR      R18, R17
   \   0000000C   9508               RET

   Maximum stack usage in bytes:

   CSTACK RSTACK Function
   ------ ------ --------
      2      2   CMultiFunctionKey::CMultiFunctionKey()
        2      4   -> CDfa::CDfa()
        2      2   -> CTimer::CTimer()
      4      2   CMultiFunctionKey::CMultiFunctionKey(uint8_t (*)())
        4      4   -> CDfa::CDfa()
        4      2   -> CTimer::CTimer()
      2      2   CMultiFunctionKey::EventHappened()
        2      2   -- Indirect call
      2      2   CMultiFunctionKey::Fsm()
        2      4   -> CMultiFunctionKey::EventHappened()
        2      4   -> CTimer::IsOverflow()
        2      2   -> CTimer::Set(uint16_t)
        2      4   -> CTimer::Set(uint16_t)
      4      2   CMultiFunctionKey::KeyEventHappened(uint8_t)
        4      2   -- Indirect call
      0      2   CMultiFunctionKey::SetCapabilities(uint8_t (*)())
      0      2   CMultiFunctionKey::new CMultiFunctionKey()
        0      2   -> CMultiFunctionKey::CMultiFunctionKey()
        0      4   -> operator new(unsigned int)
      2      2   CMultiFunctionKey::new CMultiFunctionKey(uint8_t (*)())
        2      2   -> CMultiFunctionKey::CMultiFunctionKey(uint8_t (*)())
        2      4   -> operator new(unsigned int)
      3      2   CMultiFunctionKey::~CMultiFunctionKey()
        3      2   -> CDfa::~CDfa()
        3      2   -> operator delete(void *)


   Segment part sizes:

   Bytes  Function/Label
   -----  --------------
       6  ?Subroutine0
       8  ?Subroutine1
       6  ?Subroutine10
      20  ?Subroutine2
      14  ?Subroutine3
       8  ?Subroutine4
       4  ?Subroutine5
       6  ?Subroutine6
       8  ?Subroutine7
       6  ?Subroutine8
       4  ?Subroutine9
       6  CMultiFunctionKey::CMultiFunctionKey()
      26  CMultiFunctionKey::CMultiFunctionKey(uint8_t (*)())
      22  CMultiFunctionKey::EventHappened()
     166  CMultiFunctionKey::Fsm()
      44  CMultiFunctionKey::KeyEventHappened(uint8_t)
      14  CMultiFunctionKey::SetCapabilities(uint8_t (*)())
      12  CMultiFunctionKey::new CMultiFunctionKey()
      26  CMultiFunctionKey::new CMultiFunctionKey(uint8_t (*)())
      38  CMultiFunctionKey::~CMultiFunctionKey()
       4  -- Other

 
 444 bytes in segment CODE
   4 bytes in segment NEAR_F
 
 444 bytes of CODE memory (+ 4 bytes shared)

Errors: none
Warnings: none
