###############################################################################
#
# IAR C/C++ Compiler V7.10.6.1378 for Atmel AVR           09/Aug/2022  11:07:02
# Copyright 1996-2018 IAR Systems AB.
#
#    Source file  =  D:\Projects\CautoProjects\PSS48\PSS48\Modbus\modbus.cpp
#    Command line =  
#        -f C:\Users\ghost\AppData\Local\Temp\EW252E.tmp
#        (--string_literals_in_flash
#        D:\Projects\CautoProjects\PSS48\PSS48\Modbus\modbus.cpp --cpu=m128a
#        -ms -o D:\Projects\CautoProjects\PSS48\PSS48\Debug\Obj -lC
#        D:\Projects\CautoProjects\PSS48\PSS48\Debug\List -lB
#        D:\Projects\CautoProjects\PSS48\PSS48\Debug\List -y
#        --initializers_in_flash --root_variables --debug
#        -DENABLE_BIT_DEFINITIONS -e -I
#        D:\Projects\CautoProjects\PSS48\PSS48\include\ -I
#        D:\Projects\CautoProjects\PSS48\PSS48\Modbus\ --eeprom_size 4096
#        --dlib --dlib_config "C:\Program Files (x86)\IAR Systems\Embedded
#        Workbench 8.0\avr\LIB\DLIB\dlAVR-3s-ec_mul-n.h" -Ohz --eec++)
#    Locale       =  Russian_RUS.1251
#    List file    =  
#        D:\Projects\CautoProjects\PSS48\PSS48\Debug\List\modbus.lst
#    Object file  =  D:\Projects\CautoProjects\PSS48\PSS48\Debug\Obj\modbus.r90
#
###############################################################################

D:\Projects\CautoProjects\PSS48\PSS48\Modbus\modbus.cpp
      1          //-----------------------------------------------------------------------------------------------------
      2          //  Sourse      : FileName.cpp
      3          //  Created     : 01.06.2022
      4          //  Author      : Alexandr Volvenkin
      5          //  email       : aav-36@mail.ru
      6          //  GitHub      : https://github.com/AlexandrVolvenkin
      7          //-----------------------------------------------------------------------------------------------------
      8          
      9          #include "Modbus.h"

   \                                 In  segment ABSOLUTE, at 0x9d, root
   \   union <unnamed> volatile __io _A_UCSR1C
   \                     _A_UCSR1C:
   \   00000000                      DS8 1

   \                                 In  segment ABSOLUTE, at 0x9c, root
   \   union <unnamed> volatile __io _A_UDR1
   \                     _A_UDR1:
   \   00000000                      DS8 1

   \                                 In  segment ABSOLUTE, at 0x9b, root
   \   union <unnamed> volatile __io _A_UCSR1A
   \                     _A_UCSR1A:
   \   00000000                      DS8 1

   \                                 In  segment ABSOLUTE, at 0x9a, root
   \   union <unnamed> volatile __io _A_UCSR1B
   \                     _A_UCSR1B:
   \   00000000                      DS8 1

   \                                 In  segment ABSOLUTE, at 0x99, root
   \   union <unnamed> volatile __io _A_UBRR1L
   \                     _A_UBRR1L:
   \   00000000                      DS8 1

   \                                 In  segment ABSOLUTE, at 0x98, root
   \   union <unnamed> volatile __io _A_UBRR1H
   \                     _A_UBRR1H:
   \   00000000                      DS8 1

   \                                 In  segment ABSOLUTE, at 0x95, root
   \   union <unnamed> volatile __io _A_UCSR0C
   \                     _A_UCSR0C:
   \   00000000                      DS8 1

   \                                 In  segment ABSOLUTE, at 0x90, root
   \   union <unnamed> volatile __io _A_UBRR0H
   \                     _A_UBRR0H:
   \   00000000                      DS8 1

   \                                 In  segment ABSOLUTE, at 0x8c, root
   \   union <unnamed> volatile __io _A_TCCR3C
   \                     _A_TCCR3C:
   \   00000000                      DS8 1

   \                                 In  segment ABSOLUTE, at 0x8b, root
   \   union <unnamed> volatile __io _A_TCCR3A
   \                     _A_TCCR3A:
   \   00000000                      DS8 1

   \                                 In  segment ABSOLUTE, at 0x8a, root
   \   union <unnamed> volatile __io _A_TCCR3B
   \                     _A_TCCR3B:
   \   00000000                      DS8 1

   \                                 In  segment ABSOLUTE, at 0x88, root
   \   union <unnamed> volatile __io _A_TCNT3
   \                     _A_TCNT3:
   \   00000000                      DS8 2

   \                                 In  segment ABSOLUTE, at 0x86, root
   \   union <unnamed> volatile __io _A_OCR3A
   \                     _A_OCR3A:
   \   00000000                      DS8 2

   \                                 In  segment ABSOLUTE, at 0x84, root
   \   union <unnamed> volatile __io _A_OCR3B
   \                     _A_OCR3B:
   \   00000000                      DS8 2

   \                                 In  segment ABSOLUTE, at 0x82, root
   \   union <unnamed> volatile __io _A_OCR3C
   \                     _A_OCR3C:
   \   00000000                      DS8 2

   \                                 In  segment ABSOLUTE, at 0x80, root
   \   union <unnamed> volatile __io _A_ICR3
   \                     _A_ICR3:
   \   00000000                      DS8 2

   \                                 In  segment ABSOLUTE, at 0x7d, root
   \   union <unnamed> volatile __io _A_ETIMSK
   \                     _A_ETIMSK:
   \   00000000                      DS8 1

   \                                 In  segment ABSOLUTE, at 0x7c, root
   \   union <unnamed> volatile __io _A_ETIFR
   \                     _A_ETIFR:
   \   00000000                      DS8 1

   \                                 In  segment ABSOLUTE, at 0x7a, root
   \   union <unnamed> volatile __io _A_TCCR1C
   \                     _A_TCCR1C:
   \   00000000                      DS8 1

   \                                 In  segment ABSOLUTE, at 0x78, root
   \   union <unnamed> volatile __io _A_OCR1C
   \                     _A_OCR1C:
   \   00000000                      DS8 2

   \                                 In  segment ABSOLUTE, at 0x74, root
   \   union <unnamed> volatile __io _A_TWCR
   \                     _A_TWCR:
   \   00000000                      DS8 1

   \                                 In  segment ABSOLUTE, at 0x73, root
   \   union <unnamed> volatile __io _A_TWDR
   \                     _A_TWDR:
   \   00000000                      DS8 1

   \                                 In  segment ABSOLUTE, at 0x72, root
   \   union <unnamed> volatile __io _A_TWAR
   \                     _A_TWAR:
   \   00000000                      DS8 1

   \                                 In  segment ABSOLUTE, at 0x71, root
   \   union <unnamed> volatile __io _A_TWSR
   \                     _A_TWSR:
   \   00000000                      DS8 1

   \                                 In  segment ABSOLUTE, at 0x70, root
   \   union <unnamed> volatile __io _A_TWBR
   \                     _A_TWBR:
   \   00000000                      DS8 1

   \                                 In  segment ABSOLUTE, at 0x6f, root
   \   union <unnamed> volatile __io _A_OSCCAL
   \                     _A_OSCCAL:
   \   00000000                      DS8 1

   \                                 In  segment ABSOLUTE, at 0x6d, root
   \   union <unnamed> volatile __io _A_XMCRA
   \                     _A_XMCRA:
   \   00000000                      DS8 1

   \                                 In  segment ABSOLUTE, at 0x6c, root
   \   union <unnamed> volatile __io _A_XMCRB
   \                     _A_XMCRB:
   \   00000000                      DS8 1

   \                                 In  segment ABSOLUTE, at 0x6a, root
   \   union <unnamed> volatile __io _A_EICRA
   \                     _A_EICRA:
   \   00000000                      DS8 1

   \                                 In  segment ABSOLUTE, at 0x68, root
   \   union <unnamed> volatile __io _A_SPMCSR
   \                     _A_SPMCSR:
   \   00000000                      DS8 1

   \                                 In  segment ABSOLUTE, at 0x65, root
   \   union <unnamed> volatile __io _A_PORTG
   \                     _A_PORTG:
   \   00000000                      DS8 1

   \                                 In  segment ABSOLUTE, at 0x64, root
   \   union <unnamed> volatile __io _A_DDRG
   \                     _A_DDRG:
   \   00000000                      DS8 1

   \                                 In  segment ABSOLUTE, at 0x63, root
   \   union <unnamed> volatile __io _A_PING
   \                     _A_PING:
   \   00000000                      DS8 1

   \                                 In  segment ABSOLUTE, at 0x62, root
   \   union <unnamed> volatile __io _A_PORTF
   \                     _A_PORTF:
   \   00000000                      DS8 1

   \                                 In  segment ABSOLUTE, at 0x61, root
   \   union <unnamed> volatile __io _A_DDRF
   \                     _A_DDRF:
   \   00000000                      DS8 1

   \                                 In  segment ABSOLUTE, at 0x5f, root
   \   union <unnamed> volatile __io _A_SREG
   \                     _A_SREG:
   \   00000000                      DS8 1

   \                                 In  segment ABSOLUTE, at 0x5d, root
   \   union <unnamed> volatile __io _A_SP
   \                     _A_SP:
   \   00000000                      DS8 2

   \                                 In  segment ABSOLUTE, at 0x5c, root
   \   union <unnamed> volatile __io _A_XDIV
   \                     _A_XDIV:
   \   00000000                      DS8 1

   \                                 In  segment ABSOLUTE, at 0x5b, root
   \   union <unnamed> volatile __io _A_RAMPZ
   \                     _A_RAMPZ:
   \   00000000                      DS8 1

   \                                 In  segment ABSOLUTE, at 0x5a, root
   \   union <unnamed> volatile __io _A_EICRB
   \                     _A_EICRB:
   \   00000000                      DS8 1

   \                                 In  segment ABSOLUTE, at 0x59, root
   \   union <unnamed> volatile __io _A_EIMSK
   \                     _A_EIMSK:
   \   00000000                      DS8 1

   \                                 In  segment ABSOLUTE, at 0x58, root
   \   union <unnamed> volatile __io _A_EIFR
   \                     _A_EIFR:
   \   00000000                      DS8 1

   \                                 In  segment ABSOLUTE, at 0x57, root
   \   union <unnamed> volatile __io _A_TIMSK
   \                     _A_TIMSK:
   \   00000000                      DS8 1

   \                                 In  segment ABSOLUTE, at 0x56, root
   \   union <unnamed> volatile __io _A_TIFR
   \                     _A_TIFR:
   \   00000000                      DS8 1

   \                                 In  segment ABSOLUTE, at 0x55, root
   \   union <unnamed> volatile __io _A_MCUCR
   \                     _A_MCUCR:
   \   00000000                      DS8 1

   \                                 In  segment ABSOLUTE, at 0x54, root
   \   union <unnamed> volatile __io _A_MCUCSR
   \                     _A_MCUCSR:
   \   00000000                      DS8 1

   \                                 In  segment ABSOLUTE, at 0x53, root
   \   union <unnamed> volatile __io _A_TCCR0
   \                     _A_TCCR0:
   \   00000000                      DS8 1

   \                                 In  segment ABSOLUTE, at 0x52, root
   \   union <unnamed> volatile __io _A_TCNT0
   \                     _A_TCNT0:
   \   00000000                      DS8 1

   \                                 In  segment ABSOLUTE, at 0x51, root
   \   union <unnamed> volatile __io _A_OCR0
   \                     _A_OCR0:
   \   00000000                      DS8 1

   \                                 In  segment ABSOLUTE, at 0x50, root
   \   union <unnamed> volatile __io _A_ASSR
   \                     _A_ASSR:
   \   00000000                      DS8 1

   \                                 In  segment ABSOLUTE, at 0x4f, root
   \   union <unnamed> volatile __io _A_TCCR1A
   \                     _A_TCCR1A:
   \   00000000                      DS8 1

   \                                 In  segment ABSOLUTE, at 0x4e, root
   \   union <unnamed> volatile __io _A_TCCR1B
   \                     _A_TCCR1B:
   \   00000000                      DS8 1

   \                                 In  segment ABSOLUTE, at 0x4c, root
   \   union <unnamed> volatile __io _A_TCNT1
   \                     _A_TCNT1:
   \   00000000                      DS8 2

   \                                 In  segment ABSOLUTE, at 0x4a, root
   \   union <unnamed> volatile __io _A_OCR1A
   \                     _A_OCR1A:
   \   00000000                      DS8 2

   \                                 In  segment ABSOLUTE, at 0x48, root
   \   union <unnamed> volatile __io _A_OCR1B
   \                     _A_OCR1B:
   \   00000000                      DS8 2

   \                                 In  segment ABSOLUTE, at 0x46, root
   \   union <unnamed> volatile __io _A_ICR1
   \                     _A_ICR1:
   \   00000000                      DS8 2

   \                                 In  segment ABSOLUTE, at 0x45, root
   \   union <unnamed> volatile __io _A_TCCR2
   \                     _A_TCCR2:
   \   00000000                      DS8 1

   \                                 In  segment ABSOLUTE, at 0x44, root
   \   union <unnamed> volatile __io _A_TCNT2
   \                     _A_TCNT2:
   \   00000000                      DS8 1

   \                                 In  segment ABSOLUTE, at 0x43, root
   \   union <unnamed> volatile __io _A_OCR2
   \                     _A_OCR2:
   \   00000000                      DS8 1

   \                                 In  segment ABSOLUTE, at 0x42, root
   \   union <unnamed> volatile __io _A_OCDR
   \                     _A_OCDR:
   \   00000000                      DS8 1

   \                                 In  segment ABSOLUTE, at 0x41, root
   \   union <unnamed> volatile __io _A_WDTCR
   \                     _A_WDTCR:
   \   00000000                      DS8 1

   \                                 In  segment ABSOLUTE, at 0x40, root
   \   union <unnamed> volatile __io _A_SFIOR
   \                     _A_SFIOR:
   \   00000000                      DS8 1

   \                                 In  segment ABSOLUTE, at 0x3e, root
   \   union <unnamed> volatile __io _A_EEAR
   \                     _A_EEAR:
   \   00000000                      DS8 2

   \                                 In  segment ABSOLUTE, at 0x3d, root
   \   union <unnamed> volatile __io _A_EEDR
   \                     _A_EEDR:
   \   00000000                      DS8 1

   \                                 In  segment ABSOLUTE, at 0x3c, root
   \   union <unnamed> volatile __io _A_EECR
   \                     _A_EECR:
   \   00000000                      DS8 1

   \                                 In  segment ABSOLUTE, at 0x3b, root
   \   union <unnamed> volatile __io _A_PORTA
   \                     _A_PORTA:
   \   00000000                      DS8 1

   \                                 In  segment ABSOLUTE, at 0x3a, root
   \   union <unnamed> volatile __io _A_DDRA
   \                     _A_DDRA:
   \   00000000                      DS8 1

   \                                 In  segment ABSOLUTE, at 0x39, root
   \   union <unnamed> volatile __io _A_PINA
   \                     _A_PINA:
   \   00000000                      DS8 1

   \                                 In  segment ABSOLUTE, at 0x38, root
   \   union <unnamed> volatile __io _A_PORTB
   \                     _A_PORTB:
   \   00000000                      DS8 1

   \                                 In  segment ABSOLUTE, at 0x37, root
   \   union <unnamed> volatile __io _A_DDRB
   \                     _A_DDRB:
   \   00000000                      DS8 1

   \                                 In  segment ABSOLUTE, at 0x36, root
   \   union <unnamed> volatile __io _A_PINB
   \                     _A_PINB:
   \   00000000                      DS8 1

   \                                 In  segment ABSOLUTE, at 0x35, root
   \   union <unnamed> volatile __io _A_PORTC
   \                     _A_PORTC:
   \   00000000                      DS8 1

   \                                 In  segment ABSOLUTE, at 0x34, root
   \   union <unnamed> volatile __io _A_DDRC
   \                     _A_DDRC:
   \   00000000                      DS8 1

   \                                 In  segment ABSOLUTE, at 0x33, root
   \   union <unnamed> volatile __io _A_PINC
   \                     _A_PINC:
   \   00000000                      DS8 1

   \                                 In  segment ABSOLUTE, at 0x32, root
   \   union <unnamed> volatile __io _A_PORTD
   \                     _A_PORTD:
   \   00000000                      DS8 1

   \                                 In  segment ABSOLUTE, at 0x31, root
   \   union <unnamed> volatile __io _A_DDRD
   \                     _A_DDRD:
   \   00000000                      DS8 1

   \                                 In  segment ABSOLUTE, at 0x30, root
   \   union <unnamed> volatile __io _A_PIND
   \                     _A_PIND:
   \   00000000                      DS8 1

   \                                 In  segment ABSOLUTE, at 0x2f, root
   \   union <unnamed> volatile __io _A_SPDR
   \                     _A_SPDR:
   \   00000000                      DS8 1

   \                                 In  segment ABSOLUTE, at 0x2e, root
   \   union <unnamed> volatile __io _A_SPSR
   \                     _A_SPSR:
   \   00000000                      DS8 1

   \                                 In  segment ABSOLUTE, at 0x2d, root
   \   union <unnamed> volatile __io _A_SPCR
   \                     _A_SPCR:
   \   00000000                      DS8 1

   \                                 In  segment ABSOLUTE, at 0x2c, root
   \   union <unnamed> volatile __io _A_UDR0
   \                     _A_UDR0:
   \   00000000                      DS8 1

   \                                 In  segment ABSOLUTE, at 0x2b, root
   \   union <unnamed> volatile __io _A_UCSR0A
   \                     _A_UCSR0A:
   \   00000000                      DS8 1

   \                                 In  segment ABSOLUTE, at 0x2a, root
   \   union <unnamed> volatile __io _A_UCSR0B
   \                     _A_UCSR0B:
   \   00000000                      DS8 1

   \                                 In  segment ABSOLUTE, at 0x29, root
   \   union <unnamed> volatile __io _A_UBRR0L
   \                     _A_UBRR0L:
   \   00000000                      DS8 1

   \                                 In  segment ABSOLUTE, at 0x28, root
   \   union <unnamed> volatile __io _A_ACSR
   \                     _A_ACSR:
   \   00000000                      DS8 1

   \                                 In  segment ABSOLUTE, at 0x27, root
   \   union <unnamed> volatile __io _A_ADMUX
   \                     _A_ADMUX:
   \   00000000                      DS8 1

   \                                 In  segment ABSOLUTE, at 0x26, root
   \   union <unnamed> volatile __io _A_ADCSRA
   \                     _A_ADCSRA:
   \   00000000                      DS8 1

   \                                 In  segment ABSOLUTE, at 0x24, root
   \   union <unnamed> volatile __io _A_ADC
   \                     _A_ADC:
   \   00000000                      DS8 2

   \                                 In  segment ABSOLUTE, at 0x23, root
   \   union <unnamed> volatile __io _A_PORTE
   \                     _A_PORTE:
   \   00000000                      DS8 1

   \                                 In  segment ABSOLUTE, at 0x22, root
   \   union <unnamed> volatile __io _A_DDRE
   \                     _A_DDRE:
   \   00000000                      DS8 1

   \                                 In  segment ABSOLUTE, at 0x21, root
   \   union <unnamed> volatile __io _A_PINE
   \                     _A_PINE:
   \   00000000                      DS8 1

   \                                 In  segment ABSOLUTE, at 0x20, root
   \   union <unnamed> volatile __io _A_PINF
   \                     _A_PINF:
   \   00000000                      DS8 1

   \                                 In  segment CODE, align 2, keep-with-next
   \   __version_3 uint16_t CModbus::HEADER_LENGTH()
   \                     ??HEADER_LENGTH:
   \   00000000   E001               LDI     R16, 1
   \   00000002   E010               LDI     R17, 0
   \   00000004   9508               RET

   \                                 In  segment CODE, align 2, keep-with-next
   \   __version_3 uint16_t CModbus::CRC_LENGTH()
   \                     ??CRC_LENGTH:
   \   00000000   E002               LDI     R16, 2
   \   00000002   E010               LDI     R17, 0
   \   00000004   9508               RET
     10          #include "Platform.h"
     11          #include "Pss21.h"
     12          #include "DataBase.h"
     13          
     14          //-----------------------------------------------------------------------------------------------------

   \                                 In  segment CODE, align 2, keep-with-next
     15          CModbus::CModbus()
   \                     ??CModbus:
   \   00000000   93BA               ST      -Y, R27
   \   00000002   93AA               ST      -Y, R26
   \   00000004   01D8               MOVW    R27:R26, R17:R16
     16          {
   \   00000006   ........           CALL    ??CDfa
   \   0000000A   ....               LDI     R16, LOW(??__vtbl_1)
   \   0000000C   ....               LDI     R17, (??__vtbl_1) >> 8
   \   0000000E   01FD               MOVW    R31:R30, R27:R26
   \   00000010   8301               STD     Z+1, R16
   \   00000012   8312               STD     Z+2, R17
     17              //ctor
     18          }
   \   00000014   018D               MOVW    R17:R16, R27:R26
   \   00000016   91A9               LD      R26, Y+
   \   00000018   91B9               LD      R27, Y+
   \   0000001A   9508               RET
     19          
     20          ////-----------------------------------------------------------------------------------------------------
     21          //CModbus::CModbus(CUart* pxDevice,
     22          //                 uint32_t uiBaudRate,
     23          //                 char cParity,
     24          //                 uint8_t uiDataBit,
     25          //                 uint8_t uiStopBit,
     26          //                 uint8_t *puiRxBuffer,
     27          //                 uint8_t *puiTxBuffer) :
     28          //    pxDevice(pxDevice),
     29          //    uiBaudRate(uiBaudRate),
     30          //    cParity(cParity),
     31          //    uiDataBit(uiDataBit),
     32          //    uiStopBit(uiStopBit),
     33          //    m_puiRxBuffer(puiRxBuffer),
     34          //    m_puiTxBuffer(puiTxBuffer)
     35          //{
     36          //    SetFsmState(MODBUS_IDDLE);
     37          //}
     38          
     39          //-----------------------------------------------------------------------------------------------------

   \                                 In  segment CODE, align 2, keep-with-next
     40          CModbus::~CModbus()
   \                     `?~CModbus`:
     41          {
   \   00000000   ........           CALL    ?PROLOGUE3_L09
   \   00000004   01C8               MOVW    R25:R24, R17:R16
   \   00000006   2FA2               MOV     R26, R18
   \   00000008   2B01               OR      R16, R17
   \   0000000A   F051               BREQ    `?~CModbus_1`
     42          
     43          }
   \   0000000C   E020               LDI     R18, 0
   \   0000000E   E030               LDI     R19, 0
   \   00000010   2F08               MOV     R16, R24
   \   00000012   ........           CALL    `?~CDfa`
   \   00000016   FBA0               BST     R26, 0
   \   00000018   F41E               BRTC    `?~CModbus_1`
   \   0000001A   018C               MOVW    R17:R16, R25:R24
   \   0000001C   ........           CALL    `??operator delete`
   \                     `?~CModbus_1`:
   \   00000020   E0E3               LDI     R30, 3
   \   00000022   ........           JMP     ?EPILOGUE_B3_L09
     44          
     45          //-----------------------------------------------------------------------------------------------------

   \                                 In  segment CODE, align 2, keep-with-next
     46          void CModbus::SlaveSet(uint8_t uiSlave)
   \                     ??SlaveSet:
     47          {
     48              m_uiOwnAddress = uiSlave;
   \   00000000   01F8               MOVW    R31:R30, R17:R16
   \   00000002   8325               STD     Z+5, R18
     49          }
   \   00000004   9508               RET
     50          
     51          //-----------------------------------------------------------------------------------------------------

   \                                 In  segment CODE, align 2, keep-with-next
     52          int8_t CModbus::MessengerIsReady(void)
   \                     ??MessengerIsReady:
     53          {
     54              if (GetFsmState() == IDDLE)
   \   00000000   01F8               MOVW    R31:R30, R17:R16
   \   00000002   8100               LD      R16, Z
   \   00000004   2300               TST     R16
   \   00000006   F409               BRNE    ??MessengerIsReady_1
     55              {
     56                  return 1;
   \   00000008   ....               RJMP    ?Subroutine60
     57              }
     58              else
     59              {
     60                  return 0;
   \                     ??MessengerIsReady_1:
   \   0000000A   ....               RJMP    ?Subroutine59
     61              }
     62          }

   \                                 In  segment CODE, align 2, keep-with-next
   \                     ?Subroutine60:
   \   00000000   E001               LDI     R16, 1
   \   00000002   9508               RET

   \                                 In  segment CODE, align 2, keep-with-next
   \                     ?Subroutine59:
   \   00000000   E000               LDI     R16, 0
   \   00000002   9508               RET
     63          
     64          //-----------------------------------------------------------------------------------------------------

   \                                 In  segment CODE, align 2, keep-with-next
     65          int16_t CModbus::SendMessage(uint8_t *puiMessage, uint16_t uiLength)
   \                     ??SendMessage:
     66          {
   \   00000000   ........           CALL    ?PROLOGUE4_L09
   \   00000004   01D8               MOVW    R27:R26, R17:R16
   \   00000006   01C9               MOVW    R25:R24, R19:R18
     67              uiLength = Tail(puiMessage, uiLength);
   \   00000008   01F8               MOVW    R31:R30, R17:R16
   \   0000000A   8161               LDD     R22, Z+1
   \   0000000C   81F2               LDD     R31, Z+2
   \   0000000E   2FE6               MOV     R30, R22
   \   00000010   9636               ADIW    R31:R30, 6
   \   00000012   ....               RCALL   ?Subroutine53
     68              return Send(puiMessage, uiLength);
   \                     ??CrossCallReturnLabel_92:
   \   00000014   01A8               MOVW    R21:R20, R17:R16
   \   00000016   019C               MOVW    R19:R18, R25:R24
   \   00000018   018D               MOVW    R17:R16, R27:R26
   \   0000001A   9611               ADIW    R27:R26, 1
   \   0000001C   91ED               LD      R30, X+
   \   0000001E   91FC               LD      R31, X
   \   00000020   963C               ADIW    R31:R30, 12
   \   00000022   ....               RCALL   ?Subroutine53
   \                     ??CrossCallReturnLabel_93:
   \   00000024                      REQUIRE ?Subroutine62
   \   00000024                      ;               // Fall through to label ?Subroutine62
     69          }

   \                                 In  segment CODE, align 2, keep-with-next
   \                     ?Subroutine62:
   \   00000000   E0E4               LDI     R30, 4
   \   00000002   ........           JMP     ?EPILOGUE_B4_L09

   \                                 In  segment CODE, align 2, keep-with-next
   \                     ?Subroutine53:
   \   00000000   9165               LPM     R22, Z+
   \   00000002   91F4               LPM     R31, Z
   \   00000004   2FE6               MOV     R30, R22
   \   00000006   9409               IJMP
     70          
     71          //-----------------------------------------------------------------------------------------------------
     72          /* Build the exception response */

   \                                 In  segment CODE, align 2, keep-with-next
     73          int16_t CModbus::ResponseException(uint8_t uiSlave, uint8_t uiFunctionCode, uint8_t uiExceptionCode, uint8_t *puiResponse)
   \                     ??ResponseException:
     74          {
   \   00000000   ........           CALL    ?PROLOGUE4_L09
   \   00000004   01F8               MOVW    R31:R30, R17:R16
   \   00000006   2F84               MOV     R24, R20
   \   00000008   01DB               MOVW    R27:R26, R23:R22
     75              int16_t uiLength;
     76          
     77              uiLength = ResponseBasis(uiSlave, (uiFunctionCode | 0x80), puiResponse);
   \   0000000A   01AB               MOVW    R21:R20, R23:R22
   \   0000000C   6830               ORI     R19, 0x80
   \   0000000E   ....               RCALL   ?Subroutine51
     78              /* Positive exception code */
     79              puiResponse[uiLength++] = uiExceptionCode;
   \                     ??CrossCallReturnLabel_88:
   \   00000010   0FA0               ADD     R26, R16
   \   00000012   1FB1               ADC     R27, R17
   \   00000014   938C               ST      X, R24
     80          
     81              return uiLength;
   \   00000016   ....               RCALL   ?Subroutine21
   \                     ??CrossCallReturnLabel_23:
   \   00000018   ....               RJMP    ?Subroutine62
     82          }

   \                                 In  segment CODE, align 2, keep-with-next
   \                     ?Subroutine21:
   \   00000000   5F0F               SUBI    R16, 255
   \   00000002   4F1F               SBCI    R17, 255
   \   00000004   9508               RET

   \                                 In  segment CODE, align 2, keep-with-next
   \                     ?Subroutine51:
   \   00000000   8161               LDD     R22, Z+1
   \   00000002   81F2               LDD     R31, Z+2
   \   00000004   2FE6               MOV     R30, R22
   \   00000006   963A               ADIW    R31:R30, 10
   \   00000008                      REQUIRE ?Subroutine53
   \   00000008                      ;               // Fall through to label ?Subroutine53
     83          
     84          //-----------------------------------------------------------------------------------------------------

   \                                 In  segment CODE, align 2, keep-with-next
     85          uint8_t CModbus::ResponseIsReceived(void)
   \                     ??ResponseIsReceived:
     86          {
     87              if (GetFsmState() == IDDLE)
   \   00000000   01F8               MOVW    R31:R30, R17:R16
   \   00000002   8100               LD      R16, Z
   \   00000004   2300               TST     R16
   \   00000006   F409               BRNE    ??ResponseIsReceived_1
     88              {
     89                  return 1;
   \   00000008   ....               RJMP    ?Subroutine60
     90              }
     91              else
     92              {
     93                  return 0;
   \                     ??ResponseIsReceived_1:
   \   0000000A   ....               RJMP    ?Subroutine59
     94              }
     95          };
     96          
     97          //-----------------------------------------------------------------------------------------------------

   \                                 In  segment CODE, align 2, keep-with-next
     98          int16_t CModbus::ByteToBitPack(uint16_t uiAddress,
   \                     ??ByteToBitPack:
     99                                         uint16_t uiNumberB,
    100                                         uint8_t *m_puiCoils,
    101                                         uint8_t *puiResponse,
    102                                         uint16_t uiLength)
    103          {
   \   00000000   ....               RCALL   ?Subroutine23
   \                     ??CrossCallReturnLabel_28:
   \   00000002                      REQUIRE ?Register_R4_is_cg_reg
   \   00000002                      REQUIRE ?Register_R5_is_cg_reg
   \   00000002                      REQUIRE ?Register_R6_is_cg_reg
   \   00000002                      REQUIRE ?Register_R8_is_cg_reg
   \   00000002                      REQUIRE ?Register_R9_is_cg_reg
   \   00000002   0119               MOVW    R3:R2, R19:R18
   \   00000004   010A               MOVW    R1:R0, R21:R20
    104              uint8_t uiData = 0;
   \   00000006   E050               LDI     R21, 0
    105              uint8_t uiShift = 0;
   \   00000008   2466               CLR     R6
    106              for (uint16_t i = 0; i < uiNumberB; i++)
   \   0000000A   E020               LDI     R18, 0
   \   0000000C   E030               LDI     R19, 0
   \   0000000E   844A               LDD     R4, Y+10
   \   00000010   845B               LDD     R5, Y+11
   \   00000012   858C               LDD     R24, Y+12
   \   00000014   859D               LDD     R25, Y+13
   \   00000016   C002               RJMP    ??CrossCallReturnLabel_124
    107              {
    108                  if (m_puiCoils[uiAddress++])
    109                  {
    110                      uiData |= (1 << uiShift);
    111                  }
    112                  // Byte is full?
    113                  if (uiShift == 7)
    114                  {
    115                      puiResponse[uiLength++] = uiData;
    116                      uiData = 0;
    117                      uiShift = 0;
    118                  }
    119                  else
    120                  {
    121                      uiShift++;
   \                     ??ByteToBitPack_1:
   \   00000018   9463               INC     R6
    122                  }
   \                     ??ByteToBitPack_2:
   \   0000001A   ....               RCALL   ??Subroutine76_0
   \                     ??CrossCallReturnLabel_124:
   \   0000001C   01F2               MOVW    R31:R30, R5:R4
   \   0000001E   ....               RCALL   ??Subroutine81_0
   \                     ??CrossCallReturnLabel_144:
   \   00000020   1520               CP      R18, R0
   \   00000022   0531               CPC     R19, R1
   \   00000024   F4C0               BRCC    ??ByteToBitPack_3
   \   00000026   0141               MOVW    R9:R8, R3:R2
   \   00000028   E001               LDI     R16, 1
   \   0000002A   0E20               ADD     R2, R16
   \   0000002C   E000               LDI     R16, 0
   \   0000002E   1E30               ADC     R3, R16
   \   00000030   01DB               MOVW    R27:R26, R23:R22
   \   00000032   0DA8               ADD     R26, R8
   \   00000034   1DB9               ADC     R27, R9
   \   00000036   910C               LD      R16, X
   \   00000038   2300               TST     R16
   \   0000003A   F029               BREQ    ??ByteToBitPack_4
   \   0000003C   E001               LDI     R16, 1
   \   0000003E   E010               LDI     R17, 0
   \   00000040   2D46               MOV     R20, R6
   \   00000042   ....               RCALL   ?Subroutine67
   \                     ??CrossCallReturnLabel_117:
   \   00000044   2B50               OR      R21, R16
   \                     ??ByteToBitPack_4:
   \   00000046   E007               LDI     R16, 7
   \   00000048   1660               CP      R6, R16
   \   0000004A   F731               BRNE    ??ByteToBitPack_1
   \   0000004C   8350               ST      Z, R21
   \   0000004E   9601               ADIW    R25:R24, 1
   \   00000050   E050               LDI     R21, 0
   \   00000052   2466               CLR     R6
   \   00000054   CFE2               RJMP    ??ByteToBitPack_2
    123              }
    124          
    125              if (uiShift != 0)
   \                     ??ByteToBitPack_3:
   \   00000056   2066               TST     R6
   \   00000058   F011               BREQ    ??ByteToBitPack_5
    126              {
    127                  puiResponse[uiLength++] = uiData;
   \   0000005A   8350               ST      Z, R21
   \   0000005C   9601               ADIW    R25:R24, 1
    128              }
    129          
    130              return uiLength;
   \                     ??ByteToBitPack_5:
   \   0000005E   018C               MOVW    R17:R16, R25:R24
   \   00000060   E0EE               LDI     R30, 14
   \   00000062   ....               RJMP    ??Subroutine78_0
    131          }

   \                                 In  segment CODE, align 2, keep-with-next
   \                     ??Subroutine76_0:
   \   00000000   5F2F               SUBI    R18, 255
   \   00000002   4F3F               SBCI    R19, 255
   \   00000004   9508               RET

   \                                 In  segment CODE, align 2, keep-with-next
   \                     ??Subroutine78_0:
   \   00000000   ........           JMP     ?EPILOGUE_B10_L09

   \                                 In  segment CODE, align 2, keep-with-next
   \                     ?Subroutine23:
   \   00000000   ........           JMP     ?PROLOGUE10_L09

   \                                 In  segment CODE, align 2, keep-with-next
   \                     ??Subroutine81_0:
   \   00000000   0FE8               ADD     R30, R24
   \   00000002   1FF9               ADC     R31, R25
   \   00000004   9508               RET

   \                                 In  segment CODE, align 2, keep-with-next
   \                     ?Subroutine67:
   \   00000000   ........           JMP     ?S_SHL_L02
    132          
    133          //-----------------------------------------------------------------------------------------------------

   \                                 In  segment CODE, align 2, keep-with-next
    134          int16_t CModbus::ReadCoils(uint8_t *puiRequest, uint8_t *puiResponse, uint16_t uiLength)
   \                     ??ReadCoils:
    135          {
   \   00000000   ....               RCALL   ?Subroutine26
   \                     ??CrossCallReturnLabel_34:
   \   00000002                      REQUIRE ?Register_R4_is_cg_reg
   \   00000002                      REQUIRE ?Register_R5_is_cg_reg
   \   00000002                      REQUIRE ?Register_R6_is_cg_reg
   \   00000002                      REQUIRE ?Register_R7_is_cg_reg
   \   00000002   ....               RCALL   ?Subroutine1
    136              uint16_t uiOffset = HEADER_LENGTH();
    137              int8_t uiSlave = puiRequest[uiOffset - 1];
    138              int8_t uiFunctionCode = puiRequest[uiOffset];
    139              uint16_t uiAddress = ((static_cast<uint16_t>(puiRequest[uiOffset + 1]) << 8) |
    140                                    (static_cast<uint16_t>(puiRequest[uiOffset + 2])));
    141          
    142              uint16_t uiNumberB = ((static_cast<uint16_t>(puiRequest[uiOffset + 3]) << 8) |
    143                                    (static_cast<uint16_t>(puiRequest[uiOffset + 4])));
    144          
    145              if (uiNumberB < 1 || MODBUS_MAX_READ_BITS < uiNumberB)
   \                     ??CrossCallReturnLabel_2:
   \   00000004   F021               BREQ    ??ReadCoils_1
   \   00000006   3D81               CPI     R24, 209
   \   00000008   E007               LDI     R16, 7
   \   0000000A   0790               CPC     R25, R16
   \   0000000C   F010               BRCS    ??ReadCoils_2
    146              {
    147                  uiLength = ResponseException(uiSlave,
    148                                               uiFunctionCode,
    149                                               MODBUS_EXCEPTION_ILLEGAL_DATA_VALUE,
    150                                               puiResponse);
   \                     ??ReadCoils_1:
   \   0000000E   ....               RCALL   ?Subroutine28
    151              }
   \                     ??CrossCallReturnLabel_52:
   \   00000010   C006               RJMP    ??CrossCallReturnLabel_57
    152              else if ((uiAddress + uiNumberB) > m_uiCoilsNumber)
   \                     ??ReadCoils_2:
   \   00000012   01FD               MOVW    R31:R30, R27:R26
   \   00000014   8D02               LDD     R16, Z+26
   \   00000016   8D13               LDD     R17, Z+27
   \   00000018   ....               RCALL   ?Subroutine30
   \                     ??CrossCallReturnLabel_98:
   \   0000001A   F418               BRCC    ??ReadCoils_3
    153              {
    154                  uiLength = ResponseException(uiSlave,
    155                                               uiFunctionCode,
    156                                               MODBUS_EXCEPTION_ILLEGAL_DATA_ADDRESS,
    157                                               puiResponse);
   \   0000001C   ....               RCALL   ?Subroutine29
    158              }
   \                     ??CrossCallReturnLabel_57:
   \   0000001E   ....               RCALL   ?Subroutine41
   \                     ??CrossCallReturnLabel_112:
   \   00000020   C004               RJMP    ??CrossCallReturnLabel_18
    159              else
    160              {
    161                  uiLength = ResponseBasis(uiSlave, uiFunctionCode, puiResponse);
   \                     ??ReadCoils_3:
   \   00000022   ....               RCALL   ?Subroutine0
    162          
    163                  if (uiNumberB % 8)
    164                  {
    165                      puiResponse[uiLength++] = ((uiNumberB / 8) + 1);
    166                  }
    167                  else
    168                  {
    169                      puiResponse[uiLength++] = (uiNumberB / 8);
    170                  }
    171                  uiLength = ByteToBitPack(uiAddress,
    172                                           uiNumberB,
    173                                           m_puiCoils,
    174                                           puiResponse,
    175                                           uiLength);
    176              }
   \                     ??CrossCallReturnLabel_0:
   \   00000024   8962               LDD     R22, Z+18
   \   00000026   8973               LDD     R23, Z+19
   \   00000028   ....               RCALL   ?Subroutine13
   \                     ??CrossCallReturnLabel_18:
   \   0000002A                      REQUIRE ?Subroutine68
   \   0000002A                      ;               // Fall through to label ?Subroutine68
    177              return uiLength;
    178          }

   \                                 In  segment CODE, align 2, keep-with-next
   \                     ?Subroutine68:
   \   00000000   ....               RCALL   ?Subroutine31
   \                     ??CrossCallReturnLabel_122:
   \   00000002   ....               RJMP    ??Subroutine72_0

   \                                 In  segment CODE, align 2, keep-with-next
   \                     ??Subroutine72_0:
   \   00000000   ........           JMP     ?EPILOGUE_B8_L09

   \                                 In  segment CODE, align 2, keep-with-next
   \                     ?Subroutine31:
   \   00000000   0198               MOVW    R19:R18, R17:R16
   \   00000002                      REQUIRE ??Subroutine73_0
   \   00000002                      ;               // Fall through to label ??Subroutine73_0

   \                                 In  segment CODE, align 2, keep-with-next
   \                     ??Subroutine73_0:
   \   00000000   0189               MOVW    R17:R16, R19:R18
   \   00000002   E0E8               LDI     R30, 8
   \   00000004   9508               RET

   \                                 In  segment CODE, align 2, keep-with-next
   \                     ?Subroutine30:
   \   00000000   2D57               MOV     R21, R7
   \   00000002   0F48               ADD     R20, R24
   \   00000004   1F59               ADC     R21, R25
   \   00000006                      REQUIRE ?Subroutine58
   \   00000006                      ;               // Fall through to label ?Subroutine58

   \                                 In  segment CODE, align 2, keep-with-next
   \                     ?Subroutine58:
   \   00000000   1704               CP      R16, R20
   \   00000002   0715               CPC     R17, R21
   \   00000004   9508               RET

   \                                 In  segment CODE, align 2, keep-with-next
   \                     ?Subroutine13:
   \   00000000   01AC               MOVW    R21:R20, R25:R24
   \   00000002   0193               MOVW    R19:R18, R7:R6
   \   00000004   018D               MOVW    R17:R16, R27:R26
   \   00000006   ....               RJMP    ??ByteToBitPack

   \                                 In  segment CODE, align 2, keep-with-next
   \                     ?Subroutine1:
   \   00000000   01D8               MOVW    R27:R26, R17:R16
   \   00000002   01C9               MOVW    R25:R24, R19:R18
   \   00000004   012A               MOVW    R5:R4, R21:R20
   \   00000006   ....               RCALL   ?Subroutine42
   \                     ??CrossCallReturnLabel_83:
   \   00000008   8071               LDD     R7, Z+1
   \   0000000A   8142               LDD     R20, Z+2
   \   0000000C   2E64               MOV     R6, R20
   \   0000000E   8193               LDD     R25, Z+3
   \   00000010   8104               LDD     R16, Z+4
   \   00000012   2F80               MOV     R24, R16
   \   00000014   2B09               OR      R16, R25
   \   00000016   9508               RET

   \                                 In  segment CODE, align 2, keep-with-next
   \                     ?Subroutine0:
   \   00000000   01A2               MOVW    R21:R20, R5:R4
   \   00000002   ....               RCALL   ?Subroutine40
   \                     ??CrossCallReturnLabel_105:
   \   00000004   ....               RCALL   ?Subroutine48
   \                     ??CrossCallReturnLabel_143:
   \   00000006   E043               LDI     R20, 3
   \   00000008   018C               MOVW    R17:R16, R25:R24
   \   0000000A   ........           CALL    ?US_SHR_L02
   \   0000000E   2F40               MOV     R20, R16
   \   00000010   2F08               MOV     R16, R24
   \   00000012   7007               ANDI    R16, 0x07
   \   00000014   F009               BREQ    ??Subroutine0_0
   \   00000016   9543               INC     R20
   \                     ??Subroutine0_0:
   \   00000018   8340               ST      Z, R20
   \   0000001A   ....               RCALL   ??Subroutine76_0
   \                     ??CrossCallReturnLabel_125:
   \   0000001C   933A               ST      -Y, R19
   \   0000001E   932A               ST      -Y, R18
   \   00000020   925A               ST      -Y, R5
   \   00000022   924A               ST      -Y, R4
   \   00000024   01FD               MOVW    R31:R30, R27:R26
   \   00000026   9508               RET

   \                                 In  segment CODE, align 2, keep-with-next
   \                     ?Subroutine48:
   \   00000000   01F2               MOVW    R31:R30, R5:R4
   \   00000002                      REQUIRE ??Subroutine74_0
   \   00000002                      ;               // Fall through to label ??Subroutine74_0

   \                                 In  segment CODE, align 2, keep-with-next
   \                     ??Subroutine74_0:
   \   00000000   0FE0               ADD     R30, R16
   \   00000002   1FF1               ADC     R31, R17
   \   00000004   9508               RET

   \                                 In  segment CODE, align 2, keep-with-next
   \                     ?Subroutine26:
   \   00000000   ........           JMP     ?PROLOGUE8_L09

   \                                 In  segment CODE, align 2, keep-with-next
   \                     ?Subroutine61:
   \   00000000   0198               MOVW    R19:R18, R17:R16
   \   00000002   9508               RET

   \                                 In  segment CODE, align 2, keep-with-next
   \                     ?Subroutine40:
   \   00000000   018D               MOVW    R17:R16, R27:R26
   \   00000002   ....               RCALL   ?Subroutine51
   \                     ??CrossCallReturnLabel_86:
   \   00000004   ....               RJMP    ?Subroutine61

   \                                 In  segment CODE, align 2, keep-with-next
   \                     ?Subroutine42:
   \   00000000   ....               RCALL   ?Subroutine50
   \                     ??CrossCallReturnLabel_79:
   \   00000002   0F08               ADD     R16, R24
   \   00000004   1F19               ADC     R17, R25
   \   00000006                      REQUIRE ?Subroutine52
   \   00000006                      ;               // Fall through to label ?Subroutine52

   \                                 In  segment CODE, align 2, keep-with-next
   \                     ?Subroutine52:
   \   00000000   01F8               MOVW    R31:R30, R17:R16
   \   00000002   9122               LD      R18, -Z
   \   00000004   01F8               MOVW    R31:R30, R17:R16
   \   00000006   8130               LD      R19, Z
   \   00000008   9508               RET

   \                                 In  segment CODE, align 2, keep-with-next
   \                     ?Subroutine29:
   \   00000000   01B2               MOVW    R23:R22, R5:R4
   \   00000002   E042               LDI     R20, 2
   \   00000004   9508               RET

   \                                 In  segment CODE, align 2, keep-with-next
   \                     ?Subroutine28:
   \   00000000   01B2               MOVW    R23:R22, R5:R4
   \   00000002   E043               LDI     R20, 3
   \   00000004   9508               RET

   \                                 In  segment CODE, align 2, keep-with-next
   \                     ?Subroutine41:
   \   00000000   018D               MOVW    R17:R16, R27:R26
   \   00000002                      REQUIRE ?Subroutine65
   \   00000002                      ;               // Fall through to label ?Subroutine65

   \                                 In  segment CODE, align 2, keep-with-next
   \                     ?Subroutine65:
   \   00000000   ....               RJMP    ??ResponseException

   \                                 In  segment CODE, align 2, keep-with-next
   \                     ?Subroutine50:
   \   00000000   ....               RCALL   ?Subroutine54
   \                     ??CrossCallReturnLabel_95:
   \   00000002   963E               ADIW    R31:R30, 14
   \   00000004   ....               RJMP    ?Subroutine55

   \                                 In  segment CODE, align 2, keep-with-next
   \                     ?Subroutine54:
   \   00000000   01F8               MOVW    R31:R30, R17:R16
   \   00000002   8121               LDD     R18, Z+1
   \   00000004   81F2               LDD     R31, Z+2
   \   00000006   2FE2               MOV     R30, R18
   \   00000008   9508               RET

   \                                 In  segment CODE, align 2, keep-with-next
   \                     ?Subroutine55:
   \   00000000   9125               LPM     R18, Z+
   \   00000002   91F4               LPM     R31, Z
   \   00000004   2FE2               MOV     R30, R18
   \   00000006   9409               IJMP
    179          
    180          //-----------------------------------------------------------------------------------------------------

   \                                 In  segment CODE, align 2, keep-with-next
    181          int16_t CModbus::ReadDiscreteInputs(uint8_t *puiRequest, uint8_t *puiResponse, uint16_t uiLength)
   \                     ??ReadDiscreteInputs:
    182          {
   \   00000000   ....               RCALL   ?Subroutine26
   \                     ??CrossCallReturnLabel_35:
   \   00000002                      REQUIRE ?Register_R4_is_cg_reg
   \   00000002                      REQUIRE ?Register_R5_is_cg_reg
   \   00000002                      REQUIRE ?Register_R6_is_cg_reg
   \   00000002                      REQUIRE ?Register_R7_is_cg_reg
   \   00000002   ....               RCALL   ?Subroutine1
    183              uint16_t uiOffset = HEADER_LENGTH();
    184              int8_t uiSlave = puiRequest[uiOffset - 1];
    185              int8_t uiFunctionCode = puiRequest[uiOffset];
    186              uint16_t uiAddress = ((static_cast<uint16_t>(puiRequest[uiOffset + 1]) << 8) |
    187                                    (static_cast<uint16_t>(puiRequest[uiOffset + 2])));
    188          
    189              uint16_t uiNumberB = ((static_cast<uint16_t>(puiRequest[uiOffset + 3]) << 8) |
    190                                    (static_cast<uint16_t>(puiRequest[uiOffset + 4])));
    191          
    192              if (uiNumberB < 1 || MODBUS_MAX_READ_BITS < uiNumberB)
   \                     ??CrossCallReturnLabel_3:
   \   00000004   F021               BREQ    ??ReadDiscreteInputs_1
   \   00000006   3D81               CPI     R24, 209
   \   00000008   E007               LDI     R16, 7
   \   0000000A   0790               CPC     R25, R16
   \   0000000C   F010               BRCS    ??ReadDiscreteInputs_2
    193              {
    194                  uiLength = ResponseException(uiSlave,
    195                                               uiFunctionCode,
    196                                               MODBUS_EXCEPTION_ILLEGAL_DATA_VALUE,
    197                                               puiResponse);
   \                     ??ReadDiscreteInputs_1:
   \   0000000E   ....               RCALL   ?Subroutine28
    198              }
   \                     ??CrossCallReturnLabel_53:
   \   00000010   C006               RJMP    ??CrossCallReturnLabel_58
    199              else if ((uiAddress + uiNumberB) > m_uiDiscreteInputsNumber)
   \                     ??ReadDiscreteInputs_2:
   \   00000012   01FD               MOVW    R31:R30, R27:R26
   \   00000014   8D04               LDD     R16, Z+28
   \   00000016   8D15               LDD     R17, Z+29
   \   00000018   ....               RCALL   ?Subroutine30
   \                     ??CrossCallReturnLabel_99:
   \   0000001A   F418               BRCC    ??ReadDiscreteInputs_3
    200              {
    201                  uiLength = ResponseException(uiSlave,
    202                                               uiFunctionCode,
    203                                               MODBUS_EXCEPTION_ILLEGAL_DATA_ADDRESS,
    204                                               puiResponse);
   \   0000001C   ....               RCALL   ?Subroutine29
    205              }
   \                     ??CrossCallReturnLabel_58:
   \   0000001E   ....               RCALL   ?Subroutine41
   \                     ??CrossCallReturnLabel_113:
   \   00000020   C004               RJMP    ??CrossCallReturnLabel_17
    206              else
    207              {
    208                  uiLength = ResponseBasis(uiSlave, uiFunctionCode, puiResponse);
   \                     ??ReadDiscreteInputs_3:
   \   00000022   ....               RCALL   ?Subroutine0
    209          
    210                  if (uiNumberB % 8)
    211                  {
    212                      puiResponse[uiLength++] = ((uiNumberB / 8) + 1);
    213                  }
    214                  else
    215                  {
    216                      puiResponse[uiLength++] = (uiNumberB / 8);
    217                  }
    218                  uiLength = ByteToBitPack(uiAddress,
    219                                           uiNumberB,
    220                                           m_puiDiscreteInputs,
    221                                           puiResponse,
    222                                           uiLength);
    223              }
   \                     ??CrossCallReturnLabel_1:
   \   00000024   8964               LDD     R22, Z+20
   \   00000026   8975               LDD     R23, Z+21
   \   00000028   ....               RCALL   ?Subroutine13
   \                     ??CrossCallReturnLabel_17:
   \   0000002A   ....               RJMP    ?Subroutine68
    224              return uiLength;
    225          }
    226          
    227          //-----------------------------------------------------------------------------------------------------

   \                                 In  segment CODE, align 2, keep-with-next
    228          int16_t CModbus::ReadHoldingRegisters(uint8_t *puiRequest, uint8_t *puiResponse, uint16_t uiLength)
   \                     ??ReadHoldingRegisters:
    229          {
   \   00000000   ....               RCALL   ?Subroutine26
   \                     ??CrossCallReturnLabel_36:
   \   00000002                      REQUIRE ?Register_R4_is_cg_reg
   \   00000002                      REQUIRE ?Register_R5_is_cg_reg
   \   00000002                      REQUIRE ?Register_R6_is_cg_reg
   \   00000002                      REQUIRE ?Register_R7_is_cg_reg
   \   00000002   ....               RCALL   ?Subroutine2
    230              uint16_t uiOffset = HEADER_LENGTH();
    231              int8_t uiSlave = puiRequest[uiOffset - 1];
    232              int8_t uiFunctionCode = puiRequest[uiOffset];
    233              uint16_t uiAddress = ((static_cast<uint16_t>(puiRequest[uiOffset + 1]) << 8) |
    234                                    (static_cast<uint16_t>(puiRequest[uiOffset + 2])));
    235          
    236              uint16_t uiNumberB = ((static_cast<uint16_t>(puiRequest[uiOffset + 3]) << 8) |
    237                                    (static_cast<uint16_t>(puiRequest[uiOffset + 4])));
    238          
    239              if (uiNumberB < 1 || MODBUS_MAX_READ_REGISTERS < uiNumberB)
   \                     ??CrossCallReturnLabel_4:
   \   00000004   F011               BREQ    ??ReadHoldingRegisters_1
   \   00000006   ....               RCALL   ?Subroutine34
   \                     ??CrossCallReturnLabel_64:
   \   00000008   F018               BRCS    ??ReadHoldingRegisters_2
    240              {
    241                  uiLength = ResponseException(uiSlave,
    242                                               uiFunctionCode,
    243                                               MODBUS_EXCEPTION_ILLEGAL_DATA_VALUE,
    244                                               puiResponse);
   \                     ??ReadHoldingRegisters_1:
   \   0000000A   01B3               MOVW    R23:R22, R7:R6
   \   0000000C   E043               LDI     R20, 3
   \   0000000E   C007               RJMP    ??ReadHoldingRegisters_3
    245              }
    246              else if ((uiAddress + uiNumberB) > m_uiHoldingRegistersNumber)
   \                     ??ReadHoldingRegisters_2:
   \   00000010   01FD               MOVW    R31:R30, R27:R26
   \   00000012   8D06               LDD     R16, Z+30
   \   00000014   8D17               LDD     R17, Z+31
   \   00000016   ....               RCALL   ?Subroutine32
   \                     ??CrossCallReturnLabel_100:
   \   00000018   F420               BRCC    ??ReadHoldingRegisters_4
    247              {
    248                  uiLength = ResponseException(uiSlave,
    249                                               uiFunctionCode,
    250                                               MODBUS_EXCEPTION_ILLEGAL_DATA_ADDRESS,
    251                                               puiResponse);
   \   0000001A   01B3               MOVW    R23:R22, R7:R6
   \   0000001C   E042               LDI     R20, 2
    252              }
   \                     ??ReadHoldingRegisters_3:
   \   0000001E   ....               RCALL   ?Subroutine11
   \                     ??CrossCallReturnLabel_107:
   \   00000020   C00C               RJMP    ??ReadHoldingRegisters_5
    253              else
    254              {
    255                  uiLength = ResponseBasis(uiSlave, uiFunctionCode, puiResponse);
   \                     ??ReadHoldingRegisters_4:
   \   00000022   ....               RCALL   ?Subroutine4
    256                  puiResponse[uiLength++] = (uiNumberB << 1);
    257                  for (uint16_t i = 0; i < uiNumberB; i++)
   \                     ??CrossCallReturnLabel_8:
   \   00000024   C007               RJMP    ??CrossCallReturnLabel_21
    258                  {
    259                      puiResponse[uiLength++] = (static_cast<uint8_t>(m_pui16HoldingRegisters[uiAddress] >> 8));
   \                     ??ReadHoldingRegisters_6:
   \   00000026   01BC               MOVW    R23:R22, R25:R24
   \   00000028   0F66               LSL     R22
   \   0000002A   1F77               ROL     R23
   \   0000002C   ....               RCALL   ?Subroutine8
   \                     ??CrossCallReturnLabel_129:
   \   0000002E   ....               RCALL   ?Subroutine33
    260                      puiResponse[uiLength++] = (static_cast<uint8_t>(m_pui16HoldingRegisters[uiAddress] & 0x00FF));
   \                     ??CrossCallReturnLabel_62:
   \   00000030   ....               RCALL   ?Subroutine8
    261                      uiAddress++;
    262                  }
   \                     ??CrossCallReturnLabel_130:
   \   00000032   ....               RCALL   ?Subroutine17
   \                     ??CrossCallReturnLabel_21:
   \   00000034   1544               CP      R20, R4
   \   00000036   0555               CPC     R21, R5
   \   00000038   F3B0               BRCS    ??ReadHoldingRegisters_6
    263              }
    264              return uiLength;
   \                     ??ReadHoldingRegisters_5:
   \   0000003A                      REQUIRE ?Subroutine69
   \   0000003A                      ;               // Fall through to label ?Subroutine69
    265          }

   \                                 In  segment CODE, align 2, keep-with-next
   \                     ?Subroutine69:
   \   00000000   ....               RCALL   ??Subroutine73_0
   \                     ??CrossCallReturnLabel_123:
   \   00000002   ....               RJMP    ??Subroutine72_0

   \                                 In  segment CODE, align 2, keep-with-next
   \                     ?Subroutine8:
   \   00000000   01FD               MOVW    R31:R30, R27:R26
   \   00000002   8906               LDD     R16, Z+22
   \   00000004   8917               LDD     R17, Z+23
   \   00000006                      REQUIRE ?Subroutine56
   \   00000006                      ;               // Fall through to label ?Subroutine56

   \                                 In  segment CODE, align 2, keep-with-next
   \                     ?Subroutine56:
   \   00000000   0F06               ADD     R16, R22
   \   00000002   1F17               ADC     R17, R23
   \   00000004                      REQUIRE ??Subroutine75_0
   \   00000004                      ;               // Fall through to label ??Subroutine75_0

   \                                 In  segment CODE, align 2, keep-with-next
   \                     ??Subroutine75_0:
   \   00000000   01F8               MOVW    R31:R30, R17:R16
   \   00000002   9508               RET

   \                                 In  segment CODE, align 2, keep-with-next
   \                     ?Subroutine34:
   \   00000000   E70E               LDI     R16, 126
   \   00000002   1640               CP      R4, R16
   \   00000004   E000               LDI     R16, 0
   \   00000006   0650               CPC     R5, R16
   \   00000008   9508               RET

   \                                 In  segment CODE, align 2, keep-with-next
   \                     ?Subroutine33:
   \   00000000   8101               LDD     R16, Z+1
   \   00000002   01F3               MOVW    R31:R30, R7:R6
   \   00000004   0FE2               ADD     R30, R18
   \   00000006   1FF3               ADC     R31, R19
   \   00000008   8300               ST      Z, R16
   \   0000000A   9508               RET

   \                                 In  segment CODE, align 2, keep-with-next
   \                     ?Subroutine32:
   \   00000000   2F59               MOV     R21, R25
   \   00000002   0D44               ADD     R20, R4
   \   00000004   1D55               ADC     R21, R5
   \   00000006   ....               RJMP    ?Subroutine58

   \                                 In  segment CODE, align 2, keep-with-next
   \                     ?Subroutine17:
   \   00000000   8100               LD      R16, Z
   \   00000002   ....               RCALL   ??Subroutine76_0
   \                     ??CrossCallReturnLabel_126:
   \   00000004   01F3               MOVW    R31:R30, R7:R6
   \   00000006   0FE2               ADD     R30, R18
   \   00000008   1FF3               ADC     R31, R19
   \   0000000A   ....               RCALL   ?Subroutine46
   \                     ??CrossCallReturnLabel_128:
   \   0000000C   9601               ADIW    R25:R24, 1
   \   0000000E   5F4F               SUBI    R20, 255
   \   00000010   4F5F               SBCI    R21, 255
   \   00000012   9508               RET

   \                                 In  segment CODE, align 2, keep-with-next
   \                     ?Subroutine46:
   \   00000000   8300               ST      Z, R16
   \   00000002                      REQUIRE ??Subroutine76_0
   \   00000002                      ;               // Fall through to label ??Subroutine76_0

   \                                 In  segment CODE, align 2, keep-with-next
   \                     ?Subroutine11:
   \   00000000   ....               RCALL   ?Subroutine41
   \                     ??CrossCallReturnLabel_116:
   \   00000002                      REQUIRE ?Subroutine61
   \   00000002                      ;               // Fall through to label ?Subroutine61

   \                                 In  segment CODE, align 2, keep-with-next
   \                     ?Subroutine4:
   \   00000000   01A3               MOVW    R21:R20, R7:R6
   \   00000002   ....               RCALL   ?Subroutine40
   \                     ??CrossCallReturnLabel_106:
   \   00000004   2D04               MOV     R16, R4
   \   00000006   0F00               LSL     R16
   \   00000008   01F3               MOVW    R31:R30, R7:R6
   \   0000000A   0FE2               ADD     R30, R18
   \   0000000C   1FF1               ADC     R31, R17
   \   0000000E   ....               RCALL   ?Subroutine46
   \                     ??CrossCallReturnLabel_127:
   \   00000010   E040               LDI     R20, 0
   \   00000012   E050               LDI     R21, 0
   \   00000014   9508               RET

   \                                 In  segment CODE, align 2, keep-with-next
   \                     ?Subroutine2:
   \   00000000   01D8               MOVW    R27:R26, R17:R16
   \   00000002   01C9               MOVW    R25:R24, R19:R18
   \   00000004   013A               MOVW    R7:R6, R21:R20
   \   00000006   ....               RCALL   ?Subroutine42
   \                     ??CrossCallReturnLabel_84:
   \   00000008   8191               LDD     R25, Z+1
   \   0000000A   8142               LDD     R20, Z+2
   \   0000000C   2F84               MOV     R24, R20
   \   0000000E   8053               LDD     R5, Z+3
   \   00000010   8104               LDD     R16, Z+4
   \   00000012   2E40               MOV     R4, R16
   \   00000014   2905               OR      R16, R5
   \   00000016   9508               RET
    266          
    267          //-----------------------------------------------------------------------------------------------------

   \                                 In  segment CODE, align 2, keep-with-next
    268          int16_t CModbus::ReadInputRegisters(uint8_t *puiRequest, uint8_t *puiResponse, uint16_t uiLength)
   \                     ??ReadInputRegisters:
    269          {
   \   00000000   ....               RCALL   ?Subroutine26
   \                     ??CrossCallReturnLabel_37:
   \   00000002                      REQUIRE ?Register_R4_is_cg_reg
   \   00000002                      REQUIRE ?Register_R5_is_cg_reg
   \   00000002                      REQUIRE ?Register_R6_is_cg_reg
   \   00000002                      REQUIRE ?Register_R7_is_cg_reg
   \   00000002   ....               RCALL   ?Subroutine2
    270              uint16_t uiOffset = HEADER_LENGTH();
    271              int8_t uiSlave = puiRequest[uiOffset - 1];
    272              int8_t uiFunctionCode = puiRequest[uiOffset];
    273              uint16_t uiAddress = ((static_cast<uint16_t>(puiRequest[uiOffset + 1]) << 8) |
    274                                    (static_cast<uint16_t>(puiRequest[uiOffset + 2])));
    275          
    276              uint16_t uiNumberB = ((static_cast<uint16_t>(puiRequest[uiOffset + 3]) << 8) |
    277                                    (static_cast<uint16_t>(puiRequest[uiOffset + 4])));
    278          
    279              if (uiNumberB < 1 || MODBUS_MAX_READ_REGISTERS < uiNumberB)
   \                     ??CrossCallReturnLabel_5:
   \   00000004   F011               BREQ    ??ReadInputRegisters_1
   \   00000006   ....               RCALL   ?Subroutine34
   \                     ??CrossCallReturnLabel_65:
   \   00000008   F018               BRCS    ??ReadInputRegisters_2
    280              {
    281                  uiLength = ResponseException(uiSlave,
    282                                               uiFunctionCode,
    283                                               MODBUS_EXCEPTION_ILLEGAL_DATA_VALUE,
    284                                               puiResponse);
   \                     ??ReadInputRegisters_1:
   \   0000000A   01B3               MOVW    R23:R22, R7:R6
   \   0000000C   E043               LDI     R20, 3
   \   0000000E   C007               RJMP    ??ReadInputRegisters_3
    285              }
    286              else if ((uiAddress + uiNumberB) > m_uiInputRegistersNumber)
   \                     ??ReadInputRegisters_2:
   \   00000010   01FD               MOVW    R31:R30, R27:R26
   \   00000012   A100               LDD     R16, Z+32
   \   00000014   A111               LDD     R17, Z+33
   \   00000016   ....               RCALL   ?Subroutine32
   \                     ??CrossCallReturnLabel_101:
   \   00000018   F420               BRCC    ??ReadInputRegisters_4
    287              {
    288                  uiLength = ResponseException(uiSlave,
    289                                               uiFunctionCode,
    290                                               MODBUS_EXCEPTION_ILLEGAL_DATA_ADDRESS,
    291                                               puiResponse);
   \   0000001A   01B3               MOVW    R23:R22, R7:R6
   \   0000001C   E042               LDI     R20, 2
    292              }
   \                     ??ReadInputRegisters_3:
   \   0000001E   ....               RCALL   ?Subroutine11
   \                     ??CrossCallReturnLabel_108:
   \   00000020   C00C               RJMP    ??ReadInputRegisters_5
    293              else
    294              {
    295                  uiLength = ResponseBasis(uiSlave, uiFunctionCode, puiResponse);
   \                     ??ReadInputRegisters_4:
   \   00000022   ....               RCALL   ?Subroutine4
    296                  puiResponse[uiLength++] = (uiNumberB << 1);
    297                  for (uint16_t i = 0; i < uiNumberB; i++)
   \                     ??CrossCallReturnLabel_9:
   \   00000024   C007               RJMP    ??CrossCallReturnLabel_22
    298                  {
    299                      puiResponse[uiLength++] = (static_cast<uint8_t>(m_pui16InputRegisters[uiAddress] >> 8));
   \                     ??ReadInputRegisters_6:
   \   00000026   01BC               MOVW    R23:R22, R25:R24
   \   00000028   0F66               LSL     R22
   \   0000002A   1F77               ROL     R23
   \   0000002C   ....               RCALL   ?Subroutine9
   \                     ??CrossCallReturnLabel_131:
   \   0000002E   ....               RCALL   ?Subroutine33
    300                      puiResponse[uiLength++] = (static_cast<uint8_t>(m_pui16InputRegisters[uiAddress] & 0x00FF));
   \                     ??CrossCallReturnLabel_63:
   \   00000030   ....               RCALL   ?Subroutine9
    301                      uiAddress++;
    302                  }
   \                     ??CrossCallReturnLabel_132:
   \   00000032   ....               RCALL   ?Subroutine17
   \                     ??CrossCallReturnLabel_22:
   \   00000034   1544               CP      R20, R4
   \   00000036   0555               CPC     R21, R5
   \   00000038   F3B0               BRCS    ??ReadInputRegisters_6
    303              }
    304              return uiLength;
   \                     ??ReadInputRegisters_5:
   \   0000003A   ....               RJMP    ?Subroutine69
    305          }

   \                                 In  segment CODE, align 2, keep-with-next
   \                     ?Subroutine9:
   \   00000000   01FD               MOVW    R31:R30, R27:R26
   \   00000002   8D00               LDD     R16, Z+24
   \   00000004   8D11               LDD     R17, Z+25
   \   00000006   ....               RJMP    ?Subroutine56
    306          
    307          //-----------------------------------------------------------------------------------------------------

   \                                 In  segment CODE, align 2, keep-with-next
   \                     ?Subroutine64:
   \   00000000   018C               MOVW    R17:R16, R25:R24
   \   00000002                      REQUIRE ??Subroutine71_0
   \   00000002                      ;               // Fall through to label ??Subroutine71_0

   \                                 In  segment CODE, align 2, keep-with-next
   \                     ??Subroutine71_0:
   \   00000000   E0E8               LDI     R30, 8
   \   00000002                      REQUIRE ??Subroutine72_0
   \   00000002                      ;               // Fall through to label ??Subroutine72_0

   \                                 In  segment CODE, align 2, keep-with-next
    308          int16_t CModbus::WriteSingleCoil(uint8_t *puiRequest, uint8_t *puiResponse, uint16_t uiLength)
   \                     ??WriteSingleCoil:
    309          {
   \   00000000   ....               RCALL   ?Subroutine26
   \                     ??CrossCallReturnLabel_38:
   \   00000002                      REQUIRE ?Register_R4_is_cg_reg
   \   00000002                      REQUIRE ?Register_R5_is_cg_reg
   \   00000002                      REQUIRE ?Register_R6_is_cg_reg
   \   00000002                      REQUIRE ?Register_R7_is_cg_reg
   \   00000002   01D8               MOVW    R27:R26, R17:R16
   \   00000004   0139               MOVW    R7:R6, R19:R18
   \   00000006   012A               MOVW    R5:R4, R21:R20
   \   00000008   01CB               MOVW    R25:R24, R23:R22
    310              uint16_t uiOffset = HEADER_LENGTH();
   \   0000000A   ....               RCALL   ?Subroutine15
    311              int8_t uiSlave = puiRequest[uiOffset - 1];
   \                     ??CrossCallReturnLabel_102:
   \   0000000C   ....               RCALL   ?Subroutine35
   \                     ??CrossCallReturnLabel_136:
   \   0000000E   9152               LD      R21, -Z
    312              int8_t uiFunctionCode = puiRequest[uiOffset];
   \   00000010   01F8               MOVW    R31:R30, R17:R16
   \   00000012   8000               LD      R0, Z
    313              uint16_t uiAddress = ((static_cast<uint16_t>(puiRequest[uiOffset + 1]) << 8) |
    314                                    (static_cast<uint16_t>(puiRequest[uiOffset + 2])));
   \   00000014   8131               LDD     R19, Z+1
   \   00000016   8122               LDD     R18, Z+2
    315          
    316              if (uiAddress >= m_uiCoilsNumber)
   \   00000018   01FD               MOVW    R31:R30, R27:R26
   \   0000001A   8D62               LDD     R22, Z+26
   \   0000001C   8D73               LDD     R23, Z+27
   \   0000001E   1726               CP      R18, R22
   \   00000020   0737               CPC     R19, R23
   \   00000022   F010               BRCS    ??WriteSingleCoil_1
    317              {
    318                  uiLength = ResponseException(uiSlave,
    319                                               uiFunctionCode,
    320                                               MODBUS_EXCEPTION_ILLEGAL_DATA_ADDRESS,
    321                                               puiResponse);
   \   00000024   ....               RCALL   ?Subroutine29
    322              }
   \                     ??CrossCallReturnLabel_59:
   \   00000026   C014               RJMP    ??CrossCallReturnLabel_54
    323              else
    324              {
    325                  uint16_t uiData = ((static_cast<uint16_t>(puiRequest[uiOffset + 3]) << 8) |
    326                                     (static_cast<uint16_t>(puiRequest[uiOffset + 4])));
   \                     ??WriteSingleCoil_1:
   \   00000028   01F8               MOVW    R31:R30, R17:R16
   \   0000002A   8173               LDD     R23, Z+3
   \   0000002C   8164               LDD     R22, Z+4
    327          
    328                  if (uiData == 0xFF00)
   \   0000002E   3060               CPI     R22, 0
   \   00000030   EF0F               LDI     R16, 255
   \   00000032   0770               CPC     R23, R16
   \   00000034   F411               BRNE    ??WriteSingleCoil_2
    329                  {
    330                      CPss21::ModbusDeviceControl(1, uiAddress);
   \   00000036   E001               LDI     R16, 1
   \   00000038   C003               RJMP    ??WriteSingleCoil_3
    331                      memcpy(puiResponse, puiRequest, uiLength);
    332                  }
    333                  else if (uiData == 0x0000)
   \                     ??WriteSingleCoil_2:
   \   0000003A   2B67               OR      R22, R23
   \   0000003C   F441               BRNE    ??WriteSingleCoil_4
    334                  {
    335                      CPss21::ModbusDeviceControl(0, uiAddress);
   \   0000003E   E000               LDI     R16, 0
   \                     ??WriteSingleCoil_3:
   \   00000040   ........           CALL    ??ModbusDeviceControl
    336                      memcpy(puiResponse, puiRequest, uiLength);
   \   00000044   01AC               MOVW    R21:R20, R25:R24
   \   00000046   0193               MOVW    R19:R18, R7:R6
   \   00000048   0182               MOVW    R17:R16, R5:R4
   \   0000004A   ....               RCALL   ?Subroutine49
    337                  }
   \                     ??CrossCallReturnLabel_78:
   \   0000004C   C004               RJMP    ??CrossCallReturnLabel_14
    338                  else
    339                  {
    340                      uiLength = ResponseException(uiSlave,
    341                                                   uiFunctionCode,
    342                                                   MODBUS_EXCEPTION_ILLEGAL_DATA_VALUE,
    343                                                   puiResponse);
   \                     ??WriteSingleCoil_4:
   \   0000004E   ....               RCALL   ?Subroutine28
    344                  }
    345          
    346          //        if (uiData == 0xFF00 || uiData == 0x0)
    347          //        {
    348          //            if (uiData)
    349          //            {
    350          //                m_puiCoils[uiAddress] = ON;
    351          //            }
    352          //            else
    353          //            {
    354          //                m_puiCoils[uiAddress] = OFF;
    355          //            }
    356          //            memcpy(puiResponse, puiRequest, uiLength);
    357          //        }
    358          //        else
    359          //        {
    360          //            uiLength = ResponseException(uiSlave,
    361          //                                         uiFunctionCode,
    362          //                                         MODBUS_EXCEPTION_ILLEGAL_DATA_VALUE,
    363          //                                         puiResponse);
    364          //        }
    365          
    366              }
   \                     ??CrossCallReturnLabel_54:
   \   00000050   2D30               MOV     R19, R0
   \   00000052   2F25               MOV     R18, R21
   \   00000054   ....               RCALL   ?Subroutine7
    367              return uiLength;
   \                     ??CrossCallReturnLabel_14:
   \   00000056   ....               RJMP    ?Subroutine64
    368          }

   \                                 In  segment CODE, align 2, keep-with-next
   \                     ?Subroutine35:
   \   00000000   0183               MOVW    R17:R16, R7:R6
   \   00000002                      REQUIRE ??Subroutine77_0
   \   00000002                      ;               // Fall through to label ??Subroutine77_0

   \                                 In  segment CODE, align 2, keep-with-next
   \                     ??Subroutine77_0:
   \   00000000   0F02               ADD     R16, R18
   \   00000002   1F13               ADC     R17, R19
   \   00000004   ....               RJMP    ??Subroutine75_0

   \                                 In  segment CODE, align 2, keep-with-next
   \                     ?Subroutine49:
   \   00000000   ........           JMP     memcpy

   \                                 In  segment CODE, align 2, keep-with-next
   \                     ?Subroutine15:
   \   00000000   ....               RCALL   ?Subroutine50
   \                     ??CrossCallReturnLabel_82:
   \   00000002   ....               RJMP    ?Subroutine61

   \                                 In  segment CODE, align 2, keep-with-next
   \                     ?Subroutine7:
   \   00000000   ....               RCALL   ?Subroutine41
   \                     ??CrossCallReturnLabel_111:
   \   00000002   01C8               MOVW    R25:R24, R17:R16
   \   00000004   9508               RET
    369          
    370          //-----------------------------------------------------------------------------------------------------

   \                                 In  segment CODE, align 2, keep-with-next
    371          int16_t CModbus::WriteSingleRegister(uint8_t *puiRequest, uint8_t *puiResponse, uint16_t uiLength)
   \                     ??WriteSingleRegister:
    372          {
   \   00000000   ....               RCALL   ?Subroutine26
   \                     ??CrossCallReturnLabel_39:
   \   00000002                      REQUIRE ?Register_R4_is_cg_reg
   \   00000002                      REQUIRE ?Register_R5_is_cg_reg
   \   00000002                      REQUIRE ?Register_R6_is_cg_reg
   \   00000002                      REQUIRE ?Register_R7_is_cg_reg
   \   00000002   01D8               MOVW    R27:R26, R17:R16
   \   00000004   0129               MOVW    R5:R4, R19:R18
   \   00000006   01CA               MOVW    R25:R24, R21:R20
   \   00000008   013B               MOVW    R7:R6, R23:R22
    373              uint16_t uiOffset = HEADER_LENGTH();
   \   0000000A   ....               RCALL   ?Subroutine15
    374              int8_t uiSlave = puiRequest[uiOffset - 1];
    375              int8_t uiFunctionCode = puiRequest[uiOffset];
    376              uint16_t uiAddress = ((static_cast<uint16_t>(puiRequest[uiOffset + 1]) << 8) |
    377                                    (static_cast<uint16_t>(puiRequest[uiOffset + 2])));
   \                     ??CrossCallReturnLabel_103:
   \   0000000C   0182               MOVW    R17:R16, R5:R4
   \   0000000E   ....               RCALL   ??Subroutine77_0
   \                     ??CrossCallReturnLabel_133:
   \   00000010   8131               LDD     R19, Z+1
   \   00000012   8122               LDD     R18, Z+2
    378          
    379              if (uiAddress >= m_uiHoldingRegistersNumber)
   \   00000014   01FD               MOVW    R31:R30, R27:R26
   \   00000016   8D46               LDD     R20, Z+30
   \   00000018   8D57               LDD     R21, Z+31
   \   0000001A   1724               CP      R18, R20
   \   0000001C   0735               CPC     R19, R21
   \   0000001E   F058               BRCS    ??WriteSingleRegister_1
    380              {
    381                  uiLength = ResponseException(uiSlave,
    382                                               uiFunctionCode,
    383                                               MODBUS_EXCEPTION_ILLEGAL_DATA_ADDRESS,
    384                                               puiResponse);
   \   00000020   01BC               MOVW    R23:R22, R25:R24
   \   00000022   E042               LDI     R20, 2
   \   00000024   01F8               MOVW    R31:R30, R17:R16
   \   00000026   8130               LD      R19, Z
   \   00000028   5001               SUBI    R16, 1
   \   0000002A   4010               SBCI    R17, 0
   \   0000002C   01F8               MOVW    R31:R30, R17:R16
   \   0000002E   8120               LD      R18, Z
   \   00000030   ....               RCALL   ?Subroutine41
    385              }
   \                     ??CrossCallReturnLabel_114:
   \   00000032   0138               MOVW    R7:R6, R17:R16
   \   00000034   C00F               RJMP    ??CrossCallReturnLabel_77
    386              else
    387              {
    388                  m_pui16HoldingRegisters[uiAddress] =
    389                      ((static_cast<uint16_t>(puiRequest[uiOffset + 3]) << 8) |
    390                       (static_cast<uint16_t>(puiRequest[uiOffset + 4])));
   \                     ??WriteSingleRegister_1:
   \   00000036   01F8               MOVW    R31:R30, R17:R16
   \   00000038   8153               LDD     R21, Z+3
   \   0000003A   8144               LDD     R20, Z+4
   \   0000003C   01FD               MOVW    R31:R30, R27:R26
   \   0000003E   8906               LDD     R16, Z+22
   \   00000040   8917               LDD     R17, Z+23
   \   00000042   0F22               LSL     R18
   \   00000044   1F33               ROL     R19
   \   00000046   ....               RCALL   ??Subroutine77_0
   \                     ??CrossCallReturnLabel_134:
   \   00000048   8340               ST      Z, R20
   \   0000004A   8351               STD     Z+1, R21
    391                  memcpy(puiResponse, puiRequest, uiLength);
   \   0000004C   01A3               MOVW    R21:R20, R7:R6
   \   0000004E   0192               MOVW    R19:R18, R5:R4
   \   00000050   018C               MOVW    R17:R16, R25:R24
   \   00000052   ....               RCALL   ?Subroutine49
    392              }
    393              return uiLength;
   \                     ??CrossCallReturnLabel_77:
   \   00000054   0183               MOVW    R17:R16, R7:R6
   \   00000056   ....               RJMP    ??Subroutine71_0
    394          }
    395          
    396          //-----------------------------------------------------------------------------------------------------

   \                                 In  segment CODE, align 2, keep-with-next
    397          int16_t CModbus::WriteMultipleCoils(uint8_t *puiRequest, uint8_t *puiResponse, uint16_t uiLength)
   \                     ??WriteMultipleCoils:
    398          {
   \   00000000   ....               RCALL   ?Subroutine26
   \                     ??CrossCallReturnLabel_40:
   \   00000002                      REQUIRE ?Register_R4_is_cg_reg
   \   00000002                      REQUIRE ?Register_R5_is_cg_reg
   \   00000002                      REQUIRE ?Register_R6_is_cg_reg
   \   00000002                      REQUIRE ?Register_R7_is_cg_reg
   \   00000002   ....               RCALL   ?Subroutine5
    399              uint16_t uiOffset = HEADER_LENGTH();
   \                     ??CrossCallReturnLabel_10:
   \   00000004   0198               MOVW    R19:R18, R17:R16
    400              int8_t uiSlave = puiRequest[uiOffset - 1];
   \   00000006   ....               RCALL   ?Subroutine35
   \                     ??CrossCallReturnLabel_137:
   \   00000008   9192               LD      R25, -Z
    401              int8_t uiFunctionCode = puiRequest[uiOffset];
   \   0000000A   01F8               MOVW    R31:R30, R17:R16
   \   0000000C   8180               LD      R24, Z
    402              uint16_t uiAddress = ((static_cast<uint16_t>(puiRequest[uiOffset + 1]) << 8) |
    403                                    (static_cast<uint16_t>(puiRequest[uiOffset + 2])));
   \   0000000E   8171               LDD     R23, Z+1
   \   00000010   8162               LDD     R22, Z+2
    404          
    405              uint16_t uiNumberB = ((static_cast<uint16_t>(puiRequest[uiOffset + 3]) << 8) |
    406                                    (static_cast<uint16_t>(puiRequest[uiOffset + 4])));
   \   00000012   8133               LDD     R19, Z+3
   \   00000014   8144               LDD     R20, Z+4
   \   00000016   2F24               MOV     R18, R20
    407          
    408              if (uiNumberB < 1 || MODBUS_MAX_WRITE_BITS < uiNumberB)
   \   00000018   2B43               OR      R20, R19
   \   0000001A   F021               BREQ    ??WriteMultipleCoils_1
   \   0000001C   3B21               CPI     R18, 177
   \   0000001E   E047               LDI     R20, 7
   \   00000020   0734               CPC     R19, R20
   \   00000022   F010               BRCS    ??WriteMultipleCoils_2
    409              {
    410                  uiLength = ResponseException(uiSlave,
    411                                               uiFunctionCode,
    412                                               MODBUS_EXCEPTION_ILLEGAL_DATA_VALUE,
    413                                               puiResponse);
   \                     ??WriteMultipleCoils_1:
   \   00000024   ....               RCALL   ?Subroutine28
    414              }
   \                     ??CrossCallReturnLabel_55:
   \   00000026   C00A               RJMP    ??CrossCallReturnLabel_60
    415              else if ((uiAddress + uiNumberB) > m_uiCoilsNumber)
   \                     ??WriteMultipleCoils_2:
   \   00000028   01FD               MOVW    R31:R30, R27:R26
   \   0000002A   8D42               LDD     R20, Z+26
   \   0000002C   8D53               LDD     R21, Z+27
   \   0000002E   010B               MOVW    R1:R0, R23:R22
   \   00000030   0E02               ADD     R0, R18
   \   00000032   1E13               ADC     R1, R19
   \   00000034   1540               CP      R20, R0
   \   00000036   0551               CPC     R21, R1
   \   00000038   F428               BRCC    ??WriteMultipleCoils_3
    416              {
    417                  uiLength = ResponseException(uiSlave,
    418                                               uiFunctionCode,
    419                                               MODBUS_EXCEPTION_ILLEGAL_DATA_ADDRESS,
    420                                               puiResponse);
   \   0000003A   ....               RCALL   ?Subroutine29
    421              }
   \                     ??CrossCallReturnLabel_60:
   \   0000003C   2F38               MOV     R19, R24
   \   0000003E   2F29               MOV     R18, R25
   \   00000040   ....               RCALL   ?Subroutine7
   \                     ??CrossCallReturnLabel_15:
   \   00000042   C009               RJMP    ??CrossCallReturnLabel_6
    422              else
    423              {
    424          
    425          
    426                  CPss21::ModbusDeviceControl(&puiRequest[uiOffset + 6], uiNumberB, uiAddress);
   \                     ??WriteMultipleCoils_3:
   \   00000044   01AB               MOVW    R21:R20, R23:R22
   \   00000046   5F0A               SUBI    R16, 250
   \   00000048   4F1F               SBCI    R17, 255
   \   0000004A   ........           CALL    ??ModbusDeviceControl_1
    427          //        SetBytesFromBits(m_puiCoils, uiAddress, uiNumberB, &puiRequest[uiOffset + 6]);
    428          
    429                  uiLength = ResponseBasis(uiSlave, uiFunctionCode, puiResponse);
   \   0000004E   01A2               MOVW    R21:R20, R5:R4
   \   00000050   2F38               MOV     R19, R24
   \   00000052   2F29               MOV     R18, R25
   \   00000054   ....               RCALL   ?Subroutine3
    430                  /* 4 to copy the bit address (2) and the quantity of bits */
    431                  memcpy(puiResponse + uiLength, puiRequest + uiLength, 4);
    432                  uiLength += 4;
    433              }
    434              return uiLength;
   \                     ??CrossCallReturnLabel_6:
   \   00000056   ....               RJMP    ?Subroutine64
    435          }

   \                                 In  segment CODE, align 2, keep-with-next
   \                     ?Subroutine5:
   \   00000000   01D8               MOVW    R27:R26, R17:R16
   \   00000002   0139               MOVW    R7:R6, R19:R18
   \   00000004   012A               MOVW    R5:R4, R21:R20
   \   00000006   ....               RJMP    ?Subroutine50

   \                                 In  segment CODE, align 2, keep-with-next
   \                     ?Subroutine3:
   \   00000000   018D               MOVW    R17:R16, R27:R26
   \   00000002   01FD               MOVW    R31:R30, R27:R26
   \   00000004   ....               RCALL   ?Subroutine51
   \                     ??CrossCallReturnLabel_87:
   \   00000006   01C8               MOVW    R25:R24, R17:R16
   \   00000008   E044               LDI     R20, 4
   \   0000000A   E050               LDI     R21, 0
   \   0000000C   0E60               ADD     R6, R16
   \   0000000E   1E71               ADC     R7, R17
   \   00000010   0193               MOVW    R19:R18, R7:R6
   \   00000012   0D04               ADD     R16, R4
   \   00000014   1D15               ADC     R17, R5
   \   00000016   ....               RCALL   ?Subroutine49
   \                     ??CrossCallReturnLabel_76:
   \   00000018   9604               ADIW    R25:R24, 4
   \   0000001A   9508               RET
    436          
    437          //-----------------------------------------------------------------------------------------------------

   \                                 In  segment CODE, align 2, keep-with-next
    438          int16_t CModbus::WriteMultipleRegisters(uint8_t *puiRequest, uint8_t *puiResponse, uint16_t uiLength)
   \                     ??WriteMultipleRegisters:
    439          {
   \   00000000   ....               RCALL   ?Subroutine23
   \                     ??CrossCallReturnLabel_29:
   \   00000002                      REQUIRE ?Register_R4_is_cg_reg
   \   00000002                      REQUIRE ?Register_R5_is_cg_reg
   \   00000002                      REQUIRE ?Register_R6_is_cg_reg
   \   00000002                      REQUIRE ?Register_R7_is_cg_reg
   \   00000002                      REQUIRE ?Register_R8_is_cg_reg
   \   00000002                      REQUIRE ?Register_R9_is_cg_reg
   \   00000002   ....               RCALL   ?Subroutine5
    440              uint16_t uiOffset = HEADER_LENGTH();
   \                     ??CrossCallReturnLabel_11:
   \   00000004   01C8               MOVW    R25:R24, R17:R16
    441              int8_t uiSlave = puiRequest[uiOffset - 1];
   \   00000006   01A3               MOVW    R21:R20, R7:R6
   \   00000008   0F40               ADD     R20, R16
   \   0000000A   1F51               ADC     R21, R17
   \   0000000C   01FA               MOVW    R31:R30, R21:R20
   \   0000000E   9002               LD      R0, -Z
    442              int8_t uiFunctionCode = puiRequest[uiOffset];
   \   00000010   01FA               MOVW    R31:R30, R21:R20
   \   00000012   8130               LD      R19, Z
    443              uint16_t uiAddress = ((static_cast<uint16_t>(puiRequest[uiOffset + 1]) << 8) |
    444                                    (static_cast<uint16_t>(puiRequest[uiOffset + 2])));
   \   00000014   8111               LDD     R17, Z+1
   \   00000016   8102               LDD     R16, Z+2
    445          
    446              uint16_t uiNumberB = ((static_cast<uint16_t>(puiRequest[uiOffset + 3]) << 8) |
    447                                    (static_cast<uint16_t>(puiRequest[uiOffset + 4])));
   \   00000018   8153               LDD     R21, Z+3
   \   0000001A   8144               LDD     R20, Z+4
    448          
    449              if (uiNumberB < 1 || MODBUS_MAX_WRITE_REGISTERS < uiNumberB)
   \   0000001C   2F24               MOV     R18, R20
   \   0000001E   2B25               OR      R18, R21
   \   00000020   F021               BREQ    ??WriteMultipleRegisters_1
   \   00000022   374C               CPI     R20, 124
   \   00000024   E020               LDI     R18, 0
   \   00000026   0752               CPC     R21, R18
   \   00000028   F010               BRCS    ??WriteMultipleRegisters_2
    450              {
    451                  uiLength = ResponseException(uiSlave,
    452                                               uiFunctionCode,
    453                                               MODBUS_EXCEPTION_ILLEGAL_DATA_VALUE,
    454                                               puiResponse);
   \                     ??WriteMultipleRegisters_1:
   \   0000002A   ....               RCALL   ?Subroutine28
    455              }
   \                     ??CrossCallReturnLabel_56:
   \   0000002C   C00A               RJMP    ??CrossCallReturnLabel_61
    456              else if ((uiAddress + uiNumberB) > m_uiHoldingRegistersNumber)
   \                     ??WriteMultipleRegisters_2:
   \   0000002E   01FD               MOVW    R31:R30, R27:R26
   \   00000030   8D66               LDD     R22, Z+30
   \   00000032   8D77               LDD     R23, Z+31
   \   00000034   0118               MOVW    R3:R2, R17:R16
   \   00000036   0E24               ADD     R2, R20
   \   00000038   1E35               ADC     R3, R21
   \   0000003A   1562               CP      R22, R2
   \   0000003C   0573               CPC     R23, R3
   \   0000003E   F420               BRCC    ??WriteMultipleRegisters_3
    457              {
    458                  uiLength = ResponseException(uiSlave,
    459                                               uiFunctionCode,
    460                                               MODBUS_EXCEPTION_ILLEGAL_DATA_ADDRESS,
    461                                               puiResponse);
   \   00000040   ....               RCALL   ?Subroutine29
    462              }
   \                     ??CrossCallReturnLabel_61:
   \   00000042   2D20               MOV     R18, R0
   \   00000044   ....               RCALL   ?Subroutine7
   \                     ??CrossCallReturnLabel_16:
   \   00000046   C01B               RJMP    ??CrossCallReturnLabel_7
    463              else
    464              {
    465                  for (uint16_t i = 0; i < uiNumberB; i++)
   \                     ??WriteMultipleRegisters_3:
   \   00000048   E060               LDI     R22, 0
   \   0000004A   E070               LDI     R23, 0
   \   0000004C   C012               RJMP    ??WriteMultipleRegisters_4
    466                  {
    467                      m_pui16HoldingRegisters[uiAddress++] = ((static_cast<uint16_t>(puiRequest[uiOffset + 6]) << 8) |
    468                                                              (static_cast<uint16_t>(puiRequest[uiOffset + 6 + 1])));
   \                     ??WriteMultipleRegisters_5:
   \   0000004E   01F3               MOVW    R31:R30, R7:R6
   \   00000050   ....               RCALL   ??Subroutine81_0
   \                     ??CrossCallReturnLabel_145:
   \   00000052   8096               LDD     R9, Z+6
   \   00000054   8087               LDD     R8, Z+7
   \   00000056   01FD               MOVW    R31:R30, R27:R26
   \   00000058   8826               LDD     R2, Z+22
   \   0000005A   8837               LDD     R3, Z+23
   \   0000005C   01F8               MOVW    R31:R30, R17:R16
   \   0000005E   0FEE               LSL     R30
   \   00000060   1FFF               ROL     R31
   \   00000062   0DE2               ADD     R30, R2
   \   00000064   1DF3               ADC     R31, R3
   \   00000066   8280               ST      Z, R8
   \   00000068   8291               STD     Z+1, R9
   \   0000006A   ....               RCALL   ?Subroutine21
    469                      uiOffset += 2;
   \                     ??CrossCallReturnLabel_24:
   \   0000006C   9602               ADIW    R25:R24, 2
    470                  }
   \   0000006E   5F6F               SUBI    R22, 255
   \   00000070   4F7F               SBCI    R23, 255
   \                     ??WriteMultipleRegisters_4:
   \   00000072   1764               CP      R22, R20
   \   00000074   0775               CPC     R23, R21
   \   00000076   F358               BRCS    ??WriteMultipleRegisters_5
    471          
    472                  uiLength = ResponseBasis(uiSlave, uiFunctionCode, puiResponse);
   \   00000078   01A2               MOVW    R21:R20, R5:R4
   \   0000007A   2D20               MOV     R18, R0
   \   0000007C   ....               RCALL   ?Subroutine3
    473                  /* 4 to copy the bit address (2) and the quantity of bits */
    474                  memcpy(puiResponse + uiLength, puiRequest + uiLength, 4);
    475                  uiLength += 4;
    476          
    477              }
    478              return uiLength;
   \                     ??CrossCallReturnLabel_7:
   \   0000007E   018C               MOVW    R17:R16, R25:R24
   \   00000080                      REQUIRE ?Subroutine63
   \   00000080                      ;               // Fall through to label ?Subroutine63
    479          }

   \                                 In  segment CODE, align 2, keep-with-next
   \                     ?Subroutine63:
   \   00000000   E0EA               LDI     R30, 10
   \   00000002                      REQUIRE ??Subroutine78_0
   \   00000002                      ;               // Fall through to label ??Subroutine78_0
    480          
    481          //-----------------------------------------------------------------------------------------------------

   \                                 In  segment CODE, align 2, keep-with-next
    482          int16_t CModbus::ReadExceptionStatus(uint8_t *puiRequest, uint8_t *puiResponse, uint16_t uiLength)
   \                     ??ReadExceptionStatus:
    483          {
    484          //    errno = ENOPROTOOPT;
    485              return -1;
   \   00000000   EF0F               LDI     R16, 255
   \   00000002   EF1F               LDI     R17, 255
   \   00000004   9508               RET
    486          }
    487          
    488          //-----------------------------------------------------------------------------------------------------

   \                                 In  segment CODE, align 2, keep-with-next
   \                     ?Subroutine57:
   \   00000000   E000               LDI     R16, 0
   \   00000002                      REQUIRE ??Subroutine70_0
   \   00000002                      ;               // Fall through to label ??Subroutine70_0

   \                                 In  segment CODE, align 2, keep-with-next
   \                     ??Subroutine70_0:
   \   00000000   E010               LDI     R17, 0
   \   00000002   9508               RET

   \                                 In  segment CODE, align 2, keep-with-next
    489          int16_t CModbus::WriteAndReadRegisters(uint8_t *puiRequest, uint8_t *puiResponse, uint16_t uiLength)
   \                     ??WriteAndReadRegisters:
    490          {
    491          
    492              return 0;
   \   00000000   ....               RJMP    ?Subroutine57
    493          }
    494          
    495          //-----------------------------------------------------------------------------------------------------

   \                                 In  segment CODE, align 2, keep-with-next
    496          int16_t CModbus::ReportSlaveID(uint8_t *puiRequest, uint8_t *puiResponse, uint16_t uiLength)
   \                     ??ReportSlaveID:
    497          {
   \   00000000   ....               RCALL   ?Subroutine37
   \                     ??CrossCallReturnLabel_66:
   \   00000002                      REQUIRE ?Register_R4_is_cg_reg
   \   00000002                      REQUIRE ?Register_R5_is_cg_reg
   \   00000002   01C8               MOVW    R25:R24, R17:R16
   \   00000004   0129               MOVW    R5:R4, R19:R18
   \   00000006   01DA               MOVW    R27:R26, R21:R20
    498              uint16_t uiOffset = HEADER_LENGTH();
   \   00000008   ....               RCALL   ?Subroutine50
    499              int8_t uiSlave = puiRequest[uiOffset - 1];
    500              int8_t uiFunctionCode = puiRequest[uiOffset];
    501          
    502              uiLength = ResponseBasis(uiSlave, uiFunctionCode, puiResponse);
   \                     ??CrossCallReturnLabel_81:
   \   0000000A   ....               RCALL   ?Subroutine38
   \                     ??CrossCallReturnLabel_69:
   \   0000000C   01AD               MOVW    R21:R20, R27:R26
   \   0000000E   01F2               MOVW    R31:R30, R5:R4
   \   00000010   8130               LD      R19, Z
   \   00000012   EF0F               LDI     R16, 255
   \   00000014   0E40               ADD     R4, R16
   \   00000016   1E50               ADC     R5, R16
   \   00000018   01F2               MOVW    R31:R30, R5:R4
   \   0000001A   8120               LD      R18, Z
   \   0000001C   018C               MOVW    R17:R16, R25:R24
   \   0000001E   01FC               MOVW    R31:R30, R25:R24
   \   00000020   ....               RCALL   ?Subroutine51
    503              puiResponse[uiLength++] = 3;			// ╫шёыю срщҐ фрээ√є
   \                     ??CrossCallReturnLabel_89:
   \   00000022   ....               RCALL   ??Subroutine80_0
   \                     ??CrossCallReturnLabel_140:
   \   00000024   E023               LDI     R18, 3
   \   00000026   ....               RCALL   ?Subroutine10
    504              puiResponse[uiLength++] = 32;			// ╩юышіхёҐтю юъюэ ёшуэрышчрІшш
   \                     ??CrossCallReturnLabel_139:
   \   00000028   E220               LDI     R18, 32
   \   0000002A   ....               RCALL   ?Subroutine10
    505              puiResponse[uiLength++] = 7;			// ╩юф ьюфшЄшърІшш
   \                     ??CrossCallReturnLabel_138:
   \   0000002C   E027               LDI     R18, 7
   \   0000002E   8320               ST      Z, R18
    506              puiResponse[uiLength++] = 50;			// ╩юф ґёҐЁющёҐтр
   \   00000030   ....               RCALL   ?Subroutine21
   \                     ??CrossCallReturnLabel_25:
   \   00000032   0FA0               ADD     R26, R16
   \   00000034   1FB1               ADC     R27, R17
   \   00000036   E322               LDI     R18, 50
   \   00000038   932C               ST      X, R18
    507          
    508              return uiLength;
   \   0000003A   ....               RCALL   ?Subroutine21
   \                     ??CrossCallReturnLabel_26:
   \   0000003C                      REQUIRE ?Subroutine66
   \   0000003C                      ;               // Fall through to label ?Subroutine66
    509          }

   \                                 In  segment CODE, align 2, keep-with-next
   \                     ?Subroutine66:
   \   00000000   E0E6               LDI     R30, 6
   \   00000002                      REQUIRE ??Subroutine79_0
   \   00000002                      ;               // Fall through to label ??Subroutine79_0

   \                                 In  segment CODE, align 2, keep-with-next
   \                     ??Subroutine79_0:
   \   00000000   ........           JMP     ?EPILOGUE_B6_L09

   \                                 In  segment CODE, align 2, keep-with-next
   \                     ?Subroutine10:
   \   00000000   8320               ST      Z, R18
   \   00000002   5F0F               SUBI    R16, 255
   \   00000004   4F1F               SBCI    R17, 255
   \   00000006                      REQUIRE ??Subroutine80_0
   \   00000006                      ;               // Fall through to label ??Subroutine80_0

   \                                 In  segment CODE, align 2, keep-with-next
   \                     ??Subroutine80_0:
   \   00000000   01FD               MOVW    R31:R30, R27:R26
   \   00000002   ....               RJMP    ??Subroutine74_0

   \                                 In  segment CODE, align 2, keep-with-next
   \                     ?Subroutine38:
   \   00000000   0E40               ADD     R4, R16
   \   00000002   1E51               ADC     R5, R17
   \   00000004   9508               RET

   \                                 In  segment CODE, align 2, keep-with-next
   \                     ?Subroutine37:
   \   00000000   ........           JMP     ?PROLOGUE6_L09
    510          
    511          //-----------------------------------------------------------------------------------------------------

   \                                 In  segment CODE, align 2, keep-with-next
    512          int16_t CModbus::Programming(uint8_t *puiRequest, uint8_t *puiResponse, uint16_t uiLength)
   \                     ??Programming:
    513          {
   \   00000000   ........           CALL    ?PROLOGUE15_L09
   \   00000004                      REQUIRE ?Register_R4_is_cg_reg
   \   00000004                      REQUIRE ?Register_R5_is_cg_reg
   \   00000004                      REQUIRE ?Register_R6_is_cg_reg
   \   00000004                      REQUIRE ?Register_R7_is_cg_reg
   \   00000004                      REQUIRE ?Register_R8_is_cg_reg
   \   00000004                      REQUIRE ?Register_R9_is_cg_reg
   \   00000004                      REQUIRE ?Register_R10_is_cg_reg
   \   00000004                      REQUIRE ?Register_R11_is_cg_reg
   \   00000004                      REQUIRE ?Register_R12_is_cg_reg
   \   00000004                      REQUIRE ?Register_R13_is_cg_reg
   \   00000004                      REQUIRE ?Register_R14_is_cg_reg
   \   00000004   0138               MOVW    R7:R6, R17:R16
   \   00000006   0129               MOVW    R5:R4, R19:R18
   \   00000008   014A               MOVW    R9:R8, R21:R20
   \   0000000A   01CB               MOVW    R25:R24, R23:R22
    514          // ╘ґэъІш  0x46 "яЁюуЁрььшЁютрэшх". ╬яшёрэшх яЁюҐюъюыр юсьхэр:
    515          // Buff[0] - рфЁхё Slave.
    516          // Buff[1] - ъюф ЄґэъІшш.
    517          // Buff[2] - ъюышіхёҐтю срщҐ т чряЁюёх ъюьрэф√ ёҐрЁЇшщ срщҐ.
    518          // Buff[3] - ъюышіхёҐтю срщҐ т чряЁюёх ъюьрэф√ ьырфЇшщ срщҐ.
    519          // Buff[4] - ъюф юяхЁрІшш(0 - чряЁюё тхЁёшш ╧╬, 1 - іҐхэшх сыюър┴─, 2 - чряшё№ сыюър┴─).
    520          // Buff[5] - эюьхЁ сыюър ┴─.
    521          
    522              // ╤ьхїхэш  т яЁшэ Ґюь сґЄхЁх.
    523              enum
    524              {
    525                  REQUEST_LENGTH = 2,
    526                  REQUEST_COMMAND = 3,
    527                  BLOCK_NUMBER = 4,
    528                  DATA_BEGIN = 5,
    529              };
    530          
    531              uint16_t uiOffset = HEADER_LENGTH();
   \   0000000C   ....               RCALL   ?Subroutine50
   \                     ??CrossCallReturnLabel_80:
   \   0000000E   01D8               MOVW    R27:R26, R17:R16
    532              int8_t uiSlave = puiRequest[uiOffset - 1];
   \   00000010   ....               RCALL   ?Subroutine38
   \                     ??CrossCallReturnLabel_70:
   \   00000012   0152               MOVW    R11:R10, R5:R4
   \   00000014   01F2               MOVW    R31:R30, R5:R4
   \   00000016   90E2               LD      R14, -Z
    533              int8_t uiFunctionCode = puiRequest[uiOffset];
   \   00000018   01F2               MOVW    R31:R30, R5:R4
   \   0000001A   80D0               LD      R13, Z
    534          
    535              uint16_t uiNumberB = (static_cast<uint16_t>(puiRequest[uiOffset + REQUEST_LENGTH]));
    536          
    537              if (uiNumberB != (uiLength - 6))
   \   0000001C   8102               LDD     R16, Z+2
   \   0000001E   E010               LDI     R17, 0
   \   00000020   9706               SBIW    R25:R24, 6
   \   00000022   1708               CP      R16, R24
   \   00000024   0719               CPC     R17, R25
   \   00000026   F009               BREQ    $+2+2
   \   00000028   C052               RJMP    ??Programming_1
    538              {
    539                  uiLength = ResponseException(uiSlave,
    540                                               uiFunctionCode,
    541                                               MODBUS_EXCEPTION_ILLEGAL_DATA_ADDRESS,
    542                                               puiResponse);
    543              }
    544              else
    545              {
    546                  uint8_t uiBlockNumber;
    547                  uiLength = ResponseBasis(uiSlave, uiFunctionCode, puiResponse);
   \   0000002A   01A4               MOVW    R21:R20, R9:R8
   \   0000002C   2D3D               MOV     R19, R13
   \   0000002E   2D2E               MOV     R18, R14
   \   00000030   0183               MOVW    R17:R16, R7:R6
   \   00000032   01F3               MOVW    R31:R30, R7:R6
   \   00000034   ....               RCALL   ?Subroutine51
   \                     ??CrossCallReturnLabel_90:
   \   00000036   01C8               MOVW    R25:R24, R17:R16
    548                  // ╩ръющ ъюф юяхЁрІшш?
    549                  switch(puiRequest[uiOffset + REQUEST_COMMAND])
   \   00000038   0124               MOVW    R5:R4, R9:R8
   \   0000003A   ....               RCALL   ?Subroutine38
   \                     ??CrossCallReturnLabel_71:
   \   0000003C   01F5               MOVW    R31:R30, R11:R10
   \   0000003E   8103               LDD     R16, Z+3
   \   00000040   2300               TST     R16
   \   00000042   F041               BREQ    ??Programming_2
   \   00000044   950A               DEC     R16
   \   00000046   F0C1               BREQ    ??Programming_3
   \   00000048   950A               DEC     R16
   \   0000004A   F1E9               BREQ    ??Programming_4
   \   0000004C   950A               DEC     R16
   \   0000004E   F409               BRNE    $+2+2
   \   00000050   C065               RJMP    ??Programming_5
   \   00000052   C06B               RJMP    ??Programming_6
    550                  {
    551                  case 0x00:
    552                      // ╧юыґіхэшх тхЁёшш ╧╬.
    553                      puiResponse[uiLength++] = 0;
   \                     ??Programming_2:
   \   00000054   01F2               MOVW    R31:R30, R5:R4
   \   00000056   E000               LDI     R16, 0
   \   00000058   ....               RCALL   ?Subroutine24
    554                      puiResponse[uiLength++] = 4;
   \                     ??CrossCallReturnLabel_33:
   \   0000005A   E004               LDI     R16, 4
   \   0000005C   8300               ST      Z, R16
    555                      puiResponse[uiLength++] = puiRequest[uiOffset + REQUEST_COMMAND];
   \   0000005E   01F5               MOVW    R31:R30, R11:R10
   \   00000060   8103               LDD     R16, Z+3
   \   00000062   ....               RCALL   ?Subroutine45
   \                     ??CrossCallReturnLabel_147:
   \   00000064   ....               RCALL   ?Subroutine24
    556                      puiResponse[uiLength++] = 2; // 1.7.01
   \                     ??CrossCallReturnLabel_32:
   \   00000066   E002               LDI     R16, 2
   \   00000068   ....               RCALL   ?Subroutine24
    557                      puiResponse[uiLength++] = 0;
   \                     ??CrossCallReturnLabel_31:
   \   0000006A   E000               LDI     R16, 0
   \   0000006C   8300               ST      Z, R16
    558                      puiResponse[uiLength++] = 0x02;
   \   0000006E   ....               RCALL   ?Subroutine47
   \                     ??CrossCallReturnLabel_75:
   \   00000070   E002               LDI     R16, 2
   \   00000072   8300               ST      Z, R16
   \   00000074   9601               ADIW    R25:R24, 1
    559                      break;
   \   00000076   C05F               RJMP    ??Programming_7
    560          
    561                  case 0x01:
    562                      // ╫Ґхэшх сыюър ┴─.
    563                      uiBlockNumber = puiRequest[uiOffset + BLOCK_NUMBER];
   \                     ??Programming_3:
   \   00000078   80C4               LDD     R12, Z+4
    564                      // ┴ыюъ эх ёґїхёҐтґхҐ?
    565                      if (uiBlockNumber > TDataBase::BLOCKS_QUANTITY)
   \   0000007A   E00C               LDI     R16, 12
   \   0000007C   16C0               CP      R12, R16
   \   0000007E   F538               BRCC    ??Programming_1
    566                      {
    567                          uiLength = ResponseException(uiSlave,
    568                                                       uiFunctionCode,
    569                                                       MODBUS_EXCEPTION_ILLEGAL_DATA_ADDRESS,
    570                                                       puiResponse);
    571                      }
    572                      else
    573                      {
    574                          if (uiBlockNumber == TDataBase::DEV_CONFIG)
   \   00000080   0184               MOVW    R17:R16, R9:R8
   \   00000082   0F0A               ADD     R16, R26
   \   00000084   1F1B               ADC     R17, R27
   \   00000086   01D8               MOVW    R27:R26, R17:R16
   \   00000088   20CC               TST     R12
   \   0000008A   F491               BRNE    ??Programming_8
    575                          {
    576                              // ╧ЁюішҐрхь сыюъ ┴─.
    577                              uint16_t uiLengthLocal = CDataBase::Read(&puiResponse[uiOffset + DATA_BEGIN], uiBlockNumber);
   \   0000008C   E020               LDI     R18, 0
   \   0000008E   5F0B               SUBI    R16, 251
   \   00000090   4F1F               SBCI    R17, 255
   \   00000092   ........           CALL    ??Read
    578                              // ╬ҐяЁртшь ЄръҐшіхёъґ■ ъюэЄшуґЁрІш■. ╩юышіхёҐтю ьюфґыхщ ттюфр, т√тюфр ш ъюышіхёҐтю юъюэ ёшуэрышчрІшш.
    579                              puiResponse[(uiOffset + DATA_BEGIN)] = CPss21::m_xDeviceConfigSearch.uiDiscreteInputQuantity;
   \   00000096   9120....           LDS     R18, (??m_xDeviceConfigSearch + 8)
   \   0000009A   01FD               MOVW    R31:R30, R27:R26
   \   0000009C   8325               STD     Z+5, R18
    580                              puiResponse[(uiOffset + DATA_BEGIN) + 1] = CPss21::m_xDeviceConfigSearch.uiDiscreteOutputQuantity;
   \   0000009E   9120....           LDS     R18, (??m_xDeviceConfigSearch + 7)
   \   000000A2   8326               STD     Z+6, R18
    581                              puiResponse[(uiOffset + DATA_BEGIN) + 2] = ALARM_WINDOWS_NUMBER;
   \   000000A4   E320               LDI     R18, 48
   \   000000A6   8327               STD     Z+7, R18
    582          
    583                              puiResponse[uiLength++] = 0;
   \   000000A8   ....               RCALL   ?Subroutine16
    584                              puiResponse[uiLength++] = uiLengthLocal;
    585                              puiResponse[uiLength++] = puiRequest[uiOffset + REQUEST_COMMAND];
    586                              puiResponse[uiLength++] = uiBlockNumber;
   \                     ??CrossCallReturnLabel_20:
   \   000000AA   E020               LDI     R18, 0
   \   000000AC   8320               ST      Z, R18
    587                              uiLength += uiLengthLocal;
   \   000000AE   C007               RJMP    ??Programming_9
    588                          }
    589                          else
    590                          {
    591                              // ╧ЁюішҐрхь сыюъ ┴─.
    592                              uint16_t uiLengthLocal = CDataBase::Read(&puiResponse[uiOffset + DATA_BEGIN], uiBlockNumber);
   \                     ??Programming_8:
   \   000000B0   2D2C               MOV     R18, R12
   \   000000B2   9615               ADIW    R27:R26, 5
   \   000000B4   018D               MOVW    R17:R16, R27:R26
   \   000000B6   ........           CALL    ??Read
    593                              puiResponse[uiLength++] = 0;
   \   000000BA   ....               RCALL   ?Subroutine16
    594                              puiResponse[uiLength++] = uiLengthLocal;
    595                              puiResponse[uiLength++] = puiRequest[uiOffset + REQUEST_COMMAND];
    596                              puiResponse[uiLength++] = uiBlockNumber;
   \                     ??CrossCallReturnLabel_19:
   \   000000BC   82C0               ST      Z, R12
    597                              uiLength += uiLengthLocal;
    598                          }
    599                      }
   \                     ??Programming_9:
   \   000000BE   ....               RCALL   ?Subroutine21
   \                     ??CrossCallReturnLabel_27:
   \   000000C0   0F80               ADD     R24, R16
   \   000000C2   1F91               ADC     R25, R17
   \   000000C4   C038               RJMP    ??Programming_7
    600                      break;
    601          
    602                  case 0x02:
    603                      // ╟ряшё№ сыюър ┴─.
    604                      uiBlockNumber = puiRequest[uiOffset + BLOCK_NUMBER];
   \                     ??Programming_4:
   \   000000C6   80C4               LDD     R12, Z+4
    605                      // ┴ыюъ эх ёґїхёҐтґхҐ?
    606                      if (uiBlockNumber > TDataBase::BLOCKS_QUANTITY)
   \   000000C8   E00C               LDI     R16, 12
   \   000000CA   16C0               CP      R12, R16
   \   000000CC   F018               BRCS    ??Programming_10
    607                      {
    608                          uiLength = ResponseException(uiSlave,
    609                                                       uiFunctionCode,
    610                                                       MODBUS_EXCEPTION_ILLEGAL_DATA_ADDRESS,
    611                                                       puiResponse);
   \                     ??Programming_1:
   \   000000CE   01B4               MOVW    R23:R22, R9:R8
   \   000000D0   E042               LDI     R20, 2
   \   000000D2   C02D               RJMP    ??Programming_11
    612                      }
    613                      // ╨рчьхЁ сыюър эх ёююҐтхҐёҐтґхҐ?
    614                      else if ((puiRequest[uiOffset + REQUEST_LENGTH] - 2) != CDataBase::GetBlockLength(uiBlockNumber))
   \                     ??Programming_10:
   \   000000D4   ....               RCALL   ?Subroutine39
   \                     ??CrossCallReturnLabel_74:
   \   000000D6   01F5               MOVW    R31:R30, R11:R10
   \   000000D8   81E2               LDD     R30, Z+2
   \   000000DA   E0F0               LDI     R31, 0
   \   000000DC   9732               SBIW    R31:R30, 2
   \   000000DE   17E0               CP      R30, R16
   \   000000E0   40F0               SBCI    R31, 0
   \   000000E2   F019               BREQ    ??Programming_12
    615                      {
    616                          uiLength = ResponseException(uiSlave,
    617                                                       uiFunctionCode,
    618                                                       MODBUS_EXCEPTION_ILLEGAL_DATA_VALUE,
    619                                                       puiResponse);
   \   000000E4   01B4               MOVW    R23:R22, R9:R8
   \   000000E6   E043               LDI     R20, 3
   \   000000E8   C022               RJMP    ??Programming_11
    620                      }
    621                      else
    622                      {
    623                          // ╤юєЁрэшь сыюъ ┴─.
    624                          // ╙ёяхЇэю?
    625          //                if (1)
    626                          if (CDataBase::Write(&puiRequest[uiOffset + DATA_BEGIN], CDataBase::GetBlockLength(uiBlockNumber), uiBlockNumber))
   \                     ??Programming_12:
   \   000000EA   ....               RCALL   ?Subroutine39
   \                     ??CrossCallReturnLabel_73:
   \   000000EC   2D4C               MOV     R20, R12
   \   000000EE   2F20               MOV     R18, R16
   \   000000F0   E030               LDI     R19, 0
   \   000000F2   E005               LDI     R16, 5
   \   000000F4   0D0A               ADD     R16, R10
   \   000000F6   1EB3               ADC     R11, R19
   \   000000F8   2D1B               MOV     R17, R11
   \   000000FA   ........           CALL    ??Write
   \   000000FE   2B01               OR      R16, R17
   \   00000100   F051               BREQ    ??Programming_13
    627                          {
    628                              // ┴рчр фрээ√є яюфҐтхЁцфхэр яюы№чютрҐхыхь яЁш чряшёш сыюър іхЁхч яЁюуЁрььрҐюЁ.
    629                              // ╤ючфрфшь Crc тёхє сыюъют.
    630                              CPss21::m_xDataStore.CrcOfBlocksCrcCreate();
   \   00000102   ....               LDI     R16, LOW(??m_xDataStore)
   \   00000104   ....               LDI     R17, (??m_xDataStore) >> 8
   \   00000106   ........           CALL    ??CrcOfBlocksCrcCreate
    631                              // ╧юёых яЁш╕ьр яюёыхфэхую сыюър срч√ фрээ√є яЁюшчющф╕Ґ яхЁхчруЁґчър
    632                              // іхЁхч "PROGRAMMING_TIME + WDTO_2S", іҐюс√ яЁшьхэшҐ№ шчьхэхэш  ъюэЄшуґЁрІшш.
    633                              CPss21::SetFsmState(CPss21::PROGRAMMING_START);
   \   0000010A   E00D               LDI     R16, 13
   \   0000010C   9300....           STS     ??m_uiFsmState, R16
    634          
    635                              uiLength = ResponseException(uiSlave,
    636                                                           uiFunctionCode,
    637                                                           MODBUS_EXCEPTION_ACKNOWLEDGE,
    638                                                           puiResponse);
   \   00000110   01B4               MOVW    R23:R22, R9:R8
   \   00000112   E045               LDI     R20, 5
   \   00000114   C00C               RJMP    ??Programming_11
    639                          }
    640                          else
    641                          {
    642                              uiLength = ResponseException(uiSlave,
    643                                                           uiFunctionCode,
    644                                                           MODBUS_EXCEPTION_NEGATIVE_ACKNOWLEDGE,
    645                                                           puiResponse);
   \                     ??Programming_13:
   \   00000116   01B4               MOVW    R23:R22, R9:R8
   \   00000118   E047               LDI     R20, 7
   \   0000011A   C009               RJMP    ??Programming_11
    646                          }
    647                      }
    648                      break;
    649          
    650                  case 0x03:
    651                      if(!(CDataBase::GetStatus()))
   \                     ??Programming_5:
   \   0000011C   9100....           LDS     R16, ??m_uiStatus
   \   00000120   2300               TST     R16
   \   00000122   F449               BRNE    ??Programming_7
    652                      {
    653                          uiLength = ResponseException(uiSlave,
    654                                                       uiFunctionCode,
    655                                                       MODBUS_EXCEPTION_SLAVE_OR_SERVER_BUSY,
    656                                                       puiResponse);
   \   00000124   01B4               MOVW    R23:R22, R9:R8
   \   00000126   E046               LDI     R20, 6
   \   00000128   C002               RJMP    ??Programming_11
    657                      }
    658                      break;
    659          
    660                  default:
    661                      uiLength = ResponseException(uiSlave,
    662                                                   uiFunctionCode,
    663                                                   MODBUS_EXCEPTION_ILLEGAL_FUNCTION,
    664                                                   puiResponse);
   \                     ??Programming_6:
   \   0000012A   01B4               MOVW    R23:R22, R9:R8
   \   0000012C   E041               LDI     R20, 1
   \                     ??Programming_11:
   \   0000012E   2D3D               MOV     R19, R13
   \   00000130   2D2E               MOV     R18, R14
   \   00000132   ....               RCALL   ?Subroutine36
   \                     ??CrossCallReturnLabel_110:
   \   00000134   01C8               MOVW    R25:R24, R17:R16
    665                      break;
    666                  };
    667              }
    668          
    669              return uiLength;
   \                     ??Programming_7:
   \   00000136   018C               MOVW    R17:R16, R25:R24
   \   00000138   E0EF               LDI     R30, 15
   \   0000013A   ........           JMP     ?EPILOGUE_B15_L09
    670          }

   \                                 In  segment CODE, align 2, keep-with-next
   \                     ?Subroutine39:
   \   00000000   2D0C               MOV     R16, R12
   \   00000002   ........           JMP     ??GetBlockLength

   \                                 In  segment CODE, align 2, keep-with-next
   \                     ?Subroutine24:
   \   00000000   8300               ST      Z, R16
   \   00000002                      REQUIRE ?Subroutine45
   \   00000002                      ;               // Fall through to label ?Subroutine45

   \                                 In  segment CODE, align 2, keep-with-next
   \                     ?Subroutine45:
   \   00000000   9601               ADIW    R25:R24, 1
   \   00000002   01F4               MOVW    R31:R30, R9:R8
   \   00000004                      REQUIRE ??Subroutine81_0
   \   00000004                      ;               // Fall through to label ??Subroutine81_0

   \                                 In  segment CODE, align 2, keep-with-next
   \                     ?Subroutine16:
   \   00000000   01F2               MOVW    R31:R30, R5:R4
   \   00000002   E020               LDI     R18, 0
   \   00000004   8320               ST      Z, R18
   \   00000006   ....               RCALL   ?Subroutine45
   \                     ??CrossCallReturnLabel_148:
   \   00000008   8300               ST      Z, R16
   \   0000000A   01F5               MOVW    R31:R30, R11:R10
   \   0000000C   8123               LDD     R18, Z+3
   \   0000000E   ....               RCALL   ?Subroutine45
   \                     ??CrossCallReturnLabel_149:
   \   00000010   8320               ST      Z, R18
   \   00000012                      REQUIRE ?Subroutine47
   \   00000012                      ;               // Fall through to label ?Subroutine47

   \                                 In  segment CODE, align 2, keep-with-next
   \                     ?Subroutine47:
   \   00000000   9601               ADIW    R25:R24, 1
   \   00000002   0E88               ADD     R8, R24
   \   00000004   1E99               ADC     R9, R25
   \   00000006   01F4               MOVW    R31:R30, R9:R8
   \   00000008   9508               RET

   \                                 In  segment CODE, align 2, keep-with-next
   \                     ?Subroutine36:
   \   00000000   0183               MOVW    R17:R16, R7:R6
   \   00000002   ....               RJMP    ?Subroutine65
    671          
    672          //-----------------------------------------------------------------------------------------------------

   \                                 In  segment CODE, align 2, keep-with-next
    673          int16_t CModbus::PollProgramming(uint8_t *puiRequest, uint8_t *puiResponse, uint16_t uiLength)
   \                     ??PollProgramming:
    674          
    675          {
   \   00000000   ....               RCALL   ?Subroutine37
   \                     ??CrossCallReturnLabel_67:
   \   00000002                      REQUIRE ?Register_R4_is_cg_reg
   \   00000002                      REQUIRE ?Register_R5_is_cg_reg
   \   00000002   ....               RCALL   ?Subroutine6
    676              uint16_t uiOffset = HEADER_LENGTH();
    677              int8_t uiSlave = puiRequest[uiOffset - 1];
   \                     ??CrossCallReturnLabel_12:
   \   00000004   0D04               ADD     R16, R4
   \   00000006   1D15               ADC     R17, R5
   \   00000008   ....               RCALL   ?Subroutine52
    678              int8_t uiFunctionCode = puiRequest[uiOffset];
    679          
    680              uint8_t uiTempEvent = CPss21::m_xDataStore.GetFsmEvent();
    681              if (CPss21::m_xDataStore.GetFsmEvent() == CDataStore::WRITE_OK_FSM_EVENT)
   \                     ??CrossCallReturnLabel_85:
   \   0000000A   9100....           LDS     R16, (??m_xDataStore + 4)
   \   0000000E   3003               CPI     R16, 3
   \   00000010   F429               BRNE    ??PollProgramming_1
    682              {
    683                  uiLength = ResponseBasis(uiSlave, uiFunctionCode, puiResponse);
   \   00000012   01AC               MOVW    R21:R20, R25:R24
   \   00000014   018D               MOVW    R17:R16, R27:R26
   \   00000016   01FD               MOVW    R31:R30, R27:R26
   \   00000018   ....               RCALL   ?Subroutine51
    684          //        // ╧юёых яЁш╕ьр яюёыхфэхую сыюър срч√ фрээ√є яЁюшчющф╕Ґ яхЁхчруЁґчър
    685          //        // іхЁхч "PROGRAMMING_TIME + WDTO_2S", іҐюс√ яЁшьхэшҐ№ шчьхэхэш  ъюэЄшуґЁрІшш.
    686          //        CPss21::SetFsmState(CPss21::PROGRAMMING_START);
    687              }
   \                     ??CrossCallReturnLabel_91:
   \   0000001A   C007               RJMP    ??CrossCallReturnLabel_115
    688              else if (CPss21::m_xDataStore.GetFsmEvent() == CDataStore::WRITE_IN_PROGRESS_FSM_EVENT)
   \                     ??PollProgramming_1:
   \   0000001C   3001               CPI     R16, 1
   \   0000001E   01BC               MOVW    R23:R22, R25:R24
   \   00000020   F411               BRNE    ??PollProgramming_2
    689              {
    690                  uiLength = ResponseException(uiSlave,
    691                                               uiFunctionCode,
    692                                               MODBUS_EXCEPTION_SLAVE_OR_SERVER_BUSY,
    693                                               puiResponse);
   \   00000022   E046               LDI     R20, 6
   \   00000024   C001               RJMP    ??PollProgramming_3
    694              }
    695              else
    696              {
    697                  uiLength = ResponseException(uiSlave,
    698                                               uiFunctionCode,
    699                                               MODBUS_EXCEPTION_ILLEGAL_FUNCTION,
    700                                               puiResponse);
   \                     ??PollProgramming_2:
   \   00000026   E041               LDI     R20, 1
    701              }
   \                     ??PollProgramming_3:
   \   00000028   ....               RCALL   ?Subroutine41
    702          
    703              return uiLength;
   \                     ??CrossCallReturnLabel_115:
   \   0000002A   ....               RJMP    ?Subroutine66
    704          }

   \                                 In  segment CODE, align 2, keep-with-next
   \                     ?Subroutine6:
   \   00000000   01D8               MOVW    R27:R26, R17:R16
   \   00000002   0129               MOVW    R5:R4, R19:R18
   \   00000004   01CA               MOVW    R25:R24, R21:R20
   \   00000006   ....               RJMP    ?Subroutine50
    705          
    706          //-----------------------------------------------------------------------------------------------------

   \                                 In  segment CODE, align 2, keep-with-next
    707          int16_t CModbus::Reply(uint8_t *puiRequest, uint8_t *puiResponse, uint16_t uiFrameLength)
   \                     ??Reply:
    708          {
   \   00000000   ........           CALL    ?PROLOGUE12_L09
   \   00000004                      REQUIRE ?Register_R4_is_cg_reg
   \   00000004                      REQUIRE ?Register_R5_is_cg_reg
   \   00000004                      REQUIRE ?Register_R6_is_cg_reg
   \   00000004                      REQUIRE ?Register_R7_is_cg_reg
   \   00000004                      REQUIRE ?Register_R8_is_cg_reg
   \   00000004                      REQUIRE ?Register_R10_is_cg_reg
   \   00000004                      REQUIRE ?Register_R11_is_cg_reg
   \   00000004   0138               MOVW    R7:R6, R17:R16
   \   00000006   01D9               MOVW    R27:R26, R19:R18
   \   00000008   01CA               MOVW    R25:R24, R21:R20
   \   0000000A   012B               MOVW    R5:R4, R23:R22
    709              uint16_t uiOffset = HEADER_LENGTH();
   \   0000000C   ....               RCALL   ?Subroutine15
    710              int8_t uiSlave = puiRequest[uiOffset - 1];
   \                     ??CrossCallReturnLabel_104:
   \   0000000E   018D               MOVW    R17:R16, R27:R26
   \   00000010   ....               RCALL   ??Subroutine77_0
   \                     ??CrossCallReturnLabel_135:
   \   00000012   90A2               LD      R10, -Z
    711              int8_t uiFunctionCode = puiRequest[uiOffset];
   \   00000014   01F8               MOVW    R31:R30, R17:R16
   \   00000016   8080               LD      R8, Z
    712              uint16_t uiLength = uiFrameLength;
    713          
    714              /* Filter on the Modbus unit identifier (slave) in RTU mode */
    715              if (uiSlave != m_uiOwnAddress && uiSlave != MODBUS_BROADCAST_ADDRESS)
   \   00000018   2CBA               MOV     R11, R10
   \   0000001A   0CBB               LSL     R11
   \   0000001C   08BB               SBC     R11, R11
   \   0000001E   01F3               MOVW    R31:R30, R7:R6
   \   00000020   8105               LDD     R16, Z+5
   \   00000022   E010               LDI     R17, 0
   \   00000024   16A0               CP      R10, R16
   \   00000026   06B1               CPC     R11, R17
   \   00000028   F021               BREQ    ??Reply_1
   \   0000002A   20AA               TST     R10
   \   0000002C   F011               BREQ    ??Reply_1
    716              {
    717                  return 0;
   \   0000002E   E000               LDI     R16, 0
   \   00000030   C039               RJMP    ??Reply_2
    718              }
    719          
    720              switch (uiFunctionCode)
   \                     ??Reply_1:
   \   00000032   2D08               MOV     R16, R8
   \   00000034   ....               LDI     R30, LOW(`?<Jumptable for Reply>_0`)
   \   00000036   ....               LDI     R31, (`?<Jumptable for Reply>_0`) >> 16
   \   00000038   BFFB               OUT     0x3B, R31
   \   0000003A   ....               LDI     R31, HIGH(`?<Jumptable for Reply>_0`)
   \   0000003C   ........           JMP     ?CV_SWITCH_L06
    721              {
    722              case _FC_READ_COILS:
    723                  uiLength = ReadCoils(puiRequest, puiResponse, uiLength);
   \                     ??Reply_3:
   \   00000040   ....               RCALL   ?Subroutine27
   \                     ??CrossCallReturnLabel_41:
   \   00000042   ....               RCALL   ??ReadCoils
   \   00000044   C02A               RJMP    ??CrossCallReturnLabel_109
    724                  break;
    725          
    726              case _FC_READ_DISCRETE_INPUTS:
    727                  uiLength = ReadDiscreteInputs(puiRequest, puiResponse, uiLength);
   \                     ??Reply_4:
   \   00000046   ....               RCALL   ?Subroutine27
   \                     ??CrossCallReturnLabel_42:
   \   00000048   ....               RCALL   ??ReadDiscreteInputs
   \   0000004A   C027               RJMP    ??CrossCallReturnLabel_109
    728                  break;
    729          
    730              case _FC_READ_HOLDING_REGISTERS:
    731                  uiLength = ReadHoldingRegisters(puiRequest, puiResponse, uiLength);
   \                     ??Reply_5:
   \   0000004C   ....               RCALL   ?Subroutine27
   \                     ??CrossCallReturnLabel_43:
   \   0000004E   ....               RCALL   ??ReadHoldingRegisters
   \   00000050   C024               RJMP    ??CrossCallReturnLabel_109
    732                  break;
    733          
    734              case _FC_READ_INPUT_REGISTERS:
    735                  uiLength = ReadInputRegisters(puiRequest, puiResponse, uiLength);
   \                     ??Reply_6:
   \   00000052   ....               RCALL   ?Subroutine27
   \                     ??CrossCallReturnLabel_44:
   \   00000054   ....               RCALL   ??ReadInputRegisters
   \   00000056   C021               RJMP    ??CrossCallReturnLabel_109
    736                  break;
    737          
    738              case _FC_WRITE_SINGLE_COIL:
    739                  uiLength = WriteSingleCoil(puiRequest, puiResponse, uiLength);
   \                     ??Reply_7:
   \   00000058   ....               RCALL   ?Subroutine27
   \                     ??CrossCallReturnLabel_45:
   \   0000005A   ....               RCALL   ??WriteSingleCoil
   \   0000005C   C01E               RJMP    ??CrossCallReturnLabel_109
    740                  break;
    741          
    742              case _FC_WRITE_SINGLE_REGISTER:
    743                  uiLength = WriteSingleRegister(puiRequest, puiResponse, uiLength);
   \                     ??Reply_8:
   \   0000005E   ....               RCALL   ?Subroutine27
   \                     ??CrossCallReturnLabel_46:
   \   00000060   ....               RCALL   ??WriteSingleRegister
   \   00000062   C01B               RJMP    ??CrossCallReturnLabel_109
    744                  break;
    745          
    746              case _FC_READ_EXCEPTION_STATUS:
    747                  uiLength = ReadExceptionStatus(puiRequest, puiResponse, uiLength);
   \                     ??Reply_9:
   \   00000064   2444               CLR     R4
   \   00000066   944A               DEC     R4
   \   00000068   2C54               MOV     R5, R4
    748                  break;
   \   0000006A   C018               RJMP    ??Reply_10
    749          
    750              case _FC_WRITE_MULTIPLE_COILS:
    751                  uiLength = WriteMultipleCoils(puiRequest, puiResponse, uiLength);
   \                     ??Reply_11:
   \   0000006C   ....               RCALL   ?Subroutine27
   \                     ??CrossCallReturnLabel_47:
   \   0000006E   ....               RCALL   ??WriteMultipleCoils
   \   00000070   C014               RJMP    ??CrossCallReturnLabel_109
    752                  break;
    753          
    754              case _FC_PROGRAMMING_COMPLETION_REQUEST:
    755                  uiLength = PollProgramming(puiRequest, puiResponse, uiLength);
   \                     ??Reply_12:
   \   00000072   ....               RCALL   ?Subroutine27
   \                     ??CrossCallReturnLabel_48:
   \   00000074   ....               RCALL   ??PollProgramming
   \   00000076   C011               RJMP    ??CrossCallReturnLabel_109
    756                  break;
    757          
    758              case _FC_WRITE_MULTIPLE_REGISTERS:
    759                  uiLength = WriteMultipleRegisters(puiRequest, puiResponse, uiLength);
   \                     ??Reply_13:
   \   00000078   ....               RCALL   ?Subroutine27
   \                     ??CrossCallReturnLabel_49:
   \   0000007A   ....               RCALL   ??WriteMultipleRegisters
   \   0000007C   C00E               RJMP    ??CrossCallReturnLabel_109
    760                  break;
    761          
    762              case _FC_REPORT_SLAVE_ID:
    763                  uiLength = ReportSlaveID(puiRequest, puiResponse, uiLength);
   \                     ??Reply_14:
   \   0000007E   ....               RCALL   ?Subroutine27
   \                     ??CrossCallReturnLabel_50:
   \   00000080   ....               RCALL   ??ReportSlaveID
   \   00000082   C00B               RJMP    ??CrossCallReturnLabel_109
    764                  break;
    765          
    766              case _FC_WRITE_AND_READ_REGISTERS:
    767                  uiLength = WriteAndReadRegisters(puiRequest, puiResponse, uiLength);
   \                     ??Reply_15:
   \   00000084   2444               CLR     R4
   \   00000086   2455               CLR     R5
    768                  break;
   \   00000088   C009               RJMP    ??Reply_10
    769          
    770              case _FC_DATA_EXCHANGE:
    771                  break;
    772          
    773              case _FC_DATA_BASE_READ:
    774                  break;
    775          
    776              case _FC_DATA_BASE_WRITE:
    777                  break;
    778          
    779              case _FC_PROGRAMMING:
    780                  uiLength = Programming(puiRequest, puiResponse, uiLength);
   \                     ??Reply_16:
   \   0000008A   ....               RCALL   ?Subroutine27
   \                     ??CrossCallReturnLabel_51:
   \   0000008C   ....               RCALL   ??Programming
   \   0000008E   C005               RJMP    ??CrossCallReturnLabel_109
    781                  break;
    782          
    783              default:
    784                  uiLength = ResponseException(uiSlave,
    785                                               uiFunctionCode,
    786                                               MODBUS_EXCEPTION_ILLEGAL_FUNCTION,
    787                                               puiResponse);
   \                     ??Reply_17:
   \   00000090   01BC               MOVW    R23:R22, R25:R24
   \   00000092   E041               LDI     R20, 1
   \   00000094   2D38               MOV     R19, R8
   \   00000096   2D2A               MOV     R18, R10
   \   00000098   ....               RCALL   ?Subroutine36
   \                     ??CrossCallReturnLabel_109:
   \   0000009A   0128               MOVW    R5:R4, R17:R16
    788                  break;
    789              }
    790          
    791              m_uiMessageLength = uiLength;
   \                     ??Reply_10:
   \   0000009C   01F3               MOVW    R31:R30, R7:R6
   \   0000009E   8644               STD     Z+12, R4
   \   000000A0   8655               STD     Z+13, R5
    792              return uiLength;
   \   000000A2   0182               MOVW    R17:R16, R5:R4
   \                     ??Reply_2:
   \   000000A4   E0EC               LDI     R30, 12
   \   000000A6   ........           JMP     ?EPILOGUE_B12_L09
    793          //    return SendMessage(puiResponse, uiLength);
    794          }

   \                                 In  segment CODE, align 2, keep-with-next
   \                     ?Subroutine27:
   \   00000000   01B2               MOVW    R23:R22, R5:R4
   \   00000002   01AC               MOVW    R21:R20, R25:R24
   \   00000004   019D               MOVW    R19:R18, R27:R26
   \   00000006   0183               MOVW    R17:R16, R7:R6
   \   00000008   9508               RET
    795          
    796          //-----------------------------------------------------------------------------------------------------

   \                                 In  segment CODE, align 2, keep-with-next
    797          void CModbus::SetByteFromBits(uint8_t *dest, int16_t index, const uint8_t value)
   \                     ??SetByteFromBits:
    798          {
   \   00000000   2E19               MOV     R1, R25
   \   00000002   2F78               MOV     R23, R24
   \   00000004   2E02               MOV     R0, R18
   \   00000006   011A               MOVW    R3:R2, R21:R20
    799              int16_t i;
    800          
    801              for (i=0; i<8; i++)
   \   00000008   E080               LDI     R24, 0
   \   0000000A   E090               LDI     R25, 0
   \   0000000C   E028               LDI     R18, 8
    802              {
    803                  dest[index+i] = (value & (1 << i)) ? 1 : 0;
   \                     ??SetByteFromBits_1:
   \   0000000E   2F48               MOV     R20, R24
   \   00000010   ....               RCALL   ?Subroutine14
    804              }
   \                     ??CrossCallReturnLabel_120:
   \   00000012   2F16               MOV     R17, R22
   \   00000014   2310               AND     R17, R16
   \   00000016   F011               BREQ    ??SetByteFromBits_2
   \   00000018   E001               LDI     R16, 1
   \   0000001A   C001               RJMP    ??SetByteFromBits_3
   \                     ??SetByteFromBits_2:
   \   0000001C   E000               LDI     R16, 0
   \                     ??SetByteFromBits_3:
   \   0000001E   01A1               MOVW    R21:R20, R3:R2
   \   00000020   0F48               ADD     R20, R24
   \   00000022   1F59               ADC     R21, R25
   \   00000024   2DE0               MOV     R30, R0
   \   00000026   2FF3               MOV     R31, R19
   \   00000028   0FE4               ADD     R30, R20
   \   0000002A   1FF5               ADC     R31, R21
   \   0000002C   8300               ST      Z, R16
   \   0000002E   9601               ADIW    R25:R24, 1
   \   00000030   952A               DEC     R18
   \   00000032   F769               BRNE    ??SetByteFromBits_1
    805          }
   \   00000034   2F87               MOV     R24, R23
   \   00000036   2D91               MOV     R25, R1
   \   00000038   9508               RET

   \                                 In  segment CODE, align 2, keep-with-next
   \                     ?Subroutine14:
   \   00000000   E001               LDI     R16, 1
   \   00000002   E010               LDI     R17, 0
   \   00000004   ....               RJMP    ?Subroutine67
    806          
    807          //-----------------------------------------------------------------------------------------------------

   \                                 In  segment CODE, align 2, keep-with-next
    808          void CModbus::SetBytesFromBits(uint8_t *dest, int16_t index, uint16_t nb_bits,
   \                     ??SetBytesFromBits:
    809                                         const uint8_t *tab_byte)
    810          {
   \   00000000   ....               RCALL   ?Subroutine37
   \                     ??CrossCallReturnLabel_68:
   \   00000002                      REQUIRE ?Register_R4_is_cg_reg
   \   00000002                      REQUIRE ?Register_R5_is_cg_reg
   \   00000002   011A               MOVW    R3:R2, R21:R20
    811              int16_t i;
    812              int16_t shift = 0;
   \   00000004   E0A0               LDI     R26, 0
   \   00000006   E0B0               LDI     R27, 0
    813          
    814              for (i = index; i < index + nb_bits; i++)
   \   00000008   01CA               MOVW    R25:R24, R21:R20
   \   0000000A   804E               LDD     R4, Y+6
   \   0000000C   805F               LDD     R5, Y+7
   \   0000000E   C00F               RJMP    ??SetBytesFromBits_1
    815              {
    816                  dest[i] = tab_byte[(i - index) / 8] & (1 << shift) ? 1 : 0;
   \                     ??SetBytesFromBits_2:
   \   00000010   E000               LDI     R16, 0
   \                     ??SetBytesFromBits_3:
   \   00000012   01F9               MOVW    R31:R30, R19:R18
   \   00000014   ....               RCALL   ??Subroutine81_0
   \                     ??CrossCallReturnLabel_146:
   \   00000016   8300               ST      Z, R16
    817                  /* gcc doesn't like: shift = (++shift) % 8; */
    818                  shift++;
    819                  shift %= 8;
   \   00000018   9611               ADIW    R27:R26, 1
   \   0000001A   E048               LDI     R20, 8
   \   0000001C   E050               LDI     R21, 0
   \   0000001E   018D               MOVW    R17:R16, R27:R26
   \   00000020   ........           CALL    ?SS_DIVMOD_L02
   \   00000024   E043               LDI     R20, 3
   \   00000026   ....               RCALL   ?Subroutine67
   \                     ??CrossCallReturnLabel_118:
   \   00000028   1BA0               SUB     R26, R16
   \   0000002A   0BB1               SBC     R27, R17
   \   0000002C   9601               ADIW    R25:R24, 1
   \                     ??SetBytesFromBits_1:
   \   0000002E   0181               MOVW    R17:R16, R3:R2
   \   00000030   0F06               ADD     R16, R22
   \   00000032   1F17               ADC     R17, R23
   \   00000034   1780               CP      R24, R16
   \   00000036   0791               CPC     R25, R17
   \   00000038   F480               BRCC    ??SetBytesFromBits_4
   \   0000003A   010C               MOVW    R1:R0, R25:R24
   \   0000003C   1802               SUB     R0, R2
   \   0000003E   0813               SBC     R1, R3
   \   00000040   E048               LDI     R20, 8
   \   00000042   E050               LDI     R21, 0
   \   00000044   0180               MOVW    R17:R16, R1:R0
   \   00000046   ........           CALL    ?SS_DIVMOD_L02
   \   0000004A   ....               RCALL   ?Subroutine48
    820              }
   \                     ??CrossCallReturnLabel_142:
   \   0000004C   8150               LD      R21, Z
   \   0000004E   2F4A               MOV     R20, R26
   \   00000050   ....               RCALL   ?Subroutine14
   \                     ??CrossCallReturnLabel_121:
   \   00000052   2350               AND     R21, R16
   \   00000054   F2E9               BREQ    ??SetBytesFromBits_2
   \   00000056   E001               LDI     R16, 1
   \   00000058   CFDC               RJMP    ??SetBytesFromBits_3
    821          }
   \                     ??SetBytesFromBits_4:
   \   0000005A   E0E8               LDI     R30, 8
   \   0000005C   ....               RJMP    ??Subroutine79_0
    822          
    823          //-----------------------------------------------------------------------------------------------------

   \                                 In  segment CODE, align 2, keep-with-next
    824          uint8_t CModbus::GetByteFromBits(const uint8_t *src, int16_t index,
   \                     ??GetByteFromBits:
    825                                           uint16_t nb_bits)
    826          {
   \   00000000   011C               MOVW    R3:R2, R25:R24
   \   00000002   010A               MOVW    R1:R0, R21:R20
    827              int16_t i;
    828              uint8_t value = 0;
   \   00000004   E050               LDI     R21, 0
    829          
    830              if (nb_bits > 8)
   \   00000006   3069               CPI     R22, 9
   \   00000008   0775               CPC     R23, R21
   \   0000000A   F010               BRCS    ??GetByteFromBits_1
    831              {
    832                  /* Assert is ignored if NDEBUG is set */
    833          //        assert(nb_bits < 8); //?
    834                  nb_bits = 8;
   \   0000000C   E068               LDI     R22, 8
   \   0000000E   E070               LDI     R23, 0
    835              }
    836          
    837              for (i=0; i < nb_bits; i++)
   \                     ??GetByteFromBits_1:
   \   00000010   E080               LDI     R24, 0
   \   00000012   E090               LDI     R25, 0
   \   00000014   C00B               RJMP    ??GetByteFromBits_2
    838              {
    839                  value |= (src[index+i] << i);
   \                     ??GetByteFromBits_3:
   \   00000016   0180               MOVW    R17:R16, R1:R0
   \   00000018   0F08               ADD     R16, R24
   \   0000001A   1F19               ADC     R17, R25
   \   0000001C   01F9               MOVW    R31:R30, R19:R18
   \   0000001E   ....               RCALL   ??Subroutine74_0
    840              }
   \                     ??CrossCallReturnLabel_141:
   \   00000020   8100               LD      R16, Z
   \   00000022   E010               LDI     R17, 0
   \   00000024   2F48               MOV     R20, R24
   \   00000026   ....               RCALL   ?Subroutine67
   \                     ??CrossCallReturnLabel_119:
   \   00000028   2B50               OR      R21, R16
   \   0000002A   9601               ADIW    R25:R24, 1
   \                     ??GetByteFromBits_2:
   \   0000002C   1786               CP      R24, R22
   \   0000002E   0797               CPC     R25, R23
   \   00000030   F390               BRCS    ??GetByteFromBits_3
    841          
    842              return value;
   \   00000032   2F05               MOV     R16, R21
   \   00000034   01C1               MOVW    R25:R24, R3:R2
   \   00000036   9508               RET
    843          }
    844          
    845          //-----------------------------------------------------------------------------------------------------

   \                                 In  segment CODE, align 2, keep-with-next
    846          float CModbus::GetFloat(const uint16_t *src)
   \                     ??GetFloat:
    847          {
    848              float f = 0.0f;
    849              uint32_t i;
    850          
    851              i = (((uint32_t)src[1]) << 16) + src[0];
   \   00000000   01F9               MOVW    R31:R30, R19:R18
   \   00000002   8122               LDD     R18, Z+2
   \   00000004   8133               LDD     R19, Z+3
   \   00000006   8100               LD      R16, Z
   \   00000008   8111               LDD     R17, Z+1
    852              memcpy(&f, &i, sizeof(float));
    853          
    854              return f;
   \   0000000A   9508               RET
    855          }
    856          
    857          //-----------------------------------------------------------------------------------------------------

   \                                 In  segment CODE, align 2, keep-with-next
    858          void CModbus::SetFloat(float f, uint16_t *dest)
   \                     ??SetFloat:
    859          {
    860              uint32_t i = 0;
    861          
    862              memcpy(&i, &f, sizeof(uint32_t));
    863              dest[0] = (uint16_t)i;
   \   00000000   01F9               MOVW    R31:R30, R19:R18
   \   00000002   8340               ST      Z, R20
   \   00000004   8351               STD     Z+1, R21
    864              dest[1] = (uint16_t)(i >> 16);
   \   00000006   8362               STD     Z+2, R22
   \   00000008   8373               STD     Z+3, R23
    865          }
   \   0000000A   9508               RET
    866          
    867          //-----------------------------------------------------------------------------------------------------
    868          
    869          
    870          
    871          
    872          
    873          
    874          ////-----------------------------------------------------------------------------------------------------
    875          //int8_t CModbus::ReadCoilsRequest(uint16_t uiAddress,
    876          //                                  uint16_t uiBitNumber)
    877          //{
    878          //    if (uiBitNumber > MODBUS_MAX_READ_BITS)
    879          //    {
    880          //        return EMBMDATA;
    881          //    }
    882          //
    883          //    if (MessengerIsReady())
    884          //    {
    885          //        m_uiFunctionCode = _FC_READ_COILS;
    886          //        m_uiMessageLength = RequestBasis(m_uiOwnAddress,
    887          //                                         m_uiFunctionCode,
    888          //                                         uiAddress,
    889          //                                         uiBitNumber,
    890          //                                         m_puiTxBuffer);
    891          //        SetFsmState(FRAME_TRANSMIT_REQUEST);
    892          //        return 1;
    893          //    }
    894          //    else
    895          //    {
    896          //        return 0;
    897          //    }
    898          //}
    899          //
    900          ////-----------------------------------------------------------------------------------------------------
    901          //int16_t CModbus::ReadCoilsReply(uint8_t *puiDestination)
    902          //{
    903          //
    904          //    if (MessengerIsReady())
    905          //    {
    906          //
    907          //        SetFsmState(FRAME_TRANSMIT_REQUEST);
    908          //        return 1;
    909          //    }
    910          //    else
    911          //    {
    912          //        return 0;
    913          //    }
    914          //}
    915          
    916          
    917          //-----------------------------------------------------------------------------------------------------

   \                                 In  segment CODE, align 2, keep-with-next
    918          int8_t CModbus::ReadDiscreteInputsRequest(uint8_t uiSlaveAddress,
   \                     ??ReadDiscreteInputsRequest:
    919                  uint16_t uiAddress,
    920                  uint16_t uiBitNumber)
    921          {
   \   00000000   ........           CALL    ?PROLOGUE7_L09
   \   00000004                      REQUIRE ?Register_R4_is_cg_reg
   \   00000004                      REQUIRE ?Register_R5_is_cg_reg
   \   00000004                      REQUIRE ?Register_R6_is_cg_reg
   \   00000004   01D8               MOVW    R27:R26, R17:R16
   \   00000006   2E62               MOV     R6, R18
   \   00000008   012A               MOVW    R5:R4, R21:R20
   \   0000000A   01CB               MOVW    R25:R24, R23:R22
    922              if (uiBitNumber > MODBUS_MAX_READ_BITS)
   \   0000000C   3D61               CPI     R22, 209
   \   0000000E   4077               SBCI    R23, 7
   \   00000010   F010               BRCS    ??ReadDiscreteInputsRequest_1
    923              {
    924                  return EMBMDATA;
   \   00000012   E100               LDI     R16, 16
   \   00000014   C023               RJMP    ??ReadDiscreteInputsRequest_2
    925              }
    926          
    927              if (MessengerIsReady() == 1)
   \                     ??ReadDiscreteInputsRequest_1:
   \   00000016   ....               RCALL   ?Subroutine54
   \                     ??CrossCallReturnLabel_94:
   \   00000018   9634               ADIW    R31:R30, 4
   \   0000001A   ....               RCALL   ?Subroutine55
   \                     ??CrossCallReturnLabel_96:
   \   0000001C   3001               CPI     R16, 1
   \   0000001E   F011               BREQ    ??ReadDiscreteInputsRequest_3
    928              {
    929                  m_uiFunctionCode = _FC_READ_DISCRETE_INPUTS;
    930                  m_uiQuantity = uiBitNumber;
    931                  m_uiMessageLength = RequestBasis(uiSlaveAddress,
    932                                                   m_uiFunctionCode,
    933                                                   uiAddress,
    934                                                   uiBitNumber,
    935                                                   m_puiTxBuffer);
    936                  SetFsmState(FRAME_TRANSMIT_REQUEST);
    937                  return 1;
    938              }
    939              else
    940              {
    941                  return 0;
   \   00000020   E000               LDI     R16, 0
   \   00000022   C01C               RJMP    ??ReadDiscreteInputsRequest_2
    942              }
   \                     ??ReadDiscreteInputsRequest_3:
   \   00000024   01FD               MOVW    R31:R30, R27:R26
   \   00000026   E002               LDI     R16, 2
   \   00000028   8307               STD     Z+7, R16
   \   0000002A   8780               STD     Z+8, R24
   \   0000002C   8791               STD     Z+9, R25
   \   0000002E   8900               LDD     R16, Z+16
   \   00000030   8911               LDD     R17, Z+17
   \   00000032   931A               ST      -Y, R17
   \   00000034   930A               ST      -Y, R16
   \   00000036   01BC               MOVW    R23:R22, R25:R24
   \   00000038   01A2               MOVW    R21:R20, R5:R4
   \   0000003A   8137               LDD     R19, Z+7
   \   0000003C   2D26               MOV     R18, R6
   \   0000003E   018D               MOVW    R17:R16, R27:R26
   \   00000040   8001               LDD     R0, Z+1
   \   00000042   81F2               LDD     R31, Z+2
   \   00000044   2DE0               MOV     R30, R0
   \   00000046   9638               ADIW    R31:R30, 8
   \   00000048   9005               LPM     R0, Z+
   \   0000004A   91F4               LPM     R31, Z
   \   0000004C   2DE0               MOV     R30, R0
   \   0000004E   9509               ICALL
   \   00000050   01FD               MOVW    R31:R30, R27:R26
   \   00000052   8704               STD     Z+12, R16
   \   00000054   8715               STD     Z+13, R17
   \   00000056   E00E               LDI     R16, 14
   \   00000058   930C               ST      X, R16
   \   0000005A   E001               LDI     R16, 1
   \                     ??ReadDiscreteInputsRequest_2:
   \   0000005C   E0E7               LDI     R30, 7
   \   0000005E   ........           JMP     ?EPILOGUE_B7_L09
    943          }
    944          
    945          //-----------------------------------------------------------------------------------------------------

   \                                 In  segment CODE, align 2, keep-with-next
    946          int16_t CModbus::ReadDiscreteInputsReceive(uint8_t *puiMessage, uint16_t uiLength)
   \                     ??ReadDiscreteInputsReceive:
    947          {
    948          //    uint8_t uiByteCounter = 0;
    949          //    for (int8_t i = 0; i < (m_uiQuantity / 2); )
    950          //    {
    951          //        uint8_t uiData = puiMessage[uiByteCounter];
    952          //        for (uint8_t j = 0; j < CHANNELS_IN_BYTE; j++)
    953          //        {
    954          //            uint8_t uiState = 0;
    955          //            for (uint8_t k = 0; k < MEASURE_CHANNEL_STATE_BIT_NUMBER; k++)
    956          //            {
    957          //                if (uiData & 0x01)
    958          //                {
    959          //                    uiState |= (0x01 << k);
    960          //                }
    961          //                uiData >>= 1;
    962          //            }
    963          //
    964          //            CMvsn21::axChipsChannelsData[m_uiSlaveAddress - 1].axMeasurementChannels[i].uiState = uiState;
    965          //            // ╤ыхфґ■їшщ фшёъЁхҐэ√щ тєюф.
    966          //            i++;
    967          //            // ╨рёяръютрыш тёх фрээ√х ёюёҐю эш  фшёъЁхҐэ√є тєюфют?
    968          //            if (i >= m_uiQuantity)
    969          //            {
    970          //                // ╨рёяръютрыш тёх фрээ√х ёюёҐю эш  фшёъЁхҐэ√є тєюфют.
    971          //                return 1;
    972          //            }
    973          //        }
    974          //        uiByteCounter += 1;
    975          //    }
    976              return 1;
   \   00000000   E001               LDI     R16, 1
   \   00000002   ....               RJMP    ??Subroutine70_0
    977          }
    978          
    979          //-----------------------------------------------------------------------------------------------------

   \                                 In  segment CODE, align 2, keep-with-next
    980          int16_t CModbus::ReceiveMessage(uint8_t *puiResponse, uint16_t uiFrameLength)
   \                     ??ReceiveMessage:
    981          {
   \   00000000   ....               RCALL   ?Subroutine23
   \                     ??CrossCallReturnLabel_30:
   \   00000002                      REQUIRE ?Register_R4_is_cg_reg
   \   00000002                      REQUIRE ?Register_R5_is_cg_reg
   \   00000002                      REQUIRE ?Register_R6_is_cg_reg
   \   00000002                      REQUIRE ?Register_R8_is_cg_reg
   \   00000002                      REQUIRE ?Register_R9_is_cg_reg
   \   00000002   ....               RCALL   ?Subroutine6
    982              uint16_t uiOffset = HEADER_LENGTH();
    983              uint8_t uiSlave = puiResponse[uiOffset - 1];
    984              uint8_t uiFunctionCode = puiResponse[uiOffset];
   \                     ??CrossCallReturnLabel_13:
   \   00000004   ....               RCALL   ?Subroutine38
   \                     ??CrossCallReturnLabel_72:
   \   00000006   01F2               MOVW    R31:R30, R5:R4
   \   00000008   8060               LD      R6, Z
    985              uint16_t uiLength = uiFrameLength;
    986          
    987              if ((m_uiSlaveAddress == uiSlave) &&
    988                      (m_uiFunctionCode == uiFunctionCode))
   \   0000000A   01FD               MOVW    R31:R30, R27:R26
   \   0000000C   8126               LDD     R18, Z+6
   \   0000000E   01F2               MOVW    R31:R30, R5:R4
   \   00000010   9132               LD      R19, -Z
   \   00000012   1723               CP      R18, R19
   \   00000014   F421               BRNE    ??ReceiveMessage_1
   \   00000016   01FD               MOVW    R31:R30, R27:R26
   \   00000018   8127               LDD     R18, Z+7
   \   0000001A   1526               CP      R18, R6
   \   0000001C   F0E9               BREQ    ??ReceiveMessage_2
    989              {
    990                  switch (uiFunctionCode)
    991                  {
    992          //    case _FC_READ_COILS:
    993          //        break;
    994          //
    995                  case _FC_READ_DISCRETE_INPUTS:
    996                      ReadDiscreteInputsReceive(&puiResponse[uiOffset + 2], uiLength);
    997                      break;
    998          
    999          //    case _FC_READ_HOLDING_REGISTERS:
   1000          //        break;
   1001          //
   1002          //    case _FC_READ_INPUT_REGISTERS:
   1003          //        break;
   1004          //
   1005          //    case _FC_WRITE_SINGLE_COIL:
   1006          //        break;
   1007          //
   1008          //    case _FC_WRITE_SINGLE_REGISTER:
   1009          //        break;
   1010          //
   1011          //    case _FC_READ_EXCEPTION_STATUS:
   1012          //        break;
   1013          //
   1014          //    case _FC_WRITE_MULTIPLE_COILS:
   1015          //        break;
   1016          //
   1017          //    case _FC_PROGRAMMING_COMPLETION_REQUEST:
   1018          //        break;
   1019          //
   1020          //    case _FC_WRITE_MULTIPLE_REGISTERS:
   1021          //        break;
   1022          //
   1023          //    case _FC_REPORT_SLAVE_ID:
   1024          //        break;
   1025          //
   1026          //    case _FC_WRITE_AND_READ_REGISTERS:
   1027          //        break;
   1028          //
   1029          //    case _FC_DATA_EXCHANGE:
   1030          //        break;
   1031          //
   1032          //    case _FC_DATA_BASE_READ:
   1033          //        break;
   1034          //
   1035          //    case _FC_DATA_BASE_WRITE:
   1036          //        break;
   1037          //
   1038          //    case _FC_PROGRAMMING:
   1039          //        break;
   1040          
   1041                  default:
   1042                      break;
   1043                  }
   1044                  return 1;
   1045              }
   1046              else if (uiLength == (uiOffset + 2 + CRC_LENGTH()) &&
   1047                       (uiFunctionCode & 0x80))
   \                     ??ReceiveMessage_1:
   \   0000001E   0148               MOVW    R9:R8, R17:R16
   \   00000020   018D               MOVW    R17:R16, R27:R26
   \   00000022   01FD               MOVW    R31:R30, R27:R26
   \   00000024   8121               LDD     R18, Z+1
   \   00000026   81F2               LDD     R31, Z+2
   \   00000028   2FE2               MOV     R30, R18
   \   0000002A   9670               ADIW    R31:R30, 16
   \   0000002C   ....               RCALL   ?Subroutine55
   \                     ??CrossCallReturnLabel_97:
   \   0000002E   0E80               ADD     R8, R16
   \   00000030   1E91               ADC     R9, R17
   \   00000032   E002               LDI     R16, 2
   \   00000034   0E80               ADD     R8, R16
   \   00000036   E000               LDI     R16, 0
   \   00000038   1E90               ADC     R9, R16
   \   0000003A   1588               CP      R24, R8
   \   0000003C   0599               CPC     R25, R9
   \   0000003E   F461               BRNE    ??ReceiveMessage_2
   \   00000040   FA67               BST     R6, 7
   \   00000042   F456               BRTC    ??ReceiveMessage_2
   1048              {
   1049                  /* EXCEPTION CODE RECEIVED */
   1050                  int8_t uiExceptionCode =
   1051                      puiResponse[uiOffset + MODBUS_EXCEPTION_CODE_OFFSET];
   \   00000044   01F2               MOVW    R31:R30, R5:R4
   \   00000046   8101               LDD     R16, Z+1
   1052                  if (uiExceptionCode < MODBUS_EXCEPTION_MAX)
   \   00000048   300C               CPI     R16, 12
   \   0000004A   F424               BRGE    ??ReceiveMessage_3
   1053                  {
   1054                      return MODBUS_ENOBASE + uiExceptionCode;
   \   0000004C   2F10               MOV     R17, R16
   \   0000004E   0F11               LSL     R17
   \   00000050   0B11               SBC     R17, R17
   \   00000052   C004               RJMP    ??ReceiveMessage_4
   1055                  }
   1056                  else
   1057                  {
   1058                      return EMBBADEXC;
   \                     ??ReceiveMessage_3:
   \   00000054   E00E               LDI     R16, 14
   \   00000056   C001               RJMP    ??ReceiveMessage_5
   1059                  }
   1060              }
   1061          
   1062              return 1;
   \                     ??ReceiveMessage_2:
   \   00000058   E001               LDI     R16, 1
   \                     ??ReceiveMessage_5:
   \   0000005A   E010               LDI     R17, 0
   \                     ??ReceiveMessage_4:
   \   0000005C   ....               RJMP    ?Subroutine63
   1063          }

   \                                 In  segment SWITCH, align 2, keep-with-next
   \                     `?<Jumptable for Reply>_0`:
   \   00000000   01                 DB      1
   \   00000001   01                 DB      1
   \   00000002   ....               DW      (??Reply_17) /2
   \   00000004   ....               DW      (??Reply_3) /2
   \   00000006   01                 DB      0x1
   \   00000007   ....               DW      (??Reply_4) /2
   \   00000009   01                 DB      0x1
   \   0000000A   ....               DW      (??Reply_5) /2
   \   0000000C   01                 DB      0x1
   \   0000000D   ....               DW      (??Reply_6) /2
   \   0000000F   01                 DB      0x1
   \   00000010   ....               DW      (??Reply_7) /2
   \   00000012   01                 DB      0x1
   \   00000013   ....               DW      (??Reply_8) /2
   \   00000015   01                 DB      0x1
   \   00000016   ....               DW      (??Reply_9) /2
   \   00000018   07                 DB      0x7
   \   00000019   ....               DW      (??Reply_12) /2
   \   0000001B   01                 DB      0x1
   \   0000001C   ....               DW      (??Reply_11) /2
   \   0000001E   01                 DB      0x1
   \   0000001F   ....               DW      (??Reply_13) /2
   \   00000021   01                 DB      0x1
   \   00000022   ....               DW      (??Reply_14) /2
   \   00000024   06                 DB      0x6
   \   00000025   ....               DW      (??Reply_15) /2
   \   00000027   2A                 DB      0x2a
   \   00000028   ....               DW      (??Reply_10) /2
   \   0000002A   03                 DB      0x3
   \   0000002B   ....               DW      (??Reply_10) /2
   \   0000002D   01                 DB      0x1
   \   0000002E   ....               DW      (??Reply_10) /2
   \   00000030   01                 DB      0x1
   \   00000031   ....               DW      (??Reply_16) /2
   \   00000033   FB                 DB      251

   \                                 In  segment CODE, align 2, keep-with-next
   \   __version_3 CModbus &CModbus::new CModbus()
   \                     `??new CModbus`:
   \   00000000   E202               LDI     R16, 34
   \   00000002   E010               LDI     R17, 0
   \   00000004   ........           CALL    `??operator new`
   \   00000008   2F20               MOV     R18, R16
   \   0000000A   2B21               OR      R18, R17
   \   0000000C   F009               BREQ    `??new CModbus_1`
   \   0000000E   ....               RJMP    ??CModbus
   \                     `??new CModbus_1`:
   \   00000010                      REQUIRE ?Subroutine57
   \   00000010                      ;               // Fall through to label ?Subroutine57

   Maximum stack usage in bytes:

   CSTACK RSTACK Function
   ------ ------ --------
     14      2   CModbus::ByteToBitPack(uint16_t, uint16_t, uint8_t *, uint8_t *, uint16_t)
       14      2 ?S_SHL_L02
      2      2   CModbus::CModbus()
        2      2   -> CDfa::CDfa()
      0      2   CModbus::CRC_LENGTH()
      0      2   CModbus::GetByteFromBits(uint8_t const *, int16_t, uint16_t)
        0      2 ?S_SHL_L02
      0      2   CModbus::GetFloat(uint16_t const *)
      0      2   CModbus::HEADER_LENGTH()
      0      2   CModbus::MessengerIsReady()
      6      2   CModbus::PollProgramming(uint8_t *, uint8_t *, uint16_t)
        6      2   -- Indirect call
        6      2   -> CModbus::ResponseException(uint8_t, uint8_t, uint8_t, uint8_t *)
     15      2   CModbus::Programming(uint8_t *, uint8_t *, uint16_t)
       15      2   -- Indirect call
       15      2   -> CDataBase::GetBlockLength(uint8_t)
       15      2   -> CDataBase::Read(uint8_t *, uint8_t)
       15      2   -> CDataBase::Write(uint8_t *, uint16_t, uint8_t)
       15      2   -> CDataStore::CrcOfBlocksCrcCreate()
       15      2   -> CModbus::ResponseException(uint8_t, uint8_t, uint8_t, uint8_t *)
     12      2   CModbus::ReadCoils(uint8_t *, uint8_t *, uint16_t)
        8      6   -- Indirect call
        8      2   -> CModbus::ByteToBitPack(uint16_t, uint16_t, uint8_t *, uint8_t *, uint16_t)
        8      2   -> CModbus::ResponseException(uint8_t, uint8_t, uint8_t, uint8_t *)
        8      4 ?US_SHR_L02
     12      2   CModbus::ReadDiscreteInputs(uint8_t *, uint8_t *, uint16_t)
        8      6   -- Indirect call
        8      2   -> CModbus::ByteToBitPack(uint16_t, uint16_t, uint8_t *, uint8_t *, uint16_t)
        8      2   -> CModbus::ResponseException(uint8_t, uint8_t, uint8_t, uint8_t *)
        8      4 ?US_SHR_L02
      0      2   CModbus::ReadDiscreteInputsReceive(uint8_t *, uint16_t)
      9      2   CModbus::ReadDiscreteInputsRequest(uint8_t, uint16_t, uint16_t)
        7      2   -- Indirect call
      0      2   CModbus::ReadExceptionStatus(uint8_t *, uint8_t *, uint16_t)
      8      2   CModbus::ReadHoldingRegisters(uint8_t *, uint8_t *, uint16_t)
        8      6   -- Indirect call
        8      4   -> CModbus::ResponseException(uint8_t, uint8_t, uint8_t, uint8_t *)
      8      2   CModbus::ReadInputRegisters(uint8_t *, uint8_t *, uint16_t)
        8      6   -- Indirect call
        8      4   -> CModbus::ResponseException(uint8_t, uint8_t, uint8_t, uint8_t *)
     10      2   CModbus::ReceiveMessage(uint8_t *, uint16_t)
       10      2   -- Indirect call
     12      2   CModbus::Reply(uint8_t *, uint8_t *, uint16_t)
       12      4   -- Indirect call
       12      2   -> CModbus::PollProgramming(uint8_t *, uint8_t *, uint16_t)
       12      2   -> CModbus::Programming(uint8_t *, uint8_t *, uint16_t)
       12      2   -> CModbus::ReadCoils(uint8_t *, uint8_t *, uint16_t)
       12      2   -> CModbus::ReadDiscreteInputs(uint8_t *, uint8_t *, uint16_t)
       12      2   -> CModbus::ReadHoldingRegisters(uint8_t *, uint8_t *, uint16_t)
       12      2   -> CModbus::ReadInputRegisters(uint8_t *, uint8_t *, uint16_t)
       12      2   -> CModbus::ReportSlaveID(uint8_t *, uint8_t *, uint16_t)
       12      2   -> CModbus::ResponseException(uint8_t, uint8_t, uint8_t, uint8_t *)
       12      2   -> CModbus::WriteMultipleCoils(uint8_t *, uint8_t *, uint16_t)
       12      2   -> CModbus::WriteMultipleRegisters(uint8_t *, uint8_t *, uint16_t)
       12      2   -> CModbus::WriteSingleCoil(uint8_t *, uint8_t *, uint16_t)
       12      2   -> CModbus::WriteSingleRegister(uint8_t *, uint8_t *, uint16_t)
       12      2 ?CV_SWITCH_L06
      6      2   CModbus::ReportSlaveID(uint8_t *, uint8_t *, uint16_t)
        6      2   -- Indirect call
      4      2   CModbus::ResponseException(uint8_t, uint8_t, uint8_t, uint8_t *)
        4      2   -- Indirect call
      0      2   CModbus::ResponseIsReceived()
      4      2   CModbus::SendMessage(uint8_t *, uint16_t)
        4      2   -- Indirect call
      0      2   CModbus::SetByteFromBits(uint8_t *, int16_t, uint8_t)
        0      2 ?S_SHL_L02
      8      2   CModbus::SetBytesFromBits(uint8_t *, int16_t, uint16_t, uint8_t const *)
        8      2 ?SS_DIVMOD_L02
        8      2 ?S_SHL_L02
      0      2   CModbus::SetFloat(float, uint16_t *)
      0      2   CModbus::SlaveSet(uint8_t)
      0      2   CModbus::WriteAndReadRegisters(uint8_t *, uint8_t *, uint16_t)
      8      2   CModbus::WriteMultipleCoils(uint8_t *, uint8_t *, uint16_t)
        8      2   -- Indirect call
        8      4   -- Indirect call
        8      4   -> CModbus::ResponseException(uint8_t, uint8_t, uint8_t, uint8_t *)
        8      2   -> CPss21::ModbusDeviceControl(uint8_t *, uint16_t, uint16_t)
        8      4   -> memcpy
     10      2   CModbus::WriteMultipleRegisters(uint8_t *, uint8_t *, uint16_t)
       10      2   -- Indirect call
       10      4   -- Indirect call
       10      4   -> CModbus::ResponseException(uint8_t, uint8_t, uint8_t, uint8_t *)
       10      4   -> memcpy
      8      2   CModbus::WriteSingleCoil(uint8_t *, uint8_t *, uint16_t)
        8      4   -- Indirect call
        8      4   -> CModbus::ResponseException(uint8_t, uint8_t, uint8_t, uint8_t *)
        8      2   -> CPss21::ModbusDeviceControl(uint8_t, uint16_t)
        8      2   -> memcpy
      8      2   CModbus::WriteSingleRegister(uint8_t *, uint8_t *, uint16_t)
        8      4   -- Indirect call
        8      2   -> CModbus::ResponseException(uint8_t, uint8_t, uint8_t, uint8_t *)
        8      2   -> memcpy
      0      2   CModbus::new CModbus()
        0      2   -> CModbus::CModbus()
        0      2   -> operator new(unsigned int)
      3      2   CModbus::~CModbus()
        3      2   -> CDfa::~CDfa()
        3      2   -> operator delete(void *)


   Segment part sizes:

   Bytes  Function/Label
   -----  --------------
      52  ?<Jumptable for Reply>_0
       4  ??Subroutine70_0
       2  ??Subroutine71_0
       4  ??Subroutine72_0
       6  ??Subroutine73_0
       6  ??Subroutine74_0
       4  ??Subroutine75_0
       6  ??Subroutine76_0
       6  ??Subroutine77_0
       4  ??Subroutine78_0
       4  ??Subroutine79_0
       4  ??Subroutine80_0
       6  ??Subroutine81_0
      40  ?Subroutine0
      24  ?Subroutine1
       6  ?Subroutine10
       2  ?Subroutine11
       8  ?Subroutine13
       6  ?Subroutine14
       4  ?Subroutine15
      18  ?Subroutine16
      20  ?Subroutine17
      24  ?Subroutine2
       6  ?Subroutine21
       4  ?Subroutine23
       2  ?Subroutine24
       4  ?Subroutine26
      10  ?Subroutine27
       6  ?Subroutine28
       6  ?Subroutine29
      28  ?Subroutine3
       6  ?Subroutine30
       2  ?Subroutine31
       8  ?Subroutine32
      12  ?Subroutine33
      10  ?Subroutine34
       2  ?Subroutine35
       4  ?Subroutine36
       4  ?Subroutine37
       6  ?Subroutine38
       6  ?Subroutine39
      22  ?Subroutine4
       6  ?Subroutine40
       2  ?Subroutine41
       6  ?Subroutine42
       4  ?Subroutine45
       2  ?Subroutine46
      10  ?Subroutine47
       2  ?Subroutine48
       4  ?Subroutine49
       8  ?Subroutine5
       6  ?Subroutine50
       8  ?Subroutine51
      10  ?Subroutine52
       8  ?Subroutine53
      10  ?Subroutine54
       8  ?Subroutine55
       4  ?Subroutine56
       2  ?Subroutine57
       6  ?Subroutine58
       4  ?Subroutine59
       8  ?Subroutine6
       4  ?Subroutine60
       4  ?Subroutine61
       6  ?Subroutine62
       2  ?Subroutine63
       2  ?Subroutine64
       2  ?Subroutine65
       2  ?Subroutine66
       4  ?Subroutine67
       4  ?Subroutine68
       4  ?Subroutine69
       6  ?Subroutine7
       6  ?Subroutine8
       8  ?Subroutine9
     100  CModbus::ByteToBitPack(uint16_t, uint16_t, uint8_t *, uint8_t *, uint16_t)
      28  CModbus::CModbus()
       6  CModbus::CRC_LENGTH()
      56  CModbus::GetByteFromBits(uint8_t const *, int16_t, uint16_t)
      12  CModbus::GetFloat(uint16_t const *)
       6  CModbus::HEADER_LENGTH()
      12  CModbus::MessengerIsReady()
      44  CModbus::PollProgramming(uint8_t *, uint8_t *, uint16_t)
     318  CModbus::Programming(uint8_t *, uint8_t *, uint16_t)
      42  CModbus::ReadCoils(uint8_t *, uint8_t *, uint16_t)
      44  CModbus::ReadDiscreteInputs(uint8_t *, uint8_t *, uint16_t)
       4  CModbus::ReadDiscreteInputsReceive(uint8_t *, uint16_t)
      98  CModbus::ReadDiscreteInputsRequest(uint8_t, uint16_t, uint16_t)
       6  CModbus::ReadExceptionStatus(uint8_t *, uint8_t *, uint16_t)
      58  CModbus::ReadHoldingRegisters(uint8_t *, uint8_t *, uint16_t)
      60  CModbus::ReadInputRegisters(uint8_t *, uint8_t *, uint16_t)
      94  CModbus::ReceiveMessage(uint8_t *, uint16_t)
     170  CModbus::Reply(uint8_t *, uint8_t *, uint16_t)
      60  CModbus::ReportSlaveID(uint8_t *, uint8_t *, uint16_t)
      26  CModbus::ResponseException(uint8_t, uint8_t, uint8_t, uint8_t *)
      12  CModbus::ResponseIsReceived()
      36  CModbus::SendMessage(uint8_t *, uint16_t)
      58  CModbus::SetByteFromBits(uint8_t *, int16_t, uint8_t)
      94  CModbus::SetBytesFromBits(uint8_t *, int16_t, uint16_t, uint8_t const *)
      12  CModbus::SetFloat(float, uint16_t *)
       6  CModbus::SlaveSet(uint8_t)
       2  CModbus::WriteAndReadRegisters(uint8_t *, uint8_t *, uint16_t)
      88  CModbus::WriteMultipleCoils(uint8_t *, uint8_t *, uint16_t)
     128  CModbus::WriteMultipleRegisters(uint8_t *, uint8_t *, uint16_t)
      88  CModbus::WriteSingleCoil(uint8_t *, uint8_t *, uint16_t)
      88  CModbus::WriteSingleRegister(uint8_t *, uint8_t *, uint16_t)
      16  CModbus::new CModbus()
      38  CModbus::~CModbus()
       1  _A_ACSR
       2  _A_ADC
       1  _A_ADCSRA
       1  _A_ADMUX
       1  _A_ASSR
       1  _A_DDRA
       1  _A_DDRB
       1  _A_DDRC
       1  _A_DDRD
       1  _A_DDRE
       1  _A_DDRF
       1  _A_DDRG
       2  _A_EEAR
       1  _A_EECR
       1  _A_EEDR
       1  _A_EICRA
       1  _A_EICRB
       1  _A_EIFR
       1  _A_EIMSK
       1  _A_ETIFR
       1  _A_ETIMSK
       2  _A_ICR1
       2  _A_ICR3
       1  _A_MCUCR
       1  _A_MCUCSR
       1  _A_OCDR
       1  _A_OCR0
       2  _A_OCR1A
       2  _A_OCR1B
       2  _A_OCR1C
       1  _A_OCR2
       2  _A_OCR3A
       2  _A_OCR3B
       2  _A_OCR3C
       1  _A_OSCCAL
       1  _A_PINA
       1  _A_PINB
       1  _A_PINC
       1  _A_PIND
       1  _A_PINE
       1  _A_PINF
       1  _A_PING
       1  _A_PORTA
       1  _A_PORTB
       1  _A_PORTC
       1  _A_PORTD
       1  _A_PORTE
       1  _A_PORTF
       1  _A_PORTG
       1  _A_RAMPZ
       1  _A_SFIOR
       2  _A_SP
       1  _A_SPCR
       1  _A_SPDR
       1  _A_SPMCSR
       1  _A_SPSR
       1  _A_SREG
       1  _A_TCCR0
       1  _A_TCCR1A
       1  _A_TCCR1B
       1  _A_TCCR1C
       1  _A_TCCR2
       1  _A_TCCR3A
       1  _A_TCCR3B
       1  _A_TCCR3C
       1  _A_TCNT0
       2  _A_TCNT1
       1  _A_TCNT2
       2  _A_TCNT3
       1  _A_TIFR
       1  _A_TIMSK
       1  _A_TWAR
       1  _A_TWBR
       1  _A_TWCR
       1  _A_TWDR
       1  _A_TWSR
       1  _A_UBRR0H
       1  _A_UBRR0L
       1  _A_UBRR1H
       1  _A_UBRR1L
       1  _A_UCSR0A
       1  _A_UCSR0B
       1  _A_UCSR0C
       1  _A_UCSR1A
       1  _A_UCSR1B
       1  _A_UCSR1C
       1  _A_UDR0
       1  _A_UDR1
       1  _A_WDTCR
       1  _A_XDIV
       1  _A_XMCRA
       1  _A_XMCRB
      54  -- Other

 
   105 bytes in segment ABSOLUTE
 2 438 bytes in segment CODE
    54 bytes in segment NEAR_F
    52 bytes in segment SWITCH
 
 2 514 bytes of CODE memory (+  30 bytes shared)
     0 bytes of DATA memory (+ 105 bytes shared)

Errors: none
Warnings: none
