###############################################################################
#
# IAR C/C++ Compiler V7.10.6.1378 for Atmel AVR           09/Aug/2022  02:57:07
# Copyright 1996-2018 IAR Systems AB.
#
#    Source file  =  D:\Projects\CautoProjects\PSS48\PSS48\src\Mvsn21.cpp
#    Command line =  
#        -f C:\Users\ghost\AppData\Local\Temp\EWDFE7.tmp
#        (--string_literals_in_flash
#        D:\Projects\CautoProjects\PSS48\PSS48\src\Mvsn21.cpp --cpu=m128a -ms
#        -o D:\Projects\CautoProjects\PSS48\PSS48\Debug\Obj -lC
#        D:\Projects\CautoProjects\PSS48\PSS48\Debug\List -lB
#        D:\Projects\CautoProjects\PSS48\PSS48\Debug\List -y
#        --initializers_in_flash --root_variables --no_cse --no_inline
#        --no_code_motion --no_cross_call --no_clustering --no_tbaa --debug
#        -DENABLE_BIT_DEFINITIONS -e -I
#        D:\Projects\CautoProjects\PSS48\PSS48\include\ -I
#        D:\Projects\CautoProjects\PSS48\PSS48\Modbus\ --eeprom_size 4096
#        --dlib --dlib_config "C:\Program Files (x86)\IAR Systems\Embedded
#        Workbench 8.0\avr\LIB\DLIB\dlAVR-3s-ec_mul-n.h" -On --eec++)
#    Locale       =  Russian_RUS.1251
#    List file    =  
#        D:\Projects\CautoProjects\PSS48\PSS48\Debug\List\Mvsn21.lst
#    Object file  =  D:\Projects\CautoProjects\PSS48\PSS48\Debug\Obj\Mvsn21.r90
#
###############################################################################

D:\Projects\CautoProjects\PSS48\PSS48\src\Mvsn21.cpp
      1          //-----------------------------------------------------------------------------------------------------
      2          //  Sourse      : FileName.cpp
      3          //  Created     : 01.06.2022
      4          //  Author      : Alexandr Volvenkin
      5          //  email       : aav-36@mail.ru
      6          //  GitHub      : https://github.com/AlexandrVolvenkin
      7          //-----------------------------------------------------------------------------------------------------
      8          #include "Mvsn21.h"
      9          #include "Platform.h"

   \                                 In  segment ABSOLUTE, at 0x9d, root
   \   union <unnamed> volatile __io _A_UCSR1C
   \                     _A_UCSR1C:
   \   00000000                      DS8 1

   \                                 In  segment ABSOLUTE, at 0x9c, root
   \   union <unnamed> volatile __io _A_UDR1
   \                     _A_UDR1:
   \   00000000                      DS8 1

   \                                 In  segment ABSOLUTE, at 0x9b, root
   \   union <unnamed> volatile __io _A_UCSR1A
   \                     _A_UCSR1A:
   \   00000000                      DS8 1

   \                                 In  segment ABSOLUTE, at 0x9a, root
   \   union <unnamed> volatile __io _A_UCSR1B
   \                     _A_UCSR1B:
   \   00000000                      DS8 1

   \                                 In  segment ABSOLUTE, at 0x99, root
   \   union <unnamed> volatile __io _A_UBRR1L
   \                     _A_UBRR1L:
   \   00000000                      DS8 1

   \                                 In  segment ABSOLUTE, at 0x98, root
   \   union <unnamed> volatile __io _A_UBRR1H
   \                     _A_UBRR1H:
   \   00000000                      DS8 1

   \                                 In  segment ABSOLUTE, at 0x95, root
   \   union <unnamed> volatile __io _A_UCSR0C
   \                     _A_UCSR0C:
   \   00000000                      DS8 1

   \                                 In  segment ABSOLUTE, at 0x90, root
   \   union <unnamed> volatile __io _A_UBRR0H
   \                     _A_UBRR0H:
   \   00000000                      DS8 1

   \                                 In  segment ABSOLUTE, at 0x8c, root
   \   union <unnamed> volatile __io _A_TCCR3C
   \                     _A_TCCR3C:
   \   00000000                      DS8 1

   \                                 In  segment ABSOLUTE, at 0x8b, root
   \   union <unnamed> volatile __io _A_TCCR3A
   \                     _A_TCCR3A:
   \   00000000                      DS8 1

   \                                 In  segment ABSOLUTE, at 0x8a, root
   \   union <unnamed> volatile __io _A_TCCR3B
   \                     _A_TCCR3B:
   \   00000000                      DS8 1

   \                                 In  segment ABSOLUTE, at 0x88, root
   \   union <unnamed> volatile __io _A_TCNT3
   \                     _A_TCNT3:
   \   00000000                      DS8 2

   \                                 In  segment ABSOLUTE, at 0x86, root
   \   union <unnamed> volatile __io _A_OCR3A
   \                     _A_OCR3A:
   \   00000000                      DS8 2

   \                                 In  segment ABSOLUTE, at 0x84, root
   \   union <unnamed> volatile __io _A_OCR3B
   \                     _A_OCR3B:
   \   00000000                      DS8 2

   \                                 In  segment ABSOLUTE, at 0x82, root
   \   union <unnamed> volatile __io _A_OCR3C
   \                     _A_OCR3C:
   \   00000000                      DS8 2

   \                                 In  segment ABSOLUTE, at 0x80, root
   \   union <unnamed> volatile __io _A_ICR3
   \                     _A_ICR3:
   \   00000000                      DS8 2

   \                                 In  segment ABSOLUTE, at 0x7d, root
   \   union <unnamed> volatile __io _A_ETIMSK
   \                     _A_ETIMSK:
   \   00000000                      DS8 1

   \                                 In  segment ABSOLUTE, at 0x7c, root
   \   union <unnamed> volatile __io _A_ETIFR
   \                     _A_ETIFR:
   \   00000000                      DS8 1

   \                                 In  segment ABSOLUTE, at 0x7a, root
   \   union <unnamed> volatile __io _A_TCCR1C
   \                     _A_TCCR1C:
   \   00000000                      DS8 1

   \                                 In  segment ABSOLUTE, at 0x78, root
   \   union <unnamed> volatile __io _A_OCR1C
   \                     _A_OCR1C:
   \   00000000                      DS8 2

   \                                 In  segment ABSOLUTE, at 0x74, root
   \   union <unnamed> volatile __io _A_TWCR
   \                     _A_TWCR:
   \   00000000                      DS8 1

   \                                 In  segment ABSOLUTE, at 0x73, root
   \   union <unnamed> volatile __io _A_TWDR
   \                     _A_TWDR:
   \   00000000                      DS8 1

   \                                 In  segment ABSOLUTE, at 0x72, root
   \   union <unnamed> volatile __io _A_TWAR
   \                     _A_TWAR:
   \   00000000                      DS8 1

   \                                 In  segment ABSOLUTE, at 0x71, root
   \   union <unnamed> volatile __io _A_TWSR
   \                     _A_TWSR:
   \   00000000                      DS8 1

   \                                 In  segment ABSOLUTE, at 0x70, root
   \   union <unnamed> volatile __io _A_TWBR
   \                     _A_TWBR:
   \   00000000                      DS8 1

   \                                 In  segment ABSOLUTE, at 0x6f, root
   \   union <unnamed> volatile __io _A_OSCCAL
   \                     _A_OSCCAL:
   \   00000000                      DS8 1

   \                                 In  segment ABSOLUTE, at 0x6d, root
   \   union <unnamed> volatile __io _A_XMCRA
   \                     _A_XMCRA:
   \   00000000                      DS8 1

   \                                 In  segment ABSOLUTE, at 0x6c, root
   \   union <unnamed> volatile __io _A_XMCRB
   \                     _A_XMCRB:
   \   00000000                      DS8 1

   \                                 In  segment ABSOLUTE, at 0x6a, root
   \   union <unnamed> volatile __io _A_EICRA
   \                     _A_EICRA:
   \   00000000                      DS8 1

   \                                 In  segment ABSOLUTE, at 0x68, root
   \   union <unnamed> volatile __io _A_SPMCSR
   \                     _A_SPMCSR:
   \   00000000                      DS8 1

   \                                 In  segment ABSOLUTE, at 0x65, root
   \   union <unnamed> volatile __io _A_PORTG
   \                     _A_PORTG:
   \   00000000                      DS8 1

   \                                 In  segment ABSOLUTE, at 0x64, root
   \   union <unnamed> volatile __io _A_DDRG
   \                     _A_DDRG:
   \   00000000                      DS8 1

   \                                 In  segment ABSOLUTE, at 0x63, root
   \   union <unnamed> volatile __io _A_PING
   \                     _A_PING:
   \   00000000                      DS8 1

   \                                 In  segment ABSOLUTE, at 0x62, root
   \   union <unnamed> volatile __io _A_PORTF
   \                     _A_PORTF:
   \   00000000                      DS8 1

   \                                 In  segment ABSOLUTE, at 0x61, root
   \   union <unnamed> volatile __io _A_DDRF
   \                     _A_DDRF:
   \   00000000                      DS8 1

   \                                 In  segment ABSOLUTE, at 0x5f, root
   \   union <unnamed> volatile __io _A_SREG
   \                     _A_SREG:
   \   00000000                      DS8 1

   \                                 In  segment ABSOLUTE, at 0x5d, root
   \   union <unnamed> volatile __io _A_SP
   \                     _A_SP:
   \   00000000                      DS8 2

   \                                 In  segment ABSOLUTE, at 0x5c, root
   \   union <unnamed> volatile __io _A_XDIV
   \                     _A_XDIV:
   \   00000000                      DS8 1

   \                                 In  segment ABSOLUTE, at 0x5b, root
   \   union <unnamed> volatile __io _A_RAMPZ
   \                     _A_RAMPZ:
   \   00000000                      DS8 1

   \                                 In  segment ABSOLUTE, at 0x5a, root
   \   union <unnamed> volatile __io _A_EICRB
   \                     _A_EICRB:
   \   00000000                      DS8 1

   \                                 In  segment ABSOLUTE, at 0x59, root
   \   union <unnamed> volatile __io _A_EIMSK
   \                     _A_EIMSK:
   \   00000000                      DS8 1

   \                                 In  segment ABSOLUTE, at 0x58, root
   \   union <unnamed> volatile __io _A_EIFR
   \                     _A_EIFR:
   \   00000000                      DS8 1

   \                                 In  segment ABSOLUTE, at 0x57, root
   \   union <unnamed> volatile __io _A_TIMSK
   \                     _A_TIMSK:
   \   00000000                      DS8 1

   \                                 In  segment ABSOLUTE, at 0x56, root
   \   union <unnamed> volatile __io _A_TIFR
   \                     _A_TIFR:
   \   00000000                      DS8 1

   \                                 In  segment ABSOLUTE, at 0x55, root
   \   union <unnamed> volatile __io _A_MCUCR
   \                     _A_MCUCR:
   \   00000000                      DS8 1

   \                                 In  segment ABSOLUTE, at 0x54, root
   \   union <unnamed> volatile __io _A_MCUCSR
   \                     _A_MCUCSR:
   \   00000000                      DS8 1

   \                                 In  segment ABSOLUTE, at 0x53, root
   \   union <unnamed> volatile __io _A_TCCR0
   \                     _A_TCCR0:
   \   00000000                      DS8 1

   \                                 In  segment ABSOLUTE, at 0x52, root
   \   union <unnamed> volatile __io _A_TCNT0
   \                     _A_TCNT0:
   \   00000000                      DS8 1

   \                                 In  segment ABSOLUTE, at 0x51, root
   \   union <unnamed> volatile __io _A_OCR0
   \                     _A_OCR0:
   \   00000000                      DS8 1

   \                                 In  segment ABSOLUTE, at 0x50, root
   \   union <unnamed> volatile __io _A_ASSR
   \                     _A_ASSR:
   \   00000000                      DS8 1

   \                                 In  segment ABSOLUTE, at 0x4f, root
   \   union <unnamed> volatile __io _A_TCCR1A
   \                     _A_TCCR1A:
   \   00000000                      DS8 1

   \                                 In  segment ABSOLUTE, at 0x4e, root
   \   union <unnamed> volatile __io _A_TCCR1B
   \                     _A_TCCR1B:
   \   00000000                      DS8 1

   \                                 In  segment ABSOLUTE, at 0x4c, root
   \   union <unnamed> volatile __io _A_TCNT1
   \                     _A_TCNT1:
   \   00000000                      DS8 2

   \                                 In  segment ABSOLUTE, at 0x4a, root
   \   union <unnamed> volatile __io _A_OCR1A
   \                     _A_OCR1A:
   \   00000000                      DS8 2

   \                                 In  segment ABSOLUTE, at 0x48, root
   \   union <unnamed> volatile __io _A_OCR1B
   \                     _A_OCR1B:
   \   00000000                      DS8 2

   \                                 In  segment ABSOLUTE, at 0x46, root
   \   union <unnamed> volatile __io _A_ICR1
   \                     _A_ICR1:
   \   00000000                      DS8 2

   \                                 In  segment ABSOLUTE, at 0x45, root
   \   union <unnamed> volatile __io _A_TCCR2
   \                     _A_TCCR2:
   \   00000000                      DS8 1

   \                                 In  segment ABSOLUTE, at 0x44, root
   \   union <unnamed> volatile __io _A_TCNT2
   \                     _A_TCNT2:
   \   00000000                      DS8 1

   \                                 In  segment ABSOLUTE, at 0x43, root
   \   union <unnamed> volatile __io _A_OCR2
   \                     _A_OCR2:
   \   00000000                      DS8 1

   \                                 In  segment ABSOLUTE, at 0x42, root
   \   union <unnamed> volatile __io _A_OCDR
   \                     _A_OCDR:
   \   00000000                      DS8 1

   \                                 In  segment ABSOLUTE, at 0x41, root
   \   union <unnamed> volatile __io _A_WDTCR
   \                     _A_WDTCR:
   \   00000000                      DS8 1

   \                                 In  segment ABSOLUTE, at 0x40, root
   \   union <unnamed> volatile __io _A_SFIOR
   \                     _A_SFIOR:
   \   00000000                      DS8 1

   \                                 In  segment ABSOLUTE, at 0x3e, root
   \   union <unnamed> volatile __io _A_EEAR
   \                     _A_EEAR:
   \   00000000                      DS8 2

   \                                 In  segment ABSOLUTE, at 0x3d, root
   \   union <unnamed> volatile __io _A_EEDR
   \                     _A_EEDR:
   \   00000000                      DS8 1

   \                                 In  segment ABSOLUTE, at 0x3c, root
   \   union <unnamed> volatile __io _A_EECR
   \                     _A_EECR:
   \   00000000                      DS8 1

   \                                 In  segment ABSOLUTE, at 0x3b, root
   \   union <unnamed> volatile __io _A_PORTA
   \                     _A_PORTA:
   \   00000000                      DS8 1

   \                                 In  segment ABSOLUTE, at 0x3a, root
   \   union <unnamed> volatile __io _A_DDRA
   \                     _A_DDRA:
   \   00000000                      DS8 1

   \                                 In  segment ABSOLUTE, at 0x39, root
   \   union <unnamed> volatile __io _A_PINA
   \                     _A_PINA:
   \   00000000                      DS8 1

   \                                 In  segment ABSOLUTE, at 0x38, root
   \   union <unnamed> volatile __io _A_PORTB
   \                     _A_PORTB:
   \   00000000                      DS8 1

   \                                 In  segment ABSOLUTE, at 0x37, root
   \   union <unnamed> volatile __io _A_DDRB
   \                     _A_DDRB:
   \   00000000                      DS8 1

   \                                 In  segment ABSOLUTE, at 0x36, root
   \   union <unnamed> volatile __io _A_PINB
   \                     _A_PINB:
   \   00000000                      DS8 1

   \                                 In  segment ABSOLUTE, at 0x35, root
   \   union <unnamed> volatile __io _A_PORTC
   \                     _A_PORTC:
   \   00000000                      DS8 1

   \                                 In  segment ABSOLUTE, at 0x34, root
   \   union <unnamed> volatile __io _A_DDRC
   \                     _A_DDRC:
   \   00000000                      DS8 1

   \                                 In  segment ABSOLUTE, at 0x33, root
   \   union <unnamed> volatile __io _A_PINC
   \                     _A_PINC:
   \   00000000                      DS8 1

   \                                 In  segment ABSOLUTE, at 0x32, root
   \   union <unnamed> volatile __io _A_PORTD
   \                     _A_PORTD:
   \   00000000                      DS8 1

   \                                 In  segment ABSOLUTE, at 0x31, root
   \   union <unnamed> volatile __io _A_DDRD
   \                     _A_DDRD:
   \   00000000                      DS8 1

   \                                 In  segment ABSOLUTE, at 0x30, root
   \   union <unnamed> volatile __io _A_PIND
   \                     _A_PIND:
   \   00000000                      DS8 1

   \                                 In  segment ABSOLUTE, at 0x2f, root
   \   union <unnamed> volatile __io _A_SPDR
   \                     _A_SPDR:
   \   00000000                      DS8 1

   \                                 In  segment ABSOLUTE, at 0x2e, root
   \   union <unnamed> volatile __io _A_SPSR
   \                     _A_SPSR:
   \   00000000                      DS8 1

   \                                 In  segment ABSOLUTE, at 0x2d, root
   \   union <unnamed> volatile __io _A_SPCR
   \                     _A_SPCR:
   \   00000000                      DS8 1

   \                                 In  segment ABSOLUTE, at 0x2c, root
   \   union <unnamed> volatile __io _A_UDR0
   \                     _A_UDR0:
   \   00000000                      DS8 1

   \                                 In  segment ABSOLUTE, at 0x2b, root
   \   union <unnamed> volatile __io _A_UCSR0A
   \                     _A_UCSR0A:
   \   00000000                      DS8 1

   \                                 In  segment ABSOLUTE, at 0x2a, root
   \   union <unnamed> volatile __io _A_UCSR0B
   \                     _A_UCSR0B:
   \   00000000                      DS8 1

   \                                 In  segment ABSOLUTE, at 0x29, root
   \   union <unnamed> volatile __io _A_UBRR0L
   \                     _A_UBRR0L:
   \   00000000                      DS8 1

   \                                 In  segment ABSOLUTE, at 0x28, root
   \   union <unnamed> volatile __io _A_ACSR
   \                     _A_ACSR:
   \   00000000                      DS8 1

   \                                 In  segment ABSOLUTE, at 0x27, root
   \   union <unnamed> volatile __io _A_ADMUX
   \                     _A_ADMUX:
   \   00000000                      DS8 1

   \                                 In  segment ABSOLUTE, at 0x26, root
   \   union <unnamed> volatile __io _A_ADCSRA
   \                     _A_ADCSRA:
   \   00000000                      DS8 1

   \                                 In  segment ABSOLUTE, at 0x24, root
   \   union <unnamed> volatile __io _A_ADC
   \                     _A_ADC:
   \   00000000                      DS8 2

   \                                 In  segment ABSOLUTE, at 0x23, root
   \   union <unnamed> volatile __io _A_PORTE
   \                     _A_PORTE:
   \   00000000                      DS8 1

   \                                 In  segment ABSOLUTE, at 0x22, root
   \   union <unnamed> volatile __io _A_DDRE
   \                     _A_DDRE:
   \   00000000                      DS8 1

   \                                 In  segment ABSOLUTE, at 0x21, root
   \   union <unnamed> volatile __io _A_PINE
   \                     _A_PINE:
   \   00000000                      DS8 1

   \                                 In  segment ABSOLUTE, at 0x20, root
   \   union <unnamed> volatile __io _A_PINF
   \                     _A_PINF:
   \   00000000                      DS8 1
     10          //#include "Config.h"
     11          #include "Pss21.h"

  };
   ^
"D:\Projects\CautoProjects\PSS48\PSS48\Modbus\Modbus.h",184  Warning[Pe375]: 
          declaration requires a typedef name

  };
   ^
"D:\Projects\CautoProjects\PSS48\PSS48\Modbus\Modbus.h",216  Warning[Pe375]: 
          declaration requires a typedef name
     12          #include "Crc.h"
     13          
     14          //-----------------------------------------------------------------------------------------------------

   \                                 In  segment CODE, align 2, keep-with-next
     15          CMvsn21::CMvsn21(void)
   \                     ??CMvsn21:
     16          {
   \   00000000   93BA               ST      -Y, R27
   \   00000002   93AA               ST      -Y, R26
   \   00000004   9761               SBIW    R29:R28, 17
   \   00000006   01D8               MOVW    R27:R26, R17:R16
   \   00000008   2F02               MOV     R16, R18
   \   0000000A   2B03               OR      R16, R19
   \   0000000C   F411               BRNE    ??CMvsn21_1
   \   0000000E   E001               LDI     R16, 1
   \   00000010   C001               RJMP    ??CMvsn21_2
   \                     ??CMvsn21_1:
   \   00000012   E000               LDI     R16, 0
   \                     ??CMvsn21_2:
   \   00000014   2300               TST     R16
   \   00000016   F039               BREQ    ??CMvsn21_3
   \   00000018   019D               MOVW    R19:R18, R27:R26
   \   0000001A   5F2B               SUBI    R18, 251
   \   0000001C   4F3F               SBCI    R19, 255
   \   0000001E   01FD               MOVW    R31:R30, R27:R26
   \   00000020   8323               STD     Z+3, R18
   \   00000022   8334               STD     Z+4, R19
   \   00000024   C003               RJMP    ??CMvsn21_4
   \                     ??CMvsn21_3:
   \   00000026   01FD               MOVW    R31:R30, R27:R26
   \   00000028   8323               STD     Z+3, R18
   \   0000002A   8334               STD     Z+4, R19
   \                     ??CMvsn21_4:
   \   0000002C   ....               LDI     R16, LOW(??__vtbl_2)
   \   0000002E   ....               LDI     R17, (??__vtbl_2) >> 8
   \   00000030   01FD               MOVW    R31:R30, R27:R26
   \   00000032   8301               STD     Z+1, R16
   \   00000034   8312               STD     Z+2, R17
     17              m_uiType = MODULE_TYPE_MVDS9;
   \   00000036   9613               ADIW    R27:R26, 3
   \   00000038   91ED               LD      R30, X+
   \   0000003A   91FC               LD      R31, X
   \   0000003C   9714               SBIW    R27:R26, 4
   \   0000003E   E001               LDI     R16, 1
   \   00000040   8300               ST      Z, R16
     18              CMvsn21Driver xMvsn21Driver(m_uiType);
   \   00000042   9613               ADIW    R27:R26, 3
   \   00000044   91ED               LD      R30, X+
   \   00000046   91FC               LD      R31, X
   \   00000048   9714               SBIW    R27:R26, 4
   \   0000004A   8120               LD      R18, Z
   \   0000004C   018E               MOVW    R17:R16, R29:R28
   \   0000004E   ....               RCALL   ??CMvsn21Driver
     19              m_pxDriver = &xMvsn21Driver;
   \   00000050   018E               MOVW    R17:R16, R29:R28
   \   00000052   01FD               MOVW    R31:R30, R27:R26
   \   00000054   8123               LDD     R18, Z+3
   \   00000056   8134               LDD     R19, Z+4
   \   00000058   01F9               MOVW    R31:R30, R19:R18
   \   0000005A   8301               STD     Z+1, R16
   \   0000005C   8312               STD     Z+2, R17
     20          }
   \   0000005E   E022               LDI     R18, 2
   \   00000060   E030               LDI     R19, 0
   \   00000062   018E               MOVW    R17:R16, R29:R28
   \   00000064   ....               RCALL   `?~CMvsn21Driver`
   \   00000066   018D               MOVW    R17:R16, R27:R26
   \   00000068   9661               ADIW    R29:R28, 17
   \   0000006A   91A9               LD      R26, Y+
   \   0000006C   91B9               LD      R27, Y+
   \   0000006E   9508               RET
     21          
     22          //-----------------------------------------------------------------------------------------------------

   \                                 In  segment CODE, align 2, keep-with-next
     23          CMvsn21::~CMvsn21()
   \                     `?~CMvsn21`:
     24          {
   \   00000000   939A               ST      -Y, R25
   \   00000002   938A               ST      -Y, R24
   \   00000004   01C8               MOVW    R25:R24, R17:R16
   \   00000006   2F08               MOV     R16, R24
   \   00000008   2B09               OR      R16, R25
   \   0000000A   F029               BREQ    `?~CMvsn21_1`
   \   0000000C   FB20               BST     R18, 0
   \   0000000E   F41E               BRTC    `?~CMvsn21_1`
     25          
     26          }
   \   00000010   018C               MOVW    R17:R16, R25:R24
   \   00000012   ........           CALL    `??operator delete`
   \                     `?~CMvsn21_1`:
   \   00000016   9189               LD      R24, Y+
   \   00000018   9199               LD      R25, Y+
   \   0000001A   9508               RET
     27          
     28          //-----------------------------------------------------------------------------------------------------

   \                                 In  segment CODE, align 2, keep-with-next
     29          uint16_t CMvsn21::ReportType(uint8_t *puiDestination, uint16_t uiLength)
   \                     ??ReportType:
     30          {
     31          
     32          }
                 ^
Warning[Pe940]: missing return statement at end of non-void function
          "CMvsn21::ReportType"
   \   00000000   9508               RET
     33          //-----------------------------------------------------------------------------------------------------
     34          
     35          
     36          
     37          
     38          
     39          
     40          
     41          //-----------------------------------------------------------------------------------------------------

   \                                 In  segment CODE, align 2, keep-with-next
     42          CMvsn21Driver::CMvsn21Driver(uint8_t uiType)
   \                     ??CMvsn21Driver:
     43          {
   \   00000000   ....               LDI     R20, LOW(??__vtbl_3)
   \   00000002   ....               LDI     R21, (??__vtbl_3) >> 8
   \   00000004   01F8               MOVW    R31:R30, R17:R16
   \   00000006   8347               STD     Z+7, R20
   \   00000008   8750               STD     Z+8, R21
     44              m_uiType = uiType;
   \   0000000A   01F8               MOVW    R31:R30, R17:R16
   \   0000000C   8320               ST      Z, R18
     45          }
   \   0000000E   9508               RET
     46          
     47          //-----------------------------------------------------------------------------------------------------

   \                                 In  segment CODE, align 2, keep-with-next
     48          CMvsn21Driver::~CMvsn21Driver()
   \                     `?~CMvsn21Driver`:
     49          {
   \   00000000   939A               ST      -Y, R25
   \   00000002   938A               ST      -Y, R24
   \   00000004   01C8               MOVW    R25:R24, R17:R16
   \   00000006   2F08               MOV     R16, R24
   \   00000008   2B09               OR      R16, R25
   \   0000000A   F029               BREQ    `?~CMvsn21Driver_1`
   \   0000000C   FB20               BST     R18, 0
   \   0000000E   F41E               BRTC    `?~CMvsn21Driver_1`
     50          
     51          }
   \   00000010   018C               MOVW    R17:R16, R25:R24
   \   00000012   ........           CALL    `??operator delete`
   \                     `?~CMvsn21Driver_1`:
   \   00000016   9189               LD      R24, Y+
   \   00000018   9199               LD      R25, Y+
   \   0000001A   9508               RET
     52          
     53          ////-----------------------------------------------------------------------------------------------------
     54          //void CMvsn21Driver::Init(void)
     55          //{
     56          //
     57          //}
     58          
     59          //-----------------------------------------------------------------------------------------------------

   \                                 In  segment CODE, align 2, keep-with-next
     60          void CMvsn21Driver::Allocate(TMemoryAllocationConext &xMemoryAllocationConext)
   \                     ??Allocate:
     61          {
   \   00000000   01BD               MOVW    R23:R22, R27:R26
   \   00000002   01D8               MOVW    R27:R26, R17:R16
     62              m_uiAddress = xMemoryAllocationConext.uiAddress;
   \   00000004   01F9               MOVW    R31:R30, R19:R18
   \   00000006   8100               LD      R16, Z
   \   00000008   01FD               MOVW    R31:R30, R27:R26
   \   0000000A   8701               STD     Z+9, R16
     63              m_puiRxBuffer = xMemoryAllocationConext.puiRxBuffer;
   \   0000000C   01F9               MOVW    R31:R30, R19:R18
   \   0000000E   8101               LDD     R16, Z+1
   \   00000010   8112               LDD     R17, Z+2
   \   00000012   01FD               MOVW    R31:R30, R27:R26
   \   00000014   8702               STD     Z+10, R16
   \   00000016   8713               STD     Z+11, R17
     64              m_puiTxBuffer = xMemoryAllocationConext.puiTxBuffer;
   \   00000018   01F9               MOVW    R31:R30, R19:R18
   \   0000001A   8103               LDD     R16, Z+3
   \   0000001C   8114               LDD     R17, Z+4
   \   0000001E   01FD               MOVW    R31:R30, R27:R26
   \   00000020   8704               STD     Z+12, R16
   \   00000022   8715               STD     Z+13, R17
     65              m_puiErrorCode = xMemoryAllocationConext.puiErrorCode;
   \   00000024   01F9               MOVW    R31:R30, R19:R18
   \   00000026   8105               LDD     R16, Z+5
   \   00000028   8116               LDD     R17, Z+6
   \   0000002A   01FD               MOVW    R31:R30, R27:R26
   \   0000002C   8305               STD     Z+5, R16
   \   0000002E   8316               STD     Z+6, R17
     66              // Получим указатель на место в массиве дискретных входов для текущего модуля.
     67              m_puiDiscreteInputs =
     68                  &xMemoryAllocationConext.
     69                  puiDiscreteInputs[xMemoryAllocationConext.uiUsedDiscreteInputs];
   \   00000030   01F9               MOVW    R31:R30, R19:R18
   \   00000032   8147               LDD     R20, Z+7
   \   00000034   8550               LDD     R21, Z+8
   \   00000036   01F9               MOVW    R31:R30, R19:R18
   \   00000038   8501               LDD     R16, Z+9
   \   0000003A   E010               LDI     R17, 0
   \   0000003C   0F40               ADD     R20, R16
   \   0000003E   1F51               ADC     R21, R17
   \   00000040   01FD               MOVW    R31:R30, R27:R26
   \   00000042   8746               STD     Z+14, R20
   \   00000044   8757               STD     Z+15, R21
     70              // Увеличим общий объём выделенной памяти.
     71              xMemoryAllocationConext.
     72              uiUsedDiscreteInputs +=
     73                  MVSN21_DISCRETE_INPUTS_NUMBER;
   \   00000046   01F9               MOVW    R31:R30, R19:R18
   \   00000048   8501               LDD     R16, Z+9
   \   0000004A   5E08               SUBI    R16, 232
   \   0000004C   8701               STD     Z+9, R16
     74          
     75              m_uiBadAnswerCounter = 0;
   \   0000004E   01FD               MOVW    R31:R30, R27:R26
   \   00000050   E000               LDI     R16, 0
   \   00000052   8B00               STD     Z+16, R16
     76          }
   \   00000054   01DB               MOVW    R27:R26, R23:R22
   \   00000056   9508               RET
     77          
     78          ////-----------------------------------------------------------------------------------------------------
     79          //uint16_t CMvsn21Driver::ReportType(uint8_t *puiDestination, uint16_t uiLength)
     80          //{
     81          //    memset(m_puiTxBuffer, 0, 4);
     82          //    uint8_t uiLengthLocal = 0;
     83          //
     84          //    m_puiTxBuffer[uiLengthLocal++] = GET_MODULE_TYPE_COMMAND;
     85          //    m_puiTxBuffer[uiLengthLocal++] = 0;
     86          //    m_puiTxBuffer[uiLengthLocal++] = 0;
     87          //    m_puiTxBuffer[uiLengthLocal++] = 0;
     88          ////    m_puiTxBuffer[uiLengthLocal++] = 0;
     89          //
     90          //    CPss21::ConnectDevice(m_uiAddress);
     91          //    delay_us(500);
     92          //    CSpi::Exchange(m_puiRxBuffer, m_puiTxBuffer, uiLengthLocal);
     93          //    CPss21::DisconnectDevice();
     94          //}
     95          
     96          //-----------------------------------------------------------------------------------------------------

   \                                 In  segment CODE, align 2, keep-with-next
     97          uint8_t CMvsn21Driver::DataExchange(void)
   \                     ??DataExchange:
     98          {
   \   00000000   ........           CALL    ?PROLOGUE4_L09
   \   00000004   01D8               MOVW    R27:R26, R17:R16
     99              m_puiTxBuffer[0] = DATA_EXCHANGE_COMMAND;
   \   00000006   961C               ADIW    R27:R26, 12
   \   00000008   91ED               LD      R30, X+
   \   0000000A   91FC               LD      R31, X
   \   0000000C   971D               SBIW    R27:R26, 13
   \   0000000E   E402               LDI     R16, 66
   \   00000010   8300               ST      Z, R16
    100          
    101              CPss21::ConnectDevice(m_uiAddress);
   \   00000012   01FD               MOVW    R31:R30, R27:R26
   \   00000014   8501               LDD     R16, Z+9
   \   00000016   ........           CALL    ??ConnectDevice
    102              delay_us(500);
   \   0000001A   E60A               LDI     R16, 106
   \   0000001C   E013               LDI     R17, 3
   \   0000001E   5001               SUBI    R16, 1
   \   00000020   4010               SBCI    R17, 0
   \   00000022   F7E9               BRNE    $-4
   \   00000024   C000               RJMP    $+2
   \   00000026   0000               NOP
    103              CSpi::Exchange(m_puiRxBuffer,
    104                             m_puiTxBuffer,
    105                             (PRIAMBLE_LENGTH +
    106                              DATA_EXCHANGE_COMMAND_ANSWER_LENGTH +
    107                              ONE_BYTE_CRC_LENGTH));
   \   00000028   E049               LDI     R20, 9
   \   0000002A   E050               LDI     R21, 0
   \   0000002C   01FD               MOVW    R31:R30, R27:R26
   \   0000002E   8524               LDD     R18, Z+12
   \   00000030   8535               LDD     R19, Z+13
   \   00000032   01FD               MOVW    R31:R30, R27:R26
   \   00000034   8502               LDD     R16, Z+10
   \   00000036   8513               LDD     R17, Z+11
   \   00000038   ........           CALL    ??Exchange
    108              CPss21::DisconnectDevice();
   \   0000003C   ........           CALL    ??DisconnectDevice
    109          
    110              // что ответил модуль?
    111              switch(m_puiRxBuffer[COMMAND_BYTE_OFFSET])
   \   00000040   961A               ADIW    R27:R26, 10
   \   00000042   91ED               LD      R30, X+
   \   00000044   91FC               LD      R31, X
   \   00000046   971B               SBIW    R27:R26, 11
   \   00000048   8101               LDD     R16, Z+1
   \   0000004A   5204               SUBI    R16, 36
   \   0000004C   F1E1               BREQ    ??DataExchange_1
   \   0000004E   510E               SUBI    R16, 30
   \   00000050   F5D1               BRNE    ??DataExchange_1
    112              {
    113              case DATA_READY:
    114          //        // данные не повреждены?
    115          //        //debag//if ((iCrcSummOneByteCompare(&m_puiRxBuffer[DATA_BYTE_OFFSET],
    116          //                                    (DATA_EXCHANGE_COMMAND_ANSWER_LENGTH +
    117          //                                     ONE_BYTE_CRC_LENGTH)) > 0) &&
    118          //                ((m_puiRxBuffer[DATA_BYTE_OFFSET +
    119          //                                DATA_EXCHANGE_COMMAND_ANSWER_LENGTH]) != 0))
    120                  if ((iCrcSummOneByteCompare(&m_puiRxBuffer[DATA_BYTE_OFFSET],
    121                                              DATA_EXCHANGE_COMMAND_ANSWER_LENGTH) > 0))
   \   00000052   E026               LDI     R18, 6
   \   00000054   E030               LDI     R19, 0
   \   00000056   01FD               MOVW    R31:R30, R27:R26
   \   00000058   8502               LDD     R16, Z+10
   \   0000005A   8513               LDD     R17, Z+11
   \   0000005C   5F0E               SUBI    R16, 254
   \   0000005E   4F1F               SBCI    R17, 255
   \   00000060   ........           CALL    ??iCrcSummOneByteCompare
   \   00000064   3001               CPI     R16, 1
   \   00000066   4010               SBCI    R17, 0
   \   00000068   F174               BRLT    ??DataExchange_1
    122                  {
    123                      m_uiBadAnswerCounter = 0;
   \   0000006A   01FD               MOVW    R31:R30, R27:R26
   \   0000006C   E000               LDI     R16, 0
   \   0000006E   8B00               STD     Z+16, R16
    124                      // отправим полученные от модуля данные в рабочий массив прибора.
    125                      uint8_t *puiDestination = m_puiDiscreteInputs;
   \   00000070   01FD               MOVW    R31:R30, R27:R26
   \   00000072   8586               LDD     R24, Z+14
   \   00000074   8597               LDD     R25, Z+15
    126                      for (uint8_t i = 0; i < DISCRETE_INPUT_BYTE_QUANTITY; i++)
   \   00000076   E060               LDI     R22, 0
   \                     ??DataExchange_2:
   \   00000078   3066               CPI     R22, 6
   \   0000007A   F518               BRCC    ??DataExchange_3
    127                      {
    128                          uint8_t uiData = (m_puiRxBuffer[DATA_BYTE_OFFSET + i]);
   \   0000007C   01FD               MOVW    R31:R30, R27:R26
   \   0000007E   8502               LDD     R16, Z+10
   \   00000080   8513               LDD     R17, Z+11
   \   00000082   E070               LDI     R23, 0
   \   00000084   0F06               ADD     R16, R22
   \   00000086   1F17               ADC     R17, R23
   \   00000088   01F8               MOVW    R31:R30, R17:R16
   \   0000008A   8132               LDD     R19, Z+2
    129          
    130                          for (uint8_t j = 0; j < DISCRETE_INPUT_BITS_IN_BYTE_QUANTITY; j++)
   \   0000008C   E020               LDI     R18, 0
   \                     ??DataExchange_4:
   \   0000008E   3028               CPI     R18, 8
   \   00000090   F4B0               BRCC    ??DataExchange_5
    131                          {
    132                              // четные биты (D0,D2,D4,D6) = 0 - разомкнуто (OFF), = 1 - замкнуто (ON)
    133                              // нечетные биты (D1,D3,D5,D7) = 0 - достоверно, = 1 - недостоверно
    134                              // бит нечётный?
    135                              if (j & 0x01)
   \   00000092   FB20               BST     R18, 0
   \   00000094   F096               BRTS    ??DataExchange_6
    136                              {
    137                                  //                            // бит достоверен? 0 - достоверно, 1 - недостоверно.
    138          //                            *puiDestination2++ = ((ucData & (1 << j)) ? 1 : 0);
    139                              }
    140                              else
    141                              {
    142                                  //контакты замкнуты?  0 - разомкнуто (OFF), 1 - замкнуто (ON)
    143                                  if ((uiData & (1 << j)))
   \   00000096   E001               LDI     R16, 1
   \   00000098   E010               LDI     R17, 0
   \   0000009A   2F42               MOV     R20, R18
   \   0000009C   ........           CALL    ?S_SHL_L02
   \   000000A0   2F13               MOV     R17, R19
   \   000000A2   2310               AND     R17, R16
   \   000000A4   2311               TST     R17
   \   000000A6   F029               BREQ    ??DataExchange_7
    144                                  {
    145                                      *puiDestination++ = 1;
   \   000000A8   01FC               MOVW    R31:R30, R25:R24
   \   000000AA   E001               LDI     R16, 1
   \   000000AC   8300               ST      Z, R16
   \   000000AE   9601               ADIW    R25:R24, 1
   \   000000B0   C004               RJMP    ??DataExchange_6
    146                                  }
    147                                  else
    148                                  {
    149                                      *puiDestination++ = 0;
   \                     ??DataExchange_7:
   \   000000B2   01FC               MOVW    R31:R30, R25:R24
   \   000000B4   E000               LDI     R16, 0
   \   000000B6   8300               ST      Z, R16
   \   000000B8   9601               ADIW    R25:R24, 1
    150                                  }
    151                              }
    152                          }
   \                     ??DataExchange_6:
   \   000000BA   9523               INC     R18
   \   000000BC   CFE8               RJMP    ??DataExchange_4
    153                      }
   \                     ??DataExchange_5:
   \   000000BE   9563               INC     R22
   \   000000C0   CFDB               RJMP    ??DataExchange_2
    154                      return 1;
   \                     ??DataExchange_3:
   \   000000C2   E001               LDI     R16, 1
   \   000000C4   C011               RJMP    ??DataExchange_8
    155                  }
    156                  break;
    157          
    158              case DATA_NOT_READY:
    159                  break;
    160          
    161              default:
    162                  break;
    163              };
    164          
    165              // модуль признан неисправным?
    166              if (m_uiBadAnswerCounter >= BAD_MODULE_CYCLE_COUNT_DEFAULT)
   \                     ??DataExchange_1:
   \   000000C6   01FD               MOVW    R31:R30, R27:R26
   \   000000C8   8900               LDD     R16, Z+16
   \   000000CA   300A               CPI     R16, 10
   \   000000CC   F040               BRCS    ??DataExchange_9
    167              {
    168                  // модуль признан неисправным.
    169                  *m_puiErrorCode = IMD_ERROR;
   \   000000CE   9615               ADIW    R27:R26, 5
   \   000000D0   91ED               LD      R30, X+
   \   000000D2   91FC               LD      R31, X
   \   000000D4   9716               SBIW    R27:R26, 6
   \   000000D6   E001               LDI     R16, 1
   \   000000D8   8300               ST      Z, R16
    170                  return 0;
   \   000000DA   E000               LDI     R16, 0
   \   000000DC   C005               RJMP    ??DataExchange_8
    171              }
    172              else
    173              {
    174                  // уменьшим значение счётчика - "количество сеансов связи с модулем без ответа".
    175                  m_uiBadAnswerCounter++;
   \                     ??DataExchange_9:
   \   000000DE   01FD               MOVW    R31:R30, R27:R26
   \   000000E0   8900               LDD     R16, Z+16
   \   000000E2   9503               INC     R16
   \   000000E4   8B00               STD     Z+16, R16
    176              }
    177              return 0;
   \   000000E6   E000               LDI     R16, 0
   \                     ??DataExchange_8:
   \   000000E8   E0E4               LDI     R30, 4
   \   000000EA   ........           JMP     ?EPILOGUE_B4_L09
    178          }

   \                                 In  segment CODE, align 2, keep-with-next
   \   __version_3 CMvsn21 &CMvsn21::new CMvsn21()
   \                     `??new CMvsn21`:
   \   00000000   E009               LDI     R16, 9
   \   00000002   E010               LDI     R17, 0
   \   00000004   ........           CALL    `??operator new`
   \   00000008   2F20               MOV     R18, R16
   \   0000000A   2B21               OR      R18, R17
   \   0000000C   F021               BREQ    `??new CMvsn21_1`
   \   0000000E   E020               LDI     R18, 0
   \   00000010   E030               LDI     R19, 0
   \   00000012   ....               RCALL   ??CMvsn21
   \   00000014   9508               RET
   \                     `??new CMvsn21_1`:
   \   00000016   E000               LDI     R16, 0
   \   00000018   E010               LDI     R17, 0
   \   0000001A   9508               RET

   \                                 In  segment CODE, align 2, keep-with-next
   \   __version_3 CMvsn21Driver &CMvsn21Driver::new CMvsn21Driver(uint8_t)
   \                     `??new CMvsn21Driver`:
   \   00000000   938A               ST      -Y, R24
   \   00000002   2F80               MOV     R24, R16
   \   00000004   E101               LDI     R16, 17
   \   00000006   E010               LDI     R17, 0
   \   00000008   ........           CALL    `??operator new`
   \   0000000C   2F20               MOV     R18, R16
   \   0000000E   2B21               OR      R18, R17
   \   00000010   F019               BREQ    `??new CMvsn21Driver_1`
   \   00000012   2F28               MOV     R18, R24
   \   00000014   ....               RCALL   ??CMvsn21Driver
   \   00000016   C002               RJMP    `??new CMvsn21Driver_2`
   \                     `??new CMvsn21Driver_1`:
   \   00000018   E000               LDI     R16, 0
   \   0000001A   E010               LDI     R17, 0
   \                     `??new CMvsn21Driver_2`:
   \   0000001C   9189               LD      R24, Y+
   \   0000001E   9508               RET

   Maximum stack usage in bytes:

   CSTACK RSTACK Function
   ------ ------ --------
     19      2   CMvsn21::CMvsn21()
       19      2   -> CMvsn21Driver::CMvsn21Driver(uint8_t)
       19      2   -> CMvsn21Driver::~CMvsn21Driver()
      0      2   CMvsn21::ReportType(uint8_t *, uint16_t)
      0      2   CMvsn21::new CMvsn21()
        0      2   -> CMvsn21::CMvsn21()
        0      2   -> operator new(unsigned int)
      2      2   CMvsn21::~CMvsn21()
        2      2   -> operator delete(void *)
      0      2   CMvsn21Driver::Allocate(TMemoryAllocationConext &)
      0      2   CMvsn21Driver::CMvsn21Driver(uint8_t)
      4      2   CMvsn21Driver::DataExchange()
        4      2   -> CPss21::ConnectDevice(uint8_t)
        4      2   -> CPss21::DisconnectDevice()
        4      2   -> CSpi::Exchange(uint8_t *, uint8_t *, uint16_t)
        4      2   -> iCrcSummOneByteCompare(unsigned char *, unsigned int)
        4      2 ?S_SHL_L02
      1      2   CMvsn21Driver::new CMvsn21Driver(uint8_t)
        1      2   -> CMvsn21Driver::CMvsn21Driver(uint8_t)
        1      2   -> operator new(unsigned int)
      2      2   CMvsn21Driver::~CMvsn21Driver()
        2      2   -> operator delete(void *)


   Segment part sizes:

   Bytes  Function/Label
   -----  --------------
     112  CMvsn21::CMvsn21()
       2  CMvsn21::ReportType(uint8_t *, uint16_t)
      28  CMvsn21::new CMvsn21()
      28  CMvsn21::~CMvsn21()
      88  CMvsn21Driver::Allocate(TMemoryAllocationConext &)
      16  CMvsn21Driver::CMvsn21Driver(uint8_t)
     238  CMvsn21Driver::DataExchange()
      32  CMvsn21Driver::new CMvsn21Driver(uint8_t)
      28  CMvsn21Driver::~CMvsn21Driver()
       1  _A_ACSR
       2  _A_ADC
       1  _A_ADCSRA
       1  _A_ADMUX
       1  _A_ASSR
       1  _A_DDRA
       1  _A_DDRB
       1  _A_DDRC
       1  _A_DDRD
       1  _A_DDRE
       1  _A_DDRF
       1  _A_DDRG
       2  _A_EEAR
       1  _A_EECR
       1  _A_EEDR
       1  _A_EICRA
       1  _A_EICRB
       1  _A_EIFR
       1  _A_EIMSK
       1  _A_ETIFR
       1  _A_ETIMSK
       2  _A_ICR1
       2  _A_ICR3
       1  _A_MCUCR
       1  _A_MCUCSR
       1  _A_OCDR
       1  _A_OCR0
       2  _A_OCR1A
       2  _A_OCR1B
       2  _A_OCR1C
       1  _A_OCR2
       2  _A_OCR3A
       2  _A_OCR3B
       2  _A_OCR3C
       1  _A_OSCCAL
       1  _A_PINA
       1  _A_PINB
       1  _A_PINC
       1  _A_PIND
       1  _A_PINE
       1  _A_PINF
       1  _A_PING
       1  _A_PORTA
       1  _A_PORTB
       1  _A_PORTC
       1  _A_PORTD
       1  _A_PORTE
       1  _A_PORTF
       1  _A_PORTG
       1  _A_RAMPZ
       1  _A_SFIOR
       2  _A_SP
       1  _A_SPCR
       1  _A_SPDR
       1  _A_SPMCSR
       1  _A_SPSR
       1  _A_SREG
       1  _A_TCCR0
       1  _A_TCCR1A
       1  _A_TCCR1B
       1  _A_TCCR1C
       1  _A_TCCR2
       1  _A_TCCR3A
       1  _A_TCCR3B
       1  _A_TCCR3C
       1  _A_TCNT0
       2  _A_TCNT1
       1  _A_TCNT2
       2  _A_TCNT3
       1  _A_TIFR
       1  _A_TIMSK
       1  _A_TWAR
       1  _A_TWBR
       1  _A_TWCR
       1  _A_TWDR
       1  _A_TWSR
       1  _A_UBRR0H
       1  _A_UBRR0L
       1  _A_UBRR1H
       1  _A_UBRR1L
       1  _A_UCSR0A
       1  _A_UCSR0B
       1  _A_UCSR0C
       1  _A_UCSR1A
       1  _A_UCSR1B
       1  _A_UCSR1C
       1  _A_UDR0
       1  _A_UDR1
       1  _A_WDTCR
       1  _A_XDIV
       1  _A_XMCRA
       1  _A_XMCRB
      44  -- Other

 
 105 bytes in segment ABSOLUTE
 572 bytes in segment CODE
  44 bytes in segment NEAR_F
 
 608 bytes of CODE memory (+   8 bytes shared)
   0 bytes of DATA memory (+ 105 bytes shared)

Errors: none
Warnings: 3
