###############################################################################
#
# IAR C/C++ Compiler V7.10.6.1378 for Atmel AVR           09/Aug/2022  11:07:04
# Copyright 1996-2018 IAR Systems AB.
#
#    Source file  =  D:\Projects\CautoProjects\PSS48\PSS48\src\Mvsn21.cpp
#    Command line =  
#        -f C:\Users\ghost\AppData\Local\Temp\EW32D8.tmp
#        (--string_literals_in_flash
#        D:\Projects\CautoProjects\PSS48\PSS48\src\Mvsn21.cpp --cpu=m128a -ms
#        -o D:\Projects\CautoProjects\PSS48\PSS48\Debug\Obj -lC
#        D:\Projects\CautoProjects\PSS48\PSS48\Debug\List -lB
#        D:\Projects\CautoProjects\PSS48\PSS48\Debug\List -y
#        --initializers_in_flash --root_variables --debug
#        -DENABLE_BIT_DEFINITIONS -e -I
#        D:\Projects\CautoProjects\PSS48\PSS48\include\ -I
#        D:\Projects\CautoProjects\PSS48\PSS48\Modbus\ --eeprom_size 4096
#        --dlib --dlib_config "C:\Program Files (x86)\IAR Systems\Embedded
#        Workbench 8.0\avr\LIB\DLIB\dlAVR-3s-ec_mul-n.h" -Ohz --eec++)
#    Locale       =  Russian_RUS.1251
#    List file    =  
#        D:\Projects\CautoProjects\PSS48\PSS48\Debug\List\Mvsn21.lst
#    Object file  =  D:\Projects\CautoProjects\PSS48\PSS48\Debug\Obj\Mvsn21.r90
#
###############################################################################

D:\Projects\CautoProjects\PSS48\PSS48\src\Mvsn21.cpp
      1          //-----------------------------------------------------------------------------------------------------
      2          //  Sourse      : FileName.cpp
      3          //  Created     : 01.06.2022
      4          //  Author      : Alexandr Volvenkin
      5          //  email       : aav-36@mail.ru
      6          //  GitHub      : https://github.com/AlexandrVolvenkin
      7          //-----------------------------------------------------------------------------------------------------
      8          #include "Mvsn21.h"
      9          #include "Platform.h"

   \                                 In  segment ABSOLUTE, at 0x9d, root
   \   union <unnamed> volatile __io _A_UCSR1C
   \                     _A_UCSR1C:
   \   00000000                      DS8 1

   \                                 In  segment ABSOLUTE, at 0x9c, root
   \   union <unnamed> volatile __io _A_UDR1
   \                     _A_UDR1:
   \   00000000                      DS8 1

   \                                 In  segment ABSOLUTE, at 0x9b, root
   \   union <unnamed> volatile __io _A_UCSR1A
   \                     _A_UCSR1A:
   \   00000000                      DS8 1

   \                                 In  segment ABSOLUTE, at 0x9a, root
   \   union <unnamed> volatile __io _A_UCSR1B
   \                     _A_UCSR1B:
   \   00000000                      DS8 1

   \                                 In  segment ABSOLUTE, at 0x99, root
   \   union <unnamed> volatile __io _A_UBRR1L
   \                     _A_UBRR1L:
   \   00000000                      DS8 1

   \                                 In  segment ABSOLUTE, at 0x98, root
   \   union <unnamed> volatile __io _A_UBRR1H
   \                     _A_UBRR1H:
   \   00000000                      DS8 1

   \                                 In  segment ABSOLUTE, at 0x95, root
   \   union <unnamed> volatile __io _A_UCSR0C
   \                     _A_UCSR0C:
   \   00000000                      DS8 1

   \                                 In  segment ABSOLUTE, at 0x90, root
   \   union <unnamed> volatile __io _A_UBRR0H
   \                     _A_UBRR0H:
   \   00000000                      DS8 1

   \                                 In  segment ABSOLUTE, at 0x8c, root
   \   union <unnamed> volatile __io _A_TCCR3C
   \                     _A_TCCR3C:
   \   00000000                      DS8 1

   \                                 In  segment ABSOLUTE, at 0x8b, root
   \   union <unnamed> volatile __io _A_TCCR3A
   \                     _A_TCCR3A:
   \   00000000                      DS8 1

   \                                 In  segment ABSOLUTE, at 0x8a, root
   \   union <unnamed> volatile __io _A_TCCR3B
   \                     _A_TCCR3B:
   \   00000000                      DS8 1

   \                                 In  segment ABSOLUTE, at 0x88, root
   \   union <unnamed> volatile __io _A_TCNT3
   \                     _A_TCNT3:
   \   00000000                      DS8 2

   \                                 In  segment ABSOLUTE, at 0x86, root
   \   union <unnamed> volatile __io _A_OCR3A
   \                     _A_OCR3A:
   \   00000000                      DS8 2

   \                                 In  segment ABSOLUTE, at 0x84, root
   \   union <unnamed> volatile __io _A_OCR3B
   \                     _A_OCR3B:
   \   00000000                      DS8 2

   \                                 In  segment ABSOLUTE, at 0x82, root
   \   union <unnamed> volatile __io _A_OCR3C
   \                     _A_OCR3C:
   \   00000000                      DS8 2

   \                                 In  segment ABSOLUTE, at 0x80, root
   \   union <unnamed> volatile __io _A_ICR3
   \                     _A_ICR3:
   \   00000000                      DS8 2

   \                                 In  segment ABSOLUTE, at 0x7d, root
   \   union <unnamed> volatile __io _A_ETIMSK
   \                     _A_ETIMSK:
   \   00000000                      DS8 1

   \                                 In  segment ABSOLUTE, at 0x7c, root
   \   union <unnamed> volatile __io _A_ETIFR
   \                     _A_ETIFR:
   \   00000000                      DS8 1

   \                                 In  segment ABSOLUTE, at 0x7a, root
   \   union <unnamed> volatile __io _A_TCCR1C
   \                     _A_TCCR1C:
   \   00000000                      DS8 1

   \                                 In  segment ABSOLUTE, at 0x78, root
   \   union <unnamed> volatile __io _A_OCR1C
   \                     _A_OCR1C:
   \   00000000                      DS8 2

   \                                 In  segment ABSOLUTE, at 0x74, root
   \   union <unnamed> volatile __io _A_TWCR
   \                     _A_TWCR:
   \   00000000                      DS8 1

   \                                 In  segment ABSOLUTE, at 0x73, root
   \   union <unnamed> volatile __io _A_TWDR
   \                     _A_TWDR:
   \   00000000                      DS8 1

   \                                 In  segment ABSOLUTE, at 0x72, root
   \   union <unnamed> volatile __io _A_TWAR
   \                     _A_TWAR:
   \   00000000                      DS8 1

   \                                 In  segment ABSOLUTE, at 0x71, root
   \   union <unnamed> volatile __io _A_TWSR
   \                     _A_TWSR:
   \   00000000                      DS8 1

   \                                 In  segment ABSOLUTE, at 0x70, root
   \   union <unnamed> volatile __io _A_TWBR
   \                     _A_TWBR:
   \   00000000                      DS8 1

   \                                 In  segment ABSOLUTE, at 0x6f, root
   \   union <unnamed> volatile __io _A_OSCCAL
   \                     _A_OSCCAL:
   \   00000000                      DS8 1

   \                                 In  segment ABSOLUTE, at 0x6d, root
   \   union <unnamed> volatile __io _A_XMCRA
   \                     _A_XMCRA:
   \   00000000                      DS8 1

   \                                 In  segment ABSOLUTE, at 0x6c, root
   \   union <unnamed> volatile __io _A_XMCRB
   \                     _A_XMCRB:
   \   00000000                      DS8 1

   \                                 In  segment ABSOLUTE, at 0x6a, root
   \   union <unnamed> volatile __io _A_EICRA
   \                     _A_EICRA:
   \   00000000                      DS8 1

   \                                 In  segment ABSOLUTE, at 0x68, root
   \   union <unnamed> volatile __io _A_SPMCSR
   \                     _A_SPMCSR:
   \   00000000                      DS8 1

   \                                 In  segment ABSOLUTE, at 0x65, root
   \   union <unnamed> volatile __io _A_PORTG
   \                     _A_PORTG:
   \   00000000                      DS8 1

   \                                 In  segment ABSOLUTE, at 0x64, root
   \   union <unnamed> volatile __io _A_DDRG
   \                     _A_DDRG:
   \   00000000                      DS8 1

   \                                 In  segment ABSOLUTE, at 0x63, root
   \   union <unnamed> volatile __io _A_PING
   \                     _A_PING:
   \   00000000                      DS8 1

   \                                 In  segment ABSOLUTE, at 0x62, root
   \   union <unnamed> volatile __io _A_PORTF
   \                     _A_PORTF:
   \   00000000                      DS8 1

   \                                 In  segment ABSOLUTE, at 0x61, root
   \   union <unnamed> volatile __io _A_DDRF
   \                     _A_DDRF:
   \   00000000                      DS8 1

   \                                 In  segment ABSOLUTE, at 0x5f, root
   \   union <unnamed> volatile __io _A_SREG
   \                     _A_SREG:
   \   00000000                      DS8 1

   \                                 In  segment ABSOLUTE, at 0x5d, root
   \   union <unnamed> volatile __io _A_SP
   \                     _A_SP:
   \   00000000                      DS8 2

   \                                 In  segment ABSOLUTE, at 0x5c, root
   \   union <unnamed> volatile __io _A_XDIV
   \                     _A_XDIV:
   \   00000000                      DS8 1

   \                                 In  segment ABSOLUTE, at 0x5b, root
   \   union <unnamed> volatile __io _A_RAMPZ
   \                     _A_RAMPZ:
   \   00000000                      DS8 1

   \                                 In  segment ABSOLUTE, at 0x5a, root
   \   union <unnamed> volatile __io _A_EICRB
   \                     _A_EICRB:
   \   00000000                      DS8 1

   \                                 In  segment ABSOLUTE, at 0x59, root
   \   union <unnamed> volatile __io _A_EIMSK
   \                     _A_EIMSK:
   \   00000000                      DS8 1

   \                                 In  segment ABSOLUTE, at 0x58, root
   \   union <unnamed> volatile __io _A_EIFR
   \                     _A_EIFR:
   \   00000000                      DS8 1

   \                                 In  segment ABSOLUTE, at 0x57, root
   \   union <unnamed> volatile __io _A_TIMSK
   \                     _A_TIMSK:
   \   00000000                      DS8 1

   \                                 In  segment ABSOLUTE, at 0x56, root
   \   union <unnamed> volatile __io _A_TIFR
   \                     _A_TIFR:
   \   00000000                      DS8 1

   \                                 In  segment ABSOLUTE, at 0x55, root
   \   union <unnamed> volatile __io _A_MCUCR
   \                     _A_MCUCR:
   \   00000000                      DS8 1

   \                                 In  segment ABSOLUTE, at 0x54, root
   \   union <unnamed> volatile __io _A_MCUCSR
   \                     _A_MCUCSR:
   \   00000000                      DS8 1

   \                                 In  segment ABSOLUTE, at 0x53, root
   \   union <unnamed> volatile __io _A_TCCR0
   \                     _A_TCCR0:
   \   00000000                      DS8 1

   \                                 In  segment ABSOLUTE, at 0x52, root
   \   union <unnamed> volatile __io _A_TCNT0
   \                     _A_TCNT0:
   \   00000000                      DS8 1

   \                                 In  segment ABSOLUTE, at 0x51, root
   \   union <unnamed> volatile __io _A_OCR0
   \                     _A_OCR0:
   \   00000000                      DS8 1

   \                                 In  segment ABSOLUTE, at 0x50, root
   \   union <unnamed> volatile __io _A_ASSR
   \                     _A_ASSR:
   \   00000000                      DS8 1

   \                                 In  segment ABSOLUTE, at 0x4f, root
   \   union <unnamed> volatile __io _A_TCCR1A
   \                     _A_TCCR1A:
   \   00000000                      DS8 1

   \                                 In  segment ABSOLUTE, at 0x4e, root
   \   union <unnamed> volatile __io _A_TCCR1B
   \                     _A_TCCR1B:
   \   00000000                      DS8 1

   \                                 In  segment ABSOLUTE, at 0x4c, root
   \   union <unnamed> volatile __io _A_TCNT1
   \                     _A_TCNT1:
   \   00000000                      DS8 2

   \                                 In  segment ABSOLUTE, at 0x4a, root
   \   union <unnamed> volatile __io _A_OCR1A
   \                     _A_OCR1A:
   \   00000000                      DS8 2

   \                                 In  segment ABSOLUTE, at 0x48, root
   \   union <unnamed> volatile __io _A_OCR1B
   \                     _A_OCR1B:
   \   00000000                      DS8 2

   \                                 In  segment ABSOLUTE, at 0x46, root
   \   union <unnamed> volatile __io _A_ICR1
   \                     _A_ICR1:
   \   00000000                      DS8 2

   \                                 In  segment ABSOLUTE, at 0x45, root
   \   union <unnamed> volatile __io _A_TCCR2
   \                     _A_TCCR2:
   \   00000000                      DS8 1

   \                                 In  segment ABSOLUTE, at 0x44, root
   \   union <unnamed> volatile __io _A_TCNT2
   \                     _A_TCNT2:
   \   00000000                      DS8 1

   \                                 In  segment ABSOLUTE, at 0x43, root
   \   union <unnamed> volatile __io _A_OCR2
   \                     _A_OCR2:
   \   00000000                      DS8 1

   \                                 In  segment ABSOLUTE, at 0x42, root
   \   union <unnamed> volatile __io _A_OCDR
   \                     _A_OCDR:
   \   00000000                      DS8 1

   \                                 In  segment ABSOLUTE, at 0x41, root
   \   union <unnamed> volatile __io _A_WDTCR
   \                     _A_WDTCR:
   \   00000000                      DS8 1

   \                                 In  segment ABSOLUTE, at 0x40, root
   \   union <unnamed> volatile __io _A_SFIOR
   \                     _A_SFIOR:
   \   00000000                      DS8 1

   \                                 In  segment ABSOLUTE, at 0x3e, root
   \   union <unnamed> volatile __io _A_EEAR
   \                     _A_EEAR:
   \   00000000                      DS8 2

   \                                 In  segment ABSOLUTE, at 0x3d, root
   \   union <unnamed> volatile __io _A_EEDR
   \                     _A_EEDR:
   \   00000000                      DS8 1

   \                                 In  segment ABSOLUTE, at 0x3c, root
   \   union <unnamed> volatile __io _A_EECR
   \                     _A_EECR:
   \   00000000                      DS8 1

   \                                 In  segment ABSOLUTE, at 0x3b, root
   \   union <unnamed> volatile __io _A_PORTA
   \                     _A_PORTA:
   \   00000000                      DS8 1

   \                                 In  segment ABSOLUTE, at 0x3a, root
   \   union <unnamed> volatile __io _A_DDRA
   \                     _A_DDRA:
   \   00000000                      DS8 1

   \                                 In  segment ABSOLUTE, at 0x39, root
   \   union <unnamed> volatile __io _A_PINA
   \                     _A_PINA:
   \   00000000                      DS8 1

   \                                 In  segment ABSOLUTE, at 0x38, root
   \   union <unnamed> volatile __io _A_PORTB
   \                     _A_PORTB:
   \   00000000                      DS8 1

   \                                 In  segment ABSOLUTE, at 0x37, root
   \   union <unnamed> volatile __io _A_DDRB
   \                     _A_DDRB:
   \   00000000                      DS8 1

   \                                 In  segment ABSOLUTE, at 0x36, root
   \   union <unnamed> volatile __io _A_PINB
   \                     _A_PINB:
   \   00000000                      DS8 1

   \                                 In  segment ABSOLUTE, at 0x35, root
   \   union <unnamed> volatile __io _A_PORTC
   \                     _A_PORTC:
   \   00000000                      DS8 1

   \                                 In  segment ABSOLUTE, at 0x34, root
   \   union <unnamed> volatile __io _A_DDRC
   \                     _A_DDRC:
   \   00000000                      DS8 1

   \                                 In  segment ABSOLUTE, at 0x33, root
   \   union <unnamed> volatile __io _A_PINC
   \                     _A_PINC:
   \   00000000                      DS8 1

   \                                 In  segment ABSOLUTE, at 0x32, root
   \   union <unnamed> volatile __io _A_PORTD
   \                     _A_PORTD:
   \   00000000                      DS8 1

   \                                 In  segment ABSOLUTE, at 0x31, root
   \   union <unnamed> volatile __io _A_DDRD
   \                     _A_DDRD:
   \   00000000                      DS8 1

   \                                 In  segment ABSOLUTE, at 0x30, root
   \   union <unnamed> volatile __io _A_PIND
   \                     _A_PIND:
   \   00000000                      DS8 1

   \                                 In  segment ABSOLUTE, at 0x2f, root
   \   union <unnamed> volatile __io _A_SPDR
   \                     _A_SPDR:
   \   00000000                      DS8 1

   \                                 In  segment ABSOLUTE, at 0x2e, root
   \   union <unnamed> volatile __io _A_SPSR
   \                     _A_SPSR:
   \   00000000                      DS8 1

   \                                 In  segment ABSOLUTE, at 0x2d, root
   \   union <unnamed> volatile __io _A_SPCR
   \                     _A_SPCR:
   \   00000000                      DS8 1

   \                                 In  segment ABSOLUTE, at 0x2c, root
   \   union <unnamed> volatile __io _A_UDR0
   \                     _A_UDR0:
   \   00000000                      DS8 1

   \                                 In  segment ABSOLUTE, at 0x2b, root
   \   union <unnamed> volatile __io _A_UCSR0A
   \                     _A_UCSR0A:
   \   00000000                      DS8 1

   \                                 In  segment ABSOLUTE, at 0x2a, root
   \   union <unnamed> volatile __io _A_UCSR0B
   \                     _A_UCSR0B:
   \   00000000                      DS8 1

   \                                 In  segment ABSOLUTE, at 0x29, root
   \   union <unnamed> volatile __io _A_UBRR0L
   \                     _A_UBRR0L:
   \   00000000                      DS8 1

   \                                 In  segment ABSOLUTE, at 0x28, root
   \   union <unnamed> volatile __io _A_ACSR
   \                     _A_ACSR:
   \   00000000                      DS8 1

   \                                 In  segment ABSOLUTE, at 0x27, root
   \   union <unnamed> volatile __io _A_ADMUX
   \                     _A_ADMUX:
   \   00000000                      DS8 1

   \                                 In  segment ABSOLUTE, at 0x26, root
   \   union <unnamed> volatile __io _A_ADCSRA
   \                     _A_ADCSRA:
   \   00000000                      DS8 1

   \                                 In  segment ABSOLUTE, at 0x24, root
   \   union <unnamed> volatile __io _A_ADC
   \                     _A_ADC:
   \   00000000                      DS8 2

   \                                 In  segment ABSOLUTE, at 0x23, root
   \   union <unnamed> volatile __io _A_PORTE
   \                     _A_PORTE:
   \   00000000                      DS8 1

   \                                 In  segment ABSOLUTE, at 0x22, root
   \   union <unnamed> volatile __io _A_DDRE
   \                     _A_DDRE:
   \   00000000                      DS8 1

   \                                 In  segment ABSOLUTE, at 0x21, root
   \   union <unnamed> volatile __io _A_PINE
   \                     _A_PINE:
   \   00000000                      DS8 1

   \                                 In  segment ABSOLUTE, at 0x20, root
   \   union <unnamed> volatile __io _A_PINF
   \                     _A_PINF:
   \   00000000                      DS8 1
     10          //#include "Config.h"
     11          #include "Pss21.h"
     12          #include "Crc.h"
     13          
     14          //-----------------------------------------------------------------------------------------------------

   \                                 In  segment CODE, align 2, keep-with-next
     15          CMvsn21Driver::CMvsn21Driver(uint8_t uiType)
   \                     ??CMvsn21Driver:
     16          {
   \   00000000   ....               LDI     R20, LOW(??__vtbl_2)
   \   00000002   ....               LDI     R21, (??__vtbl_2) >> 8
   \   00000004   01F8               MOVW    R31:R30, R17:R16
   \   00000006   8347               STD     Z+7, R20
   \   00000008   8750               STD     Z+8, R21
     17              m_uiType = uiType;
   \   0000000A   8320               ST      Z, R18
     18          }
   \   0000000C   9508               RET
     19          
     20          //-----------------------------------------------------------------------------------------------------

   \                                 In  segment CODE, align 2, keep-with-next
     21          CMvsn21Driver::~CMvsn21Driver()
   \                     `?~CMvsn21Driver`:
     22          {
   \   00000000   2F40               MOV     R20, R16
   \   00000002   2B41               OR      R20, R17
   \   00000004   F021               BREQ    `?~CMvsn21Driver_1`
   \   00000006   FB20               BST     R18, 0
   \   00000008   F416               BRTC    `?~CMvsn21Driver_1`
     23          
     24          }
   \   0000000A   ........           CALL    `??operator delete`
   \                     `?~CMvsn21Driver_1`:
   \   0000000E   9508               RET
     25          
     26          //-----------------------------------------------------------------------------------------------------

   \                                 In  segment CODE, align 2, keep-with-next
     27          void CMvsn21Driver::Allocate(TMemoryAllocationConext &xMemoryAllocationConext)
   \                     ??Allocate:
     28          {
     29              m_uiAddress = xMemoryAllocationConext.uiAddress;
   \   00000000   01F9               MOVW    R31:R30, R19:R18
   \   00000002   8140               LD      R20, Z
   \   00000004   01F8               MOVW    R31:R30, R17:R16
   \   00000006   8741               STD     Z+9, R20
     30              m_puiRxBuffer = xMemoryAllocationConext.puiRxBuffer;
   \   00000008   01F9               MOVW    R31:R30, R19:R18
   \   0000000A   8141               LDD     R20, Z+1
   \   0000000C   8152               LDD     R21, Z+2
   \   0000000E   01F8               MOVW    R31:R30, R17:R16
   \   00000010   8742               STD     Z+10, R20
   \   00000012   8753               STD     Z+11, R21
     31              m_puiTxBuffer = xMemoryAllocationConext.puiTxBuffer;
   \   00000014   01F9               MOVW    R31:R30, R19:R18
   \   00000016   8143               LDD     R20, Z+3
   \   00000018   8154               LDD     R21, Z+4
   \   0000001A   01F8               MOVW    R31:R30, R17:R16
   \   0000001C   8744               STD     Z+12, R20
   \   0000001E   8755               STD     Z+13, R21
     32              m_puiErrorCode = xMemoryAllocationConext.puiErrorCode;
   \   00000020   01F9               MOVW    R31:R30, R19:R18
   \   00000022   8145               LDD     R20, Z+5
   \   00000024   8156               LDD     R21, Z+6
   \   00000026   01F8               MOVW    R31:R30, R17:R16
   \   00000028   8345               STD     Z+5, R20
   \   0000002A   8356               STD     Z+6, R21
     33              // ╧юыґішь ґърчрҐхы№ эр ьхёҐю т ьрёёштх фшёъЁхҐэ√є тєюфют фы  Ґхъґїхую ьюфґы .
     34              m_puiDiscreteInputs =
     35                  &xMemoryAllocationConext.
     36                  puiDiscreteInputs[xMemoryAllocationConext.uiUsedDiscreteInputs];
   \   0000002C   01F9               MOVW    R31:R30, R19:R18
   \   0000002E   8167               LDD     R22, Z+7
   \   00000030   8570               LDD     R23, Z+8
   \   00000032   8541               LDD     R20, Z+9
   \   00000034   E050               LDI     R21, 0
   \   00000036   0F64               ADD     R22, R20
   \   00000038   1F75               ADC     R23, R21
   \   0000003A   01F8               MOVW    R31:R30, R17:R16
   \   0000003C   8766               STD     Z+14, R22
   \   0000003E   8777               STD     Z+15, R23
     37              // ╙тхышішь юсїшщ юс·╕ь т√фхыхээющ ярь Ґш.
     38              xMemoryAllocationConext.
     39              uiUsedDiscreteInputs +=
     40                  MVSN21_DISCRETE_INPUTS_NUMBER;
   \   00000040   01F9               MOVW    R31:R30, R19:R18
   \   00000042   8521               LDD     R18, Z+9
   \   00000044   5E28               SUBI    R18, 232
   \   00000046   8721               STD     Z+9, R18
     41          
     42              m_uiBadAnswerCounter = 0;
   \   00000048   01F8               MOVW    R31:R30, R17:R16
   \   0000004A   8B50               STD     Z+16, R21
     43          }
   \   0000004C   9508               RET
     44          
     45          //-----------------------------------------------------------------------------------------------------

   \                                 In  segment CODE, align 2, keep-with-next
     46          uint8_t CMvsn21Driver::DataExchange(void)
   \                     ??DataExchange:
     47          {
   \   00000000   ........           CALL    ?PROLOGUE4_L09
   \   00000004   01D8               MOVW    R27:R26, R17:R16
     48              m_puiTxBuffer[0] = DATA_EXCHANGE_COMMAND;
   \   00000006   961C               ADIW    R27:R26, 12
   \   00000008   91ED               LD      R30, X+
   \   0000000A   91FC               LD      R31, X
   \   0000000C   971D               SBIW    R27:R26, 13
   \   0000000E   E402               LDI     R16, 66
   \   00000010   8300               ST      Z, R16
     49          
     50              CPss21::ConnectDevice(m_uiAddress);
   \   00000012   01FD               MOVW    R31:R30, R27:R26
   \   00000014   8501               LDD     R16, Z+9
   \   00000016   ........           CALL    ??ConnectDevice
     51              delay_us(500);
   \   0000001A   E60A               LDI     R16, 106
   \   0000001C   E013               LDI     R17, 3
   \   0000001E   5001               SUBI    R16, 1
   \   00000020   4010               SBCI    R17, 0
   \   00000022   F7E9               BRNE    $-4
   \   00000024   C000               RJMP    $+2
   \   00000026   0000               NOP
     52              CSpi::Exchange(m_puiRxBuffer,
     53                             m_puiTxBuffer,
     54                             (PRIAMBLE_LENGTH +
     55                              DATA_EXCHANGE_COMMAND_ANSWER_LENGTH +
     56                              ONE_BYTE_CRC_LENGTH));
   \   00000028   E049               LDI     R20, 9
   \   0000002A   E050               LDI     R21, 0
   \   0000002C   01FD               MOVW    R31:R30, R27:R26
   \   0000002E   8524               LDD     R18, Z+12
   \   00000030   8535               LDD     R19, Z+13
   \   00000032   8502               LDD     R16, Z+10
   \   00000034   8513               LDD     R17, Z+11
   \   00000036   ........           CALL    ??Exchange
     57              CPss21::DisconnectDevice();
   \   0000003A   ........           CALL    ??DisconnectDevice
     58          
     59              // іҐю юҐтхҐшы ьюфґы№?
     60              switch(m_puiRxBuffer[COMMAND_BYTE_OFFSET])
   \   0000003E   01FD               MOVW    R31:R30, R27:R26
   \   00000040   8502               LDD     R16, Z+10
   \   00000042   8513               LDD     R17, Z+11
   \   00000044   01F8               MOVW    R31:R30, R17:R16
   \   00000046   8121               LDD     R18, Z+1
   \   00000048   3422               CPI     R18, 66
   \   0000004A   F599               BRNE    ??DataExchange_1
     61              {
     62              case DATA_READY:
     63          //        // фрээ√х эх яютЁхцфхэ√?
     64          //        //debag//if ((iCrcSummOneByteCompare(&m_puiRxBuffer[DATA_BYTE_OFFSET],
     65          //                                    (DATA_EXCHANGE_COMMAND_ANSWER_LENGTH +
     66          //                                     ONE_BYTE_CRC_LENGTH)) > 0) &&
     67          //                ((m_puiRxBuffer[DATA_BYTE_OFFSET +
     68          //                                DATA_EXCHANGE_COMMAND_ANSWER_LENGTH]) != 0))
     69                  if ((iCrcSummOneByteCompare(&m_puiRxBuffer[DATA_BYTE_OFFSET],
     70                                              DATA_EXCHANGE_COMMAND_ANSWER_LENGTH) > 0))
   \   0000004C   E026               LDI     R18, 6
   \   0000004E   E030               LDI     R19, 0
   \   00000050   5F0E               SUBI    R16, 254
   \   00000052   4F1F               SBCI    R17, 255
   \   00000054   ........           CALL    ??iCrcSummOneByteCompare
   \   00000058   3001               CPI     R16, 1
   \   0000005A   4010               SBCI    R17, 0
   \   0000005C   F154               BRLT    ??DataExchange_1
     71                  {
     72                      m_uiBadAnswerCounter = 0;
   \   0000005E   01FD               MOVW    R31:R30, R27:R26
   \   00000060   E000               LDI     R16, 0
   \   00000062   8B00               STD     Z+16, R16
     73                      // юҐяЁртшь яюыґіхээ√х юҐ ьюфґы  фрээ√х т Ёрсюішщ ьрёёшт яЁшсюЁр.
     74                      uint8_t *puiDestination = m_puiDiscreteInputs;
   \   00000064   8526               LDD     R18, Z+14
   \   00000066   8537               LDD     R19, Z+15
     75                      for (uint8_t i = 0; i < DISCRETE_INPUT_BYTE_QUANTITY; i++)
   \   00000068   E080               LDI     R24, 0
   \   0000006A   E076               LDI     R23, 6
     76                      {
     77                          uint8_t uiData = (m_puiRxBuffer[DATA_BYTE_OFFSET + i]);
   \                     ??DataExchange_2:
   \   0000006C   01FD               MOVW    R31:R30, R27:R26
   \   0000006E   8502               LDD     R16, Z+10
   \   00000070   8513               LDD     R17, Z+11
   \   00000072   E090               LDI     R25, 0
   \   00000074   0F08               ADD     R16, R24
   \   00000076   1F19               ADC     R17, R25
   \   00000078   01F8               MOVW    R31:R30, R17:R16
   \   0000007A   8002               LDD     R0, Z+2
     78          
     79                          for (uint8_t j = 0; j < DISCRETE_INPUT_BITS_IN_BYTE_QUANTITY; j++)
   \   0000007C   E060               LDI     R22, 0
   \   0000007E   E058               LDI     R21, 8
   \   00000080   C002               RJMP    ??DataExchange_3
     80                          {
     81                              // іхҐэ√х сшҐ√ (D0,D2,D4,D6) = 0 - ЁрчюьъэґҐю (OFF), = 1 - чрьъэґҐю (ON)
     82                              // эхіхҐэ√х сшҐ√ (D1,D3,D5,D7) = 0 - фюёҐютхЁэю, = 1 - эхфюёҐютхЁэю
     83                              // сшҐ эхі╕Ґэ√щ?
     84                              if (j & 0x01)
   \                     ??DataExchange_4:
   \   00000082   FB60               BST     R22, 0
   \   00000084   F076               BRTS    ??DataExchange_5
     85                              {
     86                                  //                            // сшҐ фюёҐютхЁхэ? 0 - фюёҐютхЁэю, 1 - эхфюёҐютхЁэю.
     87          //                            *puiDestination2++ = ((ucData & (1 << j)) ? 1 : 0);
     88                              }
     89                              else
     90                              {
     91                                  //ъюэҐръҐ√ чрьъэґҐ√?  0 - ЁрчюьъэґҐю (OFF), 1 - чрьъэґҐю (ON)
     92                                  if ((uiData & (1 << j)))
   \                     ??DataExchange_3:
   \   00000086   E001               LDI     R16, 1
   \   00000088   E010               LDI     R17, 0
   \   0000008A   2F46               MOV     R20, R22
   \   0000008C   ........           CALL    ?S_SHL_L02
   \   00000090   2D10               MOV     R17, R0
   \   00000092   2310               AND     R17, R16
   \   00000094   01F9               MOVW    R31:R30, R19:R18
   \   00000096   F019               BREQ    ??DataExchange_6
     93                                  {
     94                                      *puiDestination++ = 1;
   \   00000098   E001               LDI     R16, 1
   \   0000009A   9301               ST      Z+, R16
   \   0000009C   C001               RJMP    ??DataExchange_7
     95                                  }
     96                                  else
     97                                  {
     98                                      *puiDestination++ = 0;
   \                     ??DataExchange_6:
   \   0000009E   9391               ST      Z+, R25
   \                     ??DataExchange_7:
   \   000000A0   019F               MOVW    R19:R18, R31:R30
     99                                  }
    100                              }
    101                          }
   \                     ??DataExchange_5:
   \   000000A2   9563               INC     R22
   \   000000A4   955A               DEC     R21
   \   000000A6   F769               BRNE    ??DataExchange_4
    102                      }
   \   000000A8   9583               INC     R24
   \   000000AA   957A               DEC     R23
   \   000000AC   F6F9               BRNE    ??DataExchange_2
    103                      return 1;
   \   000000AE   E001               LDI     R16, 1
   \   000000B0   C00C               RJMP    ??DataExchange_8
    104                  }
    105                  break;
    106          
    107              case DATA_NOT_READY:
    108                  break;
    109          
    110              default:
    111                  break;
    112              };
    113          
    114              // ьюфґы№ яЁшчэрэ эхшёяЁртэ√ь?
    115              if (m_uiBadAnswerCounter >= BAD_MODULE_CYCLE_COUNT_DEFAULT)
   \                     ??DataExchange_1:
   \   000000B2   01FD               MOVW    R31:R30, R27:R26
   \   000000B4   8900               LDD     R16, Z+16
   \   000000B6   300A               CPI     R16, 10
   \   000000B8   F028               BRCS    ??DataExchange_9
    116              {
    117                  // ьюфґы№ яЁшчэрэ эхшёяЁртэ√ь.
    118                  *m_puiErrorCode = IMD_ERROR;
   \   000000BA   81A5               LDD     R26, Z+5
   \   000000BC   81B6               LDD     R27, Z+6
   \   000000BE   E001               LDI     R16, 1
   \   000000C0   930C               ST      X, R16
    119                  return 0;
   \   000000C2   C002               RJMP    ??DataExchange_10
    120              }
    121              else
    122              {
    123                  // ґьхэ№Їшь чэріхэшх ёі╕Ґішър - "ъюышіхёҐтю ёхрэёют ёт чш ё ьюфґыхь схч юҐтхҐр".
    124                  m_uiBadAnswerCounter++;
   \                     ??DataExchange_9:
   \   000000C4   9503               INC     R16
   \   000000C6   8B00               STD     Z+16, R16
    125              }
    126              return 0;
   \                     ??DataExchange_10:
   \   000000C8   E000               LDI     R16, 0
   \                     ??DataExchange_8:
   \   000000CA   E0E4               LDI     R30, 4
   \   000000CC   ........           JMP     ?EPILOGUE_B4_L09
    127          }

   \                                 In  segment CODE, align 2, keep-with-next
   \   __version_3 CMvsn21Driver &CMvsn21Driver::new CMvsn21Driver(uint8_t)
   \                     `??new CMvsn21Driver`:
   \   00000000   938A               ST      -Y, R24
   \   00000002   2F80               MOV     R24, R16
   \   00000004   E101               LDI     R16, 17
   \   00000006   E010               LDI     R17, 0
   \   00000008   ........           CALL    `??operator new`
   \   0000000C   2F20               MOV     R18, R16
   \   0000000E   2B21               OR      R18, R17
   \   00000010   F019               BREQ    `??new CMvsn21Driver_1`
   \   00000012   2F28               MOV     R18, R24
   \   00000014   ....               RCALL   ??CMvsn21Driver
   \   00000016   C002               RJMP    `??new CMvsn21Driver_2`
   \                     `??new CMvsn21Driver_1`:
   \   00000018   E000               LDI     R16, 0
   \   0000001A   E010               LDI     R17, 0
   \                     `??new CMvsn21Driver_2`:
   \   0000001C   9189               LD      R24, Y+
   \   0000001E   9508               RET

   Maximum stack usage in bytes:

   CSTACK RSTACK Function
   ------ ------ --------
      0      2   CMvsn21Driver::Allocate(TMemoryAllocationConext &)
      0      2   CMvsn21Driver::CMvsn21Driver(uint8_t)
      4      2   CMvsn21Driver::DataExchange()
        4      2   -> CPss21::ConnectDevice(uint8_t)
        4      2   -> CPss21::DisconnectDevice()
        4      2   -> CSpi::Exchange(uint8_t *, uint8_t *, uint16_t)
        4      2   -> iCrcSummOneByteCompare(unsigned char *, unsigned int)
        4      2 ?S_SHL_L02
      1      2   CMvsn21Driver::new CMvsn21Driver(uint8_t)
        1      2   -> CMvsn21Driver::CMvsn21Driver(uint8_t)
        1      2   -> operator new(unsigned int)
      0      2   CMvsn21Driver::~CMvsn21Driver()
        0      2   -> operator delete(void *)


   Segment part sizes:

   Bytes  Function/Label
   -----  --------------
      78  CMvsn21Driver::Allocate(TMemoryAllocationConext &)
      14  CMvsn21Driver::CMvsn21Driver(uint8_t)
     208  CMvsn21Driver::DataExchange()
      32  CMvsn21Driver::new CMvsn21Driver(uint8_t)
      16  CMvsn21Driver::~CMvsn21Driver()
       1  _A_ACSR
       2  _A_ADC
       1  _A_ADCSRA
       1  _A_ADMUX
       1  _A_ASSR
       1  _A_DDRA
       1  _A_DDRB
       1  _A_DDRC
       1  _A_DDRD
       1  _A_DDRE
       1  _A_DDRF
       1  _A_DDRG
       2  _A_EEAR
       1  _A_EECR
       1  _A_EEDR
       1  _A_EICRA
       1  _A_EICRB
       1  _A_EIFR
       1  _A_EIMSK
       1  _A_ETIFR
       1  _A_ETIMSK
       2  _A_ICR1
       2  _A_ICR3
       1  _A_MCUCR
       1  _A_MCUCSR
       1  _A_OCDR
       1  _A_OCR0
       2  _A_OCR1A
       2  _A_OCR1B
       2  _A_OCR1C
       1  _A_OCR2
       2  _A_OCR3A
       2  _A_OCR3B
       2  _A_OCR3C
       1  _A_OSCCAL
       1  _A_PINA
       1  _A_PINB
       1  _A_PINC
       1  _A_PIND
       1  _A_PINE
       1  _A_PINF
       1  _A_PING
       1  _A_PORTA
       1  _A_PORTB
       1  _A_PORTC
       1  _A_PORTD
       1  _A_PORTE
       1  _A_PORTF
       1  _A_PORTG
       1  _A_RAMPZ
       1  _A_SFIOR
       2  _A_SP
       1  _A_SPCR
       1  _A_SPDR
       1  _A_SPMCSR
       1  _A_SPSR
       1  _A_SREG
       1  _A_TCCR0
       1  _A_TCCR1A
       1  _A_TCCR1B
       1  _A_TCCR1C
       1  _A_TCCR2
       1  _A_TCCR3A
       1  _A_TCCR3B
       1  _A_TCCR3C
       1  _A_TCNT0
       2  _A_TCNT1
       1  _A_TCNT2
       2  _A_TCNT3
       1  _A_TIFR
       1  _A_TIMSK
       1  _A_TWAR
       1  _A_TWBR
       1  _A_TWCR
       1  _A_TWDR
       1  _A_TWSR
       1  _A_UBRR0H
       1  _A_UBRR0L
       1  _A_UBRR1H
       1  _A_UBRR1L
       1  _A_UCSR0A
       1  _A_UCSR0B
       1  _A_UCSR0C
       1  _A_UCSR1A
       1  _A_UCSR1B
       1  _A_UCSR1C
       1  _A_UDR0
       1  _A_UDR1
       1  _A_WDTCR
       1  _A_XDIV
       1  _A_XMCRA
       1  _A_XMCRB
      42  -- Other

 
 105 bytes in segment ABSOLUTE
 348 bytes in segment CODE
  42 bytes in segment NEAR_F
 
 384 bytes of CODE memory (+   6 bytes shared)
   0 bytes of DATA memory (+ 105 bytes shared)

Errors: none
Warnings: none
