###############################################################################
#
# IAR C/C++ Compiler V7.10.6.1378 for Atmel AVR           12/Aug/2022  10:44:25
# Copyright 1996-2018 IAR Systems AB.
#
#    Source file  =  
#        D:\Projects\CautoProjects\PSS48\PSS48\src\NotifyerControl.cpp
#    Command line =  
#        -f C:\Users\ghost\AppData\Local\Temp\EW970C.tmp
#        (--string_literals_in_flash
#        D:\Projects\CautoProjects\PSS48\PSS48\src\NotifyerControl.cpp
#        --cpu=m128a -ms -o D:\Projects\CautoProjects\PSS48\PSS48\Debug\Obj -lC
#        D:\Projects\CautoProjects\PSS48\PSS48\Debug\List -lB
#        D:\Projects\CautoProjects\PSS48\PSS48\Debug\List -y
#        --initializers_in_flash --root_variables --no_cse --no_inline
#        --no_code_motion --no_cross_call --no_clustering --no_tbaa --debug
#        -DENABLE_BIT_DEFINITIONS -e -I
#        D:\Projects\CautoProjects\PSS48\PSS48\include\ -I
#        D:\Projects\CautoProjects\PSS48\PSS48\Modbus\ --eeprom_size 4096
#        --dlib --dlib_config "C:\Program Files (x86)\IAR Systems\Embedded
#        Workbench 8.0\avr\LIB\DLIB\dlAVR-3s-ec_mul-n.h" -On --eec++)
#    Locale       =  Russian_RUS.1251
#    List file    =  
#        D:\Projects\CautoProjects\PSS48\PSS48\Debug\List\NotifyerControl.lst
#    Object file  =  
#        D:\Projects\CautoProjects\PSS48\PSS48\Debug\Obj\NotifyerControl.r90
#
###############################################################################

D:\Projects\CautoProjects\PSS48\PSS48\src\NotifyerControl.cpp
      1          //-----------------------------------------------------------------------------------------------------
      2          //  Sourse      : FileName.cpp
      3          //  Created     : 01.06.2022
      4          //  Author      : Alexandr Volvenkin
      5          //  email       : aav-36@mail.ru
      6          //  GitHub      : https://github.com/AlexandrVolvenkin
      7          //-----------------------------------------------------------------------------------------------------
      8          #include "NotifyerControl.h"

   \                                 In  segment CODE, align 2, keep-with-next
   \   __version_3 void CDfaLite::SetFsmState(uint8_t)
   \                     ??SetFsmState:
   \   00000000   01F8               MOVW    R31:R30, R17:R16
   \   00000002   8320               ST      Z, R18
   \   00000004   9508               RET

   \                                 In  segment CODE, align 2, keep-with-next
   \   __version_3 uint8_t CDfaLite::GetFsmState()
   \                     ??GetFsmState:
   \   00000000   01F8               MOVW    R31:R30, R17:R16
   \   00000002   8100               LD      R16, Z
   \   00000004   9508               RET

   \                                 In  segment CODE, align 2, keep-with-next
   \   __version_3 void CDfa::SetSavedFsmState(uint8_t)
   \                     ??SetSavedFsmState:
   \   00000000   01F8               MOVW    R31:R30, R17:R16
   \   00000002   8323               STD     Z+3, R18
   \   00000004   9508               RET

   \                                 In  segment CODE, align 2, keep-with-next
   \   __version_3 uint8_t CDfa::GetSavedFsmState()
   \                     ??GetSavedFsmState:
   \   00000000   01F8               MOVW    R31:R30, R17:R16
   \   00000002   8103               LDD     R16, Z+3
   \   00000004   9508               RET

   \                                 In  segment CODE, align 2, keep-with-next
   \   __version_3 uint16_t CNotifyerControl::NORMAL_SIGNAL_ON_TIME()
   \                     ??NORMAL_SIGNAL_ON_TIME:
   \   00000000   0198               MOVW    R19:R18, R17:R16
   \   00000002   ED00               LDI     R16, 208
   \   00000004   E017               LDI     R17, 7
   \   00000006   9508               RET

   \                                 In  segment CODE, align 2, keep-with-next
   \   __version_3 uint16_t CNotifyerControl::NORMAL_SIGNAL_OFF_TIME()
   \                     ??NORMAL_SIGNAL_OFF_TIME:
   \   00000000   0198               MOVW    R19:R18, R17:R16
   \   00000002   ED00               LDI     R16, 208
   \   00000004   E017               LDI     R17, 7
   \   00000006   9508               RET

   \                                 In  segment CODE, align 2, keep-with-next
   \   __version_3 uint16_t CNotifyerControl::WARNING_SIGNAL_ON_TIME()
   \                     ??WARNING_SIGNAL_ON_TIME:
   \   00000000   0198               MOVW    R19:R18, R17:R16
   \   00000002   EE08               LDI     R16, 232
   \   00000004   E013               LDI     R17, 3
   \   00000006   9508               RET

   \                                 In  segment CODE, align 2, keep-with-next
   \   __version_3 uint16_t CNotifyerControl::WARNING_SIGNAL_OFF_TIME()
   \                     ??WARNING_SIGNAL_OFF_TIME:
   \   00000000   0198               MOVW    R19:R18, R17:R16
   \   00000002   EE08               LDI     R16, 232
   \   00000004   E013               LDI     R17, 3
   \   00000006   9508               RET

   \                                 In  segment CODE, align 2, keep-with-next
   \   __version_3 uint16_t CNotifyerControl::ALARM_SIGNAL_ON_TIME()
   \                     ??ALARM_SIGNAL_ON_TIME:
   \   00000000   0198               MOVW    R19:R18, R17:R16
   \   00000002   EF04               LDI     R16, 244
   \   00000004   E011               LDI     R17, 1
   \   00000006   9508               RET

   \                                 In  segment CODE, align 2, keep-with-next
   \   __version_3 uint16_t CNotifyerControl::ALARM_SIGNAL_OFF_TIME()
   \                     ??ALARM_SIGNAL_OFF_TIME:
   \   00000000   0198               MOVW    R19:R18, R17:R16
   \   00000002   EF04               LDI     R16, 244
   \   00000004   E011               LDI     R17, 1
   \   00000006   9508               RET

   \                                 In  segment CODE, align 2, keep-with-next
   \   __version_3 uint16_t CNotifyerControl::BEEP_SIGNAL_ON_TIME()
   \                     ??BEEP_SIGNAL_ON_TIME:
   \   00000000   0198               MOVW    R19:R18, R17:R16
   \   00000002   E302               LDI     R16, 50
   \   00000004   E010               LDI     R17, 0
   \   00000006   9508               RET

   \                                 In  segment CODE, align 2, keep-with-next
   \   __version_3 uint16_t CPreventiveAlarmWindowNotifyerControl::NORMAL_SIGNAL_ON_TIME()
   \                     ??NORMAL_SIGNAL_ON_TIME_1:
   \   00000000   0198               MOVW    R19:R18, R17:R16
   \   00000002   ED00               LDI     R16, 208
   \   00000004   E017               LDI     R17, 7
   \   00000006   9508               RET

   \                                 In  segment CODE, align 2, keep-with-next
   \   __version_3 uint16_t CPreventiveAlarmWindowNotifyerControl::NORMAL_SIGNAL_OFF_TIME()
   \                     ??NORMAL_SIGNAL_OFF_TIME_1:
   \   00000000   0198               MOVW    R19:R18, R17:R16
   \   00000002   ED00               LDI     R16, 208
   \   00000004   E017               LDI     R17, 7
   \   00000006   9508               RET

   \                                 In  segment CODE, align 2, keep-with-next
   \   __version_3 uint16_t CPreventiveAlarmWindowNotifyerControl::WARNING_SIGNAL_ON_TIME()
   \                     ??WARNING_SIGNAL_ON_TIME_1:
   \   00000000   0198               MOVW    R19:R18, R17:R16
   \   00000002   EE08               LDI     R16, 232
   \   00000004   E013               LDI     R17, 3
   \   00000006   9508               RET

   \                                 In  segment CODE, align 2, keep-with-next
   \   __version_3 uint16_t CPreventiveAlarmWindowNotifyerControl::WARNING_SIGNAL_OFF_TIME()
   \                     ??WARNING_SIGNAL_OFF_TIME_1:
   \   00000000   0198               MOVW    R19:R18, R17:R16
   \   00000002   EE08               LDI     R16, 232
   \   00000004   E013               LDI     R17, 3
   \   00000006   9508               RET

   \                                 In  segment CODE, align 2, keep-with-next
   \   __version_3 uint16_t CPreventiveAlarmWindowNotifyerControl::ALARM_SIGNAL_ON_TIME()
   \                     ??ALARM_SIGNAL_ON_TIME_1:
   \   00000000   0198               MOVW    R19:R18, R17:R16
   \   00000002   EF04               LDI     R16, 244
   \   00000004   E011               LDI     R17, 1
   \   00000006   9508               RET

   \                                 In  segment CODE, align 2, keep-with-next
   \   __version_3 uint16_t CPreventiveAlarmWindowNotifyerControl::ALARM_SIGNAL_OFF_TIME()
   \                     ??ALARM_SIGNAL_OFF_TIME_1:
   \   00000000   0198               MOVW    R19:R18, R17:R16
   \   00000002   EF04               LDI     R16, 244
   \   00000004   E011               LDI     R17, 1
   \   00000006   9508               RET

   \                                 In  segment CODE, align 2, keep-with-next
   \   __version_3 uint16_t CEmergencyAlarmWindowNotifyerControl::NORMAL_SIGNAL_ON_TIME()
   \                     ??NORMAL_SIGNAL_ON_TIME_2:
   \   00000000   0198               MOVW    R19:R18, R17:R16
   \   00000002   ED00               LDI     R16, 208
   \   00000004   E017               LDI     R17, 7
   \   00000006   9508               RET

   \                                 In  segment CODE, align 2, keep-with-next
   \   __version_3 uint16_t CEmergencyAlarmWindowNotifyerControl::NORMAL_SIGNAL_OFF_TIME()
   \                     ??NORMAL_SIGNAL_OFF_TIME_2:
   \   00000000   0198               MOVW    R19:R18, R17:R16
   \   00000002   ED00               LDI     R16, 208
   \   00000004   E017               LDI     R17, 7
   \   00000006   9508               RET

   \                                 In  segment CODE, align 2, keep-with-next
   \   __version_3 uint16_t CEmergencyAlarmWindowNotifyerControl::WARNING_SIGNAL_ON_TIME()
   \                     ??WARNING_SIGNAL_ON_TIME_2:
   \   00000000   0198               MOVW    R19:R18, R17:R16
   \   00000002   EE08               LDI     R16, 232
   \   00000004   E013               LDI     R17, 3
   \   00000006   9508               RET

   \                                 In  segment CODE, align 2, keep-with-next
   \   __version_3 uint16_t CEmergencyAlarmWindowNotifyerControl::WARNING_SIGNAL_OFF_TIME()
   \                     ??WARNING_SIGNAL_OFF_TIME_2:
   \   00000000   0198               MOVW    R19:R18, R17:R16
   \   00000002   EE08               LDI     R16, 232
   \   00000004   E013               LDI     R17, 3
   \   00000006   9508               RET

   \                                 In  segment CODE, align 2, keep-with-next
   \   __version_3 uint16_t CEmergencyAlarmWindowNotifyerControl::ALARM_SIGNAL_ON_TIME()
   \                     ??ALARM_SIGNAL_ON_TIME_2:
   \   00000000   0198               MOVW    R19:R18, R17:R16
   \   00000002   EF04               LDI     R16, 244
   \   00000004   E011               LDI     R17, 1
   \   00000006   9508               RET

   \                                 In  segment CODE, align 2, keep-with-next
   \   __version_3 uint16_t CEmergencyAlarmWindowNotifyerControl::ALARM_SIGNAL_OFF_TIME()
   \                     ??ALARM_SIGNAL_OFF_TIME_2:
   \   00000000   0198               MOVW    R19:R18, R17:R16
   \   00000002   EF04               LDI     R16, 244
   \   00000004   E011               LDI     R17, 1
   \   00000006   9508               RET
      9          #include "Platform.h"

   \                                 In  segment ABSOLUTE, at 0x9d, root
   \   union <unnamed> volatile __io _A_UCSR1C
   \                     _A_UCSR1C:
   \   00000000                      DS8 1

   \                                 In  segment ABSOLUTE, at 0x9c, root
   \   union <unnamed> volatile __io _A_UDR1
   \                     _A_UDR1:
   \   00000000                      DS8 1

   \                                 In  segment ABSOLUTE, at 0x9b, root
   \   union <unnamed> volatile __io _A_UCSR1A
   \                     _A_UCSR1A:
   \   00000000                      DS8 1

   \                                 In  segment ABSOLUTE, at 0x9a, root
   \   union <unnamed> volatile __io _A_UCSR1B
   \                     _A_UCSR1B:
   \   00000000                      DS8 1

   \                                 In  segment ABSOLUTE, at 0x99, root
   \   union <unnamed> volatile __io _A_UBRR1L
   \                     _A_UBRR1L:
   \   00000000                      DS8 1

   \                                 In  segment ABSOLUTE, at 0x98, root
   \   union <unnamed> volatile __io _A_UBRR1H
   \                     _A_UBRR1H:
   \   00000000                      DS8 1

   \                                 In  segment ABSOLUTE, at 0x95, root
   \   union <unnamed> volatile __io _A_UCSR0C
   \                     _A_UCSR0C:
   \   00000000                      DS8 1

   \                                 In  segment ABSOLUTE, at 0x90, root
   \   union <unnamed> volatile __io _A_UBRR0H
   \                     _A_UBRR0H:
   \   00000000                      DS8 1

   \                                 In  segment ABSOLUTE, at 0x8c, root
   \   union <unnamed> volatile __io _A_TCCR3C
   \                     _A_TCCR3C:
   \   00000000                      DS8 1

   \                                 In  segment ABSOLUTE, at 0x8b, root
   \   union <unnamed> volatile __io _A_TCCR3A
   \                     _A_TCCR3A:
   \   00000000                      DS8 1

   \                                 In  segment ABSOLUTE, at 0x8a, root
   \   union <unnamed> volatile __io _A_TCCR3B
   \                     _A_TCCR3B:
   \   00000000                      DS8 1

   \                                 In  segment ABSOLUTE, at 0x88, root
   \   union <unnamed> volatile __io _A_TCNT3
   \                     _A_TCNT3:
   \   00000000                      DS8 2

   \                                 In  segment ABSOLUTE, at 0x86, root
   \   union <unnamed> volatile __io _A_OCR3A
   \                     _A_OCR3A:
   \   00000000                      DS8 2

   \                                 In  segment ABSOLUTE, at 0x84, root
   \   union <unnamed> volatile __io _A_OCR3B
   \                     _A_OCR3B:
   \   00000000                      DS8 2

   \                                 In  segment ABSOLUTE, at 0x82, root
   \   union <unnamed> volatile __io _A_OCR3C
   \                     _A_OCR3C:
   \   00000000                      DS8 2

   \                                 In  segment ABSOLUTE, at 0x80, root
   \   union <unnamed> volatile __io _A_ICR3
   \                     _A_ICR3:
   \   00000000                      DS8 2

   \                                 In  segment ABSOLUTE, at 0x7d, root
   \   union <unnamed> volatile __io _A_ETIMSK
   \                     _A_ETIMSK:
   \   00000000                      DS8 1

   \                                 In  segment ABSOLUTE, at 0x7c, root
   \   union <unnamed> volatile __io _A_ETIFR
   \                     _A_ETIFR:
   \   00000000                      DS8 1

   \                                 In  segment ABSOLUTE, at 0x7a, root
   \   union <unnamed> volatile __io _A_TCCR1C
   \                     _A_TCCR1C:
   \   00000000                      DS8 1

   \                                 In  segment ABSOLUTE, at 0x78, root
   \   union <unnamed> volatile __io _A_OCR1C
   \                     _A_OCR1C:
   \   00000000                      DS8 2

   \                                 In  segment ABSOLUTE, at 0x74, root
   \   union <unnamed> volatile __io _A_TWCR
   \                     _A_TWCR:
   \   00000000                      DS8 1

   \                                 In  segment ABSOLUTE, at 0x73, root
   \   union <unnamed> volatile __io _A_TWDR
   \                     _A_TWDR:
   \   00000000                      DS8 1

   \                                 In  segment ABSOLUTE, at 0x72, root
   \   union <unnamed> volatile __io _A_TWAR
   \                     _A_TWAR:
   \   00000000                      DS8 1

   \                                 In  segment ABSOLUTE, at 0x71, root
   \   union <unnamed> volatile __io _A_TWSR
   \                     _A_TWSR:
   \   00000000                      DS8 1

   \                                 In  segment ABSOLUTE, at 0x70, root
   \   union <unnamed> volatile __io _A_TWBR
   \                     _A_TWBR:
   \   00000000                      DS8 1

   \                                 In  segment ABSOLUTE, at 0x6f, root
   \   union <unnamed> volatile __io _A_OSCCAL
   \                     _A_OSCCAL:
   \   00000000                      DS8 1

   \                                 In  segment ABSOLUTE, at 0x6d, root
   \   union <unnamed> volatile __io _A_XMCRA
   \                     _A_XMCRA:
   \   00000000                      DS8 1

   \                                 In  segment ABSOLUTE, at 0x6c, root
   \   union <unnamed> volatile __io _A_XMCRB
   \                     _A_XMCRB:
   \   00000000                      DS8 1

   \                                 In  segment ABSOLUTE, at 0x6a, root
   \   union <unnamed> volatile __io _A_EICRA
   \                     _A_EICRA:
   \   00000000                      DS8 1

   \                                 In  segment ABSOLUTE, at 0x68, root
   \   union <unnamed> volatile __io _A_SPMCSR
   \                     _A_SPMCSR:
   \   00000000                      DS8 1

   \                                 In  segment ABSOLUTE, at 0x65, root
   \   union <unnamed> volatile __io _A_PORTG
   \                     _A_PORTG:
   \   00000000                      DS8 1

   \                                 In  segment ABSOLUTE, at 0x64, root
   \   union <unnamed> volatile __io _A_DDRG
   \                     _A_DDRG:
   \   00000000                      DS8 1

   \                                 In  segment ABSOLUTE, at 0x63, root
   \   union <unnamed> volatile __io _A_PING
   \                     _A_PING:
   \   00000000                      DS8 1

   \                                 In  segment ABSOLUTE, at 0x62, root
   \   union <unnamed> volatile __io _A_PORTF
   \                     _A_PORTF:
   \   00000000                      DS8 1

   \                                 In  segment ABSOLUTE, at 0x61, root
   \   union <unnamed> volatile __io _A_DDRF
   \                     _A_DDRF:
   \   00000000                      DS8 1

   \                                 In  segment ABSOLUTE, at 0x5f, root
   \   union <unnamed> volatile __io _A_SREG
   \                     _A_SREG:
   \   00000000                      DS8 1

   \                                 In  segment ABSOLUTE, at 0x5d, root
   \   union <unnamed> volatile __io _A_SP
   \                     _A_SP:
   \   00000000                      DS8 2

   \                                 In  segment ABSOLUTE, at 0x5c, root
   \   union <unnamed> volatile __io _A_XDIV
   \                     _A_XDIV:
   \   00000000                      DS8 1

   \                                 In  segment ABSOLUTE, at 0x5b, root
   \   union <unnamed> volatile __io _A_RAMPZ
   \                     _A_RAMPZ:
   \   00000000                      DS8 1

   \                                 In  segment ABSOLUTE, at 0x5a, root
   \   union <unnamed> volatile __io _A_EICRB
   \                     _A_EICRB:
   \   00000000                      DS8 1

   \                                 In  segment ABSOLUTE, at 0x59, root
   \   union <unnamed> volatile __io _A_EIMSK
   \                     _A_EIMSK:
   \   00000000                      DS8 1

   \                                 In  segment ABSOLUTE, at 0x58, root
   \   union <unnamed> volatile __io _A_EIFR
   \                     _A_EIFR:
   \   00000000                      DS8 1

   \                                 In  segment ABSOLUTE, at 0x57, root
   \   union <unnamed> volatile __io _A_TIMSK
   \                     _A_TIMSK:
   \   00000000                      DS8 1

   \                                 In  segment ABSOLUTE, at 0x56, root
   \   union <unnamed> volatile __io _A_TIFR
   \                     _A_TIFR:
   \   00000000                      DS8 1

   \                                 In  segment ABSOLUTE, at 0x55, root
   \   union <unnamed> volatile __io _A_MCUCR
   \                     _A_MCUCR:
   \   00000000                      DS8 1

   \                                 In  segment ABSOLUTE, at 0x54, root
   \   union <unnamed> volatile __io _A_MCUCSR
   \                     _A_MCUCSR:
   \   00000000                      DS8 1

   \                                 In  segment ABSOLUTE, at 0x53, root
   \   union <unnamed> volatile __io _A_TCCR0
   \                     _A_TCCR0:
   \   00000000                      DS8 1

   \                                 In  segment ABSOLUTE, at 0x52, root
   \   union <unnamed> volatile __io _A_TCNT0
   \                     _A_TCNT0:
   \   00000000                      DS8 1

   \                                 In  segment ABSOLUTE, at 0x51, root
   \   union <unnamed> volatile __io _A_OCR0
   \                     _A_OCR0:
   \   00000000                      DS8 1

   \                                 In  segment ABSOLUTE, at 0x50, root
   \   union <unnamed> volatile __io _A_ASSR
   \                     _A_ASSR:
   \   00000000                      DS8 1

   \                                 In  segment ABSOLUTE, at 0x4f, root
   \   union <unnamed> volatile __io _A_TCCR1A
   \                     _A_TCCR1A:
   \   00000000                      DS8 1

   \                                 In  segment ABSOLUTE, at 0x4e, root
   \   union <unnamed> volatile __io _A_TCCR1B
   \                     _A_TCCR1B:
   \   00000000                      DS8 1

   \                                 In  segment ABSOLUTE, at 0x4c, root
   \   union <unnamed> volatile __io _A_TCNT1
   \                     _A_TCNT1:
   \   00000000                      DS8 2

   \                                 In  segment ABSOLUTE, at 0x4a, root
   \   union <unnamed> volatile __io _A_OCR1A
   \                     _A_OCR1A:
   \   00000000                      DS8 2

   \                                 In  segment ABSOLUTE, at 0x48, root
   \   union <unnamed> volatile __io _A_OCR1B
   \                     _A_OCR1B:
   \   00000000                      DS8 2

   \                                 In  segment ABSOLUTE, at 0x46, root
   \   union <unnamed> volatile __io _A_ICR1
   \                     _A_ICR1:
   \   00000000                      DS8 2

   \                                 In  segment ABSOLUTE, at 0x45, root
   \   union <unnamed> volatile __io _A_TCCR2
   \                     _A_TCCR2:
   \   00000000                      DS8 1

   \                                 In  segment ABSOLUTE, at 0x44, root
   \   union <unnamed> volatile __io _A_TCNT2
   \                     _A_TCNT2:
   \   00000000                      DS8 1

   \                                 In  segment ABSOLUTE, at 0x43, root
   \   union <unnamed> volatile __io _A_OCR2
   \                     _A_OCR2:
   \   00000000                      DS8 1

   \                                 In  segment ABSOLUTE, at 0x42, root
   \   union <unnamed> volatile __io _A_OCDR
   \                     _A_OCDR:
   \   00000000                      DS8 1

   \                                 In  segment ABSOLUTE, at 0x41, root
   \   union <unnamed> volatile __io _A_WDTCR
   \                     _A_WDTCR:
   \   00000000                      DS8 1

   \                                 In  segment ABSOLUTE, at 0x40, root
   \   union <unnamed> volatile __io _A_SFIOR
   \                     _A_SFIOR:
   \   00000000                      DS8 1

   \                                 In  segment ABSOLUTE, at 0x3e, root
   \   union <unnamed> volatile __io _A_EEAR
   \                     _A_EEAR:
   \   00000000                      DS8 2

   \                                 In  segment ABSOLUTE, at 0x3d, root
   \   union <unnamed> volatile __io _A_EEDR
   \                     _A_EEDR:
   \   00000000                      DS8 1

   \                                 In  segment ABSOLUTE, at 0x3c, root
   \   union <unnamed> volatile __io _A_EECR
   \                     _A_EECR:
   \   00000000                      DS8 1

   \                                 In  segment ABSOLUTE, at 0x3b, root
   \   union <unnamed> volatile __io _A_PORTA
   \                     _A_PORTA:
   \   00000000                      DS8 1

   \                                 In  segment ABSOLUTE, at 0x3a, root
   \   union <unnamed> volatile __io _A_DDRA
   \                     _A_DDRA:
   \   00000000                      DS8 1

   \                                 In  segment ABSOLUTE, at 0x39, root
   \   union <unnamed> volatile __io _A_PINA
   \                     _A_PINA:
   \   00000000                      DS8 1

   \                                 In  segment ABSOLUTE, at 0x38, root
   \   union <unnamed> volatile __io _A_PORTB
   \                     _A_PORTB:
   \   00000000                      DS8 1

   \                                 In  segment ABSOLUTE, at 0x37, root
   \   union <unnamed> volatile __io _A_DDRB
   \                     _A_DDRB:
   \   00000000                      DS8 1

   \                                 In  segment ABSOLUTE, at 0x36, root
   \   union <unnamed> volatile __io _A_PINB
   \                     _A_PINB:
   \   00000000                      DS8 1

   \                                 In  segment ABSOLUTE, at 0x35, root
   \   union <unnamed> volatile __io _A_PORTC
   \                     _A_PORTC:
   \   00000000                      DS8 1

   \                                 In  segment ABSOLUTE, at 0x34, root
   \   union <unnamed> volatile __io _A_DDRC
   \                     _A_DDRC:
   \   00000000                      DS8 1

   \                                 In  segment ABSOLUTE, at 0x33, root
   \   union <unnamed> volatile __io _A_PINC
   \                     _A_PINC:
   \   00000000                      DS8 1

   \                                 In  segment ABSOLUTE, at 0x32, root
   \   union <unnamed> volatile __io _A_PORTD
   \                     _A_PORTD:
   \   00000000                      DS8 1

   \                                 In  segment ABSOLUTE, at 0x31, root
   \   union <unnamed> volatile __io _A_DDRD
   \                     _A_DDRD:
   \   00000000                      DS8 1

   \                                 In  segment ABSOLUTE, at 0x30, root
   \   union <unnamed> volatile __io _A_PIND
   \                     _A_PIND:
   \   00000000                      DS8 1

   \                                 In  segment ABSOLUTE, at 0x2f, root
   \   union <unnamed> volatile __io _A_SPDR
   \                     _A_SPDR:
   \   00000000                      DS8 1

   \                                 In  segment ABSOLUTE, at 0x2e, root
   \   union <unnamed> volatile __io _A_SPSR
   \                     _A_SPSR:
   \   00000000                      DS8 1

   \                                 In  segment ABSOLUTE, at 0x2d, root
   \   union <unnamed> volatile __io _A_SPCR
   \                     _A_SPCR:
   \   00000000                      DS8 1

   \                                 In  segment ABSOLUTE, at 0x2c, root
   \   union <unnamed> volatile __io _A_UDR0
   \                     _A_UDR0:
   \   00000000                      DS8 1

   \                                 In  segment ABSOLUTE, at 0x2b, root
   \   union <unnamed> volatile __io _A_UCSR0A
   \                     _A_UCSR0A:
   \   00000000                      DS8 1

   \                                 In  segment ABSOLUTE, at 0x2a, root
   \   union <unnamed> volatile __io _A_UCSR0B
   \                     _A_UCSR0B:
   \   00000000                      DS8 1

   \                                 In  segment ABSOLUTE, at 0x29, root
   \   union <unnamed> volatile __io _A_UBRR0L
   \                     _A_UBRR0L:
   \   00000000                      DS8 1

   \                                 In  segment ABSOLUTE, at 0x28, root
   \   union <unnamed> volatile __io _A_ACSR
   \                     _A_ACSR:
   \   00000000                      DS8 1

   \                                 In  segment ABSOLUTE, at 0x27, root
   \   union <unnamed> volatile __io _A_ADMUX
   \                     _A_ADMUX:
   \   00000000                      DS8 1

   \                                 In  segment ABSOLUTE, at 0x26, root
   \   union <unnamed> volatile __io _A_ADCSRA
   \                     _A_ADCSRA:
   \   00000000                      DS8 1

   \                                 In  segment ABSOLUTE, at 0x24, root
   \   union <unnamed> volatile __io _A_ADC
   \                     _A_ADC:
   \   00000000                      DS8 2

   \                                 In  segment ABSOLUTE, at 0x23, root
   \   union <unnamed> volatile __io _A_PORTE
   \                     _A_PORTE:
   \   00000000                      DS8 1

   \                                 In  segment ABSOLUTE, at 0x22, root
   \   union <unnamed> volatile __io _A_DDRE
   \                     _A_DDRE:
   \   00000000                      DS8 1

   \                                 In  segment ABSOLUTE, at 0x21, root
   \   union <unnamed> volatile __io _A_PINE
   \                     _A_PINE:
   \   00000000                      DS8 1

   \                                 In  segment ABSOLUTE, at 0x20, root
   \   union <unnamed> volatile __io _A_PINF
   \                     _A_PINF:
   \   00000000                      DS8 1

      static __flash TDataBase CFlash::xMainDataBase;
                               ^
"D:\Projects\CautoProjects\PSS48\PSS48\include\Platform.h",366  Warning[Pe427]: 
          qualified name is not allowed in member declaration

      static __flash TDataBaseBlockPositionData CFlash::axDataBaseBlocksPositionData[];
                                                ^
"D:\Projects\CautoProjects\PSS48\PSS48\include\Platform.h",367  Warning[Pe427]: 
          qualified name is not allowed in member declaration

   \                                 In  segment CODE, align 2, keep-with-next
   \   __version_3 void CPlatform::StatusLedOn()
   \                     ??StatusLedOn:
   \   00000000   91000062           LDS     R16, 98
   \   00000004   770F               ANDI    R16, 0x7F
   \   00000006   93000062           STS     98, R16
   \   0000000A   9508               RET
   \   0000000C                      REQUIRE _A_PORTF

   \                                 In  segment CODE, align 2, keep-with-next
   \   __version_3 void CPlatform::StatusLedOff()
   \                     ??StatusLedOff:
   \   00000000   91000062           LDS     R16, 98
   \   00000004   6800               ORI     R16, 0x80
   \   00000006   93000062           STS     98, R16
   \   0000000A   9508               RET
   \   0000000C                      REQUIRE _A_PORTF
     10          #include "Pss21.h"
     11          #include "Buzzer.h"
     12          
     13          //-----------------------------------------------------------------------------------------------------

   \                                 In  segment CODE, align 2, keep-with-next
     14          CNotifyerControl::CNotifyerControl()
   \                     ??CNotifyerControl:
   \   00000000   93BA               ST      -Y, R27
   \   00000002   93AA               ST      -Y, R26
   \   00000004   01D8               MOVW    R27:R26, R17:R16
     15          {
   \   00000006   018D               MOVW    R17:R16, R27:R26
   \   00000008   ........           CALL    ??CDfa
   \   0000000C   ....               LDI     R16, LOW(??__vtbl)
   \   0000000E   ....               LDI     R17, (??__vtbl) >> 8
   \   00000010   01FD               MOVW    R31:R30, R27:R26
   \   00000012   8301               STD     Z+1, R16
   \   00000014   8312               STD     Z+2, R17
   \   00000016   018D               MOVW    R17:R16, R27:R26
   \   00000018   5F0A               SUBI    R16, 250
   \   0000001A   4F1F               SBCI    R17, 255
   \   0000001C   ........           CALL    ??CTimer
     16              SetFsmState(STOP);
   \   00000020   E225               LDI     R18, 37
   \   00000022   018D               MOVW    R17:R16, R27:R26
   \   00000024   ........           CALL    ??SetFsmState
     17              SetSavedFsmState(STOP);
   \   00000028   E225               LDI     R18, 37
   \   0000002A   018D               MOVW    R17:R16, R27:R26
   \   0000002C   ........           CALL    ??SetSavedFsmState
     18          }
   \   00000030   018D               MOVW    R17:R16, R27:R26
   \   00000032   91A9               LD      R26, Y+
   \   00000034   91B9               LD      R27, Y+
   \   00000036   9508               RET
     19          

   \                                 In  segment CODE, align 2, keep-with-next
     20          CNotifyerControl::~CNotifyerControl()
   \                     `?~CNotifyerControl`:
     21          {
   \   00000000   ........           CALL    ?PROLOGUE4_L09
   \   00000004   01C8               MOVW    R25:R24, R17:R16
   \   00000006   01D9               MOVW    R27:R26, R19:R18
   \   00000008   2F08               MOV     R16, R24
   \   0000000A   2B09               OR      R16, R25
   \   0000000C   F051               BREQ    `?~CNotifyerControl_1`
     22          
     23          }
   \   0000000E   E020               LDI     R18, 0
   \   00000010   E030               LDI     R19, 0
   \   00000012   018C               MOVW    R17:R16, R25:R24
   \   00000014   ........           CALL    `?~CDfa`
   \   00000018   FBA0               BST     R26, 0
   \   0000001A   F41E               BRTC    `?~CNotifyerControl_1`
   \   0000001C   018C               MOVW    R17:R16, R25:R24
   \   0000001E   ........           CALL    `??operator delete`
   \                     `?~CNotifyerControl_1`:
   \   00000022   E0E4               LDI     R30, 4
   \   00000024   ........           JMP     ?EPILOGUE_B4_L09
     24          
     25          ////-----------------------------------------------------------------------------------------------------
     26          //void CNotifyerControl::Init(CAlarmWindow* pxAlarmWindowControl)
     27          //{
     28          ////    m_pxAlarmWindowControl = pxAlarmWindowControl;
     29          //    SetFsmState(CNotifyerControl::STOP);
     30          //}
     31          
     32          ////-----------------------------------------------------------------------------------------------------
     33          //void CNotifyerControl::AlarmSet(uint8_t uiAlarmType)
     34          //{
     35          ////    SetSavedFsmState(GetFsmState());
     36          ////    m_uiAlarmType = uiAlarmType;
     37          ////    switch (m_uiAlarmType)
     38          //    switch (uiAlarmType)
     39          //    {
     40          //    case NORMAL:
     41          //        SetFsmState(STOP);
     42          //        break;
     43          //
     44          //    case NORMAL:
     45          //        SetFsmState(NORMAL_SIGNAL_START);
     46          //        break;
     47          //
     48          //    case INDICATION:
     49          //        SetFsmState(INDICATION_SIGNAL_START);
     50          //        break;
     51          //
     52          //    case PREVENTIVE:
     53          //        SetFsmState(WARNING_SIGNAL_START);
     54          //        break;
     55          //
     56          //    case EMERGENCY:
     57          //        SetFsmState(ALARM_SIGNAL_START);
     58          //        break;
     59          //
     60          //    case IND_PREVENTIVE:
     61          //        break;
     62          //
     63          //    case IND_EMERGENCY:
     64          //        break;
     65          //
     66          //    default:
     67          //        break;
     68          //    }
     69          //}
     70          
     71          //class Base
     72          //{
     73          //    const int k;
     74          //public:
     75          //    Base(const int i) :
     76          //        k(i)
     77          //    {
     78          //    }
     79          //    virtual void print() const
     80          //    {
     81          //        std::cout << k << std::endl;
     82          //    }
     83          //};
     84          //class D1 : public Base
     85          //{
     86          //public:
     87          //    D1(const int j) :
     88          //        Base(j)
     89          //    {
     90          //    }
     91          //};
     92          
     93          //-----------------------------------------------------------------------------------------------------

   \                                 In  segment CODE, align 2, keep-with-next
     94          void CNotifyerControl::Fsm(void)
   \                     ??Fsm:
     95          {
   \   00000000   93BA               ST      -Y, R27
   \   00000002   93AA               ST      -Y, R26
   \   00000004   01D8               MOVW    R27:R26, R17:R16
     96              switch (GetFsmState())
   \   00000006   018D               MOVW    R17:R16, R27:R26
   \   00000008   ........           CALL    ??GetFsmState
   \   0000000C   ....               LDI     R30, LOW(`?<Jumptable for Fsm>_0`)
   \   0000000E   ....               LDI     R31, (`?<Jumptable for Fsm>_0`) >> 16
   \   00000010   BFFB               OUT     0x3B, R31
   \   00000012   ....               LDI     R31, HIGH(`?<Jumptable for Fsm>_0`)
   \   00000014   ........           JMP     ?CV_SWITCH_L06
     97              {
     98              case IDDLE:
     99                  break;
    100          
    101              case NORMAL_SIGNAL_START:
    102                  m_xTimer.Set(NORMAL_SIGNAL_ON_TIME());
   \                     ??Fsm_1:
   \   00000018   018D               MOVW    R17:R16, R27:R26
   \   0000001A   9611               ADIW    R27:R26, 1
   \   0000001C   91ED               LD      R30, X+
   \   0000001E   91FC               LD      R31, X
   \   00000020   9712               SBIW    R27:R26, 2
   \   00000022   9670               ADIW    R31:R30, 16
   \   00000024   9125               LPM     R18, Z+
   \   00000026   9134               LPM     R19, Z
   \   00000028   9771               SBIW    R31:R30, 17
   \   0000002A   01F9               MOVW    R31:R30, R19:R18
   \   0000002C   9509               ICALL
   \   0000002E   0198               MOVW    R19:R18, R17:R16
   \   00000030   018D               MOVW    R17:R16, R27:R26
   \   00000032   5F0A               SUBI    R16, 250
   \   00000034   4F1F               SBCI    R17, 255
   \   00000036   ........           CALL    ??Set
    103                  NotifyerNormalOn();
   \   0000003A   018D               MOVW    R17:R16, R27:R26
   \   0000003C   9611               ADIW    R27:R26, 1
   \   0000003E   91ED               LD      R30, X+
   \   00000040   91FC               LD      R31, X
   \   00000042   9712               SBIW    R27:R26, 2
   \   00000044   9634               ADIW    R31:R30, 4
   \   00000046   9125               LPM     R18, Z+
   \   00000048   9134               LPM     R19, Z
   \   0000004A   9735               SBIW    R31:R30, 5
   \   0000004C   01F9               MOVW    R31:R30, R19:R18
   \   0000004E   9509               ICALL
    104                  SetFsmState(NORMAL_SIGNAL_ON);
   \   00000050   E129               LDI     R18, 25
   \   00000052   018D               MOVW    R17:R16, R27:R26
   \   00000054   ........           CALL    ??SetFsmState
    105                  break;
   \   00000058   C24D               RJMP    ??Fsm_2
    106          
    107              case NORMAL_SIGNAL_ON:
    108                  if (m_xTimer.IsOverflow())
   \                     ??Fsm_3:
   \   0000005A   018D               MOVW    R17:R16, R27:R26
   \   0000005C   5F0A               SUBI    R16, 250
   \   0000005E   4F1F               SBCI    R17, 255
   \   00000060   ........           CALL    ??IsOverflow
   \   00000064   2300               TST     R16
   \   00000066   F101               BREQ    ??Fsm_4
    109                  {
    110                      m_xTimer.Set(NORMAL_SIGNAL_OFF_TIME());
   \   00000068   018D               MOVW    R17:R16, R27:R26
   \   0000006A   9611               ADIW    R27:R26, 1
   \   0000006C   91ED               LD      R30, X+
   \   0000006E   91FC               LD      R31, X
   \   00000070   9712               SBIW    R27:R26, 2
   \   00000072   9672               ADIW    R31:R30, 18
   \   00000074   9125               LPM     R18, Z+
   \   00000076   9134               LPM     R19, Z
   \   00000078   9773               SBIW    R31:R30, 19
   \   0000007A   01F9               MOVW    R31:R30, R19:R18
   \   0000007C   9509               ICALL
   \   0000007E   0198               MOVW    R19:R18, R17:R16
   \   00000080   018D               MOVW    R17:R16, R27:R26
   \   00000082   5F0A               SUBI    R16, 250
   \   00000084   4F1F               SBCI    R17, 255
   \   00000086   ........           CALL    ??Set
    111                      NotifyerOff();
   \   0000008A   018D               MOVW    R17:R16, R27:R26
   \   0000008C   9611               ADIW    R27:R26, 1
   \   0000008E   91ED               LD      R30, X+
   \   00000090   91FC               LD      R31, X
   \   00000092   9712               SBIW    R27:R26, 2
   \   00000094   963C               ADIW    R31:R30, 12
   \   00000096   9125               LPM     R18, Z+
   \   00000098   9134               LPM     R19, Z
   \   0000009A   973D               SBIW    R31:R30, 13
   \   0000009C   01F9               MOVW    R31:R30, R19:R18
   \   0000009E   9509               ICALL
    112                      SetFsmState(NORMAL_SIGNAL_OFF);
   \   000000A0   E12A               LDI     R18, 26
   \   000000A2   018D               MOVW    R17:R16, R27:R26
   \   000000A4   ........           CALL    ??SetFsmState
    113                  }
    114                  break;
   \                     ??Fsm_4:
   \   000000A8   C225               RJMP    ??Fsm_2
    115          
    116              case NORMAL_SIGNAL_OFF:
    117                  if (m_xTimer.IsOverflow())
   \                     ??Fsm_5:
   \   000000AA   018D               MOVW    R17:R16, R27:R26
   \   000000AC   5F0A               SUBI    R16, 250
   \   000000AE   4F1F               SBCI    R17, 255
   \   000000B0   ........           CALL    ??IsOverflow
   \   000000B4   2300               TST     R16
   \   000000B6   F101               BREQ    ??Fsm_6
    118                  {
    119                      m_xTimer.Set(NORMAL_SIGNAL_ON_TIME());
   \   000000B8   018D               MOVW    R17:R16, R27:R26
   \   000000BA   9611               ADIW    R27:R26, 1
   \   000000BC   91ED               LD      R30, X+
   \   000000BE   91FC               LD      R31, X
   \   000000C0   9712               SBIW    R27:R26, 2
   \   000000C2   9670               ADIW    R31:R30, 16
   \   000000C4   9125               LPM     R18, Z+
   \   000000C6   9134               LPM     R19, Z
   \   000000C8   9771               SBIW    R31:R30, 17
   \   000000CA   01F9               MOVW    R31:R30, R19:R18
   \   000000CC   9509               ICALL
   \   000000CE   0198               MOVW    R19:R18, R17:R16
   \   000000D0   018D               MOVW    R17:R16, R27:R26
   \   000000D2   5F0A               SUBI    R16, 250
   \   000000D4   4F1F               SBCI    R17, 255
   \   000000D6   ........           CALL    ??Set
    120                      NotifyerNormalOn();
   \   000000DA   018D               MOVW    R17:R16, R27:R26
   \   000000DC   9611               ADIW    R27:R26, 1
   \   000000DE   91ED               LD      R30, X+
   \   000000E0   91FC               LD      R31, X
   \   000000E2   9712               SBIW    R27:R26, 2
   \   000000E4   9634               ADIW    R31:R30, 4
   \   000000E6   9125               LPM     R18, Z+
   \   000000E8   9134               LPM     R19, Z
   \   000000EA   9735               SBIW    R31:R30, 5
   \   000000EC   01F9               MOVW    R31:R30, R19:R18
   \   000000EE   9509               ICALL
    121                      SetFsmState(NORMAL_SIGNAL_ON);
   \   000000F0   E129               LDI     R18, 25
   \   000000F2   018D               MOVW    R17:R16, R27:R26
   \   000000F4   ........           CALL    ??SetFsmState
    122                  }
    123                  break;
   \                     ??Fsm_6:
   \   000000F8   C1FD               RJMP    ??Fsm_2
    124          
    125              case INDICATION_SIGNAL_START:
    126          //        m_xTimer.Set(NORMAL_SIGNAL_ON_TIME());
    127                  NotifyerIndicationOn();
   \                     ??Fsm_7:
   \   000000FA   018D               MOVW    R17:R16, R27:R26
   \   000000FC   9611               ADIW    R27:R26, 1
   \   000000FE   91ED               LD      R30, X+
   \   00000100   91FC               LD      R31, X
   \   00000102   9712               SBIW    R27:R26, 2
   \   00000104   9636               ADIW    R31:R30, 6
   \   00000106   9125               LPM     R18, Z+
   \   00000108   9134               LPM     R19, Z
   \   0000010A   9737               SBIW    R31:R30, 7
   \   0000010C   01F9               MOVW    R31:R30, R19:R18
   \   0000010E   9509               ICALL
    128                  SetFsmState(INDICATION_SIGNAL_ON);
   \   00000110   E022               LDI     R18, 2
   \   00000112   018D               MOVW    R17:R16, R27:R26
   \   00000114   ........           CALL    ??SetFsmState
    129                  break;
   \   00000118   C1ED               RJMP    ??Fsm_2
    130          
    131          //    case INDICATION_SIGNAL_ON:
    132          ////        if (m_xTimer.IsOverflow())
    133          ////        {
    134          ////            m_xTimer.Set(NORMAL_SIGNAL_OFF_TIME());
    135          //////            NotifyerOff();
    136          ////            SetFsmState(INDICATION_SIGNAL_OFF);
    137          ////        }
    138          //        break;
    139          //
    140          //    case INDICATION_SIGNAL_OFF:
    141          ////        if (m_xTimer.IsOverflow())
    142          ////        {
    143          ////            m_xTimer.Set(NORMAL_SIGNAL_ON_TIME());
    144          ////            NotifyerIndicationOn();
    145          ////            SetFsmState(INDICATION_SIGNAL_ON);
    146          ////        }
    147          //        break;
    148          
    149              case WARNING_SIGNAL_START:
    150                  m_xTimer.Set(WARNING_SIGNAL_ON_TIME());
   \                     ??Fsm_8:
   \   0000011A   018D               MOVW    R17:R16, R27:R26
   \   0000011C   9611               ADIW    R27:R26, 1
   \   0000011E   91ED               LD      R30, X+
   \   00000120   91FC               LD      R31, X
   \   00000122   9712               SBIW    R27:R26, 2
   \   00000124   9674               ADIW    R31:R30, 20
   \   00000126   9125               LPM     R18, Z+
   \   00000128   9134               LPM     R19, Z
   \   0000012A   9775               SBIW    R31:R30, 21
   \   0000012C   01F9               MOVW    R31:R30, R19:R18
   \   0000012E   9509               ICALL
   \   00000130   0198               MOVW    R19:R18, R17:R16
   \   00000132   018D               MOVW    R17:R16, R27:R26
   \   00000134   5F0A               SUBI    R16, 250
   \   00000136   4F1F               SBCI    R17, 255
   \   00000138   ........           CALL    ??Set
    151                  NotifyerPreventiveOn();
   \   0000013C   018D               MOVW    R17:R16, R27:R26
   \   0000013E   9611               ADIW    R27:R26, 1
   \   00000140   91ED               LD      R30, X+
   \   00000142   91FC               LD      R31, X
   \   00000144   9712               SBIW    R27:R26, 2
   \   00000146   9638               ADIW    R31:R30, 8
   \   00000148   9125               LPM     R18, Z+
   \   0000014A   9134               LPM     R19, Z
   \   0000014C   9739               SBIW    R31:R30, 9
   \   0000014E   01F9               MOVW    R31:R30, R19:R18
   \   00000150   9509               ICALL
    152                  SetFsmState(WARNING_SIGNAL_ON);
   \   00000152   E028               LDI     R18, 8
   \   00000154   018D               MOVW    R17:R16, R27:R26
   \   00000156   ........           CALL    ??SetFsmState
    153                  break;
   \   0000015A   C1CC               RJMP    ??Fsm_2
    154          
    155              case WARNING_SIGNAL_ON:
    156                  if (m_xTimer.IsOverflow())
   \                     ??Fsm_9:
   \   0000015C   018D               MOVW    R17:R16, R27:R26
   \   0000015E   5F0A               SUBI    R16, 250
   \   00000160   4F1F               SBCI    R17, 255
   \   00000162   ........           CALL    ??IsOverflow
   \   00000166   2300               TST     R16
   \   00000168   F101               BREQ    ??Fsm_10
    157                  {
    158                      m_xTimer.Set(WARNING_SIGNAL_OFF_TIME());
   \   0000016A   018D               MOVW    R17:R16, R27:R26
   \   0000016C   9611               ADIW    R27:R26, 1
   \   0000016E   91ED               LD      R30, X+
   \   00000170   91FC               LD      R31, X
   \   00000172   9712               SBIW    R27:R26, 2
   \   00000174   9676               ADIW    R31:R30, 22
   \   00000176   9125               LPM     R18, Z+
   \   00000178   9134               LPM     R19, Z
   \   0000017A   9777               SBIW    R31:R30, 23
   \   0000017C   01F9               MOVW    R31:R30, R19:R18
   \   0000017E   9509               ICALL
   \   00000180   0198               MOVW    R19:R18, R17:R16
   \   00000182   018D               MOVW    R17:R16, R27:R26
   \   00000184   5F0A               SUBI    R16, 250
   \   00000186   4F1F               SBCI    R17, 255
   \   00000188   ........           CALL    ??Set
    159                      NotifyerOff();
   \   0000018C   018D               MOVW    R17:R16, R27:R26
   \   0000018E   9611               ADIW    R27:R26, 1
   \   00000190   91ED               LD      R30, X+
   \   00000192   91FC               LD      R31, X
   \   00000194   9712               SBIW    R27:R26, 2
   \   00000196   963C               ADIW    R31:R30, 12
   \   00000198   9125               LPM     R18, Z+
   \   0000019A   9134               LPM     R19, Z
   \   0000019C   973D               SBIW    R31:R30, 13
   \   0000019E   01F9               MOVW    R31:R30, R19:R18
   \   000001A0   9509               ICALL
    160                      SetFsmState(WARNING_SIGNAL_OFF);
   \   000001A2   E029               LDI     R18, 9
   \   000001A4   018D               MOVW    R17:R16, R27:R26
   \   000001A6   ........           CALL    ??SetFsmState
    161                  }
    162                  break;
   \                     ??Fsm_10:
   \   000001AA   C1A4               RJMP    ??Fsm_2
    163          
    164              case WARNING_SIGNAL_OFF:
    165                  if (m_xTimer.IsOverflow())
   \                     ??Fsm_11:
   \   000001AC   018D               MOVW    R17:R16, R27:R26
   \   000001AE   5F0A               SUBI    R16, 250
   \   000001B0   4F1F               SBCI    R17, 255
   \   000001B2   ........           CALL    ??IsOverflow
   \   000001B6   2300               TST     R16
   \   000001B8   F101               BREQ    ??Fsm_12
    166                  {
    167                      m_xTimer.Set(WARNING_SIGNAL_ON_TIME());
   \   000001BA   018D               MOVW    R17:R16, R27:R26
   \   000001BC   9611               ADIW    R27:R26, 1
   \   000001BE   91ED               LD      R30, X+
   \   000001C0   91FC               LD      R31, X
   \   000001C2   9712               SBIW    R27:R26, 2
   \   000001C4   9674               ADIW    R31:R30, 20
   \   000001C6   9125               LPM     R18, Z+
   \   000001C8   9134               LPM     R19, Z
   \   000001CA   9775               SBIW    R31:R30, 21
   \   000001CC   01F9               MOVW    R31:R30, R19:R18
   \   000001CE   9509               ICALL
   \   000001D0   0198               MOVW    R19:R18, R17:R16
   \   000001D2   018D               MOVW    R17:R16, R27:R26
   \   000001D4   5F0A               SUBI    R16, 250
   \   000001D6   4F1F               SBCI    R17, 255
   \   000001D8   ........           CALL    ??Set
    168                      NotifyerPreventiveOn();
   \   000001DC   018D               MOVW    R17:R16, R27:R26
   \   000001DE   9611               ADIW    R27:R26, 1
   \   000001E0   91ED               LD      R30, X+
   \   000001E2   91FC               LD      R31, X
   \   000001E4   9712               SBIW    R27:R26, 2
   \   000001E6   9638               ADIW    R31:R30, 8
   \   000001E8   9125               LPM     R18, Z+
   \   000001EA   9134               LPM     R19, Z
   \   000001EC   9739               SBIW    R31:R30, 9
   \   000001EE   01F9               MOVW    R31:R30, R19:R18
   \   000001F0   9509               ICALL
    169                      SetFsmState(WARNING_SIGNAL_ON);
   \   000001F2   E028               LDI     R18, 8
   \   000001F4   018D               MOVW    R17:R16, R27:R26
   \   000001F6   ........           CALL    ??SetFsmState
    170                  }
    171                  break;
   \                     ??Fsm_12:
   \   000001FA   C17C               RJMP    ??Fsm_2
    172          
    173              case ALARM_SIGNAL_START:
    174                  m_xTimer.Set(ALARM_SIGNAL_ON_TIME());
   \                     ??Fsm_13:
   \   000001FC   018D               MOVW    R17:R16, R27:R26
   \   000001FE   9611               ADIW    R27:R26, 1
   \   00000200   91ED               LD      R30, X+
   \   00000202   91FC               LD      R31, X
   \   00000204   9712               SBIW    R27:R26, 2
   \   00000206   9678               ADIW    R31:R30, 24
   \   00000208   9125               LPM     R18, Z+
   \   0000020A   9134               LPM     R19, Z
   \   0000020C   9779               SBIW    R31:R30, 25
   \   0000020E   01F9               MOVW    R31:R30, R19:R18
   \   00000210   9509               ICALL
   \   00000212   0198               MOVW    R19:R18, R17:R16
   \   00000214   018D               MOVW    R17:R16, R27:R26
   \   00000216   5F0A               SUBI    R16, 250
   \   00000218   4F1F               SBCI    R17, 255
   \   0000021A   ........           CALL    ??Set
    175                  NotifyerEmergencyOn();
   \   0000021E   018D               MOVW    R17:R16, R27:R26
   \   00000220   9611               ADIW    R27:R26, 1
   \   00000222   91ED               LD      R30, X+
   \   00000224   91FC               LD      R31, X
   \   00000226   9712               SBIW    R27:R26, 2
   \   00000228   963A               ADIW    R31:R30, 10
   \   0000022A   9125               LPM     R18, Z+
   \   0000022C   9134               LPM     R19, Z
   \   0000022E   973B               SBIW    R31:R30, 11
   \   00000230   01F9               MOVW    R31:R30, R19:R18
   \   00000232   9509               ICALL
    176                  SetFsmState(ALARM_SIGNAL_ON);
   \   00000234   E02E               LDI     R18, 14
   \   00000236   018D               MOVW    R17:R16, R27:R26
   \   00000238   ........           CALL    ??SetFsmState
    177                  break;
   \   0000023C   C15B               RJMP    ??Fsm_2
    178          
    179              case ALARM_SIGNAL_ON:
    180                  if (m_xTimer.IsOverflow())
   \                     ??Fsm_14:
   \   0000023E   018D               MOVW    R17:R16, R27:R26
   \   00000240   5F0A               SUBI    R16, 250
   \   00000242   4F1F               SBCI    R17, 255
   \   00000244   ........           CALL    ??IsOverflow
   \   00000248   2300               TST     R16
   \   0000024A   F101               BREQ    ??Fsm_15
    181                  {
    182                      m_xTimer.Set(ALARM_SIGNAL_OFF_TIME());
   \   0000024C   018D               MOVW    R17:R16, R27:R26
   \   0000024E   9611               ADIW    R27:R26, 1
   \   00000250   91ED               LD      R30, X+
   \   00000252   91FC               LD      R31, X
   \   00000254   9712               SBIW    R27:R26, 2
   \   00000256   967A               ADIW    R31:R30, 26
   \   00000258   9125               LPM     R18, Z+
   \   0000025A   9134               LPM     R19, Z
   \   0000025C   977B               SBIW    R31:R30, 27
   \   0000025E   01F9               MOVW    R31:R30, R19:R18
   \   00000260   9509               ICALL
   \   00000262   0198               MOVW    R19:R18, R17:R16
   \   00000264   018D               MOVW    R17:R16, R27:R26
   \   00000266   5F0A               SUBI    R16, 250
   \   00000268   4F1F               SBCI    R17, 255
   \   0000026A   ........           CALL    ??Set
    183                      NotifyerOff();
   \   0000026E   018D               MOVW    R17:R16, R27:R26
   \   00000270   9611               ADIW    R27:R26, 1
   \   00000272   91ED               LD      R30, X+
   \   00000274   91FC               LD      R31, X
   \   00000276   9712               SBIW    R27:R26, 2
   \   00000278   963C               ADIW    R31:R30, 12
   \   0000027A   9125               LPM     R18, Z+
   \   0000027C   9134               LPM     R19, Z
   \   0000027E   973D               SBIW    R31:R30, 13
   \   00000280   01F9               MOVW    R31:R30, R19:R18
   \   00000282   9509               ICALL
    184                      SetFsmState(ALARM_SIGNAL_OFF);
   \   00000284   E02F               LDI     R18, 15
   \   00000286   018D               MOVW    R17:R16, R27:R26
   \   00000288   ........           CALL    ??SetFsmState
    185                  }
    186                  break;
   \                     ??Fsm_15:
   \   0000028C   C133               RJMP    ??Fsm_2
    187          
    188              case ALARM_SIGNAL_OFF:
    189                  if (m_xTimer.IsOverflow())
   \                     ??Fsm_16:
   \   0000028E   018D               MOVW    R17:R16, R27:R26
   \   00000290   5F0A               SUBI    R16, 250
   \   00000292   4F1F               SBCI    R17, 255
   \   00000294   ........           CALL    ??IsOverflow
   \   00000298   2300               TST     R16
   \   0000029A   F101               BREQ    ??Fsm_17
    190                  {
    191                      m_xTimer.Set(ALARM_SIGNAL_ON_TIME());
   \   0000029C   018D               MOVW    R17:R16, R27:R26
   \   0000029E   9611               ADIW    R27:R26, 1
   \   000002A0   91ED               LD      R30, X+
   \   000002A2   91FC               LD      R31, X
   \   000002A4   9712               SBIW    R27:R26, 2
   \   000002A6   9678               ADIW    R31:R30, 24
   \   000002A8   9125               LPM     R18, Z+
   \   000002AA   9134               LPM     R19, Z
   \   000002AC   9779               SBIW    R31:R30, 25
   \   000002AE   01F9               MOVW    R31:R30, R19:R18
   \   000002B0   9509               ICALL
   \   000002B2   0198               MOVW    R19:R18, R17:R16
   \   000002B4   018D               MOVW    R17:R16, R27:R26
   \   000002B6   5F0A               SUBI    R16, 250
   \   000002B8   4F1F               SBCI    R17, 255
   \   000002BA   ........           CALL    ??Set
    192                      NotifyerEmergencyOn();
   \   000002BE   018D               MOVW    R17:R16, R27:R26
   \   000002C0   9611               ADIW    R27:R26, 1
   \   000002C2   91ED               LD      R30, X+
   \   000002C4   91FC               LD      R31, X
   \   000002C6   9712               SBIW    R27:R26, 2
   \   000002C8   963A               ADIW    R31:R30, 10
   \   000002CA   9125               LPM     R18, Z+
   \   000002CC   9134               LPM     R19, Z
   \   000002CE   973B               SBIW    R31:R30, 11
   \   000002D0   01F9               MOVW    R31:R30, R19:R18
   \   000002D2   9509               ICALL
    193                      SetFsmState(ALARM_SIGNAL_ON);
   \   000002D4   E02E               LDI     R18, 14
   \   000002D6   018D               MOVW    R17:R16, R27:R26
   \   000002D8   ........           CALL    ??SetFsmState
    194                  }
    195                  break;
   \                     ??Fsm_17:
   \   000002DC   C10B               RJMP    ??Fsm_2
    196          
    197              case ERROR_SIGNAL_START:
    198                  m_xTimer.Set(ALARM_SIGNAL_ON_TIME());
   \                     ??Fsm_18:
   \   000002DE   018D               MOVW    R17:R16, R27:R26
   \   000002E0   9611               ADIW    R27:R26, 1
   \   000002E2   91ED               LD      R30, X+
   \   000002E4   91FC               LD      R31, X
   \   000002E6   9712               SBIW    R27:R26, 2
   \   000002E8   9678               ADIW    R31:R30, 24
   \   000002EA   9125               LPM     R18, Z+
   \   000002EC   9134               LPM     R19, Z
   \   000002EE   9779               SBIW    R31:R30, 25
   \   000002F0   01F9               MOVW    R31:R30, R19:R18
   \   000002F2   9509               ICALL
   \   000002F4   0198               MOVW    R19:R18, R17:R16
   \   000002F6   018D               MOVW    R17:R16, R27:R26
   \   000002F8   5F0A               SUBI    R16, 250
   \   000002FA   4F1F               SBCI    R17, 255
   \   000002FC   ........           CALL    ??Set
    199                  NotifyerEmergencyOn();
   \   00000300   018D               MOVW    R17:R16, R27:R26
   \   00000302   9611               ADIW    R27:R26, 1
   \   00000304   91ED               LD      R30, X+
   \   00000306   91FC               LD      R31, X
   \   00000308   9712               SBIW    R27:R26, 2
   \   0000030A   963A               ADIW    R31:R30, 10
   \   0000030C   9125               LPM     R18, Z+
   \   0000030E   9134               LPM     R19, Z
   \   00000310   973B               SBIW    R31:R30, 11
   \   00000312   01F9               MOVW    R31:R30, R19:R18
   \   00000314   9509               ICALL
    200                  SetFsmState(ERROR_SIGNAL_ON);
   \   00000316   E124               LDI     R18, 20
   \   00000318   018D               MOVW    R17:R16, R27:R26
   \   0000031A   ........           CALL    ??SetFsmState
    201                  break;
   \   0000031E   C0EA               RJMP    ??Fsm_2
    202          
    203              case ERROR_SIGNAL_ON:
    204                  if (m_xTimer.IsOverflow())
   \                     ??Fsm_19:
   \   00000320   018D               MOVW    R17:R16, R27:R26
   \   00000322   5F0A               SUBI    R16, 250
   \   00000324   4F1F               SBCI    R17, 255
   \   00000326   ........           CALL    ??IsOverflow
   \   0000032A   2300               TST     R16
   \   0000032C   F101               BREQ    ??Fsm_20
    205                  {
    206                      m_xTimer.Set(ALARM_SIGNAL_OFF_TIME());
   \   0000032E   018D               MOVW    R17:R16, R27:R26
   \   00000330   9611               ADIW    R27:R26, 1
   \   00000332   91ED               LD      R30, X+
   \   00000334   91FC               LD      R31, X
   \   00000336   9712               SBIW    R27:R26, 2
   \   00000338   967A               ADIW    R31:R30, 26
   \   0000033A   9125               LPM     R18, Z+
   \   0000033C   9134               LPM     R19, Z
   \   0000033E   977B               SBIW    R31:R30, 27
   \   00000340   01F9               MOVW    R31:R30, R19:R18
   \   00000342   9509               ICALL
   \   00000344   0198               MOVW    R19:R18, R17:R16
   \   00000346   018D               MOVW    R17:R16, R27:R26
   \   00000348   5F0A               SUBI    R16, 250
   \   0000034A   4F1F               SBCI    R17, 255
   \   0000034C   ........           CALL    ??Set
    207                      NotifyerOff();
   \   00000350   018D               MOVW    R17:R16, R27:R26
   \   00000352   9611               ADIW    R27:R26, 1
   \   00000354   91ED               LD      R30, X+
   \   00000356   91FC               LD      R31, X
   \   00000358   9712               SBIW    R27:R26, 2
   \   0000035A   963C               ADIW    R31:R30, 12
   \   0000035C   9125               LPM     R18, Z+
   \   0000035E   9134               LPM     R19, Z
   \   00000360   973D               SBIW    R31:R30, 13
   \   00000362   01F9               MOVW    R31:R30, R19:R18
   \   00000364   9509               ICALL
    208                      SetFsmState(ERROR_SIGNAL_OFF);
   \   00000366   E125               LDI     R18, 21
   \   00000368   018D               MOVW    R17:R16, R27:R26
   \   0000036A   ........           CALL    ??SetFsmState
    209                  }
    210                  break;
   \                     ??Fsm_20:
   \   0000036E   C0C2               RJMP    ??Fsm_2
    211          
    212              case ERROR_SIGNAL_OFF:
    213                  if (m_xTimer.IsOverflow())
   \                     ??Fsm_21:
   \   00000370   018D               MOVW    R17:R16, R27:R26
   \   00000372   5F0A               SUBI    R16, 250
   \   00000374   4F1F               SBCI    R17, 255
   \   00000376   ........           CALL    ??IsOverflow
   \   0000037A   2300               TST     R16
   \   0000037C   F101               BREQ    ??Fsm_22
    214                  {
    215                      m_xTimer.Set(ALARM_SIGNAL_ON_TIME());
   \   0000037E   018D               MOVW    R17:R16, R27:R26
   \   00000380   9611               ADIW    R27:R26, 1
   \   00000382   91ED               LD      R30, X+
   \   00000384   91FC               LD      R31, X
   \   00000386   9712               SBIW    R27:R26, 2
   \   00000388   9678               ADIW    R31:R30, 24
   \   0000038A   9125               LPM     R18, Z+
   \   0000038C   9134               LPM     R19, Z
   \   0000038E   9779               SBIW    R31:R30, 25
   \   00000390   01F9               MOVW    R31:R30, R19:R18
   \   00000392   9509               ICALL
   \   00000394   0198               MOVW    R19:R18, R17:R16
   \   00000396   018D               MOVW    R17:R16, R27:R26
   \   00000398   5F0A               SUBI    R16, 250
   \   0000039A   4F1F               SBCI    R17, 255
   \   0000039C   ........           CALL    ??Set
    216                      NotifyerEmergencyOn();
   \   000003A0   018D               MOVW    R17:R16, R27:R26
   \   000003A2   9611               ADIW    R27:R26, 1
   \   000003A4   91ED               LD      R30, X+
   \   000003A6   91FC               LD      R31, X
   \   000003A8   9712               SBIW    R27:R26, 2
   \   000003AA   963A               ADIW    R31:R30, 10
   \   000003AC   9125               LPM     R18, Z+
   \   000003AE   9134               LPM     R19, Z
   \   000003B0   973B               SBIW    R31:R30, 11
   \   000003B2   01F9               MOVW    R31:R30, R19:R18
   \   000003B4   9509               ICALL
    217                      SetFsmState(ERROR_SIGNAL_ON_2);
   \   000003B6   E126               LDI     R18, 22
   \   000003B8   018D               MOVW    R17:R16, R27:R26
   \   000003BA   ........           CALL    ??SetFsmState
    218                  }
    219                  break;
   \                     ??Fsm_22:
   \   000003BE   C09A               RJMP    ??Fsm_2
    220          
    221              case ERROR_SIGNAL_ON_2:
    222                  if (m_xTimer.IsOverflow())
   \                     ??Fsm_23:
   \   000003C0   018D               MOVW    R17:R16, R27:R26
   \   000003C2   5F0A               SUBI    R16, 250
   \   000003C4   4F1F               SBCI    R17, 255
   \   000003C6   ........           CALL    ??IsOverflow
   \   000003CA   2300               TST     R16
   \   000003CC   F101               BREQ    ??Fsm_24
    223                  {
    224                      m_xTimer.Set(WARNING_SIGNAL_OFF_TIME());
   \   000003CE   018D               MOVW    R17:R16, R27:R26
   \   000003D0   9611               ADIW    R27:R26, 1
   \   000003D2   91ED               LD      R30, X+
   \   000003D4   91FC               LD      R31, X
   \   000003D6   9712               SBIW    R27:R26, 2
   \   000003D8   9676               ADIW    R31:R30, 22
   \   000003DA   9125               LPM     R18, Z+
   \   000003DC   9134               LPM     R19, Z
   \   000003DE   9777               SBIW    R31:R30, 23
   \   000003E0   01F9               MOVW    R31:R30, R19:R18
   \   000003E2   9509               ICALL
   \   000003E4   0198               MOVW    R19:R18, R17:R16
   \   000003E6   018D               MOVW    R17:R16, R27:R26
   \   000003E8   5F0A               SUBI    R16, 250
   \   000003EA   4F1F               SBCI    R17, 255
   \   000003EC   ........           CALL    ??Set
    225                      NotifyerOff();
   \   000003F0   018D               MOVW    R17:R16, R27:R26
   \   000003F2   9611               ADIW    R27:R26, 1
   \   000003F4   91ED               LD      R30, X+
   \   000003F6   91FC               LD      R31, X
   \   000003F8   9712               SBIW    R27:R26, 2
   \   000003FA   963C               ADIW    R31:R30, 12
   \   000003FC   9125               LPM     R18, Z+
   \   000003FE   9134               LPM     R19, Z
   \   00000400   973D               SBIW    R31:R30, 13
   \   00000402   01F9               MOVW    R31:R30, R19:R18
   \   00000404   9509               ICALL
    226                      SetFsmState(ERROR_SIGNAL_OFF_2);
   \   00000406   E127               LDI     R18, 23
   \   00000408   018D               MOVW    R17:R16, R27:R26
   \   0000040A   ........           CALL    ??SetFsmState
    227                  }
    228                  break;
   \                     ??Fsm_24:
   \   0000040E   C072               RJMP    ??Fsm_2
    229          
    230              case ERROR_SIGNAL_OFF_2:
    231                  if (m_xTimer.IsOverflow())
   \                     ??Fsm_25:
   \   00000410   018D               MOVW    R17:R16, R27:R26
   \   00000412   5F0A               SUBI    R16, 250
   \   00000414   4F1F               SBCI    R17, 255
   \   00000416   ........           CALL    ??IsOverflow
   \   0000041A   2300               TST     R16
   \   0000041C   F101               BREQ    ??Fsm_26
    232                  {
    233                      m_xTimer.Set(ALARM_SIGNAL_ON_TIME());
   \   0000041E   018D               MOVW    R17:R16, R27:R26
   \   00000420   9611               ADIW    R27:R26, 1
   \   00000422   91ED               LD      R30, X+
   \   00000424   91FC               LD      R31, X
   \   00000426   9712               SBIW    R27:R26, 2
   \   00000428   9678               ADIW    R31:R30, 24
   \   0000042A   9125               LPM     R18, Z+
   \   0000042C   9134               LPM     R19, Z
   \   0000042E   9779               SBIW    R31:R30, 25
   \   00000430   01F9               MOVW    R31:R30, R19:R18
   \   00000432   9509               ICALL
   \   00000434   0198               MOVW    R19:R18, R17:R16
   \   00000436   018D               MOVW    R17:R16, R27:R26
   \   00000438   5F0A               SUBI    R16, 250
   \   0000043A   4F1F               SBCI    R17, 255
   \   0000043C   ........           CALL    ??Set
    234                      NotifyerEmergencyOn();
   \   00000440   018D               MOVW    R17:R16, R27:R26
   \   00000442   9611               ADIW    R27:R26, 1
   \   00000444   91ED               LD      R30, X+
   \   00000446   91FC               LD      R31, X
   \   00000448   9712               SBIW    R27:R26, 2
   \   0000044A   963A               ADIW    R31:R30, 10
   \   0000044C   9125               LPM     R18, Z+
   \   0000044E   9134               LPM     R19, Z
   \   00000450   973B               SBIW    R31:R30, 11
   \   00000452   01F9               MOVW    R31:R30, R19:R18
   \   00000454   9509               ICALL
    235                      SetFsmState(ERROR_SIGNAL_ON);
   \   00000456   E124               LDI     R18, 20
   \   00000458   018D               MOVW    R17:R16, R27:R26
   \   0000045A   ........           CALL    ??SetFsmState
    236                  }
    237                  break;
   \                     ??Fsm_26:
   \   0000045E   C04A               RJMP    ??Fsm_2
    238          
    239              case BEEP_SIGNAL_START:
    240                  m_xTimer.Set(BEEP_SIGNAL_ON_TIME());
   \                     ??Fsm_27:
   \   00000460   018D               MOVW    R17:R16, R27:R26
   \   00000462   9611               ADIW    R27:R26, 1
   \   00000464   91ED               LD      R30, X+
   \   00000466   91FC               LD      R31, X
   \   00000468   9712               SBIW    R27:R26, 2
   \   0000046A   967C               ADIW    R31:R30, 28
   \   0000046C   9125               LPM     R18, Z+
   \   0000046E   9134               LPM     R19, Z
   \   00000470   977D               SBIW    R31:R30, 29
   \   00000472   01F9               MOVW    R31:R30, R19:R18
   \   00000474   9509               ICALL
   \   00000476   0198               MOVW    R19:R18, R17:R16
   \   00000478   018D               MOVW    R17:R16, R27:R26
   \   0000047A   5F0A               SUBI    R16, 250
   \   0000047C   4F1F               SBCI    R17, 255
   \   0000047E   ........           CALL    ??Set
    241                  NotifyerEmergencyOn();
   \   00000482   018D               MOVW    R17:R16, R27:R26
   \   00000484   9611               ADIW    R27:R26, 1
   \   00000486   91ED               LD      R30, X+
   \   00000488   91FC               LD      R31, X
   \   0000048A   9712               SBIW    R27:R26, 2
   \   0000048C   963A               ADIW    R31:R30, 10
   \   0000048E   9125               LPM     R18, Z+
   \   00000490   9134               LPM     R19, Z
   \   00000492   973B               SBIW    R31:R30, 11
   \   00000494   01F9               MOVW    R31:R30, R19:R18
   \   00000496   9509               ICALL
    242                  SetFsmState(BEEP_SIGNAL_ON);
   \   00000498   E12F               LDI     R18, 31
   \   0000049A   018D               MOVW    R17:R16, R27:R26
   \   0000049C   ........           CALL    ??SetFsmState
    243                  break;
   \   000004A0   C029               RJMP    ??Fsm_2
    244          
    245              case BEEP_SIGNAL_ON:
    246                  if (m_xTimer.IsOverflow())
   \                     ??Fsm_28:
   \   000004A2   018D               MOVW    R17:R16, R27:R26
   \   000004A4   5F0A               SUBI    R16, 250
   \   000004A6   4F1F               SBCI    R17, 255
   \   000004A8   ........           CALL    ??IsOverflow
   \   000004AC   2300               TST     R16
   \   000004AE   F111               BREQ    ??Fsm_2
    247                  {
    248                      NotifyerOff();
   \   000004B0   018D               MOVW    R17:R16, R27:R26
   \   000004B2   9611               ADIW    R27:R26, 1
   \   000004B4   91ED               LD      R30, X+
   \   000004B6   91FC               LD      R31, X
   \   000004B8   9712               SBIW    R27:R26, 2
   \   000004BA   963C               ADIW    R31:R30, 12
   \   000004BC   9125               LPM     R18, Z+
   \   000004BE   9134               LPM     R19, Z
   \   000004C0   973D               SBIW    R31:R30, 13
   \   000004C2   01F9               MOVW    R31:R30, R19:R18
   \   000004C4   9509               ICALL
    249                      // Âîńńňŕíîâčě ďđĺäűäóůĺĺ ńîńňî˙íčĺ ŕâňîěŕňŕ.
    250                      SetFsmState(GetSavedFsmState());
   \   000004C6   018D               MOVW    R17:R16, R27:R26
   \   000004C8   ........           CALL    ??GetSavedFsmState
   \   000004CC   2F20               MOV     R18, R16
   \   000004CE   018D               MOVW    R17:R16, R27:R26
   \   000004D0   ........           CALL    ??SetFsmState
    251          //            SetFsmState(STOP);
    252                  }
    253                  break;
   \   000004D4   C00F               RJMP    ??Fsm_2
    254          
    255              case STOP:
    256                  NotifyerOff();
   \                     ??Fsm_29:
   \   000004D6   018D               MOVW    R17:R16, R27:R26
   \   000004D8   9611               ADIW    R27:R26, 1
   \   000004DA   91ED               LD      R30, X+
   \   000004DC   91FC               LD      R31, X
   \   000004DE   9712               SBIW    R27:R26, 2
   \   000004E0   963C               ADIW    R31:R30, 12
   \   000004E2   9125               LPM     R18, Z+
   \   000004E4   9134               LPM     R19, Z
   \   000004E6   973D               SBIW    R31:R30, 13
   \   000004E8   01F9               MOVW    R31:R30, R19:R18
   \   000004EA   9509               ICALL
    257                  SetFsmState(IDDLE);
   \   000004EC   E020               LDI     R18, 0
   \   000004EE   018D               MOVW    R17:R16, R27:R26
   \   000004F0   ........           CALL    ??SetFsmState
    258                  break;
    259          
    260              default:
    261                  break;
    262              };
    263          }
   \                     ??Fsm_2:
   \   000004F4   91A9               LD      R26, Y+
   \   000004F6   91B9               LD      R27, Y+
   \   000004F8   9508               RET
    264          //-----------------------------------------------------------------------------------------------------
    265          
    266          
    267          
    268          
    269          
    270          
    271          //-----------------------------------------------------------------------------------------------------

   \                                 In  segment CODE, align 2, keep-with-next
    272          CPreventiveAlarmWindowNotifyerControl::CPreventiveAlarmWindowNotifyerControl()
   \                     ??CPreventiveAlarmWindowNotifyerControl:
   \   00000000   93BA               ST      -Y, R27
   \   00000002   93AA               ST      -Y, R26
   \   00000004   01D8               MOVW    R27:R26, R17:R16
    273          {
   \   00000006   018D               MOVW    R17:R16, R27:R26
   \   00000008   ....               RCALL   ??CNotifyerControl
   \   0000000A   ....               LDI     R16, LOW(??__vtbl_1)
   \   0000000C   ....               LDI     R17, (??__vtbl_1) >> 8
   \   0000000E   01FD               MOVW    R31:R30, R27:R26
   \   00000010   8301               STD     Z+1, R16
   \   00000012   8312               STD     Z+2, R17
    274              SetFsmState(STOP);
   \   00000014   E225               LDI     R18, 37
   \   00000016   018D               MOVW    R17:R16, R27:R26
   \   00000018   ........           CALL    ??SetFsmState
    275              SetSavedFsmState(STOP);
   \   0000001C   E225               LDI     R18, 37
   \   0000001E   018D               MOVW    R17:R16, R27:R26
   \   00000020   ........           CALL    ??SetSavedFsmState
    276          }
   \   00000024   018D               MOVW    R17:R16, R27:R26
   \   00000026   91A9               LD      R26, Y+
   \   00000028   91B9               LD      R27, Y+
   \   0000002A   9508               RET
    277          

   \                                 In  segment CODE, align 2, keep-with-next
    278          CPreventiveAlarmWindowNotifyerControl::~CPreventiveAlarmWindowNotifyerControl()
   \                     `?~CPreventiveAlarmWindowNotifyerControl`:
    279          {
   \   00000000   ........           CALL    ?PROLOGUE4_L09
   \   00000004   01C8               MOVW    R25:R24, R17:R16
   \   00000006   01D9               MOVW    R27:R26, R19:R18
   \   00000008   2F08               MOV     R16, R24
   \   0000000A   2B09               OR      R16, R25
   \   0000000C   F069               BREQ    `?~CPreventiveAlarmWindowNotifyerControl_1`
    280              SetFsmState(STOP);
   \   0000000E   E225               LDI     R18, 37
   \   00000010   018C               MOVW    R17:R16, R25:R24
   \   00000012   ........           CALL    ??SetFsmState
    281          }
   \   00000016   E020               LDI     R18, 0
   \   00000018   E030               LDI     R19, 0
   \   0000001A   018C               MOVW    R17:R16, R25:R24
   \   0000001C   ....               RCALL   `?~CNotifyerControl`
   \   0000001E   FBA0               BST     R26, 0
   \   00000020   F41E               BRTC    `?~CPreventiveAlarmWindowNotifyerControl_1`
   \   00000022   018C               MOVW    R17:R16, R25:R24
   \   00000024   ........           CALL    `??operator delete`
   \                     `?~CPreventiveAlarmWindowNotifyerControl_1`:
   \   00000028   E0E4               LDI     R30, 4
   \   0000002A   ........           JMP     ?EPILOGUE_B4_L09
    282          
    283          //-----------------------------------------------------------------------------------------------------

   \                                 In  segment CODE, align 2, keep-with-next
    284          void CPreventiveAlarmWindowNotifyerControl::AlarmSet(uint8_t uiAlarmType)
   \                     ??AlarmSet:
    285          {
   \   00000000   ........           CALL    ?PROLOGUE3_L09
   \   00000004   01C8               MOVW    R25:R24, R17:R16
   \   00000006   2FA2               MOV     R26, R18
    286              // Ńîőđŕíčě ňĺęóůĺĺ ńîńňî˙íčĺ ŕâňîěŕňŕ.
    287              SetSavedFsmState(GetFsmState());
   \   00000008   018C               MOVW    R17:R16, R25:R24
   \   0000000A   ........           CALL    ??GetFsmState
   \   0000000E   2F20               MOV     R18, R16
   \   00000010   018C               MOVW    R17:R16, R25:R24
   \   00000012   ........           CALL    ??SetSavedFsmState
    288              switch (uiAlarmType)
   \   00000016   2F0A               MOV     R16, R26
   \   00000018   ....               LDI     R30, LOW(`?<Jumptable for AlarmSet>_0`)
   \   0000001A   ....               LDI     R31, (`?<Jumptable for AlarmSet>_0`) >> 16
   \   0000001C   BFFB               OUT     0x3B, R31
   \   0000001E   ....               LDI     R31, HIGH(`?<Jumptable for AlarmSet>_0`)
   \   00000020   ........           JMP     ?CV_SWITCH_L06
    289              {
    290              case NORMAL:
    291                  SetFsmState(STOP);
   \                     ??AlarmSet_4:
   \   00000024   E225               LDI     R18, 37
   \   00000026   018C               MOVW    R17:R16, R25:R24
   \   00000028   ........           CALL    ??SetFsmState
    292                  break;
   \   0000002C   C00E               RJMP    ??AlarmSet_5
    293          
    294              case INDICATION:
    295                  SetFsmState(INDICATION_SIGNAL_START);
   \                     ??AlarmSet_6:
   \   0000002E   E021               LDI     R18, 1
   \   00000030   018C               MOVW    R17:R16, R25:R24
   \   00000032   ........           CALL    ??SetFsmState
    296                  break;
   \   00000036   C009               RJMP    ??AlarmSet_5
    297          
    298              case PREVENTIVE:
    299                  SetFsmState(WARNING_SIGNAL_START);
   \                     ??AlarmSet_7:
   \   00000038   E027               LDI     R18, 7
   \   0000003A   018C               MOVW    R17:R16, R25:R24
   \   0000003C   ........           CALL    ??SetFsmState
    300                  break;
   \   00000040   C004               RJMP    ??AlarmSet_5
    301          
    302              case EMERGENCY:
    303                  SetFsmState(WARNING_SIGNAL_START);
   \                     ??AlarmSet_8:
   \   00000042   E027               LDI     R18, 7
   \   00000044   018C               MOVW    R17:R16, R25:R24
   \   00000046   ........           CALL    ??SetFsmState
    304                  break;
    305          
    306              case IND_PREVENTIVE:
    307                  break;
    308          
    309              case IND_EMERGENCY:
    310                  break;
    311          
    312              case ERROR:
    313                  break;
    314          
    315              case BEEP_SIGNAL:
    316                  break;
    317          
    318              default:
    319                  break;
    320              }
    321          }
   \                     ??AlarmSet_5:
   \   0000004A   E0E3               LDI     R30, 3
   \   0000004C   ........           JMP     ?EPILOGUE_B3_L09
    322          
    323          //-----------------------------------------------------------------------------------------------------

   \                                 In  segment CODE, align 2, keep-with-next
    324          void CPreventiveAlarmWindowNotifyerControl::NotifyerNormalOn(void)
   \                     ??NotifyerNormalOn:
    325          {
    326          
    327          }
   \   00000000   9508               RET
    328          
    329          //-----------------------------------------------------------------------------------------------------

   \                                 In  segment CODE, align 2, keep-with-next
    330          void CPreventiveAlarmWindowNotifyerControl::NotifyerIndicationOn(void)
   \                     ??NotifyerIndicationOn:
    331          {
   \   00000000   939A               ST      -Y, R25
   \   00000002   938A               ST      -Y, R24
   \   00000004   01C8               MOVW    R25:R24, R17:R16
    332              CPss21::ActiveAlarmWindowOn(INDICATION);
   \   00000006   E001               LDI     R16, 1
   \   00000008   ........           CALL    ??ActiveAlarmWindowOn
    333          }
   \   0000000C   9189               LD      R24, Y+
   \   0000000E   9199               LD      R25, Y+
   \   00000010   9508               RET
    334          
    335          //-----------------------------------------------------------------------------------------------------

   \                                 In  segment CODE, align 2, keep-with-next
    336          void CPreventiveAlarmWindowNotifyerControl::NotifyerPreventiveOn(void)
   \                     ??NotifyerPreventiveOn:
    337          {
   \   00000000   939A               ST      -Y, R25
   \   00000002   938A               ST      -Y, R24
   \   00000004   01C8               MOVW    R25:R24, R17:R16
    338              CPss21::ActiveAlarmWindowOn(PREVENTIVE);
   \   00000006   E002               LDI     R16, 2
   \   00000008   ........           CALL    ??ActiveAlarmWindowOn
    339          }
   \   0000000C   9189               LD      R24, Y+
   \   0000000E   9199               LD      R25, Y+
   \   00000010   9508               RET
    340          
    341          //-----------------------------------------------------------------------------------------------------

   \                                 In  segment CODE, align 2, keep-with-next
    342          void CPreventiveAlarmWindowNotifyerControl::NotifyerEmergencyOn(void)
   \                     ??NotifyerEmergencyOn:
    343          {
    344          
    345          }
   \   00000000   9508               RET
    346          
    347          //-----------------------------------------------------------------------------------------------------

   \                                 In  segment CODE, align 2, keep-with-next
    348          void CPreventiveAlarmWindowNotifyerControl::NotifyerOff(void)
   \                     ??NotifyerOff:
    349          {
   \   00000000   939A               ST      -Y, R25
   \   00000002   938A               ST      -Y, R24
   \   00000004   01C8               MOVW    R25:R24, R17:R16
    350              CPss21::ActiveAlarmWindowOff(PREVENTIVE);
   \   00000006   E002               LDI     R16, 2
   \   00000008   ........           CALL    ??ActiveAlarmWindowOff
    351          }
   \   0000000C   9189               LD      R24, Y+
   \   0000000E   9199               LD      R25, Y+
   \   00000010   9508               RET
    352          //-----------------------------------------------------------------------------------------------------
    353          
    354          
    355          
    356          
    357          
    358          
    359          //-----------------------------------------------------------------------------------------------------

   \                                 In  segment CODE, align 2, keep-with-next
    360          CEmergencyAlarmWindowNotifyerControl::CEmergencyAlarmWindowNotifyerControl()
   \                     ??CEmergencyAlarmWindowNotifyerControl:
   \   00000000   93BA               ST      -Y, R27
   \   00000002   93AA               ST      -Y, R26
   \   00000004   01D8               MOVW    R27:R26, R17:R16
    361          {
   \   00000006   018D               MOVW    R17:R16, R27:R26
   \   00000008   ....               RCALL   ??CNotifyerControl
   \   0000000A   ....               LDI     R16, LOW(??__vtbl_2)
   \   0000000C   ....               LDI     R17, (??__vtbl_2) >> 8
   \   0000000E   01FD               MOVW    R31:R30, R27:R26
   \   00000010   8301               STD     Z+1, R16
   \   00000012   8312               STD     Z+2, R17
    362              SetFsmState(STOP);
   \   00000014   E225               LDI     R18, 37
   \   00000016   018D               MOVW    R17:R16, R27:R26
   \   00000018   ........           CALL    ??SetFsmState
    363              SetSavedFsmState(STOP);
   \   0000001C   E225               LDI     R18, 37
   \   0000001E   018D               MOVW    R17:R16, R27:R26
   \   00000020   ........           CALL    ??SetSavedFsmState
    364          }
   \   00000024   018D               MOVW    R17:R16, R27:R26
   \   00000026   91A9               LD      R26, Y+
   \   00000028   91B9               LD      R27, Y+
   \   0000002A   9508               RET
    365          

   \                                 In  segment CODE, align 2, keep-with-next
    366          CEmergencyAlarmWindowNotifyerControl::~CEmergencyAlarmWindowNotifyerControl()
   \                     `?~CEmergencyAlarmWindowNotifyerControl`:
    367          {
   \   00000000   ........           CALL    ?PROLOGUE4_L09
   \   00000004   01C8               MOVW    R25:R24, R17:R16
   \   00000006   01D9               MOVW    R27:R26, R19:R18
   \   00000008   2F08               MOV     R16, R24
   \   0000000A   2B09               OR      R16, R25
   \   0000000C   F069               BREQ    `?~CEmergencyAlarmWindowNotifyerControl_1`
    368              SetFsmState(STOP);
   \   0000000E   E225               LDI     R18, 37
   \   00000010   018C               MOVW    R17:R16, R25:R24
   \   00000012   ........           CALL    ??SetFsmState
    369          }
   \   00000016   E020               LDI     R18, 0
   \   00000018   E030               LDI     R19, 0
   \   0000001A   018C               MOVW    R17:R16, R25:R24
   \   0000001C   ....               RCALL   `?~CNotifyerControl`
   \   0000001E   FBA0               BST     R26, 0
   \   00000020   F41E               BRTC    `?~CEmergencyAlarmWindowNotifyerControl_1`
   \   00000022   018C               MOVW    R17:R16, R25:R24
   \   00000024   ........           CALL    `??operator delete`
   \                     `?~CEmergencyAlarmWindowNotifyerControl_1`:
   \   00000028   E0E4               LDI     R30, 4
   \   0000002A   ........           JMP     ?EPILOGUE_B4_L09
    370          
    371          //-----------------------------------------------------------------------------------------------------

   \                                 In  segment CODE, align 2, keep-with-next
    372          void CEmergencyAlarmWindowNotifyerControl::AlarmSet(uint8_t uiAlarmType)
   \                     ??AlarmSet_1:
    373          {
   \   00000000   ........           CALL    ?PROLOGUE3_L09
   \   00000004   01C8               MOVW    R25:R24, R17:R16
   \   00000006   2FA2               MOV     R26, R18
    374              // Ńîőđŕíčě ňĺęóůĺĺ ńîńňî˙íčĺ ŕâňîěŕňŕ.
    375              SetSavedFsmState(GetFsmState());
   \   00000008   018C               MOVW    R17:R16, R25:R24
   \   0000000A   ........           CALL    ??GetFsmState
   \   0000000E   2F20               MOV     R18, R16
   \   00000010   018C               MOVW    R17:R16, R25:R24
   \   00000012   ........           CALL    ??SetSavedFsmState
    376              switch (uiAlarmType)
   \   00000016   2F0A               MOV     R16, R26
   \   00000018   ....               LDI     R30, LOW(`?<Jumptable for AlarmSet>_1`)
   \   0000001A   ....               LDI     R31, (`?<Jumptable for AlarmSet>_1`) >> 16
   \   0000001C   BFFB               OUT     0x3B, R31
   \   0000001E   ....               LDI     R31, HIGH(`?<Jumptable for AlarmSet>_1`)
   \   00000020   ........           JMP     ?CV_SWITCH_L06
    377              {
    378              case NORMAL:
    379                  SetFsmState(STOP);
   \                     ??AlarmSet_9:
   \   00000024   E225               LDI     R18, 37
   \   00000026   018C               MOVW    R17:R16, R25:R24
   \   00000028   ........           CALL    ??SetFsmState
    380                  break;
   \   0000002C   C00E               RJMP    ??AlarmSet_10
    381          
    382              case INDICATION:
    383                  SetFsmState(INDICATION_SIGNAL_START);
   \                     ??AlarmSet_11:
   \   0000002E   E021               LDI     R18, 1
   \   00000030   018C               MOVW    R17:R16, R25:R24
   \   00000032   ........           CALL    ??SetFsmState
    384                  break;
   \   00000036   C009               RJMP    ??AlarmSet_10
    385          
    386              case PREVENTIVE:
    387                  SetFsmState(STOP);
   \                     ??AlarmSet_12:
   \   00000038   E225               LDI     R18, 37
   \   0000003A   018C               MOVW    R17:R16, R25:R24
   \   0000003C   ........           CALL    ??SetFsmState
    388                  break;
   \   00000040   C004               RJMP    ??AlarmSet_10
    389          
    390              case EMERGENCY:
    391                  SetFsmState(ALARM_SIGNAL_START);
   \                     ??AlarmSet_13:
   \   00000042   E02D               LDI     R18, 13
   \   00000044   018C               MOVW    R17:R16, R25:R24
   \   00000046   ........           CALL    ??SetFsmState
    392                  break;
    393          
    394              case IND_PREVENTIVE:
    395                  break;
    396          
    397              case IND_EMERGENCY:
    398                  break;
    399          
    400              case ERROR:
    401                  break;
    402          
    403              case BEEP_SIGNAL:
    404                  break;
    405          
    406              default:
    407                  break;
    408              }
    409          }
   \                     ??AlarmSet_10:
   \   0000004A   E0E3               LDI     R30, 3
   \   0000004C   ........           JMP     ?EPILOGUE_B3_L09
    410          
    411          
    412          //-----------------------------------------------------------------------------------------------------

   \                                 In  segment CODE, align 2, keep-with-next
    413          void CEmergencyAlarmWindowNotifyerControl::NotifyerNormalOn(void)
   \                     ??NotifyerNormalOn_1:
    414          {
    415          
    416          }
   \   00000000   9508               RET
    417          
    418          //-----------------------------------------------------------------------------------------------------

   \                                 In  segment CODE, align 2, keep-with-next
    419          void CEmergencyAlarmWindowNotifyerControl::NotifyerIndicationOn(void)
   \                     ??NotifyerIndicationOn_1:
    420          {
   \   00000000   939A               ST      -Y, R25
   \   00000002   938A               ST      -Y, R24
   \   00000004   01C8               MOVW    R25:R24, R17:R16
    421              CPss21::ActiveAlarmWindowOn(INDICATION);
   \   00000006   E001               LDI     R16, 1
   \   00000008   ........           CALL    ??ActiveAlarmWindowOn
    422          }
   \   0000000C   9189               LD      R24, Y+
   \   0000000E   9199               LD      R25, Y+
   \   00000010   9508               RET
    423          
    424          //-----------------------------------------------------------------------------------------------------

   \                                 In  segment CODE, align 2, keep-with-next
    425          void CEmergencyAlarmWindowNotifyerControl::NotifyerPreventiveOn(void)
   \                     ??NotifyerPreventiveOn_1:
    426          {
    427          
    428          }
   \   00000000   9508               RET
    429          
    430          //-----------------------------------------------------------------------------------------------------

   \                                 In  segment CODE, align 2, keep-with-next
    431          void CEmergencyAlarmWindowNotifyerControl::NotifyerEmergencyOn(void)
   \                     ??NotifyerEmergencyOn_1:
    432          {
   \   00000000   939A               ST      -Y, R25
   \   00000002   938A               ST      -Y, R24
   \   00000004   01C8               MOVW    R25:R24, R17:R16
    433              CPss21::ActiveAlarmWindowOn(EMERGENCY);
   \   00000006   E003               LDI     R16, 3
   \   00000008   ........           CALL    ??ActiveAlarmWindowOn
    434          }
   \   0000000C   9189               LD      R24, Y+
   \   0000000E   9199               LD      R25, Y+
   \   00000010   9508               RET
    435          
    436          //-----------------------------------------------------------------------------------------------------

   \                                 In  segment CODE, align 2, keep-with-next
    437          void CEmergencyAlarmWindowNotifyerControl::NotifyerOff(void)
   \                     ??NotifyerOff_1:
    438          {
   \   00000000   939A               ST      -Y, R25
   \   00000002   938A               ST      -Y, R24
   \   00000004   01C8               MOVW    R25:R24, R17:R16
    439              CPss21::ActiveAlarmWindowOff(EMERGENCY);
   \   00000006   E003               LDI     R16, 3
   \   00000008   ........           CALL    ??ActiveAlarmWindowOff
    440          }
   \   0000000C   9189               LD      R24, Y+
   \   0000000E   9199               LD      R25, Y+
   \   00000010   9508               RET
    441          //-----------------------------------------------------------------------------------------------------
    442          
    443          
    444          
    445          
    446          
    447          
    448          
    449          
    450          
    451          //-----------------------------------------------------------------------------------------------------
    452          

   \                                 In  segment CODE, align 2, keep-with-next
    453          CStatusLedNotifyerControl::CStatusLedNotifyerControl()
   \                     ??CStatusLedNotifyerControl:
   \   00000000   93BA               ST      -Y, R27
   \   00000002   93AA               ST      -Y, R26
   \   00000004   01D8               MOVW    R27:R26, R17:R16
    454          {
   \   00000006   018D               MOVW    R17:R16, R27:R26
   \   00000008   ....               RCALL   ??CNotifyerControl
   \   0000000A   ....               LDI     R16, LOW(??__vtbl_5)
   \   0000000C   ....               LDI     R17, (??__vtbl_5) >> 8
   \   0000000E   01FD               MOVW    R31:R30, R27:R26
   \   00000010   8301               STD     Z+1, R16
   \   00000012   8312               STD     Z+2, R17
    455              SetFsmState(NORMAL_SIGNAL_START);
   \   00000014   E128               LDI     R18, 24
   \   00000016   018D               MOVW    R17:R16, R27:R26
   \   00000018   ........           CALL    ??SetFsmState
    456              SetSavedFsmState(NORMAL_SIGNAL_START);
   \   0000001C   E128               LDI     R18, 24
   \   0000001E   018D               MOVW    R17:R16, R27:R26
   \   00000020   ........           CALL    ??SetSavedFsmState
    457          }
   \   00000024   018D               MOVW    R17:R16, R27:R26
   \   00000026   91A9               LD      R26, Y+
   \   00000028   91B9               LD      R27, Y+
   \   0000002A   9508               RET
    458          

   \                                 In  segment CODE, align 2, keep-with-next
    459          CStatusLedNotifyerControl::~CStatusLedNotifyerControl()
   \                     `?~CStatusLedNotifyerControl`:
    460          {
   \   00000000   ........           CALL    ?PROLOGUE4_L09
   \   00000004   01C8               MOVW    R25:R24, R17:R16
   \   00000006   01D9               MOVW    R27:R26, R19:R18
   \   00000008   2F08               MOV     R16, R24
   \   0000000A   2B09               OR      R16, R25
   \   0000000C   F069               BREQ    `?~CStatusLedNotifyerControl_1`
    461              SetFsmState(STOP);
   \   0000000E   E225               LDI     R18, 37
   \   00000010   018C               MOVW    R17:R16, R25:R24
   \   00000012   ........           CALL    ??SetFsmState
    462          }
   \   00000016   E020               LDI     R18, 0
   \   00000018   E030               LDI     R19, 0
   \   0000001A   018C               MOVW    R17:R16, R25:R24
   \   0000001C   ....               RCALL   `?~CNotifyerControl`
   \   0000001E   FBA0               BST     R26, 0
   \   00000020   F41E               BRTC    `?~CStatusLedNotifyerControl_1`
   \   00000022   018C               MOVW    R17:R16, R25:R24
   \   00000024   ........           CALL    `??operator delete`
   \                     `?~CStatusLedNotifyerControl_1`:
   \   00000028   E0E4               LDI     R30, 4
   \   0000002A   ........           JMP     ?EPILOGUE_B4_L09
    463          
    464          //-----------------------------------------------------------------------------------------------------

   \                                 In  segment CODE, align 2, keep-with-next
    465          void CStatusLedNotifyerControl::AlarmSet(uint8_t uiAlarmType)
   \                     ??AlarmSet_2:
    466          {
   \   00000000   ........           CALL    ?PROLOGUE3_L09
   \   00000004   01C8               MOVW    R25:R24, R17:R16
   \   00000006   2FA2               MOV     R26, R18
    467              // Ńîőđŕíčě ňĺęóůĺĺ ńîńňî˙íčĺ ŕâňîěŕňŕ.
    468              SetSavedFsmState(GetFsmState());
   \   00000008   018C               MOVW    R17:R16, R25:R24
   \   0000000A   ........           CALL    ??GetFsmState
   \   0000000E   2F20               MOV     R18, R16
   \   00000010   018C               MOVW    R17:R16, R25:R24
   \   00000012   ........           CALL    ??SetSavedFsmState
    469              switch (uiAlarmType)
   \   00000016   2F0A               MOV     R16, R26
   \   00000018   ....               LDI     R30, LOW(`?<Jumptable for AlarmSet>_2`)
   \   0000001A   ....               LDI     R31, (`?<Jumptable for AlarmSet>_2`) >> 16
   \   0000001C   BFFB               OUT     0x3B, R31
   \   0000001E   ....               LDI     R31, HIGH(`?<Jumptable for AlarmSet>_2`)
   \   00000020   ........           JMP     ?CV_SWITCH_L06
    470              {
    471              case NORMAL:
    472                  SetFsmState(NORMAL_SIGNAL_START);
   \                     ??AlarmSet_14:
   \   00000024   E128               LDI     R18, 24
   \   00000026   018C               MOVW    R17:R16, R25:R24
   \   00000028   ........           CALL    ??SetFsmState
    473                  break;
   \   0000002C   C013               RJMP    ??AlarmSet_15
    474          
    475              case INDICATION:
    476                  SetFsmState(NORMAL_SIGNAL_START);
   \                     ??AlarmSet_16:
   \   0000002E   E128               LDI     R18, 24
   \   00000030   018C               MOVW    R17:R16, R25:R24
   \   00000032   ........           CALL    ??SetFsmState
    477                  break;
   \   00000036   C00E               RJMP    ??AlarmSet_15
    478          
    479              case PREVENTIVE:
    480                  SetFsmState(WARNING_SIGNAL_START);
   \                     ??AlarmSet_17:
   \   00000038   E027               LDI     R18, 7
   \   0000003A   018C               MOVW    R17:R16, R25:R24
   \   0000003C   ........           CALL    ??SetFsmState
    481                  break;
   \   00000040   C009               RJMP    ??AlarmSet_15
    482          
    483              case EMERGENCY:
    484                  SetFsmState(ALARM_SIGNAL_START);
   \                     ??AlarmSet_18:
   \   00000042   E02D               LDI     R18, 13
   \   00000044   018C               MOVW    R17:R16, R25:R24
   \   00000046   ........           CALL    ??SetFsmState
    485                  break;
   \   0000004A   C004               RJMP    ??AlarmSet_15
    486          
    487              case IND_PREVENTIVE:
    488                  break;
    489          
    490              case IND_EMERGENCY:
    491                  break;
    492          
    493              case ERROR:
    494                  SetFsmState(ERROR_SIGNAL_START);
   \                     ??AlarmSet_19:
   \   0000004C   E123               LDI     R18, 19
   \   0000004E   018C               MOVW    R17:R16, R25:R24
   \   00000050   ........           CALL    ??SetFsmState
    495                  break;
    496          
    497              case BEEP_SIGNAL:
    498                  break;
    499          
    500              default:
    501                  break;
    502              }
    503          }
   \                     ??AlarmSet_15:
   \   00000054   E0E3               LDI     R30, 3
   \   00000056   ........           JMP     ?EPILOGUE_B3_L09
    504          
    505          //-----------------------------------------------------------------------------------------------------

   \                                 In  segment CODE, align 2, keep-with-next
    506          void CStatusLedNotifyerControl::NotifyerNormalOn(void)
   \                     ??NotifyerNormalOn_2:
    507          {
   \   00000000   939A               ST      -Y, R25
   \   00000002   938A               ST      -Y, R24
   \   00000004   01C8               MOVW    R25:R24, R17:R16
    508              CPlatform::StatusLedOn();
   \   00000006   ........           CALL    ??StatusLedOn
    509          }
   \   0000000A   9189               LD      R24, Y+
   \   0000000C   9199               LD      R25, Y+
   \   0000000E   9508               RET
    510          
    511          //-----------------------------------------------------------------------------------------------------

   \                                 In  segment CODE, align 2, keep-with-next
    512          void CStatusLedNotifyerControl::NotifyerIndicationOn(void)
   \                     ??NotifyerIndicationOn_2:
    513          {
    514          
    515          }
   \   00000000   9508               RET
    516          
    517          //-----------------------------------------------------------------------------------------------------

   \                                 In  segment CODE, align 2, keep-with-next
    518          void CStatusLedNotifyerControl::NotifyerPreventiveOn(void)
   \                     ??NotifyerPreventiveOn_2:
    519          {
   \   00000000   939A               ST      -Y, R25
   \   00000002   938A               ST      -Y, R24
   \   00000004   01C8               MOVW    R25:R24, R17:R16
    520              CPlatform::StatusLedOn();
   \   00000006   ........           CALL    ??StatusLedOn
    521          }
   \   0000000A   9189               LD      R24, Y+
   \   0000000C   9199               LD      R25, Y+
   \   0000000E   9508               RET
    522          
    523          //-----------------------------------------------------------------------------------------------------

   \                                 In  segment CODE, align 2, keep-with-next
    524          void CStatusLedNotifyerControl::NotifyerEmergencyOn(void)
   \                     ??NotifyerEmergencyOn_2:
    525          {
   \   00000000   939A               ST      -Y, R25
   \   00000002   938A               ST      -Y, R24
   \   00000004   01C8               MOVW    R25:R24, R17:R16
    526              CPlatform::StatusLedOn();
   \   00000006   ........           CALL    ??StatusLedOn
    527          }
   \   0000000A   9189               LD      R24, Y+
   \   0000000C   9199               LD      R25, Y+
   \   0000000E   9508               RET
    528          
    529          //-----------------------------------------------------------------------------------------------------

   \                                 In  segment CODE, align 2, keep-with-next
    530          void CStatusLedNotifyerControl::NotifyerOff(void)
   \                     ??NotifyerOff_2:
    531          {
   \   00000000   939A               ST      -Y, R25
   \   00000002   938A               ST      -Y, R24
   \   00000004   01C8               MOVW    R25:R24, R17:R16
    532              CPlatform::StatusLedOff();
   \   00000006   ........           CALL    ??StatusLedOff
    533              CLightBoard::Set();
   \   0000000A   ........           CALL    ??Set_1
    534          }
   \   0000000E   9189               LD      R24, Y+
   \   00000010   9199               LD      R25, Y+
   \   00000012   9508               RET
    535          //-----------------------------------------------------------------------------------------------------
    536          
    537          
    538          
    539          
    540          
    541          
    542          //-----------------------------------------------------------------------------------------------------
    543          

   \                                 In  segment CODE, align 2, keep-with-next
    544          CBuzzerNotifyerControl::CBuzzerNotifyerControl()
   \                     ??CBuzzerNotifyerControl:
   \   00000000   93BA               ST      -Y, R27
   \   00000002   93AA               ST      -Y, R26
   \   00000004   01D8               MOVW    R27:R26, R17:R16
    545          {
   \   00000006   018D               MOVW    R17:R16, R27:R26
   \   00000008   ....               RCALL   ??CNotifyerControl
   \   0000000A   ....               LDI     R16, LOW(??__vtbl_6)
   \   0000000C   ....               LDI     R17, (??__vtbl_6) >> 8
   \   0000000E   01FD               MOVW    R31:R30, R27:R26
   \   00000010   8301               STD     Z+1, R16
   \   00000012   8312               STD     Z+2, R17
    546              SetFsmState(STOP);
   \   00000014   E225               LDI     R18, 37
   \   00000016   018D               MOVW    R17:R16, R27:R26
   \   00000018   ........           CALL    ??SetFsmState
    547              SetSavedFsmState(STOP);
   \   0000001C   E225               LDI     R18, 37
   \   0000001E   018D               MOVW    R17:R16, R27:R26
   \   00000020   ........           CALL    ??SetSavedFsmState
    548          }
   \   00000024   018D               MOVW    R17:R16, R27:R26
   \   00000026   91A9               LD      R26, Y+
   \   00000028   91B9               LD      R27, Y+
   \   0000002A   9508               RET
    549          

   \                                 In  segment CODE, align 2, keep-with-next
    550          CBuzzerNotifyerControl::~CBuzzerNotifyerControl()
   \                     `?~CBuzzerNotifyerControl`:
    551          {
   \   00000000   ........           CALL    ?PROLOGUE4_L09
   \   00000004   01C8               MOVW    R25:R24, R17:R16
   \   00000006   01D9               MOVW    R27:R26, R19:R18
   \   00000008   2F08               MOV     R16, R24
   \   0000000A   2B09               OR      R16, R25
   \   0000000C   F069               BREQ    `?~CBuzzerNotifyerControl_1`
    552              SetFsmState(STOP);
   \   0000000E   E225               LDI     R18, 37
   \   00000010   018C               MOVW    R17:R16, R25:R24
   \   00000012   ........           CALL    ??SetFsmState
    553          }
   \   00000016   E020               LDI     R18, 0
   \   00000018   E030               LDI     R19, 0
   \   0000001A   018C               MOVW    R17:R16, R25:R24
   \   0000001C   ....               RCALL   `?~CNotifyerControl`
   \   0000001E   FBA0               BST     R26, 0
   \   00000020   F41E               BRTC    `?~CBuzzerNotifyerControl_1`
   \   00000022   018C               MOVW    R17:R16, R25:R24
   \   00000024   ........           CALL    `??operator delete`
   \                     `?~CBuzzerNotifyerControl_1`:
   \   00000028   E0E4               LDI     R30, 4
   \   0000002A   ........           JMP     ?EPILOGUE_B4_L09
    554          
    555          //-----------------------------------------------------------------------------------------------------

   \                                 In  segment CODE, align 2, keep-with-next
    556          void CBuzzerNotifyerControl::AlarmSet(uint8_t uiAlarmType)
   \                     ??AlarmSet_3:
    557          {
   \   00000000   ........           CALL    ?PROLOGUE3_L09
   \   00000004   01C8               MOVW    R25:R24, R17:R16
   \   00000006   2FA2               MOV     R26, R18
    558              // Ńîőđŕíčě ňĺęóůĺĺ ńîńňî˙íčĺ ŕâňîěŕňŕ.
    559              SetSavedFsmState(GetFsmState());
   \   00000008   018C               MOVW    R17:R16, R25:R24
   \   0000000A   ........           CALL    ??GetFsmState
   \   0000000E   2F20               MOV     R18, R16
   \   00000010   018C               MOVW    R17:R16, R25:R24
   \   00000012   ........           CALL    ??SetSavedFsmState
    560              switch (uiAlarmType)
   \   00000016   2F0A               MOV     R16, R26
   \   00000018   ....               LDI     R30, LOW(`?<Jumptable for AlarmSet>_3`)
   \   0000001A   ....               LDI     R31, (`?<Jumptable for AlarmSet>_3`) >> 16
   \   0000001C   BFFB               OUT     0x3B, R31
   \   0000001E   ....               LDI     R31, HIGH(`?<Jumptable for AlarmSet>_3`)
   \   00000020   ........           JMP     ?CV_SWITCH_L06
    561              {
    562              case NORMAL:
    563                  SetFsmState(STOP);
   \                     ??AlarmSet_20:
   \   00000024   E225               LDI     R18, 37
   \   00000026   018C               MOVW    R17:R16, R25:R24
   \   00000028   ........           CALL    ??SetFsmState
    564                  break;
   \   0000002C   C018               RJMP    ??AlarmSet_21
    565          
    566              case INDICATION:
    567                  SetFsmState(STOP);
   \                     ??AlarmSet_22:
   \   0000002E   E225               LDI     R18, 37
   \   00000030   018C               MOVW    R17:R16, R25:R24
   \   00000032   ........           CALL    ??SetFsmState
    568                  break;
   \   00000036   C013               RJMP    ??AlarmSet_21
    569          
    570              case PREVENTIVE:
    571                  SetFsmState(WARNING_SIGNAL_START);
   \                     ??AlarmSet_23:
   \   00000038   E027               LDI     R18, 7
   \   0000003A   018C               MOVW    R17:R16, R25:R24
   \   0000003C   ........           CALL    ??SetFsmState
    572                  break;
   \   00000040   C00E               RJMP    ??AlarmSet_21
    573          
    574              case EMERGENCY:
    575                  SetFsmState(ALARM_SIGNAL_START);
   \                     ??AlarmSet_24:
   \   00000042   E02D               LDI     R18, 13
   \   00000044   018C               MOVW    R17:R16, R25:R24
   \   00000046   ........           CALL    ??SetFsmState
    576                  break;
   \   0000004A   C009               RJMP    ??AlarmSet_21
    577          
    578              case IND_PREVENTIVE:
    579                  break;
    580          
    581              case IND_EMERGENCY:
    582                  break;
    583          
    584              case ERROR:
    585                  SetFsmState(ERROR_SIGNAL_START);
   \                     ??AlarmSet_25:
   \   0000004C   E123               LDI     R18, 19
   \   0000004E   018C               MOVW    R17:R16, R25:R24
   \   00000050   ........           CALL    ??SetFsmState
    586                  break;
   \   00000054   C004               RJMP    ??AlarmSet_21
    587          
    588              case BEEP_SIGNAL:
    589                  SetFsmState(BEEP_SIGNAL_START);
   \                     ??AlarmSet_26:
   \   00000056   E12E               LDI     R18, 30
   \   00000058   018C               MOVW    R17:R16, R25:R24
   \   0000005A   ........           CALL    ??SetFsmState
    590                  break;
    591          
    592              default:
    593                  break;
    594              }
    595          }
   \                     ??AlarmSet_21:
   \   0000005E   E0E3               LDI     R30, 3
   \   00000060   ........           JMP     ?EPILOGUE_B3_L09
    596          
    597          //-----------------------------------------------------------------------------------------------------

   \                                 In  segment CODE, align 2, keep-with-next
    598          void CBuzzerNotifyerControl::NotifyerNormalOn(void)
   \                     ??NotifyerNormalOn_3:
    599          {
   \   00000000   939A               ST      -Y, R25
   \   00000002   938A               ST      -Y, R24
   \   00000004   01C8               MOVW    R25:R24, R17:R16
    600              CBuzzer::Off();
   \   00000006   ........           CALL    ??Off
    601          }
   \   0000000A   9189               LD      R24, Y+
   \   0000000C   9199               LD      R25, Y+
   \   0000000E   9508               RET
    602          
    603          //-----------------------------------------------------------------------------------------------------

   \                                 In  segment CODE, align 2, keep-with-next
    604          void CBuzzerNotifyerControl::NotifyerIndicationOn(void)
   \                     ??NotifyerIndicationOn_3:
    605          {
   \   00000000   939A               ST      -Y, R25
   \   00000002   938A               ST      -Y, R24
   \   00000004   01C8               MOVW    R25:R24, R17:R16
    606              CBuzzer::Off();
   \   00000006   ........           CALL    ??Off
    607          }
   \   0000000A   9189               LD      R24, Y+
   \   0000000C   9199               LD      R25, Y+
   \   0000000E   9508               RET
    608          
    609          //-----------------------------------------------------------------------------------------------------

   \                                 In  segment CODE, align 2, keep-with-next
    610          void CBuzzerNotifyerControl::NotifyerPreventiveOn(void)
   \                     ??NotifyerPreventiveOn_3:
    611          {
   \   00000000   939A               ST      -Y, R25
   \   00000002   938A               ST      -Y, R24
   \   00000004   01C8               MOVW    R25:R24, R17:R16
    612              CBuzzer::LowOn();
   \   00000006   ........           CALL    ??LowOn
    613          }
   \   0000000A   9189               LD      R24, Y+
   \   0000000C   9199               LD      R25, Y+
   \   0000000E   9508               RET
    614          
    615          //-----------------------------------------------------------------------------------------------------

   \                                 In  segment CODE, align 2, keep-with-next
    616          void CBuzzerNotifyerControl::NotifyerEmergencyOn(void)
   \                     ??NotifyerEmergencyOn_3:
    617          {
   \   00000000   939A               ST      -Y, R25
   \   00000002   938A               ST      -Y, R24
   \   00000004   01C8               MOVW    R25:R24, R17:R16
    618              CBuzzer::HighOn();
   \   00000006   ........           CALL    ??HighOn
    619          }
   \   0000000A   9189               LD      R24, Y+
   \   0000000C   9199               LD      R25, Y+
   \   0000000E   9508               RET
    620          
    621          //-----------------------------------------------------------------------------------------------------

   \                                 In  segment CODE, align 2, keep-with-next
    622          void CBuzzerNotifyerControl::NotifyerOff(void)
   \                     ??NotifyerOff_3:
    623          {
   \   00000000   939A               ST      -Y, R25
   \   00000002   938A               ST      -Y, R24
   \   00000004   01C8               MOVW    R25:R24, R17:R16
    624              CBuzzer::Off();
   \   00000006   ........           CALL    ??Off
    625          }
   \   0000000A   9189               LD      R24, Y+
   \   0000000C   9199               LD      R25, Y+
   \   0000000E   9508               RET

   \                                 In  segment SWITCH, align 2, keep-with-next
   \                     `?<Jumptable for Fsm>_0`:
   \   00000000   00                 DB      0
   \   00000001   01                 DB      1
   \   00000002   ....               DW      (??Fsm_2) /2
   \   00000004   ....               DW      (??Fsm_2) /2
   \   00000006   01                 DB      0x1
   \   00000007   ....               DW      (??Fsm_7) /2
   \   00000009   06                 DB      0x6
   \   0000000A   ....               DW      (??Fsm_8) /2
   \   0000000C   01                 DB      0x1
   \   0000000D   ....               DW      (??Fsm_9) /2
   \   0000000F   01                 DB      0x1
   \   00000010   ....               DW      (??Fsm_11) /2
   \   00000012   04                 DB      0x4
   \   00000013   ....               DW      (??Fsm_13) /2
   \   00000015   01                 DB      0x1
   \   00000016   ....               DW      (??Fsm_14) /2
   \   00000018   01                 DB      0x1
   \   00000019   ....               DW      (??Fsm_16) /2
   \   0000001B   04                 DB      0x4
   \   0000001C   ....               DW      (??Fsm_18) /2
   \   0000001E   01                 DB      0x1
   \   0000001F   ....               DW      (??Fsm_19) /2
   \   00000021   01                 DB      0x1
   \   00000022   ....               DW      (??Fsm_21) /2
   \   00000024   01                 DB      0x1
   \   00000025   ....               DW      (??Fsm_23) /2
   \   00000027   01                 DB      0x1
   \   00000028   ....               DW      (??Fsm_25) /2
   \   0000002A   01                 DB      0x1
   \   0000002B   ....               DW      (??Fsm_1) /2
   \   0000002D   01                 DB      0x1
   \   0000002E   ....               DW      (??Fsm_3) /2
   \   00000030   01                 DB      0x1
   \   00000031   ....               DW      (??Fsm_5) /2
   \   00000033   04                 DB      0x4
   \   00000034   ....               DW      (??Fsm_27) /2
   \   00000036   01                 DB      0x1
   \   00000037   ....               DW      (??Fsm_28) /2
   \   00000039   06                 DB      0x6
   \   0000003A   ....               DW      (??Fsm_29) /2
   \   0000003C   FB                 DB      251
   \   0000003D   00                 DB      0

   \                                 In  segment SWITCH, align 2, keep-with-next
   \                     `?<Jumptable for AlarmSet>_0`:
   \   00000000   00                 DB      0
   \   00000001   00                 DB      0
   \   00000002   ....               DW      (??AlarmSet_5) /2
   \   00000004   0008               DW      8
   \   00000006   ....               DW      (??AlarmSet_4) /2
   \   00000008   ....               DW      (??AlarmSet_6) /2
   \   0000000A   ....               DW      (??AlarmSet_7) /2
   \   0000000C   ....               DW      (??AlarmSet_8) /2
   \   0000000E   ....               DW      (??AlarmSet_5) /2
   \   00000010   ....               DW      (??AlarmSet_5) /2
   \   00000012   ....               DW      (??AlarmSet_5) /2
   \   00000014   ....               DW      (??AlarmSet_5) /2

   \                                 In  segment SWITCH, align 2, keep-with-next
   \                     `?<Jumptable for AlarmSet>_1`:
   \   00000000   00                 DB      0
   \   00000001   00                 DB      0
   \   00000002   ....               DW      (??AlarmSet_10) /2
   \   00000004   0008               DW      8
   \   00000006   ....               DW      (??AlarmSet_9) /2
   \   00000008   ....               DW      (??AlarmSet_11) /2
   \   0000000A   ....               DW      (??AlarmSet_12) /2
   \   0000000C   ....               DW      (??AlarmSet_13) /2
   \   0000000E   ....               DW      (??AlarmSet_10) /2
   \   00000010   ....               DW      (??AlarmSet_10) /2
   \   00000012   ....               DW      (??AlarmSet_10) /2
   \   00000014   ....               DW      (??AlarmSet_10) /2

   \                                 In  segment SWITCH, align 2, keep-with-next
   \                     `?<Jumptable for AlarmSet>_2`:
   \   00000000   00                 DB      0
   \   00000001   00                 DB      0
   \   00000002   ....               DW      (??AlarmSet_15) /2
   \   00000004   0008               DW      8
   \   00000006   ....               DW      (??AlarmSet_14) /2
   \   00000008   ....               DW      (??AlarmSet_16) /2
   \   0000000A   ....               DW      (??AlarmSet_17) /2
   \   0000000C   ....               DW      (??AlarmSet_18) /2
   \   0000000E   ....               DW      (??AlarmSet_15) /2
   \   00000010   ....               DW      (??AlarmSet_15) /2
   \   00000012   ....               DW      (??AlarmSet_19) /2
   \   00000014   ....               DW      (??AlarmSet_15) /2

   \                                 In  segment SWITCH, align 2, keep-with-next
   \                     `?<Jumptable for AlarmSet>_3`:
   \   00000000   00                 DB      0
   \   00000001   00                 DB      0
   \   00000002   ....               DW      (??AlarmSet_21) /2
   \   00000004   0008               DW      8
   \   00000006   ....               DW      (??AlarmSet_20) /2
   \   00000008   ....               DW      (??AlarmSet_22) /2
   \   0000000A   ....               DW      (??AlarmSet_23) /2
   \   0000000C   ....               DW      (??AlarmSet_24) /2
   \   0000000E   ....               DW      (??AlarmSet_21) /2
   \   00000010   ....               DW      (??AlarmSet_21) /2
   \   00000012   ....               DW      (??AlarmSet_25) /2
   \   00000014   ....               DW      (??AlarmSet_26) /2

   \                                 In  segment CODE, align 2, keep-with-next
   \   __version_3 CNotifyerControl &CNotifyerControl::new CNotifyerControl()
   \                     `??new CNotifyerControl`:
   \   00000000   E00A               LDI     R16, 10
   \   00000002   E010               LDI     R17, 0
   \   00000004   ........           CALL    `??operator new`
   \   00000008   2F20               MOV     R18, R16
   \   0000000A   2B21               OR      R18, R17
   \   0000000C   F011               BREQ    `??new CNotifyerControl_1`
   \   0000000E   ....               RCALL   ??CNotifyerControl
   \   00000010   9508               RET
   \                     `??new CNotifyerControl_1`:
   \   00000012   E000               LDI     R16, 0
   \   00000014   E010               LDI     R17, 0
   \   00000016   9508               RET

   \                                 In  segment CODE, align 2, keep-with-next
   \   __version_3 CPreventiveAlarmWindowNotifyerControl &CPreventiveAlarmWindowNotifyerControl::new CPreventiveAlarmWindowNotifyerControl()
   \                     `??new CPreventiveAlarmWindowNotifyerControl`:
   \   00000000   E00A               LDI     R16, 10
   \   00000002   E010               LDI     R17, 0
   \   00000004   ........           CALL    `??operator new`
   \   00000008   2F20               MOV     R18, R16
   \   0000000A   2B21               OR      R18, R17
   \   0000000C   F011               BREQ    `??new CPreventiveAlarmWindowNotifyerControl_1`
   \   0000000E   ....               RCALL   ??CPreventiveAlarmWindowNotifyerControl
   \   00000010   9508               RET
   \                     `??new CPreventiveAlarmWindowNotifyerControl_1`:
   \   00000012   E000               LDI     R16, 0
   \   00000014   E010               LDI     R17, 0
   \   00000016   9508               RET

   \                                 In  segment CODE, align 2, keep-with-next
   \   __version_3 CEmergencyAlarmWindowNotifyerControl &CEmergencyAlarmWindowNotifyerControl::new CEmergencyAlarmWindowNotifyerControl()
   \                     `??new CEmergencyAlarmWindowNotifyerControl`:
   \   00000000   E00A               LDI     R16, 10
   \   00000002   E010               LDI     R17, 0
   \   00000004   ........           CALL    `??operator new`
   \   00000008   2F20               MOV     R18, R16
   \   0000000A   2B21               OR      R18, R17
   \   0000000C   F011               BREQ    `??new CEmergencyAlarmWindowNotifyerControl_1`
   \   0000000E   ....               RCALL   ??CEmergencyAlarmWindowNotifyerControl
   \   00000010   9508               RET
   \                     `??new CEmergencyAlarmWindowNotifyerControl_1`:
   \   00000012   E000               LDI     R16, 0
   \   00000014   E010               LDI     R17, 0
   \   00000016   9508               RET

   \                                 In  segment CODE, align 2, keep-with-next
   \   __version_3 CStatusLedNotifyerControl &CStatusLedNotifyerControl::new CStatusLedNotifyerControl()
   \                     `??new CStatusLedNotifyerControl`:
   \   00000000   E00A               LDI     R16, 10
   \   00000002   E010               LDI     R17, 0
   \   00000004   ........           CALL    `??operator new`
   \   00000008   2F20               MOV     R18, R16
   \   0000000A   2B21               OR      R18, R17
   \   0000000C   F011               BREQ    `??new CStatusLedNotifyerControl_1`
   \   0000000E   ....               RCALL   ??CStatusLedNotifyerControl
   \   00000010   9508               RET
   \                     `??new CStatusLedNotifyerControl_1`:
   \   00000012   E000               LDI     R16, 0
   \   00000014   E010               LDI     R17, 0
   \   00000016   9508               RET

   \                                 In  segment CODE, align 2, keep-with-next
   \   __version_3 CBuzzerNotifyerControl &CBuzzerNotifyerControl::new CBuzzerNotifyerControl()
   \                     `??new CBuzzerNotifyerControl`:
   \   00000000   E00A               LDI     R16, 10
   \   00000002   E010               LDI     R17, 0
   \   00000004   ........           CALL    `??operator new`
   \   00000008   2F20               MOV     R18, R16
   \   0000000A   2B21               OR      R18, R17
   \   0000000C   F011               BREQ    `??new CBuzzerNotifyerControl_1`
   \   0000000E   ....               RCALL   ??CBuzzerNotifyerControl
   \   00000010   9508               RET
   \                     `??new CBuzzerNotifyerControl_1`:
   \   00000012   E000               LDI     R16, 0
   \   00000014   E010               LDI     R17, 0
   \   00000016   9508               RET
    626          
    627          
    628          

   Maximum stack usage in bytes:

   CSTACK RSTACK Function
   ------ ------ --------
      3      2   CBuzzerNotifyerControl::AlarmSet(uint8_t)
        3      2   -> CDfa::SetSavedFsmState(uint8_t)
        3      2   -> CDfaLite::GetFsmState()
        3      2   -> CDfaLite::SetFsmState(uint8_t)
        3      2 ?CV_SWITCH_L06
      2      2   CBuzzerNotifyerControl::CBuzzerNotifyerControl()
        2      2   -> CDfa::SetSavedFsmState(uint8_t)
        2      2   -> CDfaLite::SetFsmState(uint8_t)
        2      2   -> CNotifyerControl::CNotifyerControl()
      2      2   CBuzzerNotifyerControl::NotifyerEmergencyOn()
        2      2   -> CBuzzer::HighOn()
      2      2   CBuzzerNotifyerControl::NotifyerIndicationOn()
        2      2   -> CBuzzer::Off()
      2      2   CBuzzerNotifyerControl::NotifyerNormalOn()
        2      2   -> CBuzzer::Off()
      2      2   CBuzzerNotifyerControl::NotifyerOff()
        2      2   -> CBuzzer::Off()
      2      2   CBuzzerNotifyerControl::NotifyerPreventiveOn()
        2      2   -> CBuzzer::LowOn()
      0      2   CBuzzerNotifyerControl::new CBuzzerNotifyerControl()
        0      2   -> CBuzzerNotifyerControl::CBuzzerNotifyerControl()
        0      2   -> operator new(unsigned int)
      4      2   CBuzzerNotifyerControl::~CBuzzerNotifyerControl()
        4      2   -> CDfaLite::SetFsmState(uint8_t)
        4      2   -> CNotifyerControl::~CNotifyerControl()
        4      2   -> operator delete(void *)
      0      2   CDfa::GetSavedFsmState()
      0      2   CDfa::SetSavedFsmState(uint8_t)
      0      2   CDfaLite::GetFsmState()
      0      2   CDfaLite::SetFsmState(uint8_t)
      0      2   CEmergencyAlarmWindowNotifyerControl::ALARM_SIGNAL_OFF_TIME()
      0      2   CEmergencyAlarmWindowNotifyerControl::ALARM_SIGNAL_ON_TIME()
      3      2   CEmergencyAlarmWindowNotifyerControl::AlarmSet(uint8_t)
        3      2   -> CDfa::SetSavedFsmState(uint8_t)
        3      2   -> CDfaLite::GetFsmState()
        3      2   -> CDfaLite::SetFsmState(uint8_t)
        3      2 ?CV_SWITCH_L06
      2      2   CEmergencyAlarmWindowNotifyerControl::CEmergencyAlarmWindowNotifyerControl()
        2      2   -> CDfa::SetSavedFsmState(uint8_t)
        2      2   -> CDfaLite::SetFsmState(uint8_t)
        2      2   -> CNotifyerControl::CNotifyerControl()
      0      2   CEmergencyAlarmWindowNotifyerControl::NORMAL_SIGNAL_OFF_TIME()
      0      2   CEmergencyAlarmWindowNotifyerControl::NORMAL_SIGNAL_ON_TIME()
      2      2   CEmergencyAlarmWindowNotifyerControl::NotifyerEmergencyOn()
        2      2   -> CPss21::ActiveAlarmWindowOn(uint8_t)
      2      2   CEmergencyAlarmWindowNotifyerControl::NotifyerIndicationOn()
        2      2   -> CPss21::ActiveAlarmWindowOn(uint8_t)
      0      2   CEmergencyAlarmWindowNotifyerControl::NotifyerNormalOn()
      2      2   CEmergencyAlarmWindowNotifyerControl::NotifyerOff()
        2      2   -> CPss21::ActiveAlarmWindowOff(uint8_t)
      0      2   CEmergencyAlarmWindowNotifyerControl::NotifyerPreventiveOn()
      0      2   CEmergencyAlarmWindowNotifyerControl::WARNING_SIGNAL_OFF_TIME()
      0      2   CEmergencyAlarmWindowNotifyerControl::WARNING_SIGNAL_ON_TIME()
      0      2   CEmergencyAlarmWindowNotifyerControl::new CEmergencyAlarmWindowNotifyerControl()
        0      2   -> CEmergencyAlarmWindowNotifyerControl::CEmergencyAlarmWindowNotifyerControl()
        0      2   -> operator new(unsigned int)
      4      2   CEmergencyAlarmWindowNotifyerControl::~CEmergencyAlarmWindowNotifyerControl()
        4      2   -> CDfaLite::SetFsmState(uint8_t)
        4      2   -> CNotifyerControl::~CNotifyerControl()
        4      2   -> operator delete(void *)
      0      2   CNotifyerControl::ALARM_SIGNAL_OFF_TIME()
      0      2   CNotifyerControl::ALARM_SIGNAL_ON_TIME()
      0      2   CNotifyerControl::BEEP_SIGNAL_ON_TIME()
      2      2   CNotifyerControl::CNotifyerControl()
        2      2   -> CDfa::CDfa()
        2      2   -> CDfa::SetSavedFsmState(uint8_t)
        2      2   -> CDfaLite::SetFsmState(uint8_t)
        2      2   -> CTimer::CTimer()
      2      2   CNotifyerControl::Fsm()
        2      2   -- Indirect call
        2      2   -> CDfa::GetSavedFsmState()
        2      2   -> CDfaLite::GetFsmState()
        2      2   -> CDfaLite::SetFsmState(uint8_t)
        2      2   -> CTimer::IsOverflow()
        2      2   -> CTimer::Set(uint16_t)
        2      2 ?CV_SWITCH_L06
      0      2   CNotifyerControl::NORMAL_SIGNAL_OFF_TIME()
      0      2   CNotifyerControl::NORMAL_SIGNAL_ON_TIME()
      0      2   CNotifyerControl::WARNING_SIGNAL_OFF_TIME()
      0      2   CNotifyerControl::WARNING_SIGNAL_ON_TIME()
      0      2   CNotifyerControl::new CNotifyerControl()
        0      2   -> CNotifyerControl::CNotifyerControl()
        0      2   -> operator new(unsigned int)
      4      2   CNotifyerControl::~CNotifyerControl()
        4      2   -> CDfa::~CDfa()
        4      2   -> operator delete(void *)
      0      2   CPlatform::StatusLedOff()
      0      2   CPlatform::StatusLedOn()
      0      2   CPreventiveAlarmWindowNotifyerControl::ALARM_SIGNAL_OFF_TIME()
      0      2   CPreventiveAlarmWindowNotifyerControl::ALARM_SIGNAL_ON_TIME()
      3      2   CPreventiveAlarmWindowNotifyerControl::AlarmSet(uint8_t)
        3      2   -> CDfa::SetSavedFsmState(uint8_t)
        3      2   -> CDfaLite::GetFsmState()
        3      2   -> CDfaLite::SetFsmState(uint8_t)
        3      2 ?CV_SWITCH_L06
      2      2   CPreventiveAlarmWindowNotifyerControl::CPreventiveAlarmWindowNotifyerControl()
        2      2   -> CDfa::SetSavedFsmState(uint8_t)
        2      2   -> CDfaLite::SetFsmState(uint8_t)
        2      2   -> CNotifyerControl::CNotifyerControl()
      0      2   CPreventiveAlarmWindowNotifyerControl::NORMAL_SIGNAL_OFF_TIME()
      0      2   CPreventiveAlarmWindowNotifyerControl::NORMAL_SIGNAL_ON_TIME()
      0      2   CPreventiveAlarmWindowNotifyerControl::NotifyerEmergencyOn()
      2      2   CPreventiveAlarmWindowNotifyerControl::NotifyerIndicationOn()
        2      2   -> CPss21::ActiveAlarmWindowOn(uint8_t)
      0      2   CPreventiveAlarmWindowNotifyerControl::NotifyerNormalOn()
      2      2   CPreventiveAlarmWindowNotifyerControl::NotifyerOff()
        2      2   -> CPss21::ActiveAlarmWindowOff(uint8_t)
      2      2   CPreventiveAlarmWindowNotifyerControl::NotifyerPreventiveOn()
        2      2   -> CPss21::ActiveAlarmWindowOn(uint8_t)
      0      2   CPreventiveAlarmWindowNotifyerControl::WARNING_SIGNAL_OFF_TIME()
      0      2   CPreventiveAlarmWindowNotifyerControl::WARNING_SIGNAL_ON_TIME()
      0      2   CPreventiveAlarmWindowNotifyerControl::new CPreventiveAlarmWindowNotifyerControl()
        0      2   -> CPreventiveAlarmWindowNotifyerControl::CPreventiveAlarmWindowNotifyerControl()
        0      2   -> operator new(unsigned int)
      4      2   CPreventiveAlarmWindowNotifyerControl::~CPreventiveAlarmWindowNotifyerControl()
        4      2   -> CDfaLite::SetFsmState(uint8_t)
        4      2   -> CNotifyerControl::~CNotifyerControl()
        4      2   -> operator delete(void *)
      3      2   CStatusLedNotifyerControl::AlarmSet(uint8_t)
        3      2   -> CDfa::SetSavedFsmState(uint8_t)
        3      2   -> CDfaLite::GetFsmState()
        3      2   -> CDfaLite::SetFsmState(uint8_t)
        3      2 ?CV_SWITCH_L06
      2      2   CStatusLedNotifyerControl::CStatusLedNotifyerControl()
        2      2   -> CDfa::SetSavedFsmState(uint8_t)
        2      2   -> CDfaLite::SetFsmState(uint8_t)
        2      2   -> CNotifyerControl::CNotifyerControl()
      2      2   CStatusLedNotifyerControl::NotifyerEmergencyOn()
        2      2   -> CPlatform::StatusLedOn()
      0      2   CStatusLedNotifyerControl::NotifyerIndicationOn()
      2      2   CStatusLedNotifyerControl::NotifyerNormalOn()
        2      2   -> CPlatform::StatusLedOn()
      2      2   CStatusLedNotifyerControl::NotifyerOff()
        2      2   -> CLightBoard::Set()
        2      2   -> CPlatform::StatusLedOff()
      2      2   CStatusLedNotifyerControl::NotifyerPreventiveOn()
        2      2   -> CPlatform::StatusLedOn()
      0      2   CStatusLedNotifyerControl::new CStatusLedNotifyerControl()
        0      2   -> CStatusLedNotifyerControl::CStatusLedNotifyerControl()
        0      2   -> operator new(unsigned int)
      4      2   CStatusLedNotifyerControl::~CStatusLedNotifyerControl()
        4      2   -> CDfaLite::SetFsmState(uint8_t)
        4      2   -> CNotifyerControl::~CNotifyerControl()
        4      2   -> operator delete(void *)


   Segment part sizes:

   Bytes  Function/Label
   -----  --------------
      22  ?<Jumptable for AlarmSet>_0
      22  ?<Jumptable for AlarmSet>_1
      22  ?<Jumptable for AlarmSet>_2
      22  ?<Jumptable for AlarmSet>_3
      62  ?<Jumptable for Fsm>_0
     100  CBuzzerNotifyerControl::AlarmSet(uint8_t)
      44  CBuzzerNotifyerControl::CBuzzerNotifyerControl()
      16  CBuzzerNotifyerControl::NotifyerEmergencyOn()
      16  CBuzzerNotifyerControl::NotifyerIndicationOn()
      16  CBuzzerNotifyerControl::NotifyerNormalOn()
      16  CBuzzerNotifyerControl::NotifyerOff()
      16  CBuzzerNotifyerControl::NotifyerPreventiveOn()
      24  CBuzzerNotifyerControl::new CBuzzerNotifyerControl()
      46  CBuzzerNotifyerControl::~CBuzzerNotifyerControl()
       6  CDfa::GetSavedFsmState()
       6  CDfa::SetSavedFsmState(uint8_t)
       6  CDfaLite::GetFsmState()
       6  CDfaLite::SetFsmState(uint8_t)
       8  CEmergencyAlarmWindowNotifyerControl::ALARM_SIGNAL_OFF_TIME()
       8  CEmergencyAlarmWindowNotifyerControl::ALARM_SIGNAL_ON_TIME()
      80  CEmergencyAlarmWindowNotifyerControl::AlarmSet(uint8_t)
      44  CEmergencyAlarmWindowNotifyerControl::CEmergencyAlarmWindowNotifyerControl()
       8  CEmergencyAlarmWindowNotifyerControl::NORMAL_SIGNAL_OFF_TIME()
       8  CEmergencyAlarmWindowNotifyerControl::NORMAL_SIGNAL_ON_TIME()
      18  CEmergencyAlarmWindowNotifyerControl::NotifyerEmergencyOn()
      18  CEmergencyAlarmWindowNotifyerControl::NotifyerIndicationOn()
       2  CEmergencyAlarmWindowNotifyerControl::NotifyerNormalOn()
      18  CEmergencyAlarmWindowNotifyerControl::NotifyerOff()
       2  CEmergencyAlarmWindowNotifyerControl::NotifyerPreventiveOn()
       8  CEmergencyAlarmWindowNotifyerControl::WARNING_SIGNAL_OFF_TIME()
       8  CEmergencyAlarmWindowNotifyerControl::WARNING_SIGNAL_ON_TIME()
      24  CEmergencyAlarmWindowNotifyerControl::new CEmergencyAlarmWindowNotifyerControl()
      46  CEmergencyAlarmWindowNotifyerControl::~CEmergencyAlarmWindowNotifyerControl()
       8  CNotifyerControl::ALARM_SIGNAL_OFF_TIME()
       8  CNotifyerControl::ALARM_SIGNAL_ON_TIME()
       8  CNotifyerControl::BEEP_SIGNAL_ON_TIME()
      56  CNotifyerControl::CNotifyerControl()
    1274  CNotifyerControl::Fsm()
       8  CNotifyerControl::NORMAL_SIGNAL_OFF_TIME()
       8  CNotifyerControl::NORMAL_SIGNAL_ON_TIME()
       8  CNotifyerControl::WARNING_SIGNAL_OFF_TIME()
       8  CNotifyerControl::WARNING_SIGNAL_ON_TIME()
      24  CNotifyerControl::new CNotifyerControl()
      40  CNotifyerControl::~CNotifyerControl()
      12  CPlatform::StatusLedOff()
      12  CPlatform::StatusLedOn()
       8  CPreventiveAlarmWindowNotifyerControl::ALARM_SIGNAL_OFF_TIME()
       8  CPreventiveAlarmWindowNotifyerControl::ALARM_SIGNAL_ON_TIME()
      80  CPreventiveAlarmWindowNotifyerControl::AlarmSet(uint8_t)
      44  CPreventiveAlarmWindowNotifyerControl::CPreventiveAlarmWindowNotifyerControl()
       8  CPreventiveAlarmWindowNotifyerControl::NORMAL_SIGNAL_OFF_TIME()
       8  CPreventiveAlarmWindowNotifyerControl::NORMAL_SIGNAL_ON_TIME()
       2  CPreventiveAlarmWindowNotifyerControl::NotifyerEmergencyOn()
      18  CPreventiveAlarmWindowNotifyerControl::NotifyerIndicationOn()
       2  CPreventiveAlarmWindowNotifyerControl::NotifyerNormalOn()
      18  CPreventiveAlarmWindowNotifyerControl::NotifyerOff()
      18  CPreventiveAlarmWindowNotifyerControl::NotifyerPreventiveOn()
       8  CPreventiveAlarmWindowNotifyerControl::WARNING_SIGNAL_OFF_TIME()
       8  CPreventiveAlarmWindowNotifyerControl::WARNING_SIGNAL_ON_TIME()
      24  CPreventiveAlarmWindowNotifyerControl::new CPreventiveAlarmWindowNotifyerControl()
      46  CPreventiveAlarmWindowNotifyerControl::~CPreventiveAlarmWindowNotifyerControl()
      90  CStatusLedNotifyerControl::AlarmSet(uint8_t)
      44  CStatusLedNotifyerControl::CStatusLedNotifyerControl()
      16  CStatusLedNotifyerControl::NotifyerEmergencyOn()
       2  CStatusLedNotifyerControl::NotifyerIndicationOn()
      16  CStatusLedNotifyerControl::NotifyerNormalOn()
      20  CStatusLedNotifyerControl::NotifyerOff()
      16  CStatusLedNotifyerControl::NotifyerPreventiveOn()
      24  CStatusLedNotifyerControl::new CStatusLedNotifyerControl()
      46  CStatusLedNotifyerControl::~CStatusLedNotifyerControl()
       1  _A_ACSR
       2  _A_ADC
       1  _A_ADCSRA
       1  _A_ADMUX
       1  _A_ASSR
       1  _A_DDRA
       1  _A_DDRB
       1  _A_DDRC
       1  _A_DDRD
       1  _A_DDRE
       1  _A_DDRF
       1  _A_DDRG
       2  _A_EEAR
       1  _A_EECR
       1  _A_EEDR
       1  _A_EICRA
       1  _A_EICRB
       1  _A_EIFR
       1  _A_EIMSK
       1  _A_ETIFR
       1  _A_ETIMSK
       2  _A_ICR1
       2  _A_ICR3
       1  _A_MCUCR
       1  _A_MCUCSR
       1  _A_OCDR
       1  _A_OCR0
       2  _A_OCR1A
       2  _A_OCR1B
       2  _A_OCR1C
       1  _A_OCR2
       2  _A_OCR3A
       2  _A_OCR3B
       2  _A_OCR3C
       1  _A_OSCCAL
       1  _A_PINA
       1  _A_PINB
       1  _A_PINC
       1  _A_PIND
       1  _A_PINE
       1  _A_PINF
       1  _A_PING
       1  _A_PORTA
       1  _A_PORTB
       1  _A_PORTC
       1  _A_PORTD
       1  _A_PORTE
       1  _A_PORTF
       1  _A_PORTG
       1  _A_RAMPZ
       1  _A_SFIOR
       2  _A_SP
       1  _A_SPCR
       1  _A_SPDR
       1  _A_SPMCSR
       1  _A_SPSR
       1  _A_SREG
       1  _A_TCCR0
       1  _A_TCCR1A
       1  _A_TCCR1B
       1  _A_TCCR1C
       1  _A_TCCR2
       1  _A_TCCR3A
       1  _A_TCCR3B
       1  _A_TCCR3C
       1  _A_TCNT0
       2  _A_TCNT1
       1  _A_TCNT2
       2  _A_TCNT3
       1  _A_TIFR
       1  _A_TIMSK
       1  _A_TWAR
       1  _A_TWBR
       1  _A_TWCR
       1  _A_TWDR
       1  _A_TWSR
       1  _A_UBRR0H
       1  _A_UBRR0L
       1  _A_UBRR1H
       1  _A_UBRR1L
       1  _A_UCSR0A
       1  _A_UCSR0B
       1  _A_UCSR0C
       1  _A_UCSR1A
       1  _A_UCSR1B
       1  _A_UCSR1C
       1  _A_UDR0
       1  _A_UDR1
       1  _A_WDTCR
       1  _A_XDIV
       1  _A_XMCRA
       1  _A_XMCRB
     186  -- Other

 
   105 bytes in segment ABSOLUTE
 2 666 bytes in segment CODE
   186 bytes in segment NEAR_F
   150 bytes in segment SWITCH
 
 2 652 bytes of CODE memory (+ 350 bytes shared)
     0 bytes of DATA memory (+ 105 bytes shared)

Errors: none
Warnings: 2
