###############################################################################
#
# IAR C/C++ Compiler V7.10.6.1378 for Atmel AVR           16/Aug/2022  16:03:11
# Copyright 1996-2018 IAR Systems AB.
#
#    Source file  =  
#        D:\Projects\CautoProjects\PSS48\PSS48\src\NotifyerControl.cpp
#    Command line =  
#        -f C:\Users\ghost\AppData\Local\Temp\EWBFFB.tmp
#        (--string_literals_in_flash
#        D:\Projects\CautoProjects\PSS48\PSS48\src\NotifyerControl.cpp
#        --cpu=m128a -ms -o D:\Projects\CautoProjects\PSS48\PSS48\Debug\Obj -lC
#        D:\Projects\CautoProjects\PSS48\PSS48\Debug\List -lB
#        D:\Projects\CautoProjects\PSS48\PSS48\Debug\List -y
#        --initializers_in_flash --root_variables --debug
#        -DENABLE_BIT_DEFINITIONS -e -I
#        D:\Projects\CautoProjects\PSS48\PSS48\include\ -I
#        D:\Projects\CautoProjects\PSS48\PSS48\Modbus\ --eeprom_size 4096
#        --dlib --dlib_config "C:\Program Files (x86)\IAR Systems\Embedded
#        Workbench 8.0\avr\LIB\DLIB\dlAVR-3s-ec_mul-n.h" -Ohz --eec++)
#    Locale       =  Russian_RUS.1251
#    List file    =  
#        D:\Projects\CautoProjects\PSS48\PSS48\Debug\List\NotifyerControl.lst
#    Object file  =  
#        D:\Projects\CautoProjects\PSS48\PSS48\Debug\Obj\NotifyerControl.r90
#
###############################################################################

D:\Projects\CautoProjects\PSS48\PSS48\src\NotifyerControl.cpp
      1          //-----------------------------------------------------------------------------------------------------
      2          //  Sourse      : FileName.cpp
      3          //  Created     : 01.06.2022
      4          //  Author      : Alexandr Volvenkin
      5          //  email       : aav-36@mail.ru
      6          //  GitHub      : https://github.com/AlexandrVolvenkin
      7          //-----------------------------------------------------------------------------------------------------
      8          #include "NotifyerControl.h"

   \                                 In  segment CODE, align 2, keep-with-next
   \   __version_3 uint16_t CNotifyerControl::NORMAL_SIGNAL_ON_TIME()
   \                     ??NORMAL_SIGNAL_ON_TIME:
   \   00000000   ED00               LDI     R16, 208
   \   00000002   E017               LDI     R17, 7
   \   00000004   9508               RET

   \                                 In  segment CODE, align 2, keep-with-next
   \   __version_3 uint16_t CNotifyerControl::NORMAL_SIGNAL_OFF_TIME()
   \                     ??NORMAL_SIGNAL_OFF_TIME:
   \   00000000   ED00               LDI     R16, 208
   \   00000002   E017               LDI     R17, 7
   \   00000004   9508               RET

   \                                 In  segment CODE, align 2, keep-with-next
   \   __version_3 uint16_t CNotifyerControl::WARNING_SIGNAL_ON_TIME()
   \                     ??WARNING_SIGNAL_ON_TIME:
   \   00000000   E200               LDI     R16, 32
   \   00000002   E013               LDI     R17, 3
   \   00000004   9508               RET

   \                                 In  segment CODE, align 2, keep-with-next
   \   __version_3 uint16_t CNotifyerControl::WARNING_SIGNAL_OFF_TIME()
   \                     ??WARNING_SIGNAL_OFF_TIME:
   \   00000000   E20C               LDI     R16, 44
   \   00000002   E011               LDI     R17, 1
   \   00000004   9508               RET

   \                                 In  segment CODE, align 2, keep-with-next
   \   __version_3 uint16_t CNotifyerControl::ALARM_SIGNAL_ON_TIME()
   \                     ??ALARM_SIGNAL_ON_TIME:
   \   00000000   E20C               LDI     R16, 44
   \   00000002   E011               LDI     R17, 1
   \   00000004   9508               RET

   \                                 In  segment CODE, align 2, keep-with-next
   \   __version_3 uint16_t CNotifyerControl::ALARM_SIGNAL_OFF_TIME()
   \                     ??ALARM_SIGNAL_OFF_TIME:
   \   00000000   E20C               LDI     R16, 44
   \   00000002   E011               LDI     R17, 1
   \   00000004   9508               RET

   \                                 In  segment CODE, align 2, keep-with-next
   \   __version_3 uint16_t CNotifyerControl::ERROR_SIGNAL_ON_TIME()
   \                     ??ERROR_SIGNAL_ON_TIME:
   \   00000000   E906               LDI     R16, 150
   \   00000002   E010               LDI     R17, 0
   \   00000004   9508               RET

   \                                 In  segment CODE, align 2, keep-with-next
   \   __version_3 uint16_t CNotifyerControl::ERROR_SIGNAL_OFF_TIME()
   \                     ??ERROR_SIGNAL_OFF_TIME:
   \   00000000   E906               LDI     R16, 150
   \   00000002   E010               LDI     R17, 0
   \   00000004   9508               RET

   \                                 In  segment CODE, align 2, keep-with-next
   \   __version_3 uint16_t CNotifyerControl::ERROR_SIGNAL_PAUSE_TIME()
   \                     ??ERROR_SIGNAL_PAUSE_TIME:
   \   00000000   EC02               LDI     R16, 194
   \   00000002   E011               LDI     R17, 1
   \   00000004   9508               RET

   \                                 In  segment CODE, align 2, keep-with-next
   \   __version_3 uint16_t CNotifyerControl::BEEP_SIGNAL_ON_TIME()
   \                     ??BEEP_SIGNAL_ON_TIME:
   \   00000000   E302               LDI     R16, 50
   \   00000002   E010               LDI     R17, 0
   \   00000004   9508               RET

   \                                 In  segment CODE, align 2, keep-with-next
   \   __version_3 uint16_t CPreventiveAlarmWindowNotifyerControl::NORMAL_SIGNAL_ON_TIME()
   \                     ??NORMAL_SIGNAL_ON_TIME_1:
   \   00000000   ED00               LDI     R16, 208
   \   00000002   E017               LDI     R17, 7
   \   00000004   9508               RET

   \                                 In  segment CODE, align 2, keep-with-next
   \   __version_3 uint16_t CPreventiveAlarmWindowNotifyerControl::NORMAL_SIGNAL_OFF_TIME()
   \                     ??NORMAL_SIGNAL_OFF_TIME_1:
   \   00000000   ED00               LDI     R16, 208
   \   00000002   E017               LDI     R17, 7
   \   00000004   9508               RET

   \                                 In  segment CODE, align 2, keep-with-next
   \   __version_3 uint16_t CPreventiveAlarmWindowNotifyerControl::WARNING_SIGNAL_ON_TIME()
   \                     ??WARNING_SIGNAL_ON_TIME_1:
   \   00000000   E200               LDI     R16, 32
   \   00000002   E013               LDI     R17, 3
   \   00000004   9508               RET

   \                                 In  segment CODE, align 2, keep-with-next
   \   __version_3 uint16_t CPreventiveAlarmWindowNotifyerControl::WARNING_SIGNAL_OFF_TIME()
   \                     ??WARNING_SIGNAL_OFF_TIME_1:
   \   00000000   E20C               LDI     R16, 44
   \   00000002   E011               LDI     R17, 1
   \   00000004   9508               RET

   \                                 In  segment CODE, align 2, keep-with-next
   \   __version_3 uint16_t CPreventiveAlarmWindowNotifyerControl::ALARM_SIGNAL_ON_TIME()
   \                     ??ALARM_SIGNAL_ON_TIME_1:
   \   00000000   E20C               LDI     R16, 44
   \   00000002   E011               LDI     R17, 1
   \   00000004   9508               RET

   \                                 In  segment CODE, align 2, keep-with-next
   \   __version_3 uint16_t CPreventiveAlarmWindowNotifyerControl::ALARM_SIGNAL_OFF_TIME()
   \                     ??ALARM_SIGNAL_OFF_TIME_1:
   \   00000000   E20C               LDI     R16, 44
   \   00000002   E011               LDI     R17, 1
   \   00000004   9508               RET

   \                                 In  segment CODE, align 2, keep-with-next
   \   __version_3 uint16_t CEmergencyAlarmWindowNotifyerControl::NORMAL_SIGNAL_ON_TIME()
   \                     ??NORMAL_SIGNAL_ON_TIME_2:
   \   00000000   ED00               LDI     R16, 208
   \   00000002   E017               LDI     R17, 7
   \   00000004   9508               RET

   \                                 In  segment CODE, align 2, keep-with-next
   \   __version_3 uint16_t CEmergencyAlarmWindowNotifyerControl::NORMAL_SIGNAL_OFF_TIME()
   \                     ??NORMAL_SIGNAL_OFF_TIME_2:
   \   00000000   ED00               LDI     R16, 208
   \   00000002   E017               LDI     R17, 7
   \   00000004   9508               RET

   \                                 In  segment CODE, align 2, keep-with-next
   \   __version_3 uint16_t CEmergencyAlarmWindowNotifyerControl::WARNING_SIGNAL_ON_TIME()
   \                     ??WARNING_SIGNAL_ON_TIME_2:
   \   00000000   E200               LDI     R16, 32
   \   00000002   E013               LDI     R17, 3
   \   00000004   9508               RET

   \                                 In  segment CODE, align 2, keep-with-next
   \   __version_3 uint16_t CEmergencyAlarmWindowNotifyerControl::WARNING_SIGNAL_OFF_TIME()
   \                     ??WARNING_SIGNAL_OFF_TIME_2:
   \   00000000   E20C               LDI     R16, 44
   \   00000002   E011               LDI     R17, 1
   \   00000004   9508               RET

   \                                 In  segment CODE, align 2, keep-with-next
   \   __version_3 uint16_t CEmergencyAlarmWindowNotifyerControl::ALARM_SIGNAL_ON_TIME()
   \                     ??ALARM_SIGNAL_ON_TIME_2:
   \   00000000   E20C               LDI     R16, 44
   \   00000002   E011               LDI     R17, 1
   \   00000004   9508               RET

   \                                 In  segment CODE, align 2, keep-with-next
   \   __version_3 uint16_t CEmergencyAlarmWindowNotifyerControl::ALARM_SIGNAL_OFF_TIME()
   \                     ??ALARM_SIGNAL_OFF_TIME_2:
   \   00000000   E20C               LDI     R16, 44
   \   00000002   E011               LDI     R17, 1
   \   00000004   9508               RET
      9          #include "Platform.h"

   \                                 In  segment ABSOLUTE, at 0x9d, root
   \   union <unnamed> volatile __io _A_UCSR1C
   \                     _A_UCSR1C:
   \   00000000                      DS8 1

   \                                 In  segment ABSOLUTE, at 0x9c, root
   \   union <unnamed> volatile __io _A_UDR1
   \                     _A_UDR1:
   \   00000000                      DS8 1

   \                                 In  segment ABSOLUTE, at 0x9b, root
   \   union <unnamed> volatile __io _A_UCSR1A
   \                     _A_UCSR1A:
   \   00000000                      DS8 1

   \                                 In  segment ABSOLUTE, at 0x9a, root
   \   union <unnamed> volatile __io _A_UCSR1B
   \                     _A_UCSR1B:
   \   00000000                      DS8 1

   \                                 In  segment ABSOLUTE, at 0x99, root
   \   union <unnamed> volatile __io _A_UBRR1L
   \                     _A_UBRR1L:
   \   00000000                      DS8 1

   \                                 In  segment ABSOLUTE, at 0x98, root
   \   union <unnamed> volatile __io _A_UBRR1H
   \                     _A_UBRR1H:
   \   00000000                      DS8 1

   \                                 In  segment ABSOLUTE, at 0x95, root
   \   union <unnamed> volatile __io _A_UCSR0C
   \                     _A_UCSR0C:
   \   00000000                      DS8 1

   \                                 In  segment ABSOLUTE, at 0x90, root
   \   union <unnamed> volatile __io _A_UBRR0H
   \                     _A_UBRR0H:
   \   00000000                      DS8 1

   \                                 In  segment ABSOLUTE, at 0x8c, root
   \   union <unnamed> volatile __io _A_TCCR3C
   \                     _A_TCCR3C:
   \   00000000                      DS8 1

   \                                 In  segment ABSOLUTE, at 0x8b, root
   \   union <unnamed> volatile __io _A_TCCR3A
   \                     _A_TCCR3A:
   \   00000000                      DS8 1

   \                                 In  segment ABSOLUTE, at 0x8a, root
   \   union <unnamed> volatile __io _A_TCCR3B
   \                     _A_TCCR3B:
   \   00000000                      DS8 1

   \                                 In  segment ABSOLUTE, at 0x88, root
   \   union <unnamed> volatile __io _A_TCNT3
   \                     _A_TCNT3:
   \   00000000                      DS8 2

   \                                 In  segment ABSOLUTE, at 0x86, root
   \   union <unnamed> volatile __io _A_OCR3A
   \                     _A_OCR3A:
   \   00000000                      DS8 2

   \                                 In  segment ABSOLUTE, at 0x84, root
   \   union <unnamed> volatile __io _A_OCR3B
   \                     _A_OCR3B:
   \   00000000                      DS8 2

   \                                 In  segment ABSOLUTE, at 0x82, root
   \   union <unnamed> volatile __io _A_OCR3C
   \                     _A_OCR3C:
   \   00000000                      DS8 2

   \                                 In  segment ABSOLUTE, at 0x80, root
   \   union <unnamed> volatile __io _A_ICR3
   \                     _A_ICR3:
   \   00000000                      DS8 2

   \                                 In  segment ABSOLUTE, at 0x7d, root
   \   union <unnamed> volatile __io _A_ETIMSK
   \                     _A_ETIMSK:
   \   00000000                      DS8 1

   \                                 In  segment ABSOLUTE, at 0x7c, root
   \   union <unnamed> volatile __io _A_ETIFR
   \                     _A_ETIFR:
   \   00000000                      DS8 1

   \                                 In  segment ABSOLUTE, at 0x7a, root
   \   union <unnamed> volatile __io _A_TCCR1C
   \                     _A_TCCR1C:
   \   00000000                      DS8 1

   \                                 In  segment ABSOLUTE, at 0x78, root
   \   union <unnamed> volatile __io _A_OCR1C
   \                     _A_OCR1C:
   \   00000000                      DS8 2

   \                                 In  segment ABSOLUTE, at 0x74, root
   \   union <unnamed> volatile __io _A_TWCR
   \                     _A_TWCR:
   \   00000000                      DS8 1

   \                                 In  segment ABSOLUTE, at 0x73, root
   \   union <unnamed> volatile __io _A_TWDR
   \                     _A_TWDR:
   \   00000000                      DS8 1

   \                                 In  segment ABSOLUTE, at 0x72, root
   \   union <unnamed> volatile __io _A_TWAR
   \                     _A_TWAR:
   \   00000000                      DS8 1

   \                                 In  segment ABSOLUTE, at 0x71, root
   \   union <unnamed> volatile __io _A_TWSR
   \                     _A_TWSR:
   \   00000000                      DS8 1

   \                                 In  segment ABSOLUTE, at 0x70, root
   \   union <unnamed> volatile __io _A_TWBR
   \                     _A_TWBR:
   \   00000000                      DS8 1

   \                                 In  segment ABSOLUTE, at 0x6f, root
   \   union <unnamed> volatile __io _A_OSCCAL
   \                     _A_OSCCAL:
   \   00000000                      DS8 1

   \                                 In  segment ABSOLUTE, at 0x6d, root
   \   union <unnamed> volatile __io _A_XMCRA
   \                     _A_XMCRA:
   \   00000000                      DS8 1

   \                                 In  segment ABSOLUTE, at 0x6c, root
   \   union <unnamed> volatile __io _A_XMCRB
   \                     _A_XMCRB:
   \   00000000                      DS8 1

   \                                 In  segment ABSOLUTE, at 0x6a, root
   \   union <unnamed> volatile __io _A_EICRA
   \                     _A_EICRA:
   \   00000000                      DS8 1

   \                                 In  segment ABSOLUTE, at 0x68, root
   \   union <unnamed> volatile __io _A_SPMCSR
   \                     _A_SPMCSR:
   \   00000000                      DS8 1

   \                                 In  segment ABSOLUTE, at 0x65, root
   \   union <unnamed> volatile __io _A_PORTG
   \                     _A_PORTG:
   \   00000000                      DS8 1

   \                                 In  segment ABSOLUTE, at 0x64, root
   \   union <unnamed> volatile __io _A_DDRG
   \                     _A_DDRG:
   \   00000000                      DS8 1

   \                                 In  segment ABSOLUTE, at 0x63, root
   \   union <unnamed> volatile __io _A_PING
   \                     _A_PING:
   \   00000000                      DS8 1

   \                                 In  segment ABSOLUTE, at 0x62, root
   \   union <unnamed> volatile __io _A_PORTF
   \                     _A_PORTF:
   \   00000000                      DS8 1

   \                                 In  segment ABSOLUTE, at 0x61, root
   \   union <unnamed> volatile __io _A_DDRF
   \                     _A_DDRF:
   \   00000000                      DS8 1

   \                                 In  segment ABSOLUTE, at 0x5f, root
   \   union <unnamed> volatile __io _A_SREG
   \                     _A_SREG:
   \   00000000                      DS8 1

   \                                 In  segment ABSOLUTE, at 0x5d, root
   \   union <unnamed> volatile __io _A_SP
   \                     _A_SP:
   \   00000000                      DS8 2

   \                                 In  segment ABSOLUTE, at 0x5c, root
   \   union <unnamed> volatile __io _A_XDIV
   \                     _A_XDIV:
   \   00000000                      DS8 1

   \                                 In  segment ABSOLUTE, at 0x5b, root
   \   union <unnamed> volatile __io _A_RAMPZ
   \                     _A_RAMPZ:
   \   00000000                      DS8 1

   \                                 In  segment ABSOLUTE, at 0x5a, root
   \   union <unnamed> volatile __io _A_EICRB
   \                     _A_EICRB:
   \   00000000                      DS8 1

   \                                 In  segment ABSOLUTE, at 0x59, root
   \   union <unnamed> volatile __io _A_EIMSK
   \                     _A_EIMSK:
   \   00000000                      DS8 1

   \                                 In  segment ABSOLUTE, at 0x58, root
   \   union <unnamed> volatile __io _A_EIFR
   \                     _A_EIFR:
   \   00000000                      DS8 1

   \                                 In  segment ABSOLUTE, at 0x57, root
   \   union <unnamed> volatile __io _A_TIMSK
   \                     _A_TIMSK:
   \   00000000                      DS8 1

   \                                 In  segment ABSOLUTE, at 0x56, root
   \   union <unnamed> volatile __io _A_TIFR
   \                     _A_TIFR:
   \   00000000                      DS8 1

   \                                 In  segment ABSOLUTE, at 0x55, root
   \   union <unnamed> volatile __io _A_MCUCR
   \                     _A_MCUCR:
   \   00000000                      DS8 1

   \                                 In  segment ABSOLUTE, at 0x54, root
   \   union <unnamed> volatile __io _A_MCUCSR
   \                     _A_MCUCSR:
   \   00000000                      DS8 1

   \                                 In  segment ABSOLUTE, at 0x53, root
   \   union <unnamed> volatile __io _A_TCCR0
   \                     _A_TCCR0:
   \   00000000                      DS8 1

   \                                 In  segment ABSOLUTE, at 0x52, root
   \   union <unnamed> volatile __io _A_TCNT0
   \                     _A_TCNT0:
   \   00000000                      DS8 1

   \                                 In  segment ABSOLUTE, at 0x51, root
   \   union <unnamed> volatile __io _A_OCR0
   \                     _A_OCR0:
   \   00000000                      DS8 1

   \                                 In  segment ABSOLUTE, at 0x50, root
   \   union <unnamed> volatile __io _A_ASSR
   \                     _A_ASSR:
   \   00000000                      DS8 1

   \                                 In  segment ABSOLUTE, at 0x4f, root
   \   union <unnamed> volatile __io _A_TCCR1A
   \                     _A_TCCR1A:
   \   00000000                      DS8 1

   \                                 In  segment ABSOLUTE, at 0x4e, root
   \   union <unnamed> volatile __io _A_TCCR1B
   \                     _A_TCCR1B:
   \   00000000                      DS8 1

   \                                 In  segment ABSOLUTE, at 0x4c, root
   \   union <unnamed> volatile __io _A_TCNT1
   \                     _A_TCNT1:
   \   00000000                      DS8 2

   \                                 In  segment ABSOLUTE, at 0x4a, root
   \   union <unnamed> volatile __io _A_OCR1A
   \                     _A_OCR1A:
   \   00000000                      DS8 2

   \                                 In  segment ABSOLUTE, at 0x48, root
   \   union <unnamed> volatile __io _A_OCR1B
   \                     _A_OCR1B:
   \   00000000                      DS8 2

   \                                 In  segment ABSOLUTE, at 0x46, root
   \   union <unnamed> volatile __io _A_ICR1
   \                     _A_ICR1:
   \   00000000                      DS8 2

   \                                 In  segment ABSOLUTE, at 0x45, root
   \   union <unnamed> volatile __io _A_TCCR2
   \                     _A_TCCR2:
   \   00000000                      DS8 1

   \                                 In  segment ABSOLUTE, at 0x44, root
   \   union <unnamed> volatile __io _A_TCNT2
   \                     _A_TCNT2:
   \   00000000                      DS8 1

   \                                 In  segment ABSOLUTE, at 0x43, root
   \   union <unnamed> volatile __io _A_OCR2
   \                     _A_OCR2:
   \   00000000                      DS8 1

   \                                 In  segment ABSOLUTE, at 0x42, root
   \   union <unnamed> volatile __io _A_OCDR
   \                     _A_OCDR:
   \   00000000                      DS8 1

   \                                 In  segment ABSOLUTE, at 0x41, root
   \   union <unnamed> volatile __io _A_WDTCR
   \                     _A_WDTCR:
   \   00000000                      DS8 1

   \                                 In  segment ABSOLUTE, at 0x40, root
   \   union <unnamed> volatile __io _A_SFIOR
   \                     _A_SFIOR:
   \   00000000                      DS8 1

   \                                 In  segment ABSOLUTE, at 0x3e, root
   \   union <unnamed> volatile __io _A_EEAR
   \                     _A_EEAR:
   \   00000000                      DS8 2

   \                                 In  segment ABSOLUTE, at 0x3d, root
   \   union <unnamed> volatile __io _A_EEDR
   \                     _A_EEDR:
   \   00000000                      DS8 1

   \                                 In  segment ABSOLUTE, at 0x3c, root
   \   union <unnamed> volatile __io _A_EECR
   \                     _A_EECR:
   \   00000000                      DS8 1

   \                                 In  segment ABSOLUTE, at 0x3b, root
   \   union <unnamed> volatile __io _A_PORTA
   \                     _A_PORTA:
   \   00000000                      DS8 1

   \                                 In  segment ABSOLUTE, at 0x3a, root
   \   union <unnamed> volatile __io _A_DDRA
   \                     _A_DDRA:
   \   00000000                      DS8 1

   \                                 In  segment ABSOLUTE, at 0x39, root
   \   union <unnamed> volatile __io _A_PINA
   \                     _A_PINA:
   \   00000000                      DS8 1

   \                                 In  segment ABSOLUTE, at 0x38, root
   \   union <unnamed> volatile __io _A_PORTB
   \                     _A_PORTB:
   \   00000000                      DS8 1

   \                                 In  segment ABSOLUTE, at 0x37, root
   \   union <unnamed> volatile __io _A_DDRB
   \                     _A_DDRB:
   \   00000000                      DS8 1

   \                                 In  segment ABSOLUTE, at 0x36, root
   \   union <unnamed> volatile __io _A_PINB
   \                     _A_PINB:
   \   00000000                      DS8 1

   \                                 In  segment ABSOLUTE, at 0x35, root
   \   union <unnamed> volatile __io _A_PORTC
   \                     _A_PORTC:
   \   00000000                      DS8 1

   \                                 In  segment ABSOLUTE, at 0x34, root
   \   union <unnamed> volatile __io _A_DDRC
   \                     _A_DDRC:
   \   00000000                      DS8 1

   \                                 In  segment ABSOLUTE, at 0x33, root
   \   union <unnamed> volatile __io _A_PINC
   \                     _A_PINC:
   \   00000000                      DS8 1

   \                                 In  segment ABSOLUTE, at 0x32, root
   \   union <unnamed> volatile __io _A_PORTD
   \                     _A_PORTD:
   \   00000000                      DS8 1

   \                                 In  segment ABSOLUTE, at 0x31, root
   \   union <unnamed> volatile __io _A_DDRD
   \                     _A_DDRD:
   \   00000000                      DS8 1

   \                                 In  segment ABSOLUTE, at 0x30, root
   \   union <unnamed> volatile __io _A_PIND
   \                     _A_PIND:
   \   00000000                      DS8 1

   \                                 In  segment ABSOLUTE, at 0x2f, root
   \   union <unnamed> volatile __io _A_SPDR
   \                     _A_SPDR:
   \   00000000                      DS8 1

   \                                 In  segment ABSOLUTE, at 0x2e, root
   \   union <unnamed> volatile __io _A_SPSR
   \                     _A_SPSR:
   \   00000000                      DS8 1

   \                                 In  segment ABSOLUTE, at 0x2d, root
   \   union <unnamed> volatile __io _A_SPCR
   \                     _A_SPCR:
   \   00000000                      DS8 1

   \                                 In  segment ABSOLUTE, at 0x2c, root
   \   union <unnamed> volatile __io _A_UDR0
   \                     _A_UDR0:
   \   00000000                      DS8 1

   \                                 In  segment ABSOLUTE, at 0x2b, root
   \   union <unnamed> volatile __io _A_UCSR0A
   \                     _A_UCSR0A:
   \   00000000                      DS8 1

   \                                 In  segment ABSOLUTE, at 0x2a, root
   \   union <unnamed> volatile __io _A_UCSR0B
   \                     _A_UCSR0B:
   \   00000000                      DS8 1

   \                                 In  segment ABSOLUTE, at 0x29, root
   \   union <unnamed> volatile __io _A_UBRR0L
   \                     _A_UBRR0L:
   \   00000000                      DS8 1

   \                                 In  segment ABSOLUTE, at 0x28, root
   \   union <unnamed> volatile __io _A_ACSR
   \                     _A_ACSR:
   \   00000000                      DS8 1

   \                                 In  segment ABSOLUTE, at 0x27, root
   \   union <unnamed> volatile __io _A_ADMUX
   \                     _A_ADMUX:
   \   00000000                      DS8 1

   \                                 In  segment ABSOLUTE, at 0x26, root
   \   union <unnamed> volatile __io _A_ADCSRA
   \                     _A_ADCSRA:
   \   00000000                      DS8 1

   \                                 In  segment ABSOLUTE, at 0x24, root
   \   union <unnamed> volatile __io _A_ADC
   \                     _A_ADC:
   \   00000000                      DS8 2

   \                                 In  segment ABSOLUTE, at 0x23, root
   \   union <unnamed> volatile __io _A_PORTE
   \                     _A_PORTE:
   \   00000000                      DS8 1

   \                                 In  segment ABSOLUTE, at 0x22, root
   \   union <unnamed> volatile __io _A_DDRE
   \                     _A_DDRE:
   \   00000000                      DS8 1

   \                                 In  segment ABSOLUTE, at 0x21, root
   \   union <unnamed> volatile __io _A_PINE
   \                     _A_PINE:
   \   00000000                      DS8 1

   \                                 In  segment ABSOLUTE, at 0x20, root
   \   union <unnamed> volatile __io _A_PINF
   \                     _A_PINF:
   \   00000000                      DS8 1

      static __flash TDataBase CFlash::xMainDataBase;
                               ^
"D:\Projects\CautoProjects\PSS48\PSS48\include\Platform.h",366  Warning[Pe427]: 
          qualified name is not allowed in member declaration

      static __flash TDataBaseBlockPositionData CFlash::axDataBaseBlocksPositionData[];
                                                ^
"D:\Projects\CautoProjects\PSS48\PSS48\include\Platform.h",367  Warning[Pe427]: 
          qualified name is not allowed in member declaration
     10          #include "Pss21.h"
     11          #include "Buzzer.h"
     12          
     13          //-----------------------------------------------------------------------------------------------------

   \                                 In  segment CODE, align 2, keep-with-next
     14          CNotifyerControl::CNotifyerControl()
   \                     ??CNotifyerControl:
   \   00000000   ....               RCALL   ?Subroutine17
     15          {
   \                     ??CrossCallReturnLabel_24:
   \   00000002   ........           CALL    ??CDfa
   \   00000006   ....               LDI     R16, LOW(??__vtbl)
   \   00000008   ....               LDI     R17, (??__vtbl) >> 8
   \   0000000A   ....               RCALL   ?Subroutine18
   \                     ??CrossCallReturnLabel_27:
   \   0000000C   ....               RCALL   ?Subroutine19
   \                     ??CrossCallReturnLabel_30:
   \   0000000E   ........           CALL    ??CTimer
     16              SetFsmState(STOP);
   \   00000012   E205               LDI     R16, 37
   \   00000014   930C               ST      X, R16
     17              SetSavedFsmState(STOP);
   \   00000016   01FD               MOVW    R31:R30, R27:R26
   \   00000018   ....               RJMP    ?Subroutine20
     18          }

   \                                 In  segment CODE, align 2, keep-with-next
   \                     ?Subroutine18:
   \   00000000   01FD               MOVW    R31:R30, R27:R26
   \   00000002   8301               STD     Z+1, R16
   \   00000004   8312               STD     Z+2, R17
   \   00000006   9508               RET

   \                                 In  segment CODE, align 2, keep-with-next
   \                     ?Subroutine20:
   \   00000000   8303               STD     Z+3, R16
   \   00000002   018D               MOVW    R17:R16, R27:R26
   \   00000004                      REQUIRE ?Subroutine24
   \   00000004                      ;               // Fall through to label ?Subroutine24

   \                                 In  segment CODE, align 2, keep-with-next
   \                     ?Subroutine24:
   \   00000000   91A9               LD      R26, Y+
   \   00000002   91B9               LD      R27, Y+
   \   00000004   9508               RET

   \                                 In  segment CODE, align 2, keep-with-next
   \                     ?Subroutine17:
   \   00000000   93BA               ST      -Y, R27
   \   00000002   93AA               ST      -Y, R26
   \   00000004   01D8               MOVW    R27:R26, R17:R16
   \   00000006   9508               RET

   \                                 In  segment CODE, align 2, keep-with-next
   \                     ?Subroutine19:
   \   00000000   018D               MOVW    R17:R16, R27:R26
   \   00000002   5F0A               SUBI    R16, 250
   \   00000004   4F1F               SBCI    R17, 255
   \   00000006   9508               RET
     19          

   \                                 In  segment CODE, align 2, keep-with-next
     20          CNotifyerControl::~CNotifyerControl()
   \                     `?~CNotifyerControl`:
     21          {
   \   00000000   ........           CALL    ?PROLOGUE3_L09
   \   00000004   01C8               MOVW    R25:R24, R17:R16
   \   00000006   2FA2               MOV     R26, R18
   \   00000008   2B01               OR      R16, R17
   \   0000000A   F051               BREQ    `?~CNotifyerControl_1`
     22          
     23          }
   \   0000000C   E020               LDI     R18, 0
   \   0000000E   E030               LDI     R19, 0
   \   00000010   2F08               MOV     R16, R24
   \   00000012   ........           CALL    `?~CDfa`
   \   00000016   FBA0               BST     R26, 0
   \   00000018   F41E               BRTC    `?~CNotifyerControl_1`
   \   0000001A   018C               MOVW    R17:R16, R25:R24
   \   0000001C   ........           CALL    `??operator delete`
   \                     `?~CNotifyerControl_1`:
   \   00000020   E0E3               LDI     R30, 3
   \   00000022   ........           JMP     ?EPILOGUE_B3_L09
     24          
     25          ////-----------------------------------------------------------------------------------------------------
     26          //void CNotifyerControl::Init(CAlarmWindow* pxAlarmWindowControl)
     27          //{
     28          ////    m_pxAlarmWindowControl = pxAlarmWindowControl;
     29          //    SetFsmState(CNotifyerControl::STOP);
     30          //}
     31          
     32          ////-----------------------------------------------------------------------------------------------------
     33          //void CNotifyerControl::AlarmSet(uint8_t uiAlarmType)
     34          //{
     35          ////    SetSavedFsmState(GetFsmState());
     36          ////    m_uiAlarmType = uiAlarmType;
     37          ////    switch (m_uiAlarmType)
     38          //    switch (uiAlarmType)
     39          //    {
     40          //    case NORMAL:
     41          //        SetFsmState(STOP);
     42          //        break;
     43          //
     44          //    case NORMAL:
     45          //        SetFsmState(NORMAL_SIGNAL_START);
     46          //        break;
     47          //
     48          //    case INDICATION:
     49          //        SetFsmState(INDICATION_SIGNAL_START);
     50          //        break;
     51          //
     52          //    case PREVENTIVE:
     53          //        SetFsmState(WARNING_SIGNAL_START);
     54          //        break;
     55          //
     56          //    case EMERGENCY:
     57          //        SetFsmState(ALARM_SIGNAL_START);
     58          //        break;
     59          //
     60          //    case IND_PREVENTIVE:
     61          //        break;
     62          //
     63          //    case IND_EMERGENCY:
     64          //        break;
     65          //
     66          //    default:
     67          //        break;
     68          //    }
     69          //}
     70          
     71          //class Base
     72          //{
     73          //    const int k;
     74          //public:
     75          //    Base(const int i) :
     76          //        k(i)
     77          //    {
     78          //    }
     79          //    virtual void print() const
     80          //    {
     81          //        std::cout << k << std::endl;
     82          //    }
     83          //};
     84          //class D1 : public Base
     85          //{
     86          //public:
     87          //    D1(const int j) :
     88          //        Base(j)
     89          //    {
     90          //    }
     91          //};
     92          
     93          //-----------------------------------------------------------------------------------------------------

   \                                 In  segment CODE, align 2, keep-with-next
     94          void CNotifyerControl::Fsm(void)
   \                     ??Fsm:
     95          {
   \   00000000   ....               RCALL   ?Subroutine17
     96              switch (GetFsmState())
   \                     ??CrossCallReturnLabel_25:
   \   00000002   910C               LD      R16, X
   \   00000004   ....               LDI     R30, LOW(`?<Jumptable for Fsm>_0`)
   \   00000006   ....               LDI     R31, (`?<Jumptable for Fsm>_0`) >> 16
   \   00000008   BFFB               OUT     0x3B, R31
   \   0000000A   ....               LDI     R31, HIGH(`?<Jumptable for Fsm>_0`)
   \   0000000C   ........           JMP     ?CV_SWITCH_L06
     97              {
     98              case IDDLE:
     99                  break;
    100          
    101              case NORMAL_SIGNAL_START:
    102                  m_xTimer.Set(NORMAL_SIGNAL_ON_TIME());
    103                  NotifyerNormalOn();
    104                  SetFsmState(NORMAL_SIGNAL_ON);
    105                  break;
    106          
    107              case NORMAL_SIGNAL_ON:
    108                  if (m_xTimer.IsOverflow())
   \                     ??Fsm_1:
   \   00000010   ....               RCALL   ?Subroutine1
   \                     ??CrossCallReturnLabel_0:
   \   00000012   F409               BRNE    $+2+2
   \   00000014   C059               RJMP    ??Fsm_2
    109                  {
    110                      m_xTimer.Set(NORMAL_SIGNAL_OFF_TIME());
   \   00000016   ....               RCALL   ?Subroutine21
   \                     ??CrossCallReturnLabel_44:
   \   00000018   9672               ADIW    R31:R30, 18
   \   0000001A   ....               RCALL   ?Subroutine0
    111                      NotifyerOff();
    112                      SetFsmState(NORMAL_SIGNAL_OFF);
   \                     ??CrossCallReturnLabel_57:
   \   0000001C   E10A               LDI     R16, 26
   \   0000001E   C053               RJMP    ??Fsm_3
    113                  }
    114                  break;
    115          
    116              case NORMAL_SIGNAL_OFF:
    117                  if (m_xTimer.IsOverflow())
   \                     ??Fsm_4:
   \   00000020   ....               RCALL   ?Subroutine1
   \                     ??CrossCallReturnLabel_1:
   \   00000022   F409               BRNE    $+2+2
   \   00000024   C051               RJMP    ??Fsm_2
    118                  {
    119                      m_xTimer.Set(NORMAL_SIGNAL_ON_TIME());
   \                     ??Fsm_5:
   \   00000026   ....               RCALL   ?Subroutine21
   \                     ??CrossCallReturnLabel_45:
   \   00000028   9670               ADIW    R31:R30, 16
   \   0000002A   ....               RCALL   ?Subroutine7
    120                      NotifyerNormalOn();
   \                     ??CrossCallReturnLabel_14:
   \   0000002C   9634               ADIW    R31:R30, 4
   \   0000002E   ....               RCALL   ?Subroutine22
    121                      SetFsmState(NORMAL_SIGNAL_ON);
   \                     ??CrossCallReturnLabel_62:
   \   00000030   E109               LDI     R16, 25
   \   00000032   C049               RJMP    ??Fsm_3
    122                  }
    123                  break;
    124          
    125              case INDICATION_SIGNAL_START:
    126          //        m_xTimer.Set(NORMAL_SIGNAL_ON_TIME());
    127                  NotifyerIndicationOn();
   \                     ??Fsm_6:
   \   00000034   ....               RCALL   ?Subroutine21
   \                     ??CrossCallReturnLabel_46:
   \   00000036   9636               ADIW    R31:R30, 6
   \   00000038   ....               RCALL   ?Subroutine22
    128                  SetFsmState(INDICATION_SIGNAL_ON);
   \                     ??CrossCallReturnLabel_63:
   \   0000003A   E002               LDI     R16, 2
   \   0000003C   C044               RJMP    ??Fsm_3
    129                  break;
    130          
    131          //    case INDICATION_SIGNAL_ON:
    132          ////        if (m_xTimer.IsOverflow())
    133          ////        {
    134          ////            m_xTimer.Set(NORMAL_SIGNAL_OFF_TIME());
    135          //////            NotifyerOff();
    136          ////            SetFsmState(INDICATION_SIGNAL_OFF);
    137          ////        }
    138          //        break;
    139          //
    140          //    case INDICATION_SIGNAL_OFF:
    141          ////        if (m_xTimer.IsOverflow())
    142          ////        {
    143          ////            m_xTimer.Set(NORMAL_SIGNAL_ON_TIME());
    144          ////            NotifyerIndicationOn();
    145          ////            SetFsmState(INDICATION_SIGNAL_ON);
    146          ////        }
    147          //        break;
    148          
    149              case WARNING_SIGNAL_START:
    150                  m_xTimer.Set(WARNING_SIGNAL_ON_TIME());
    151                  NotifyerPreventiveOn();
    152                  SetFsmState(WARNING_SIGNAL_ON);
    153                  break;
    154          
    155              case WARNING_SIGNAL_ON:
    156                  if (m_xTimer.IsOverflow())
   \                     ??Fsm_7:
   \   0000003E   ....               RCALL   ?Subroutine1
   \                     ??CrossCallReturnLabel_2:
   \   00000040   F409               BRNE    $+2+2
   \   00000042   C042               RJMP    ??Fsm_2
    157                  {
    158                      m_xTimer.Set(WARNING_SIGNAL_OFF_TIME());
   \   00000044   ....               RCALL   ?Subroutine21
   \                     ??CrossCallReturnLabel_47:
   \   00000046   9676               ADIW    R31:R30, 22
   \   00000048   ....               RCALL   ?Subroutine0
    159                      NotifyerOff();
    160                      SetFsmState(WARNING_SIGNAL_OFF);
   \                     ??CrossCallReturnLabel_58:
   \   0000004A   E009               LDI     R16, 9
   \   0000004C   C03C               RJMP    ??Fsm_3
    161                  }
    162                  break;
    163          
    164              case WARNING_SIGNAL_OFF:
    165                  if (m_xTimer.IsOverflow())
   \                     ??Fsm_8:
   \   0000004E   ....               RCALL   ?Subroutine1
   \                     ??CrossCallReturnLabel_3:
   \   00000050   F1D9               BREQ    ??Fsm_2
    166                  {
    167                      m_xTimer.Set(WARNING_SIGNAL_ON_TIME());
   \                     ??Fsm_9:
   \   00000052   ....               RCALL   ?Subroutine21
   \                     ??CrossCallReturnLabel_48:
   \   00000054   9674               ADIW    R31:R30, 20
   \   00000056   ....               RCALL   ?Subroutine7
    168                      NotifyerPreventiveOn();
   \                     ??CrossCallReturnLabel_13:
   \   00000058   9638               ADIW    R31:R30, 8
   \   0000005A   ....               RCALL   ?Subroutine22
    169                      SetFsmState(WARNING_SIGNAL_ON);
   \                     ??CrossCallReturnLabel_64:
   \   0000005C   E008               LDI     R16, 8
   \   0000005E   C033               RJMP    ??Fsm_3
    170                  }
    171                  break;
    172          
    173              case ALARM_SIGNAL_START:
    174                  m_xTimer.Set(ALARM_SIGNAL_ON_TIME());
    175                  NotifyerEmergencyOn();
    176                  SetFsmState(ALARM_SIGNAL_ON);
    177                  break;
    178          
    179              case ALARM_SIGNAL_ON:
    180                  if (m_xTimer.IsOverflow())
   \                     ??Fsm_10:
   \   00000060   ....               RCALL   ?Subroutine1
   \                     ??CrossCallReturnLabel_4:
   \   00000062   F191               BREQ    ??Fsm_2
    181                  {
    182                      m_xTimer.Set(ALARM_SIGNAL_OFF_TIME());
   \   00000064   ....               RCALL   ?Subroutine21
   \                     ??CrossCallReturnLabel_49:
   \   00000066   967A               ADIW    R31:R30, 26
   \   00000068   ....               RCALL   ?Subroutine0
    183                      NotifyerOff();
    184                      SetFsmState(ALARM_SIGNAL_OFF);
   \                     ??CrossCallReturnLabel_59:
   \   0000006A   E00F               LDI     R16, 15
   \   0000006C   C02C               RJMP    ??Fsm_3
    185                  }
    186                  break;
    187          
    188              case ALARM_SIGNAL_OFF:
    189                  if (m_xTimer.IsOverflow())
   \                     ??Fsm_11:
   \   0000006E   ....               RCALL   ?Subroutine1
   \                     ??CrossCallReturnLabel_5:
   \   00000070   F159               BREQ    ??Fsm_2
    190                  {
    191                      m_xTimer.Set(ALARM_SIGNAL_ON_TIME());
   \                     ??Fsm_12:
   \   00000072   ....               RCALL   ?Subroutine21
   \                     ??CrossCallReturnLabel_50:
   \   00000074   9678               ADIW    R31:R30, 24
   \   00000076   ....               RCALL   ??Subroutine31_0
    192                      NotifyerEmergencyOn();
    193                      SetFsmState(ALARM_SIGNAL_ON);
   \                     ??CrossCallReturnLabel_38:
   \   00000078   E00E               LDI     R16, 14
   \   0000007A   C025               RJMP    ??Fsm_3
    194                  }
    195                  break;
    196          
    197              case ERROR_SIGNAL_START:
    198                  m_xTimer.Set(ERROR_SIGNAL_ON_TIME());
    199                  NotifyerEmergencyOn();
    200                  SetFsmState(ERROR_SIGNAL_ON);
    201                  break;
    202          
    203              case ERROR_SIGNAL_ON:
    204                  if (m_xTimer.IsOverflow())
   \                     ??Fsm_13:
   \   0000007C   ....               RCALL   ?Subroutine1
   \                     ??CrossCallReturnLabel_6:
   \   0000007E   F121               BREQ    ??Fsm_2
    205                  {
    206                      m_xTimer.Set(ERROR_SIGNAL_OFF_TIME());
   \   00000080   ....               RCALL   ?Subroutine21
   \                     ??CrossCallReturnLabel_51:
   \   00000082   967E               ADIW    R31:R30, 30
   \   00000084   ....               RCALL   ?Subroutine0
    207                      NotifyerOff();
    208                      SetFsmState(ERROR_SIGNAL_OFF);
   \                     ??CrossCallReturnLabel_60:
   \   00000086   E105               LDI     R16, 21
   \   00000088   C01E               RJMP    ??Fsm_3
    209                  }
    210                  break;
    211          
    212              case ERROR_SIGNAL_OFF:
    213                  if (m_xTimer.IsOverflow())
   \                     ??Fsm_14:
   \   0000008A   ....               RCALL   ?Subroutine1
   \                     ??CrossCallReturnLabel_7:
   \   0000008C   F0E9               BREQ    ??Fsm_2
    214                  {
    215                      m_xTimer.Set(ERROR_SIGNAL_ON_TIME());
   \   0000008E   ....               RCALL   ?Subroutine3
    216                      NotifyerEmergencyOn();
    217                      SetFsmState(ERROR_SIGNAL_ON_2);
   \                     ??CrossCallReturnLabel_40:
   \   00000090   E106               LDI     R16, 22
   \   00000092   C019               RJMP    ??Fsm_3
    218                  }
    219                  break;
    220          
    221              case ERROR_SIGNAL_ON_2:
    222                  if (m_xTimer.IsOverflow())
   \                     ??Fsm_15:
   \   00000094   ....               RCALL   ?Subroutine1
   \                     ??CrossCallReturnLabel_8:
   \   00000096   F0C1               BREQ    ??Fsm_2
    223                  {
    224                      m_xTimer.Set(ERROR_SIGNAL_PAUSE_TIME());
   \   00000098   ....               RCALL   ?Subroutine21
   \                     ??CrossCallReturnLabel_52:
   \   0000009A   96B0               ADIW    R31:R30, 32
   \   0000009C   ....               RCALL   ?Subroutine0
    225                      NotifyerOff();
    226                      SetFsmState(ERROR_SIGNAL_OFF_2);
   \                     ??CrossCallReturnLabel_61:
   \   0000009E   E107               LDI     R16, 23
   \   000000A0   C012               RJMP    ??Fsm_3
    227                  }
    228                  break;
    229          
    230              case ERROR_SIGNAL_OFF_2:
    231                  if (m_xTimer.IsOverflow())
   \                     ??Fsm_16:
   \   000000A2   ....               RCALL   ?Subroutine1
   \                     ??CrossCallReturnLabel_9:
   \   000000A4   F089               BREQ    ??Fsm_2
    232                  {
    233                      m_xTimer.Set(ERROR_SIGNAL_ON_TIME());
   \                     ??Fsm_17:
   \   000000A6   ....               RCALL   ?Subroutine3
    234                      NotifyerEmergencyOn();
    235                      SetFsmState(ERROR_SIGNAL_ON);
   \                     ??CrossCallReturnLabel_41:
   \   000000A8   E104               LDI     R16, 20
   \   000000AA   C00D               RJMP    ??Fsm_3
    236                  }
    237                  break;
    238          
    239              case BEEP_SIGNAL_START:
    240                  m_xTimer.Set(BEEP_SIGNAL_ON_TIME());
   \                     ??Fsm_18:
   \   000000AC   ....               RCALL   ?Subroutine21
   \                     ??CrossCallReturnLabel_53:
   \   000000AE   96B2               ADIW    R31:R30, 34
   \   000000B0   ....               RCALL   ??Subroutine31_0
    241                  NotifyerEmergencyOn();
    242                  SetFsmState(BEEP_SIGNAL_ON);
   \                     ??CrossCallReturnLabel_39:
   \   000000B2   E10F               LDI     R16, 31
   \   000000B4   C008               RJMP    ??Fsm_3
    243                  break;
    244          
    245              case BEEP_SIGNAL_ON:
    246                  if (m_xTimer.IsOverflow())
   \                     ??Fsm_19:
   \   000000B6   ....               RCALL   ?Subroutine1
   \                     ??CrossCallReturnLabel_10:
   \   000000B8   F039               BREQ    ??Fsm_2
    247                  {
    248                      NotifyerOff();
   \   000000BA   ....               RCALL   ?Subroutine6
    249                      // Âîńńňŕíîâčě ďđĺäűäóůĺĺ ńîńňî˙íčĺ ŕâňîěŕňŕ.
    250                      SetFsmState(GetSavedFsmState());
   \                     ??CrossCallReturnLabel_11:
   \   000000BC   01FD               MOVW    R31:R30, R27:R26
   \   000000BE   8103               LDD     R16, Z+3
   \   000000C0   C002               RJMP    ??Fsm_3
    251          //            SetFsmState(STOP);
    252                  }
    253                  break;
    254          
    255              case STOP:
    256                  NotifyerOff();
   \                     ??Fsm_20:
   \   000000C2   ....               RCALL   ?Subroutine6
    257                  SetFsmState(IDDLE);
   \                     ??CrossCallReturnLabel_12:
   \   000000C4   E000               LDI     R16, 0
   \                     ??Fsm_3:
   \   000000C6   930C               ST      X, R16
    258                  break;
    259          
    260              default:
    261                  break;
    262              };
    263          }
   \                     ??Fsm_2:
   \   000000C8   ....               RJMP    ?Subroutine24

   \                                 In  segment CODE, align 2, keep-with-next
   \                     ?Subroutine7:
   \   00000000   ....               RCALL   ?Subroutine22
   \                     ??CrossCallReturnLabel_65:
   \   00000002   0198               MOVW    R19:R18, R17:R16
   \   00000004   ....               RCALL   ?Subroutine19
   \                     ??CrossCallReturnLabel_32:
   \   00000006   ........           CALL    ??Set
   \   0000000A   ....               RJMP    ?Subroutine21

   \                                 In  segment CODE, align 2, keep-with-next
   \                     ?Subroutine6:
   \   00000000   ....               RCALL   ?Subroutine21
   \                     ??CrossCallReturnLabel_55:
   \   00000002   ....               RJMP    ?Subroutine15

   \                                 In  segment CODE, align 2, keep-with-next
   \                     ?Subroutine3:
   \   00000000   ....               RCALL   ?Subroutine21
   \                     ??CrossCallReturnLabel_54:
   \   00000002   967C               ADIW    R31:R30, 28
   \   00000004                      REQUIRE ??Subroutine31_0
   \   00000004                      ;               // Fall through to label ??Subroutine31_0

   \                                 In  segment CODE, align 2, keep-with-next
   \                     ??Subroutine31_0:
   \   00000000   ....               RCALL   ?Subroutine14
   \                     ??CrossCallReturnLabel_43:
   \   00000002   963A               ADIW    R31:R30, 10
   \   00000004   ....               RJMP    ?Subroutine22

   \                                 In  segment CODE, align 2, keep-with-next
   \                     ?Subroutine1:
   \   00000000   ....               RCALL   ?Subroutine19
   \                     ??CrossCallReturnLabel_31:
   \   00000002   ........           CALL    ??IsOverflow
   \   00000006   2300               TST     R16
   \   00000008   9508               RET

   \                                 In  segment CODE, align 2, keep-with-next
   \                     ?Subroutine0:
   \   00000000   ....               RCALL   ?Subroutine14
   \                     ??CrossCallReturnLabel_42:
   \   00000002                      REQUIRE ?Subroutine15
   \   00000002                      ;               // Fall through to label ?Subroutine15

   \                                 In  segment CODE, align 2, keep-with-next
   \                     ?Subroutine15:
   \   00000000   963C               ADIW    R31:R30, 12
   \   00000002                      REQUIRE ?Subroutine22
   \   00000002                      ;               // Fall through to label ?Subroutine22

   \                                 In  segment CODE, align 2, keep-with-next
   \                     ?Subroutine22:
   \   00000000   9125               LPM     R18, Z+
   \   00000002   91F4               LPM     R31, Z
   \   00000004   2FE2               MOV     R30, R18
   \   00000006   9409               IJMP

   \                                 In  segment CODE, align 2, keep-with-next
   \                     ?Subroutine14:
   \   00000000   ....               RCALL   ?Subroutine22
   \                     ??CrossCallReturnLabel_56:
   \   00000002   0198               MOVW    R19:R18, R17:R16
   \   00000004   018D               MOVW    R17:R16, R27:R26
   \   00000006   5F0A               SUBI    R16, 250
   \   00000008   4F1F               SBCI    R17, 255
   \   0000000A   ........           CALL    ??Set
   \   0000000E                      REQUIRE ?Subroutine21
   \   0000000E                      ;               // Fall through to label ?Subroutine21

   \                                 In  segment CODE, align 2, keep-with-next
   \                     ?Subroutine21:
   \   00000000   018D               MOVW    R17:R16, R27:R26
   \   00000002   9611               ADIW    R27:R26, 1
   \   00000004   91ED               LD      R30, X+
   \   00000006   91FC               LD      R31, X
   \   00000008   9712               SBIW    R27:R26, 2
   \   0000000A   9508               RET
    264          //-----------------------------------------------------------------------------------------------------
    265          
    266          
    267          
    268          
    269          
    270          
    271          //-----------------------------------------------------------------------------------------------------

   \                                 In  segment CODE, align 2, keep-with-next
    272          CPreventiveAlarmWindowNotifyerControl::CPreventiveAlarmWindowNotifyerControl()
   \                     ??CPreventiveAlarmWindowNotifyerControl:
   \   00000000   ....               RCALL   ?Subroutine5
    273          {
   \                     ??CrossCallReturnLabel_36:
   \   00000002   ....               LDI     R16, LOW(??__vtbl_1)
   \   00000004   ....               LDI     R17, (??__vtbl_1) >> 8
   \   00000006   ....               RJMP    ?Subroutine4

   \                                 In  segment CODE, align 2, keep-with-next
   \                     ?Subroutine4:
   \   00000000   ....               RCALL   ?Subroutine18
    274              SetFsmState(STOP);
   \                     ??CrossCallReturnLabel_29:
   \   00000002   E205               LDI     R16, 37
   \   00000004                      REQUIRE ?Subroutine30
   \   00000004                      ;               // Fall through to label ?Subroutine30

   \                                 In  segment CODE, align 2, keep-with-next
   \                     ?Subroutine30:
   \   00000000   930C               ST      X, R16
    275              SetSavedFsmState(STOP);
   \   00000002   ....               RJMP    ?Subroutine20

   \                                 In  segment CODE, align 2, keep-with-next
   \                     ?Subroutine5:
   \   00000000   ....               RCALL   ?Subroutine17
   \                     ??CrossCallReturnLabel_26:
   \   00000002                      REQUIRE ?Subroutine23
   \   00000002                      ;               // Fall through to label ?Subroutine23

   \                                 In  segment CODE, align 2, keep-with-next
   \                     ?Subroutine23:
   \   00000000   ....               RJMP    ??CNotifyerControl
    276          }
    277          

   \                                 In  segment CODE, align 2, keep-with-next
    278          CPreventiveAlarmWindowNotifyerControl::~CPreventiveAlarmWindowNotifyerControl()
   \                     `?~CPreventiveAlarmWindowNotifyerControl`:
   \   00000000   ....               RJMP    ?Subroutine26

   \                                 In  segment CODE, align 2, keep-with-next
   \                     ?Subroutine26:
    279          {
   \   00000000   ....               RCALL   ?Subroutine2
    280              SetFsmState(STOP);
    281          }
   \                     ??CrossCallReturnLabel_37:
   \   00000002   ........           JMP     ?EPILOGUE_B4_L09

   \                                 In  segment CODE, align 2, keep-with-next
   \                     ?Subroutine2:
   \   00000000   ........           CALL    ?PROLOGUE4_L09
   \   00000004   01D8               MOVW    R27:R26, R17:R16
   \   00000006   2F82               MOV     R24, R18
   \   00000008   2B01               OR      R16, R17
   \   0000000A   F059               BREQ    ??Subroutine2_0
   \   0000000C   E205               LDI     R16, 37
   \   0000000E   930C               ST      X, R16
   \   00000010   E020               LDI     R18, 0
   \   00000012   E030               LDI     R19, 0
   \   00000014   2F0A               MOV     R16, R26
   \   00000016   ....               RCALL   `?~CNotifyerControl`
   \   00000018   FB80               BST     R24, 0
   \   0000001A   F41E               BRTC    ??Subroutine2_0
   \   0000001C   018D               MOVW    R17:R16, R27:R26
   \   0000001E   ........           CALL    `??operator delete`
   \                     ??Subroutine2_0:
   \   00000022   E0E4               LDI     R30, 4
   \   00000024   9508               RET
    282          
    283          //-----------------------------------------------------------------------------------------------------

   \                                 In  segment CODE, align 2, keep-with-next
    284          void CPreventiveAlarmWindowNotifyerControl::AlarmSet(uint8_t uiAlarmType)
   \                     ??AlarmSet:
    285          {
    286              // Ńîőđŕíčě ňĺęóůĺĺ ńîńňî˙íčĺ ŕâňîěŕňŕ.
    287              SetSavedFsmState(GetFsmState());
   \   00000000   ....               RCALL   ?Subroutine12
    288              switch (uiAlarmType)
   \                     ??CrossCallReturnLabel_20:
   \   00000002   F039               BREQ    ??AlarmSet_4
   \   00000004   952A               DEC     R18
   \   00000006   F039               BREQ    ??AlarmSet_5
   \   00000008   952A               DEC     R18
   \   0000000A   F039               BREQ    ??AlarmSet_6
   \   0000000C   952A               DEC     R18
   \   0000000E   F029               BREQ    ??AlarmSet_6
   \   00000010   9508               RET
    289              {
    290              case NORMAL:
    291                  SetFsmState(STOP);
   \                     ??AlarmSet_4:
   \   00000012   E205               LDI     R16, 37
   \   00000014   C003               RJMP    ??AlarmSet_7
    292                  break;
    293          
    294              case INDICATION:
    295                  SetFsmState(INDICATION_SIGNAL_START);
   \                     ??AlarmSet_5:
   \   00000016   E001               LDI     R16, 1
   \   00000018   C001               RJMP    ??AlarmSet_7
    296                  break;
    297          
    298              case PREVENTIVE:
    299                  SetFsmState(WARNING_SIGNAL_START);
    300                  break;
    301          
    302              case EMERGENCY:
    303                  SetFsmState(WARNING_SIGNAL_START);
   \                     ??AlarmSet_6:
   \   0000001A   E007               LDI     R16, 7
    304                  break;
    305          
    306              case IND_PREVENTIVE:
    307                  break;
    308          
    309              case IND_EMERGENCY:
    310                  break;
    311          
    312              case ERROR:
    313                  break;
    314          
    315              case BEEP_SIGNAL:
    316                  break;
    317          
    318              default:
    319                  break;
    320              }
   \                     ??AlarmSet_7:
   \   0000001C                      REQUIRE ?Subroutine25
   \   0000001C                      ;               // Fall through to label ?Subroutine25
    321          }

   \                                 In  segment CODE, align 2, keep-with-next
   \                     ?Subroutine25:
   \   00000000   8300               ST      Z, R16
   \   00000002   9508               RET

   \                                 In  segment CODE, align 2, keep-with-next
   \                     ?Subroutine12:
   \   00000000   01F8               MOVW    R31:R30, R17:R16
   \   00000002   8130               LD      R19, Z
   \   00000004   8333               STD     Z+3, R19
   \   00000006   2322               TST     R18
   \   00000008   9508               RET
    322          
    323          //-----------------------------------------------------------------------------------------------------

   \                                 In  segment CODE, align 2, keep-with-next
    324          void CPreventiveAlarmWindowNotifyerControl::NotifyerNormalOn(void)
   \                     ??NotifyerNormalOn:
    325          {
    326          
    327          }
   \   00000000   9508               RET
    328          
    329          //-----------------------------------------------------------------------------------------------------

   \                                 In  segment CODE, align 2, keep-with-next
    330          void CPreventiveAlarmWindowNotifyerControl::NotifyerIndicationOn(void)
   \                     ??NotifyerIndicationOn:
    331          {
    332              CPss21::ActiveAlarmWindowOn(INDICATION);
   \   00000000   ....               RJMP    ?Subroutine27
    333          }

   \                                 In  segment CODE, align 2, keep-with-next
   \                     ?Subroutine27:
   \   00000000   E001               LDI     R16, 1
   \   00000002                      REQUIRE ??Subroutine32_0
   \   00000002                      ;               // Fall through to label ??Subroutine32_0

   \                                 In  segment CODE, align 2, keep-with-next
   \                     ??Subroutine32_0:
   \   00000000   ........           JMP     ??ActiveAlarmWindowOn
    334          
    335          //-----------------------------------------------------------------------------------------------------

   \                                 In  segment CODE, align 2, keep-with-next
    336          void CPreventiveAlarmWindowNotifyerControl::NotifyerPreventiveOn(void)
   \                     ??NotifyerPreventiveOn:
    337          {
    338              CPss21::ActiveAlarmWindowOn(PREVENTIVE);
   \   00000000   E002               LDI     R16, 2
   \   00000002   ....               RJMP    ??Subroutine32_0
    339          }
    340          
    341          //-----------------------------------------------------------------------------------------------------

   \                                 In  segment CODE, align 2, keep-with-next
    342          void CPreventiveAlarmWindowNotifyerControl::NotifyerEmergencyOn(void)
   \                     ??NotifyerEmergencyOn:
    343          {
    344          
    345          }
   \   00000000   9508               RET
    346          
    347          //-----------------------------------------------------------------------------------------------------

   \                                 In  segment CODE, align 2, keep-with-next
    348          void CPreventiveAlarmWindowNotifyerControl::NotifyerOff(void)
   \                     ??NotifyerOff:
    349          {
    350              CPss21::ActiveAlarmWindowOff(PREVENTIVE);
   \   00000000   E002               LDI     R16, 2
   \   00000002                      REQUIRE ?Subroutine28
   \   00000002                      ;               // Fall through to label ?Subroutine28
    351          }

   \                                 In  segment CODE, align 2, keep-with-next
   \                     ?Subroutine28:
   \   00000000   ........           JMP     ??ActiveAlarmWindowOff
    352          //-----------------------------------------------------------------------------------------------------
    353          
    354          
    355          
    356          
    357          
    358          
    359          //-----------------------------------------------------------------------------------------------------

   \                                 In  segment CODE, align 2, keep-with-next
    360          CEmergencyAlarmWindowNotifyerControl::CEmergencyAlarmWindowNotifyerControl()
   \                     ??CEmergencyAlarmWindowNotifyerControl:
   \   00000000   ....               RCALL   ?Subroutine5
    361          {
   \                     ??CrossCallReturnLabel_35:
   \   00000002   ....               LDI     R16, LOW(??__vtbl_2)
   \   00000004   ....               LDI     R17, (??__vtbl_2) >> 8
   \   00000006                      REQUIRE ?Subroutine4
   \   00000006                      ;               // Fall through to label ?Subroutine4
    362              SetFsmState(STOP);
    363              SetSavedFsmState(STOP);
    364          }
    365          

   \                                 In  segment CODE, align 2, keep-with-next
    366          CEmergencyAlarmWindowNotifyerControl::~CEmergencyAlarmWindowNotifyerControl()
   \                     `?~CEmergencyAlarmWindowNotifyerControl`:
   \   00000000   ....               RJMP    ?Subroutine26
    367          {
    368              SetFsmState(STOP);
    369          }
    370          
    371          //-----------------------------------------------------------------------------------------------------

   \                                 In  segment CODE, align 2, keep-with-next
    372          void CEmergencyAlarmWindowNotifyerControl::AlarmSet(uint8_t uiAlarmType)
   \                     ??AlarmSet_1:
    373          {
    374              // Ńîőđŕíčě ňĺęóůĺĺ ńîńňî˙íčĺ ŕâňîěŕňŕ.
    375              SetSavedFsmState(GetFsmState());
   \   00000000   ....               RCALL   ?Subroutine12
    376              switch (uiAlarmType)
   \                     ??CrossCallReturnLabel_21:
   \   00000002   F049               BREQ    ??AlarmSet_8
   \   00000004   952A               DEC     R18
   \   00000006   F029               BREQ    ??AlarmSet_9
   \   00000008   952A               DEC     R18
   \   0000000A   F029               BREQ    ??AlarmSet_8
   \   0000000C   952A               DEC     R18
   \   0000000E   F029               BREQ    ??AlarmSet_10
   \   00000010   9508               RET
    377              {
    378              case NORMAL:
    379                  SetFsmState(STOP);
    380                  break;
    381          
    382              case INDICATION:
    383                  SetFsmState(INDICATION_SIGNAL_START);
   \                     ??AlarmSet_9:
   \   00000012   E001               LDI     R16, 1
   \   00000014   C001               RJMP    ??AlarmSet_11
    384                  break;
    385          
    386              case PREVENTIVE:
    387                  SetFsmState(STOP);
   \                     ??AlarmSet_8:
   \   00000016   E205               LDI     R16, 37
   \                     ??AlarmSet_11:
   \   00000018   ....               RJMP    ?Subroutine25
    388                  break;
    389          
    390              case EMERGENCY:
    391                  SetFsmState(ALARM_SIGNAL_START);
   \                     ??AlarmSet_10:
   \   0000001A   E00D               LDI     R16, 13
   \   0000001C   CFFD               RJMP    ??AlarmSet_11
    392                  break;
    393          
    394              case IND_PREVENTIVE:
    395                  break;
    396          
    397              case IND_EMERGENCY:
    398                  break;
    399          
    400              case ERROR:
    401                  break;
    402          
    403              case BEEP_SIGNAL:
    404                  break;
    405          
    406              default:
    407                  break;
    408              }
    409          }
    410          
    411          
    412          //-----------------------------------------------------------------------------------------------------

   \                                 In  segment CODE, align 2, keep-with-next
    413          void CEmergencyAlarmWindowNotifyerControl::NotifyerNormalOn(void)
   \                     ??NotifyerNormalOn_1:
    414          {
    415          
    416          }
   \   00000000   9508               RET
    417          
    418          //-----------------------------------------------------------------------------------------------------

   \                                 In  segment CODE, align 2, keep-with-next
    419          void CEmergencyAlarmWindowNotifyerControl::NotifyerIndicationOn(void)
   \                     ??NotifyerIndicationOn_1:
    420          {
    421              CPss21::ActiveAlarmWindowOn(INDICATION);
   \   00000000   ....               RJMP    ?Subroutine27
    422          }
    423          
    424          //-----------------------------------------------------------------------------------------------------

   \                                 In  segment CODE, align 2, keep-with-next
    425          void CEmergencyAlarmWindowNotifyerControl::NotifyerPreventiveOn(void)
   \                     ??NotifyerPreventiveOn_1:
    426          {
    427          
    428          }
   \   00000000   9508               RET
    429          
    430          //-----------------------------------------------------------------------------------------------------

   \                                 In  segment CODE, align 2, keep-with-next
    431          void CEmergencyAlarmWindowNotifyerControl::NotifyerEmergencyOn(void)
   \                     ??NotifyerEmergencyOn_1:
    432          {
    433              CPss21::ActiveAlarmWindowOn(EMERGENCY);
   \   00000000   E003               LDI     R16, 3
   \   00000002   ....               RJMP    ??Subroutine32_0
    434          }
    435          
    436          //-----------------------------------------------------------------------------------------------------

   \                                 In  segment CODE, align 2, keep-with-next
    437          void CEmergencyAlarmWindowNotifyerControl::NotifyerOff(void)
   \                     ??NotifyerOff_1:
    438          {
    439              CPss21::ActiveAlarmWindowOff(EMERGENCY);
   \   00000000   E003               LDI     R16, 3
   \   00000002   ....               RJMP    ?Subroutine28
    440          }
    441          //-----------------------------------------------------------------------------------------------------
    442          
    443          
    444          
    445          
    446          
    447          
    448          
    449          
    450          
    451          //-----------------------------------------------------------------------------------------------------
    452          

   \                                 In  segment CODE, align 2, keep-with-next
    453          CStatusLedNotifyerControl::CStatusLedNotifyerControl()
   \                     ??CStatusLedNotifyerControl:
   \   00000000   ....               RCALL   ?Subroutine5
    454          {
   \                     ??CrossCallReturnLabel_34:
   \   00000002   ....               LDI     R16, LOW(??__vtbl_4)
   \   00000004   ....               LDI     R17, (??__vtbl_4) >> 8
   \   00000006   ....               RCALL   ?Subroutine18
    455              SetFsmState(NORMAL_SIGNAL_START);
   \                     ??CrossCallReturnLabel_28:
   \   00000008   E108               LDI     R16, 24
   \   0000000A   ....               RJMP    ?Subroutine30
    456              SetSavedFsmState(NORMAL_SIGNAL_START);
    457          }
    458          

   \                                 In  segment CODE, align 2, keep-with-next
    459          CStatusLedNotifyerControl::~CStatusLedNotifyerControl()
   \                     `?~CStatusLedNotifyerControl`:
   \   00000000                      REQUIRE ?Subroutine26
   \   00000000                      ;               // Fall through to label ?Subroutine26
    460          {
    461              SetFsmState(STOP);
    462          }
    463          
    464          //-----------------------------------------------------------------------------------------------------

   \                                 In  segment CODE, align 2, keep-with-next
    465          void CStatusLedNotifyerControl::AlarmSet(uint8_t uiAlarmType)
   \                     ??AlarmSet_2:
    466          {
    467              // Ńîőđŕíčě ňĺęóůĺĺ ńîńňî˙íčĺ ŕâňîěŕňŕ.
    468              SetSavedFsmState(GetFsmState());
   \   00000000   ....               RCALL   ?Subroutine12
    469              switch (uiAlarmType)
   \                     ??CrossCallReturnLabel_22:
   \   00000002   F049               BREQ    ??AlarmSet_12
   \   00000004   952A               DEC     R18
   \   00000006   F039               BREQ    ??AlarmSet_12
   \   00000008   952A               DEC     R18
   \   0000000A   F039               BREQ    ??AlarmSet_13
   \   0000000C   952A               DEC     R18
   \   0000000E   F039               BREQ    ??AlarmSet_14
   \   00000010   5023               SUBI    R18, 3
   \   00000012   F039               BREQ    ??AlarmSet_15
   \   00000014   9508               RET
    470              {
    471              case NORMAL:
    472                  SetFsmState(NORMAL_SIGNAL_START);
    473                  break;
    474          
    475              case INDICATION:
    476                  SetFsmState(NORMAL_SIGNAL_START);
   \                     ??AlarmSet_12:
   \   00000016   E108               LDI     R16, 24
   \                     ??AlarmSet_16:
   \   00000018   ....               RJMP    ?Subroutine25
    477                  break;
    478          
    479              case PREVENTIVE:
    480                  SetFsmState(WARNING_SIGNAL_START);
   \                     ??AlarmSet_13:
   \   0000001A   E007               LDI     R16, 7
   \   0000001C   CFFD               RJMP    ??AlarmSet_16
    481                  break;
    482          
    483              case EMERGENCY:
    484                  SetFsmState(ALARM_SIGNAL_START);
   \                     ??AlarmSet_14:
   \   0000001E   E00D               LDI     R16, 13
   \   00000020   CFFB               RJMP    ??AlarmSet_16
    485                  break;
    486          
    487              case IND_PREVENTIVE:
    488                  break;
    489          
    490              case IND_EMERGENCY:
    491                  break;
    492          
    493              case ERROR:
    494                  SetFsmState(ERROR_SIGNAL_START);
   \                     ??AlarmSet_15:
   \   00000022   E103               LDI     R16, 19
   \   00000024   CFF9               RJMP    ??AlarmSet_16
    495                  break;
    496          
    497              case BEEP_SIGNAL:
    498                  break;
    499          
    500              default:
    501                  break;
    502              }
    503          }
    504          
    505          //-----------------------------------------------------------------------------------------------------

   \                                 In  segment CODE, align 2, keep-with-next
    506          void CStatusLedNotifyerControl::NotifyerNormalOn(void)
   \                     ??NotifyerNormalOn_2:
    507          {
    508              CPlatform::StatusLedOn();
   \   00000000   ....               RJMP    ?Subroutine13
   \   00000002                      REQUIRE _A_PORTF
    509          }
    510          
    511          //-----------------------------------------------------------------------------------------------------

   \                                 In  segment CODE, align 2, keep-with-next
    512          void CStatusLedNotifyerControl::NotifyerIndicationOn(void)
   \                     ??NotifyerIndicationOn_2:
    513          {
    514          
    515          }
   \   00000000   9508               RET
    516          
    517          //-----------------------------------------------------------------------------------------------------

   \                                 In  segment CODE, align 2, keep-with-next
    518          void CStatusLedNotifyerControl::NotifyerPreventiveOn(void)
   \                     ??NotifyerPreventiveOn_2:
    519          {
    520              CPlatform::StatusLedOn();
   \   00000000                      REQUIRE ?Subroutine13
   \   00000000                      REQUIRE _A_PORTF
   \   00000000                      ;               // Fall through to label ?Subroutine13
    521          }
    522          
    523          //-----------------------------------------------------------------------------------------------------

   \                                 In  segment CODE, align 2, keep-with-next
    524          void CStatusLedNotifyerControl::NotifyerEmergencyOn(void)
   \                     ??NotifyerEmergencyOn_2:
    525          {
    526              CPlatform::StatusLedOn();
   \   00000000   ....               RJMP    ?Subroutine13
   \   00000002                      REQUIRE _A_PORTF
    527          }
    528          
    529          //-----------------------------------------------------------------------------------------------------

   \                                 In  segment CODE, align 2, keep-with-next
    530          void CStatusLedNotifyerControl::NotifyerOff(void)
   \                     ??NotifyerOff_2:
    531          {
    532              CPlatform::StatusLedOff();
   \   00000000   91000062           LDS     R16, 98
   \   00000004   6800               ORI     R16, 0x80
   \   00000006   93000062           STS     98, R16
    533              CLightBoard::Set();
   \   0000000A   ........           JMP     ??Set_1
   \   0000000E                      REQUIRE _A_PORTF
    534          }
    535          //-----------------------------------------------------------------------------------------------------
    536          
    537          
    538          
    539          
    540          
    541          
    542          //-----------------------------------------------------------------------------------------------------
    543          

   \                                 In  segment CODE, align 2, keep-with-next
    544          CBuzzerNotifyerControl::CBuzzerNotifyerControl()
   \                     ??CBuzzerNotifyerControl:
   \   00000000   ....               RCALL   ?Subroutine5
    545          {
   \                     ??CrossCallReturnLabel_33:
   \   00000002   ....               LDI     R16, LOW(??__vtbl_5)
   \   00000004   ....               LDI     R17, (??__vtbl_5) >> 8
   \   00000006   ....               RJMP    ?Subroutine4
    546              SetFsmState(STOP);
    547              SetSavedFsmState(STOP);
    548          }
    549          

   \                                 In  segment CODE, align 2, keep-with-next
    550          CBuzzerNotifyerControl::~CBuzzerNotifyerControl()
   \                     `?~CBuzzerNotifyerControl`:
   \   00000000   ....               RJMP    ?Subroutine26
    551          {
    552              SetFsmState(STOP);
    553          }
    554          
    555          //-----------------------------------------------------------------------------------------------------

   \                                 In  segment CODE, align 2, keep-with-next
    556          void CBuzzerNotifyerControl::AlarmSet(uint8_t uiAlarmType)
   \                     ??AlarmSet_3:
    557          {
    558              // Ńîőđŕíčě ňĺęóůĺĺ ńîńňî˙íčĺ ŕâňîěŕňŕ.
    559              SetSavedFsmState(GetFsmState());
   \   00000000   ....               RCALL   ?Subroutine12
    560              switch (uiAlarmType)
   \                     ??CrossCallReturnLabel_23:
   \   00000002   F059               BREQ    ??AlarmSet_17
   \   00000004   952A               DEC     R18
   \   00000006   F049               BREQ    ??AlarmSet_17
   \   00000008   952A               DEC     R18
   \   0000000A   F049               BREQ    ??AlarmSet_18
   \   0000000C   952A               DEC     R18
   \   0000000E   F049               BREQ    ??AlarmSet_19
   \   00000010   5023               SUBI    R18, 3
   \   00000012   F049               BREQ    ??AlarmSet_20
   \   00000014   952A               DEC     R18
   \   00000016   F049               BREQ    ??AlarmSet_21
   \   00000018   9508               RET
    561              {
    562              case NORMAL:
    563                  SetFsmState(STOP);
    564                  break;
    565          
    566              case INDICATION:
    567                  SetFsmState(STOP);
   \                     ??AlarmSet_17:
   \   0000001A   E205               LDI     R16, 37
   \                     ??AlarmSet_22:
   \   0000001C   ....               RJMP    ?Subroutine25
    568                  break;
    569          
    570              case PREVENTIVE:
    571                  SetFsmState(WARNING_SIGNAL_START);
   \                     ??AlarmSet_18:
   \   0000001E   E007               LDI     R16, 7
   \   00000020   CFFD               RJMP    ??AlarmSet_22
    572                  break;
    573          
    574              case EMERGENCY:
    575                  SetFsmState(ALARM_SIGNAL_START);
   \                     ??AlarmSet_19:
   \   00000022   E00D               LDI     R16, 13
   \   00000024   CFFB               RJMP    ??AlarmSet_22
    576                  break;
    577          
    578              case IND_PREVENTIVE:
    579                  break;
    580          
    581              case IND_EMERGENCY:
    582                  break;
    583          
    584              case ERROR:
    585                  SetFsmState(ERROR_SIGNAL_START);
   \                     ??AlarmSet_20:
   \   00000026   E103               LDI     R16, 19
   \   00000028   CFF9               RJMP    ??AlarmSet_22
    586                  break;
    587          
    588              case BEEP_SIGNAL:
    589                  SetFsmState(BEEP_SIGNAL_START);
   \                     ??AlarmSet_21:
   \   0000002A   E10E               LDI     R16, 30
   \   0000002C   CFF7               RJMP    ??AlarmSet_22
    590                  break;
    591          
    592              default:
    593                  break;
    594              }
    595          }
    596          
    597          //-----------------------------------------------------------------------------------------------------

   \                                 In  segment CODE, align 2, keep-with-next
    598          void CBuzzerNotifyerControl::NotifyerNormalOn(void)
   \                     ??NotifyerNormalOn_3:
    599          {
    600              CBuzzer::Off();
   \   00000000                      REQUIRE ?Subroutine29
   \   00000000                      ;               // Fall through to label ?Subroutine29

   \                                 In  segment CODE, align 2, keep-with-next
   \                     ?Subroutine29:
   \   00000000   ........           JMP     ??Off
    601          }
    602          
    603          //-----------------------------------------------------------------------------------------------------

   \                                 In  segment CODE, align 2, keep-with-next
    604          void CBuzzerNotifyerControl::NotifyerIndicationOn(void)
   \                     ??NotifyerIndicationOn_3:
    605          {
    606              CBuzzer::Off();
   \   00000000   ....               RJMP    ?Subroutine29
    607          }
    608          
    609          //-----------------------------------------------------------------------------------------------------

   \                                 In  segment CODE, align 2, keep-with-next
    610          void CBuzzerNotifyerControl::NotifyerPreventiveOn(void)
   \                     ??NotifyerPreventiveOn_3:
    611          {
    612              CBuzzer::LowOn();
   \   00000000   ........           JMP     ??LowOn
    613          }
    614          
    615          //-----------------------------------------------------------------------------------------------------

   \                                 In  segment CODE, align 2, keep-with-next
    616          void CBuzzerNotifyerControl::NotifyerEmergencyOn(void)
   \                     ??NotifyerEmergencyOn_3:
    617          {
    618              CBuzzer::HighOn();
   \   00000000   ........           JMP     ??HighOn
    619          }
    620          
    621          //-----------------------------------------------------------------------------------------------------

   \                                 In  segment CODE, align 2, keep-with-next
    622          void CBuzzerNotifyerControl::NotifyerOff(void)
   \                     ??NotifyerOff_3:
    623          {
    624              CBuzzer::Off();
   \   00000000   ....               RJMP    ?Subroutine29
    625          }

   \                                 In  segment SWITCH, align 2, keep-with-next
   \                     `?<Jumptable for Fsm>_0`:
   \   00000000   01                 DB      1
   \   00000001   01                 DB      1
   \   00000002   ....               DW      (??Fsm_2) /2
   \   00000004   ....               DW      (??Fsm_6) /2
   \   00000006   06                 DB      0x6
   \   00000007   ....               DW      (??Fsm_9) /2
   \   00000009   01                 DB      0x1
   \   0000000A   ....               DW      (??Fsm_7) /2
   \   0000000C   01                 DB      0x1
   \   0000000D   ....               DW      (??Fsm_8) /2
   \   0000000F   04                 DB      0x4
   \   00000010   ....               DW      (??Fsm_12) /2
   \   00000012   01                 DB      0x1
   \   00000013   ....               DW      (??Fsm_10) /2
   \   00000015   01                 DB      0x1
   \   00000016   ....               DW      (??Fsm_11) /2
   \   00000018   04                 DB      0x4
   \   00000019   ....               DW      (??Fsm_17) /2
   \   0000001B   01                 DB      0x1
   \   0000001C   ....               DW      (??Fsm_13) /2
   \   0000001E   01                 DB      0x1
   \   0000001F   ....               DW      (??Fsm_14) /2
   \   00000021   01                 DB      0x1
   \   00000022   ....               DW      (??Fsm_15) /2
   \   00000024   01                 DB      0x1
   \   00000025   ....               DW      (??Fsm_16) /2
   \   00000027   01                 DB      0x1
   \   00000028   ....               DW      (??Fsm_5) /2
   \   0000002A   01                 DB      0x1
   \   0000002B   ....               DW      (??Fsm_1) /2
   \   0000002D   01                 DB      0x1
   \   0000002E   ....               DW      (??Fsm_4) /2
   \   00000030   04                 DB      0x4
   \   00000031   ....               DW      (??Fsm_18) /2
   \   00000033   01                 DB      0x1
   \   00000034   ....               DW      (??Fsm_19) /2
   \   00000036   06                 DB      0x6
   \   00000037   ....               DW      (??Fsm_20) /2
   \   00000039   FB                 DB      251

   \                                 In  segment CODE, align 2, keep-with-next
   \   __version_3 CNotifyerControl &CNotifyerControl::new CNotifyerControl()
   \                     `??new CNotifyerControl`:
   \   00000000   ....               RCALL   ?Subroutine8
   \                     ??CrossCallReturnLabel_15:
   \   00000002   F009               BREQ    `??new CNotifyerControl_1`
   \   00000004   ....               RJMP    ?Subroutine23
   \                     `??new CNotifyerControl_1`:
   \   00000006   ....               RJMP    ?Subroutine10

   \                                 In  segment CODE, align 2, keep-with-next
   \   __version_3 CPreventiveAlarmWindowNotifyerControl &CPreventiveAlarmWindowNotifyerControl::new CPreventiveAlarmWindowNotifyerControl()
   \                     `??new CPreventiveAlarmWindowNotifyerControl`:
   \   00000000   ....               RCALL   ?Subroutine8
   \                     ??CrossCallReturnLabel_16:
   \   00000002   F009               BREQ    `??new CPreventiveAlarmWindowNotifyerControl_1`
   \   00000004   ....               RJMP    ??CPreventiveAlarmWindowNotifyerControl
   \                     `??new CPreventiveAlarmWindowNotifyerControl_1`:
   \   00000006   ....               RJMP    ?Subroutine10

   \                                 In  segment CODE, align 2, keep-with-next
   \   __version_3 CEmergencyAlarmWindowNotifyerControl &CEmergencyAlarmWindowNotifyerControl::new CEmergencyAlarmWindowNotifyerControl()
   \                     `??new CEmergencyAlarmWindowNotifyerControl`:
   \   00000000   ....               RCALL   ?Subroutine8
   \                     ??CrossCallReturnLabel_17:
   \   00000002   F009               BREQ    `??new CEmergencyAlarmWindowNotifyerControl_1`
   \   00000004   ....               RJMP    ??CEmergencyAlarmWindowNotifyerControl
   \                     `??new CEmergencyAlarmWindowNotifyerControl_1`:
   \   00000006                      REQUIRE ?Subroutine10
   \   00000006                      ;               // Fall through to label ?Subroutine10

   \                                 In  segment CODE, align 2, keep-with-next
   \                     ?Subroutine10:
   \   00000000   E000               LDI     R16, 0
   \   00000002   E010               LDI     R17, 0
   \   00000004   9508               RET

   \                                 In  segment CODE, align 2, keep-with-next
   \                     ?Subroutine8:
   \   00000000   E00A               LDI     R16, 10
   \   00000002   E010               LDI     R17, 0
   \   00000004   ........           CALL    `??operator new`
   \   00000008   2F20               MOV     R18, R16
   \   0000000A   2B21               OR      R18, R17
   \   0000000C   9508               RET

   \                                 In  segment CODE, align 2, keep-with-next
   \   __version_3 CStatusLedNotifyerControl &CStatusLedNotifyerControl::new CStatusLedNotifyerControl()
   \                     `??new CStatusLedNotifyerControl`:
   \   00000000   ....               RCALL   ?Subroutine8
   \                     ??CrossCallReturnLabel_18:
   \   00000002   F009               BREQ    `??new CStatusLedNotifyerControl_1`
   \   00000004   ....               RJMP    ??CStatusLedNotifyerControl
   \                     `??new CStatusLedNotifyerControl_1`:
   \   00000006   ....               RJMP    ?Subroutine10

   \                                 In  segment CODE, align 2, keep-with-next
   \   __version_3 CBuzzerNotifyerControl &CBuzzerNotifyerControl::new CBuzzerNotifyerControl()
   \                     `??new CBuzzerNotifyerControl`:
   \   00000000   ....               RCALL   ?Subroutine8
   \                     ??CrossCallReturnLabel_19:
   \   00000002   F009               BREQ    `??new CBuzzerNotifyerControl_1`
   \   00000004   ....               RJMP    ??CBuzzerNotifyerControl
   \                     `??new CBuzzerNotifyerControl_1`:
   \   00000006   ....               RJMP    ?Subroutine10

   \                                 In  segment CODE, align 2, keep-with-next
   \                     ?Subroutine13:
   \   00000000   91000062           LDS     R16, 98
   \   00000004   770F               ANDI    R16, 0x7F
   \   00000006   93000062           STS     98, R16
   \   0000000A   9508               RET
    626          
    627          
    628          

   Maximum stack usage in bytes:

   CSTACK RSTACK Function
   ------ ------ --------
      0      2   CBuzzerNotifyerControl::AlarmSet(uint8_t)
      2      2   CBuzzerNotifyerControl::CBuzzerNotifyerControl()
        2      2   -> CNotifyerControl::CNotifyerControl()
      0      2   CBuzzerNotifyerControl::NotifyerEmergencyOn()
        0      2   -> CBuzzer::HighOn()
      0      2   CBuzzerNotifyerControl::NotifyerIndicationOn()
        0      2   -> CBuzzer::Off()
      0      0   CBuzzerNotifyerControl::NotifyerNormalOn()
        0      2   -> CBuzzer::Off()
      0      2   CBuzzerNotifyerControl::NotifyerOff()
        0      2   -> CBuzzer::Off()
      0      2   CBuzzerNotifyerControl::NotifyerPreventiveOn()
        0      2   -> CBuzzer::LowOn()
      0      2   CBuzzerNotifyerControl::new CBuzzerNotifyerControl()
        0      2   -> CBuzzerNotifyerControl::CBuzzerNotifyerControl()
        0      4   -> operator new(unsigned int)
      0      2   CBuzzerNotifyerControl::~CBuzzerNotifyerControl()
        4      4   -> CNotifyerControl::~CNotifyerControl()
        4      4   -> operator delete(void *)
      0      2   CEmergencyAlarmWindowNotifyerControl::ALARM_SIGNAL_OFF_TIME()
      0      2   CEmergencyAlarmWindowNotifyerControl::ALARM_SIGNAL_ON_TIME()
      0      2   CEmergencyAlarmWindowNotifyerControl::AlarmSet(uint8_t)
      2      2   CEmergencyAlarmWindowNotifyerControl::CEmergencyAlarmWindowNotifyerControl()
        2      2   -> CNotifyerControl::CNotifyerControl()
      0      2   CEmergencyAlarmWindowNotifyerControl::NORMAL_SIGNAL_OFF_TIME()
      0      2   CEmergencyAlarmWindowNotifyerControl::NORMAL_SIGNAL_ON_TIME()
      0      2   CEmergencyAlarmWindowNotifyerControl::NotifyerEmergencyOn()
        0      2   -> CPss21::ActiveAlarmWindowOn(uint8_t)
      0      2   CEmergencyAlarmWindowNotifyerControl::NotifyerIndicationOn()
        0      2   -> CPss21::ActiveAlarmWindowOn(uint8_t)
      0      2   CEmergencyAlarmWindowNotifyerControl::NotifyerNormalOn()
      0      2   CEmergencyAlarmWindowNotifyerControl::NotifyerOff()
        0      2   -> CPss21::ActiveAlarmWindowOff(uint8_t)
      0      2   CEmergencyAlarmWindowNotifyerControl::NotifyerPreventiveOn()
      0      2   CEmergencyAlarmWindowNotifyerControl::WARNING_SIGNAL_OFF_TIME()
      0      2   CEmergencyAlarmWindowNotifyerControl::WARNING_SIGNAL_ON_TIME()
      0      2   CEmergencyAlarmWindowNotifyerControl::new CEmergencyAlarmWindowNotifyerControl()
        0      2   -> CEmergencyAlarmWindowNotifyerControl::CEmergencyAlarmWindowNotifyerControl()
        0      4   -> operator new(unsigned int)
      0      2   CEmergencyAlarmWindowNotifyerControl::~CEmergencyAlarmWindowNotifyerControl()
        4      4   -> CNotifyerControl::~CNotifyerControl()
        4      4   -> operator delete(void *)
      0      2   CNotifyerControl::ALARM_SIGNAL_OFF_TIME()
      0      2   CNotifyerControl::ALARM_SIGNAL_ON_TIME()
      0      2   CNotifyerControl::BEEP_SIGNAL_ON_TIME()
      2      2   CNotifyerControl::CNotifyerControl()
        2      2   -> CDfa::CDfa()
        2      2   -> CTimer::CTimer()
      0      2   CNotifyerControl::ERROR_SIGNAL_OFF_TIME()
      0      2   CNotifyerControl::ERROR_SIGNAL_ON_TIME()
      0      2   CNotifyerControl::ERROR_SIGNAL_PAUSE_TIME()
      2      2   CNotifyerControl::Fsm()
        2      2   -- Indirect call
        2      4   -- Indirect call
        2      6   -- Indirect call
        2      4   -> CTimer::IsOverflow()
        2      4   -> CTimer::Set(uint16_t)
        2      6   -> CTimer::Set(uint16_t)
        2      2 ?CV_SWITCH_L06
      0      2   CNotifyerControl::NORMAL_SIGNAL_OFF_TIME()
      0      2   CNotifyerControl::NORMAL_SIGNAL_ON_TIME()
      0      2   CNotifyerControl::WARNING_SIGNAL_OFF_TIME()
      0      2   CNotifyerControl::WARNING_SIGNAL_ON_TIME()
      0      2   CNotifyerControl::new CNotifyerControl()
        0      2   -> CNotifyerControl::CNotifyerControl()
        0      4   -> operator new(unsigned int)
      3      2   CNotifyerControl::~CNotifyerControl()
        3      2   -> CDfa::~CDfa()
        3      2   -> operator delete(void *)
      0      2   CPreventiveAlarmWindowNotifyerControl::ALARM_SIGNAL_OFF_TIME()
      0      2   CPreventiveAlarmWindowNotifyerControl::ALARM_SIGNAL_ON_TIME()
      0      2   CPreventiveAlarmWindowNotifyerControl::AlarmSet(uint8_t)
      2      2   CPreventiveAlarmWindowNotifyerControl::CPreventiveAlarmWindowNotifyerControl()
        2      2   -> CNotifyerControl::CNotifyerControl()
      0      2   CPreventiveAlarmWindowNotifyerControl::NORMAL_SIGNAL_OFF_TIME()
      0      2   CPreventiveAlarmWindowNotifyerControl::NORMAL_SIGNAL_ON_TIME()
      0      2   CPreventiveAlarmWindowNotifyerControl::NotifyerEmergencyOn()
      0      2   CPreventiveAlarmWindowNotifyerControl::NotifyerIndicationOn()
        0      2   -> CPss21::ActiveAlarmWindowOn(uint8_t)
      0      2   CPreventiveAlarmWindowNotifyerControl::NotifyerNormalOn()
      0      2   CPreventiveAlarmWindowNotifyerControl::NotifyerOff()
        0      2   -> CPss21::ActiveAlarmWindowOff(uint8_t)
      0      2   CPreventiveAlarmWindowNotifyerControl::NotifyerPreventiveOn()
        0      2   -> CPss21::ActiveAlarmWindowOn(uint8_t)
      0      2   CPreventiveAlarmWindowNotifyerControl::WARNING_SIGNAL_OFF_TIME()
      0      2   CPreventiveAlarmWindowNotifyerControl::WARNING_SIGNAL_ON_TIME()
      0      2   CPreventiveAlarmWindowNotifyerControl::new CPreventiveAlarmWindowNotifyerControl()
        0      2   -> CPreventiveAlarmWindowNotifyerControl::CPreventiveAlarmWindowNotifyerControl()
        0      4   -> operator new(unsigned int)
      0      2   CPreventiveAlarmWindowNotifyerControl::~CPreventiveAlarmWindowNotifyerControl()
        4      4   -> CNotifyerControl::~CNotifyerControl()
        4      4   -> operator delete(void *)
      0      2   CStatusLedNotifyerControl::AlarmSet(uint8_t)
      2      2   CStatusLedNotifyerControl::CStatusLedNotifyerControl()
        2      2   -> CNotifyerControl::CNotifyerControl()
      0      2   CStatusLedNotifyerControl::NotifyerEmergencyOn()
      0      2   CStatusLedNotifyerControl::NotifyerIndicationOn()
      0      2   CStatusLedNotifyerControl::NotifyerNormalOn()
      0      2   CStatusLedNotifyerControl::NotifyerOff()
        0      2   -> CLightBoard::Set()
      0      0   CStatusLedNotifyerControl::NotifyerPreventiveOn()
      0      2   CStatusLedNotifyerControl::new CStatusLedNotifyerControl()
        0      2   -> CStatusLedNotifyerControl::CStatusLedNotifyerControl()
        0      4   -> operator new(unsigned int)
      0      0   CStatusLedNotifyerControl::~CStatusLedNotifyerControl()
        4      4   -> CNotifyerControl::~CNotifyerControl()
        4      4   -> operator delete(void *)


   Segment part sizes:

   Bytes  Function/Label
   -----  --------------
      58  ?<Jumptable for Fsm>_0
       6  ??Subroutine31_0
       4  ??Subroutine32_0
       2  ?Subroutine0
      10  ?Subroutine1
       6  ?Subroutine10
      10  ?Subroutine12
      12  ?Subroutine13
      14  ?Subroutine14
       2  ?Subroutine15
       8  ?Subroutine17
       8  ?Subroutine18
       8  ?Subroutine19
      38  ?Subroutine2
       4  ?Subroutine20
      12  ?Subroutine21
       8  ?Subroutine22
       2  ?Subroutine23
       6  ?Subroutine24
       4  ?Subroutine25
       6  ?Subroutine26
       2  ?Subroutine27
       4  ?Subroutine28
       4  ?Subroutine29
       4  ?Subroutine3
       4  ?Subroutine30
       4  ?Subroutine4
       2  ?Subroutine5
       4  ?Subroutine6
      12  ?Subroutine7
      14  ?Subroutine8
      46  CBuzzerNotifyerControl::AlarmSet(uint8_t)
       8  CBuzzerNotifyerControl::CBuzzerNotifyerControl()
       4  CBuzzerNotifyerControl::NotifyerEmergencyOn()
       2  CBuzzerNotifyerControl::NotifyerIndicationOn()
       0  CBuzzerNotifyerControl::NotifyerNormalOn()
       2  CBuzzerNotifyerControl::NotifyerOff()
       4  CBuzzerNotifyerControl::NotifyerPreventiveOn()
       8  CBuzzerNotifyerControl::new CBuzzerNotifyerControl()
       2  CBuzzerNotifyerControl::~CBuzzerNotifyerControl()
       6  CEmergencyAlarmWindowNotifyerControl::ALARM_SIGNAL_OFF_TIME()
       6  CEmergencyAlarmWindowNotifyerControl::ALARM_SIGNAL_ON_TIME()
      30  CEmergencyAlarmWindowNotifyerControl::AlarmSet(uint8_t)
       6  CEmergencyAlarmWindowNotifyerControl::CEmergencyAlarmWindowNotifyerControl()
       6  CEmergencyAlarmWindowNotifyerControl::NORMAL_SIGNAL_OFF_TIME()
       6  CEmergencyAlarmWindowNotifyerControl::NORMAL_SIGNAL_ON_TIME()
       4  CEmergencyAlarmWindowNotifyerControl::NotifyerEmergencyOn()
       2  CEmergencyAlarmWindowNotifyerControl::NotifyerIndicationOn()
       2  CEmergencyAlarmWindowNotifyerControl::NotifyerNormalOn()
       4  CEmergencyAlarmWindowNotifyerControl::NotifyerOff()
       2  CEmergencyAlarmWindowNotifyerControl::NotifyerPreventiveOn()
       6  CEmergencyAlarmWindowNotifyerControl::WARNING_SIGNAL_OFF_TIME()
       6  CEmergencyAlarmWindowNotifyerControl::WARNING_SIGNAL_ON_TIME()
       6  CEmergencyAlarmWindowNotifyerControl::new CEmergencyAlarmWindowNotifyerControl()
       2  CEmergencyAlarmWindowNotifyerControl::~CEmergencyAlarmWindowNotifyerControl()
       6  CNotifyerControl::ALARM_SIGNAL_OFF_TIME()
       6  CNotifyerControl::ALARM_SIGNAL_ON_TIME()
       6  CNotifyerControl::BEEP_SIGNAL_ON_TIME()
      26  CNotifyerControl::CNotifyerControl()
       6  CNotifyerControl::ERROR_SIGNAL_OFF_TIME()
       6  CNotifyerControl::ERROR_SIGNAL_ON_TIME()
       6  CNotifyerControl::ERROR_SIGNAL_PAUSE_TIME()
     202  CNotifyerControl::Fsm()
       6  CNotifyerControl::NORMAL_SIGNAL_OFF_TIME()
       6  CNotifyerControl::NORMAL_SIGNAL_ON_TIME()
       6  CNotifyerControl::WARNING_SIGNAL_OFF_TIME()
       6  CNotifyerControl::WARNING_SIGNAL_ON_TIME()
       8  CNotifyerControl::new CNotifyerControl()
      38  CNotifyerControl::~CNotifyerControl()
       6  CPreventiveAlarmWindowNotifyerControl::ALARM_SIGNAL_OFF_TIME()
       6  CPreventiveAlarmWindowNotifyerControl::ALARM_SIGNAL_ON_TIME()
      28  CPreventiveAlarmWindowNotifyerControl::AlarmSet(uint8_t)
       8  CPreventiveAlarmWindowNotifyerControl::CPreventiveAlarmWindowNotifyerControl()
       6  CPreventiveAlarmWindowNotifyerControl::NORMAL_SIGNAL_OFF_TIME()
       6  CPreventiveAlarmWindowNotifyerControl::NORMAL_SIGNAL_ON_TIME()
       2  CPreventiveAlarmWindowNotifyerControl::NotifyerEmergencyOn()
       2  CPreventiveAlarmWindowNotifyerControl::NotifyerIndicationOn()
       2  CPreventiveAlarmWindowNotifyerControl::NotifyerNormalOn()
       2  CPreventiveAlarmWindowNotifyerControl::NotifyerOff()
       4  CPreventiveAlarmWindowNotifyerControl::NotifyerPreventiveOn()
       6  CPreventiveAlarmWindowNotifyerControl::WARNING_SIGNAL_OFF_TIME()
       6  CPreventiveAlarmWindowNotifyerControl::WARNING_SIGNAL_ON_TIME()
       8  CPreventiveAlarmWindowNotifyerControl::new CPreventiveAlarmWindowNotifyerControl()
       2  CPreventiveAlarmWindowNotifyerControl::~CPreventiveAlarmWindowNotifyerControl()
      38  CStatusLedNotifyerControl::AlarmSet(uint8_t)
      12  CStatusLedNotifyerControl::CStatusLedNotifyerControl()
       2  CStatusLedNotifyerControl::NotifyerEmergencyOn()
       2  CStatusLedNotifyerControl::NotifyerIndicationOn()
       2  CStatusLedNotifyerControl::NotifyerNormalOn()
      14  CStatusLedNotifyerControl::NotifyerOff()
       0  CStatusLedNotifyerControl::NotifyerPreventiveOn()
       8  CStatusLedNotifyerControl::new CStatusLedNotifyerControl()
       0  CStatusLedNotifyerControl::~CStatusLedNotifyerControl()
       1  _A_ACSR
       2  _A_ADC
       1  _A_ADCSRA
       1  _A_ADMUX
       1  _A_ASSR
       1  _A_DDRA
       1  _A_DDRB
       1  _A_DDRC
       1  _A_DDRD
       1  _A_DDRE
       1  _A_DDRF
       1  _A_DDRG
       2  _A_EEAR
       1  _A_EECR
       1  _A_EEDR
       1  _A_EICRA
       1  _A_EICRB
       1  _A_EIFR
       1  _A_EIMSK
       1  _A_ETIFR
       1  _A_ETIMSK
       2  _A_ICR1
       2  _A_ICR3
       1  _A_MCUCR
       1  _A_MCUCSR
       1  _A_OCDR
       1  _A_OCR0
       2  _A_OCR1A
       2  _A_OCR1B
       2  _A_OCR1C
       1  _A_OCR2
       2  _A_OCR3A
       2  _A_OCR3B
       2  _A_OCR3C
       1  _A_OSCCAL
       1  _A_PINA
       1  _A_PINB
       1  _A_PINC
       1  _A_PIND
       1  _A_PINE
       1  _A_PINF
       1  _A_PING
       1  _A_PORTA
       1  _A_PORTB
       1  _A_PORTC
       1  _A_PORTD
       1  _A_PORTE
       1  _A_PORTF
       1  _A_PORTG
       1  _A_RAMPZ
       1  _A_SFIOR
       2  _A_SP
       1  _A_SPCR
       1  _A_SPDR
       1  _A_SPMCSR
       1  _A_SPSR
       1  _A_SREG
       1  _A_TCCR0
       1  _A_TCCR1A
       1  _A_TCCR1B
       1  _A_TCCR1C
       1  _A_TCCR2
       1  _A_TCCR3A
       1  _A_TCCR3B
       1  _A_TCCR3C
       1  _A_TCNT0
       2  _A_TCNT1
       1  _A_TCNT2
       2  _A_TCNT3
       1  _A_TIFR
       1  _A_TIMSK
       1  _A_TWAR
       1  _A_TWBR
       1  _A_TWCR
       1  _A_TWDR
       1  _A_TWSR
       1  _A_UBRR0H
       1  _A_UBRR0L
       1  _A_UBRR1H
       1  _A_UBRR1L
       1  _A_UCSR0A
       1  _A_UCSR0B
       1  _A_UCSR0C
       1  _A_UCSR1A
       1  _A_UCSR1B
       1  _A_UCSR1C
       1  _A_UDR0
       1  _A_UDR1
       1  _A_WDTCR
       1  _A_XDIV
       1  _A_XMCRA
       1  _A_XMCRB
     184  -- Other

 
 105 bytes in segment ABSOLUTE
 900 bytes in segment CODE
 184 bytes in segment NEAR_F
  58 bytes in segment SWITCH
 
 830 bytes of CODE memory (+ 312 bytes shared)
   0 bytes of DATA memory (+ 105 bytes shared)

Errors: none
Warnings: 2
