###############################################################################
#
# IAR C/C++ Compiler V7.10.6.1378 for Atmel AVR           09/Aug/2022  11:07:06
# Copyright 1996-2018 IAR Systems AB.
#
#    Source file  =  D:\Projects\CautoProjects\PSS48\PSS48\src\Platform.cpp
#    Command line =  
#        -f C:\Users\ghost\AppData\Local\Temp\EW3846.tmp
#        (--string_literals_in_flash
#        D:\Projects\CautoProjects\PSS48\PSS48\src\Platform.cpp --cpu=m128a -ms
#        -o D:\Projects\CautoProjects\PSS48\PSS48\Debug\Obj -lC
#        D:\Projects\CautoProjects\PSS48\PSS48\Debug\List -lB
#        D:\Projects\CautoProjects\PSS48\PSS48\Debug\List -y
#        --initializers_in_flash --root_variables --debug
#        -DENABLE_BIT_DEFINITIONS -e -I
#        D:\Projects\CautoProjects\PSS48\PSS48\include\ -I
#        D:\Projects\CautoProjects\PSS48\PSS48\Modbus\ --eeprom_size 4096
#        --dlib --dlib_config "C:\Program Files (x86)\IAR Systems\Embedded
#        Workbench 8.0\avr\LIB\DLIB\dlAVR-3s-ec_mul-n.h" -Ohz --eec++)
#    Locale       =  Russian_RUS.1251
#    List file    =  
#        D:\Projects\CautoProjects\PSS48\PSS48\Debug\List\Platform.lst
#    Object file  =  
#        D:\Projects\CautoProjects\PSS48\PSS48\Debug\Obj\Platform.r90
#
###############################################################################

D:\Projects\CautoProjects\PSS48\PSS48\src\Platform.cpp
      1          //-----------------------------------------------------------------------------------------------------
Warning[Pa082]: undefined behavior: the order of volatile accesses is undefined
          in this statement
      2          //  Sourse      : FileName.cpp
      3          //  Created     : 01.06.2022
      4          //  Author      : Alexandr Volvenkin
      5          //  email       : aav-36@mail.ru
      6          //  GitHub      : https://github.com/AlexandrVolvenkin
      7          //-----------------------------------------------------------------------------------------------------
      8          #include "Platform.h"

   \                                 In  segment ABSOLUTE, at 0x9d, root
   \   union <unnamed> volatile __io _A_UCSR1C
   \                     _A_UCSR1C:
   \   00000000                      DS8 1

   \                                 In  segment ABSOLUTE, at 0x9c, root
   \   union <unnamed> volatile __io _A_UDR1
   \                     _A_UDR1:
   \   00000000                      DS8 1

   \                                 In  segment ABSOLUTE, at 0x9b, root
   \   union <unnamed> volatile __io _A_UCSR1A
   \                     _A_UCSR1A:
   \   00000000                      DS8 1

   \                                 In  segment ABSOLUTE, at 0x9a, root
   \   union <unnamed> volatile __io _A_UCSR1B
   \                     _A_UCSR1B:
   \   00000000                      DS8 1

   \                                 In  segment ABSOLUTE, at 0x99, root
   \   union <unnamed> volatile __io _A_UBRR1L
   \                     _A_UBRR1L:
   \   00000000                      DS8 1

   \                                 In  segment ABSOLUTE, at 0x98, root
   \   union <unnamed> volatile __io _A_UBRR1H
   \                     _A_UBRR1H:
   \   00000000                      DS8 1

   \                                 In  segment ABSOLUTE, at 0x95, root
   \   union <unnamed> volatile __io _A_UCSR0C
   \                     _A_UCSR0C:
   \   00000000                      DS8 1

   \                                 In  segment ABSOLUTE, at 0x90, root
   \   union <unnamed> volatile __io _A_UBRR0H
   \                     _A_UBRR0H:
   \   00000000                      DS8 1

   \                                 In  segment ABSOLUTE, at 0x8c, root
   \   union <unnamed> volatile __io _A_TCCR3C
   \                     _A_TCCR3C:
   \   00000000                      DS8 1

   \                                 In  segment ABSOLUTE, at 0x8b, root
   \   union <unnamed> volatile __io _A_TCCR3A
   \                     _A_TCCR3A:
   \   00000000                      DS8 1

   \                                 In  segment ABSOLUTE, at 0x8a, root
   \   union <unnamed> volatile __io _A_TCCR3B
   \                     _A_TCCR3B:
   \   00000000                      DS8 1

   \                                 In  segment ABSOLUTE, at 0x88, root
   \   union <unnamed> volatile __io _A_TCNT3
   \                     _A_TCNT3:
   \   00000000                      DS8 2

   \                                 In  segment ABSOLUTE, at 0x86, root
   \   union <unnamed> volatile __io _A_OCR3A
   \                     _A_OCR3A:
   \   00000000                      DS8 2

   \                                 In  segment ABSOLUTE, at 0x84, root
   \   union <unnamed> volatile __io _A_OCR3B
   \                     _A_OCR3B:
   \   00000000                      DS8 2

   \                                 In  segment ABSOLUTE, at 0x82, root
   \   union <unnamed> volatile __io _A_OCR3C
   \                     _A_OCR3C:
   \   00000000                      DS8 2

   \                                 In  segment ABSOLUTE, at 0x80, root
   \   union <unnamed> volatile __io _A_ICR3
   \                     _A_ICR3:
   \   00000000                      DS8 2

   \                                 In  segment ABSOLUTE, at 0x7d, root
   \   union <unnamed> volatile __io _A_ETIMSK
   \                     _A_ETIMSK:
   \   00000000                      DS8 1

   \                                 In  segment ABSOLUTE, at 0x7c, root
   \   union <unnamed> volatile __io _A_ETIFR
   \                     _A_ETIFR:
   \   00000000                      DS8 1

   \                                 In  segment ABSOLUTE, at 0x7a, root
   \   union <unnamed> volatile __io _A_TCCR1C
   \                     _A_TCCR1C:
   \   00000000                      DS8 1

   \                                 In  segment ABSOLUTE, at 0x78, root
   \   union <unnamed> volatile __io _A_OCR1C
   \                     _A_OCR1C:
   \   00000000                      DS8 2

   \                                 In  segment ABSOLUTE, at 0x74, root
   \   union <unnamed> volatile __io _A_TWCR
   \                     _A_TWCR:
   \   00000000                      DS8 1

   \                                 In  segment ABSOLUTE, at 0x73, root
   \   union <unnamed> volatile __io _A_TWDR
   \                     _A_TWDR:
   \   00000000                      DS8 1

   \                                 In  segment ABSOLUTE, at 0x72, root
   \   union <unnamed> volatile __io _A_TWAR
   \                     _A_TWAR:
   \   00000000                      DS8 1

   \                                 In  segment ABSOLUTE, at 0x71, root
   \   union <unnamed> volatile __io _A_TWSR
   \                     _A_TWSR:
   \   00000000                      DS8 1

   \                                 In  segment ABSOLUTE, at 0x70, root
   \   union <unnamed> volatile __io _A_TWBR
   \                     _A_TWBR:
   \   00000000                      DS8 1

   \                                 In  segment ABSOLUTE, at 0x6f, root
   \   union <unnamed> volatile __io _A_OSCCAL
   \                     _A_OSCCAL:
   \   00000000                      DS8 1

   \                                 In  segment ABSOLUTE, at 0x6d, root
   \   union <unnamed> volatile __io _A_XMCRA
   \                     _A_XMCRA:
   \   00000000                      DS8 1

   \                                 In  segment ABSOLUTE, at 0x6c, root
   \   union <unnamed> volatile __io _A_XMCRB
   \                     _A_XMCRB:
   \   00000000                      DS8 1

   \                                 In  segment ABSOLUTE, at 0x6a, root
   \   union <unnamed> volatile __io _A_EICRA
   \                     _A_EICRA:
   \   00000000                      DS8 1

   \                                 In  segment ABSOLUTE, at 0x68, root
   \   union <unnamed> volatile __io _A_SPMCSR
   \                     _A_SPMCSR:
   \   00000000                      DS8 1

   \                                 In  segment ABSOLUTE, at 0x65, root
   \   union <unnamed> volatile __io _A_PORTG
   \                     _A_PORTG:
   \   00000000                      DS8 1

   \                                 In  segment ABSOLUTE, at 0x64, root
   \   union <unnamed> volatile __io _A_DDRG
   \                     _A_DDRG:
   \   00000000                      DS8 1

   \                                 In  segment ABSOLUTE, at 0x63, root
   \   union <unnamed> volatile __io _A_PING
   \                     _A_PING:
   \   00000000                      DS8 1

   \                                 In  segment ABSOLUTE, at 0x62, root
   \   union <unnamed> volatile __io _A_PORTF
   \                     _A_PORTF:
   \   00000000                      DS8 1

   \                                 In  segment ABSOLUTE, at 0x61, root
   \   union <unnamed> volatile __io _A_DDRF
   \                     _A_DDRF:
   \   00000000                      DS8 1

   \                                 In  segment ABSOLUTE, at 0x5f, root
   \   union <unnamed> volatile __io _A_SREG
   \                     _A_SREG:
   \   00000000                      DS8 1

   \                                 In  segment ABSOLUTE, at 0x5d, root
   \   union <unnamed> volatile __io _A_SP
   \                     _A_SP:
   \   00000000                      DS8 2

   \                                 In  segment ABSOLUTE, at 0x5c, root
   \   union <unnamed> volatile __io _A_XDIV
   \                     _A_XDIV:
   \   00000000                      DS8 1

   \                                 In  segment ABSOLUTE, at 0x5b, root
   \   union <unnamed> volatile __io _A_RAMPZ
   \                     _A_RAMPZ:
   \   00000000                      DS8 1

   \                                 In  segment ABSOLUTE, at 0x5a, root
   \   union <unnamed> volatile __io _A_EICRB
   \                     _A_EICRB:
   \   00000000                      DS8 1

   \                                 In  segment ABSOLUTE, at 0x59, root
   \   union <unnamed> volatile __io _A_EIMSK
   \                     _A_EIMSK:
   \   00000000                      DS8 1

   \                                 In  segment ABSOLUTE, at 0x58, root
   \   union <unnamed> volatile __io _A_EIFR
   \                     _A_EIFR:
   \   00000000                      DS8 1

   \                                 In  segment ABSOLUTE, at 0x57, root
   \   union <unnamed> volatile __io _A_TIMSK
   \                     _A_TIMSK:
   \   00000000                      DS8 1

   \                                 In  segment ABSOLUTE, at 0x56, root
   \   union <unnamed> volatile __io _A_TIFR
   \                     _A_TIFR:
   \   00000000                      DS8 1

   \                                 In  segment ABSOLUTE, at 0x55, root
   \   union <unnamed> volatile __io _A_MCUCR
   \                     _A_MCUCR:
   \   00000000                      DS8 1

   \                                 In  segment ABSOLUTE, at 0x54, root
   \   union <unnamed> volatile __io _A_MCUCSR
   \                     _A_MCUCSR:
   \   00000000                      DS8 1

   \                                 In  segment ABSOLUTE, at 0x53, root
   \   union <unnamed> volatile __io _A_TCCR0
   \                     _A_TCCR0:
   \   00000000                      DS8 1

   \                                 In  segment ABSOLUTE, at 0x52, root
   \   union <unnamed> volatile __io _A_TCNT0
   \                     _A_TCNT0:
   \   00000000                      DS8 1

   \                                 In  segment ABSOLUTE, at 0x51, root
   \   union <unnamed> volatile __io _A_OCR0
   \                     _A_OCR0:
   \   00000000                      DS8 1

   \                                 In  segment ABSOLUTE, at 0x50, root
   \   union <unnamed> volatile __io _A_ASSR
   \                     _A_ASSR:
   \   00000000                      DS8 1

   \                                 In  segment ABSOLUTE, at 0x4f, root
   \   union <unnamed> volatile __io _A_TCCR1A
   \                     _A_TCCR1A:
   \   00000000                      DS8 1

   \                                 In  segment ABSOLUTE, at 0x4e, root
   \   union <unnamed> volatile __io _A_TCCR1B
   \                     _A_TCCR1B:
   \   00000000                      DS8 1

   \                                 In  segment ABSOLUTE, at 0x4c, root
   \   union <unnamed> volatile __io _A_TCNT1
   \                     _A_TCNT1:
   \   00000000                      DS8 2

   \                                 In  segment ABSOLUTE, at 0x4a, root
   \   union <unnamed> volatile __io _A_OCR1A
   \                     _A_OCR1A:
   \   00000000                      DS8 2

   \                                 In  segment ABSOLUTE, at 0x48, root
   \   union <unnamed> volatile __io _A_OCR1B
   \                     _A_OCR1B:
   \   00000000                      DS8 2

   \                                 In  segment ABSOLUTE, at 0x46, root
   \   union <unnamed> volatile __io _A_ICR1
   \                     _A_ICR1:
   \   00000000                      DS8 2

   \                                 In  segment ABSOLUTE, at 0x45, root
   \   union <unnamed> volatile __io _A_TCCR2
   \                     _A_TCCR2:
   \   00000000                      DS8 1

   \                                 In  segment ABSOLUTE, at 0x44, root
   \   union <unnamed> volatile __io _A_TCNT2
   \                     _A_TCNT2:
   \   00000000                      DS8 1

   \                                 In  segment ABSOLUTE, at 0x43, root
   \   union <unnamed> volatile __io _A_OCR2
   \                     _A_OCR2:
   \   00000000                      DS8 1

   \                                 In  segment ABSOLUTE, at 0x42, root
   \   union <unnamed> volatile __io _A_OCDR
   \                     _A_OCDR:
   \   00000000                      DS8 1

   \                                 In  segment ABSOLUTE, at 0x41, root
   \   union <unnamed> volatile __io _A_WDTCR
   \                     _A_WDTCR:
   \   00000000                      DS8 1

   \                                 In  segment ABSOLUTE, at 0x40, root
   \   union <unnamed> volatile __io _A_SFIOR
   \                     _A_SFIOR:
   \   00000000                      DS8 1

   \                                 In  segment ABSOLUTE, at 0x3e, root
   \   union <unnamed> volatile __io _A_EEAR
   \                     _A_EEAR:
   \   00000000                      DS8 2

   \                                 In  segment ABSOLUTE, at 0x3d, root
   \   union <unnamed> volatile __io _A_EEDR
   \                     _A_EEDR:
   \   00000000                      DS8 1

   \                                 In  segment ABSOLUTE, at 0x3c, root
   \   union <unnamed> volatile __io _A_EECR
   \                     _A_EECR:
   \   00000000                      DS8 1

   \                                 In  segment ABSOLUTE, at 0x3b, root
   \   union <unnamed> volatile __io _A_PORTA
   \                     _A_PORTA:
   \   00000000                      DS8 1

   \                                 In  segment ABSOLUTE, at 0x3a, root
   \   union <unnamed> volatile __io _A_DDRA
   \                     _A_DDRA:
   \   00000000                      DS8 1

   \                                 In  segment ABSOLUTE, at 0x39, root
   \   union <unnamed> volatile __io _A_PINA
   \                     _A_PINA:
   \   00000000                      DS8 1

   \                                 In  segment ABSOLUTE, at 0x38, root
   \   union <unnamed> volatile __io _A_PORTB
   \                     _A_PORTB:
   \   00000000                      DS8 1

   \                                 In  segment ABSOLUTE, at 0x37, root
   \   union <unnamed> volatile __io _A_DDRB
   \                     _A_DDRB:
   \   00000000                      DS8 1

   \                                 In  segment ABSOLUTE, at 0x36, root
   \   union <unnamed> volatile __io _A_PINB
   \                     _A_PINB:
   \   00000000                      DS8 1

   \                                 In  segment ABSOLUTE, at 0x35, root
   \   union <unnamed> volatile __io _A_PORTC
   \                     _A_PORTC:
   \   00000000                      DS8 1

   \                                 In  segment ABSOLUTE, at 0x34, root
   \   union <unnamed> volatile __io _A_DDRC
   \                     _A_DDRC:
   \   00000000                      DS8 1

   \                                 In  segment ABSOLUTE, at 0x33, root
   \   union <unnamed> volatile __io _A_PINC
   \                     _A_PINC:
   \   00000000                      DS8 1

   \                                 In  segment ABSOLUTE, at 0x32, root
   \   union <unnamed> volatile __io _A_PORTD
   \                     _A_PORTD:
   \   00000000                      DS8 1

   \                                 In  segment ABSOLUTE, at 0x31, root
   \   union <unnamed> volatile __io _A_DDRD
   \                     _A_DDRD:
   \   00000000                      DS8 1

   \                                 In  segment ABSOLUTE, at 0x30, root
   \   union <unnamed> volatile __io _A_PIND
   \                     _A_PIND:
   \   00000000                      DS8 1

   \                                 In  segment ABSOLUTE, at 0x2f, root
   \   union <unnamed> volatile __io _A_SPDR
   \                     _A_SPDR:
   \   00000000                      DS8 1

   \                                 In  segment ABSOLUTE, at 0x2e, root
   \   union <unnamed> volatile __io _A_SPSR
   \                     _A_SPSR:
   \   00000000                      DS8 1

   \                                 In  segment ABSOLUTE, at 0x2d, root
   \   union <unnamed> volatile __io _A_SPCR
   \                     _A_SPCR:
   \   00000000                      DS8 1

   \                                 In  segment ABSOLUTE, at 0x2c, root
   \   union <unnamed> volatile __io _A_UDR0
   \                     _A_UDR0:
   \   00000000                      DS8 1

   \                                 In  segment ABSOLUTE, at 0x2b, root
   \   union <unnamed> volatile __io _A_UCSR0A
   \                     _A_UCSR0A:
   \   00000000                      DS8 1

   \                                 In  segment ABSOLUTE, at 0x2a, root
   \   union <unnamed> volatile __io _A_UCSR0B
   \                     _A_UCSR0B:
   \   00000000                      DS8 1

   \                                 In  segment ABSOLUTE, at 0x29, root
   \   union <unnamed> volatile __io _A_UBRR0L
   \                     _A_UBRR0L:
   \   00000000                      DS8 1

   \                                 In  segment ABSOLUTE, at 0x28, root
   \   union <unnamed> volatile __io _A_ACSR
   \                     _A_ACSR:
   \   00000000                      DS8 1

   \                                 In  segment ABSOLUTE, at 0x27, root
   \   union <unnamed> volatile __io _A_ADMUX
   \                     _A_ADMUX:
   \   00000000                      DS8 1

   \                                 In  segment ABSOLUTE, at 0x26, root
   \   union <unnamed> volatile __io _A_ADCSRA
   \                     _A_ADCSRA:
   \   00000000                      DS8 1

   \                                 In  segment ABSOLUTE, at 0x24, root
   \   union <unnamed> volatile __io _A_ADC
   \                     _A_ADC:
   \   00000000                      DS8 2

   \                                 In  segment ABSOLUTE, at 0x23, root
   \   union <unnamed> volatile __io _A_PORTE
   \                     _A_PORTE:
   \   00000000                      DS8 1

   \                                 In  segment ABSOLUTE, at 0x22, root
   \   union <unnamed> volatile __io _A_DDRE
   \                     _A_DDRE:
   \   00000000                      DS8 1

   \                                 In  segment ABSOLUTE, at 0x21, root
   \   union <unnamed> volatile __io _A_PINE
   \                     _A_PINE:
   \   00000000                      DS8 1

   \                                 In  segment ABSOLUTE, at 0x20, root
   \   union <unnamed> volatile __io _A_PINF
   \                     _A_PINF:
   \   00000000                      DS8 1
      9          #include "Pss21.h"
     10          
     11          
     12          // ATMega128a
     13          //-----------------------------------------------------------------------------------------------------

   \                                 In  segment CODE, align 2, keep-with-next
     14          CUart::CUart()
   \                     ??CUart:
     15          {
   \   00000000   ....               LDI     R18, LOW(??__vtbl)
   \   00000002   ....               LDI     R19, (??__vtbl) >> 8
   \   00000004   01F8               MOVW    R31:R30, R17:R16
   \   00000006   A725               STD     Z+45, R18
   \   00000008   A736               STD     Z+46, R19
     16          
     17          }
   \   0000000A   9508               RET
     18          
     19          //-----------------------------------------------------------------------------------------------------

   \                                 In  segment CODE, align 2, keep-with-next
     20          CUart::CUart(volatile uint8_t *ubrrh, volatile uint8_t *ubrrl,
   \                     ??CUart_1:
     21                       volatile uint8_t *ucsra, volatile uint8_t *ucsrb,
     22                       volatile uint8_t *ucsrc, volatile uint8_t *udr,
     23                       volatile uint8_t *rs485DirectionPort, volatile uint8_t rs485DirectionPin,
     24                       volatile uint8_t *rs485OutputPort, volatile uint8_t rs485OutputPin) :
   \   00000000   2E1B               MOV     R1, R27
   \   00000002   2E2A               MOV     R2, R26
   \   00000004   01F8               MOVW    R31:R30, R17:R16
   \   00000006   ....               LDI     R16, LOW(??__vtbl)
   \   00000008   ....               LDI     R17, (??__vtbl) >> 8
   \   0000000A   A705               STD     Z+45, R16
   \   0000000C   A716               STD     Z+46, R17
     25              m_UBRRH(ubrrh), m_UBRRL(ubrrl), m_UCSRA(ucsra),
   \   0000000E   8320               ST      Z, R18
   \   00000010   8331               STD     Z+1, R19
   \   00000012   8342               STD     Z+2, R20
   \   00000014   8353               STD     Z+3, R21
   \   00000016   8364               STD     Z+4, R22
   \   00000018   8375               STD     Z+5, R23
     26              m_UCSRB(ucsrb), m_UCSRC(ucsrc), m_UDR(udr),
   \   0000001A   8108               LD      R16, Y
   \   0000001C   8119               LDD     R17, Y+1
   \   0000001E   8306               STD     Z+6, R16
   \   00000020   8317               STD     Z+7, R17
   \   00000022   810A               LDD     R16, Y+2
   \   00000024   811B               LDD     R17, Y+3
   \   00000026   8700               STD     Z+8, R16
   \   00000028   8711               STD     Z+9, R17
   \   0000002A   810C               LDD     R16, Y+4
   \   0000002C   811D               LDD     R17, Y+5
   \   0000002E   8702               STD     Z+10, R16
   \   00000030   8713               STD     Z+11, R17
     27              m_rs485DirectionPort(rs485DirectionPort), m_rs485DirectionPin(rs485DirectionPin), m_rs485OutputPort(rs485OutputPort), m_rs485OutputPin(rs485OutputPin)
   \   00000032   810E               LDD     R16, Y+6
   \   00000034   811F               LDD     R17, Y+7
   \   00000036   8704               STD     Z+12, R16
   \   00000038   8715               STD     Z+13, R17
   \   0000003A   8508               LDD     R16, Y+8
   \   0000003C   8706               STD     Z+14, R16
   \   0000003E   8509               LDD     R16, Y+9
   \   00000040   851A               LDD     R17, Y+10
   \   00000042   8707               STD     Z+15, R16
   \   00000044   8B10               STD     Z+16, R17
   \   00000046   850B               LDD     R16, Y+11
   \   00000048   8B01               STD     Z+17, R16
     28          {
     29              if (m_rs485DirectionPort)
   \   0000004A   85A4               LDD     R26, Z+12
   \   0000004C   85B5               LDD     R27, Z+13
   \   0000004E   2F0A               MOV     R16, R26
   \   00000050   2B0B               OR      R16, R27
   \   00000052   F031               BREQ    ??CrossCallReturnLabel_0
     30              {
     31                  uint8_t uiData = m_rs485DirectionPin;
   \   00000054   8546               LDD     R20, Z+14
     32                  *m_rs485DirectionPort |= _BV(uiData);
   \   00000056   ....               RCALL   ?Subroutine19
   \                     ??CrossCallReturnLabel_14:
   \   00000058   911C               LD      R17, X
   \   0000005A   2B10               OR      R17, R16
   \   0000005C   931C               ST      X, R17
     33                  uiData = m_rs485OutputPin;
   \   0000005E   ....               RCALL   ?Subroutine2
     34                  *m_rs485OutputPort &= ~(_BV(uiData));
     35              }
     36          }
   \                     ??CrossCallReturnLabel_0:
   \   00000060   018F               MOVW    R17:R16, R31:R30
   \   00000062   2DA2               MOV     R26, R2
   \   00000064   2DB1               MOV     R27, R1
   \   00000066   962C               ADIW    R29:R28, 12
   \   00000068   9508               RET

   \                                 In  segment CODE, align 2, keep-with-next
   \                     ?Subroutine19:
   \   00000000   E001               LDI     R16, 1
   \   00000002   E010               LDI     R17, 0
   \   00000004   ........           JMP     ?S_SHL_L02

   \                                 In  segment CODE, align 2, keep-with-next
   \                     ?Subroutine2:
   \   00000000   8941               LDD     R20, Z+17
   \   00000002   ....               RCALL   ?Subroutine19
   \                     ??CrossCallReturnLabel_16:
   \   00000004   9500               COM     R16
   \   00000006   85A7               LDD     R26, Z+15
   \   00000008   89B0               LDD     R27, Z+16
   \   0000000A   911C               LD      R17, X
   \   0000000C   2310               AND     R17, R16
   \   0000000E   931C               ST      X, R17
   \   00000010   9508               RET
     37          
     38          //-----------------------------------------------------------------------------------------------------

   \                                 In  segment CODE, align 2, keep-with-next
     39          CUart::~CUart()
   \                     `?~CUart`:
   \   00000000   ....               RJMP    ?Subroutine8

   \                                 In  segment CODE, align 2, keep-with-next
   \                     ?Subroutine8:
     40          {
   \   00000000   2F40               MOV     R20, R16
   \   00000002   2B41               OR      R20, R17
   \   00000004   F021               BREQ    ??Subroutine8_0
   \   00000006   FB20               BST     R18, 0
   \   00000008   F416               BRTC    ??Subroutine8_0
     41          
     42          }
   \   0000000A   ........           CALL    `??operator delete`
   \                     ??Subroutine8_0:
   \   0000000E   9508               RET
     43          
     44          //-----------------------------------------------------------------------------------------------------

   \                                 In  segment CODE, align 2, keep-with-next
     45          void CUart::Init(uint32_t ulBaudRate,
   \                     ??Init:
     46                           uint8_t ucParity,
     47                           uint8_t ucDataBits,
     48                           uint8_t ucStopBit,
     49                           uint8_t *puiRxBuffer,
     50                           uint8_t *puiTxBuffer)
     51          {
   \   00000000   93BA               ST      -Y, R27
   \   00000002   93AA               ST      -Y, R26
   \   00000004   01D8               MOVW    R27:R26, R17:R16
     52          //    m_puiRxBuffer = puiRxBuffer;
     53          //    m_puiTxBuffer = puiTxBuffer;
     54          
     55              /* Set the baud rate */
     56              uint16_t uiBaudRateTemp = static_cast<uint16_t>((F_CPU / (ulBaudRate * 16UL) - 1));
   \   00000006   018A               MOVW    R17:R16, R21:R20
   \   00000008   019B               MOVW    R19:R18, R23:R22
   \   0000000A   E044               LDI     R20, 4
   \   0000000C   ........           CALL    ?L_SHL_L03
   \   00000010   01A8               MOVW    R21:R20, R17:R16
   \   00000012   01B9               MOVW    R23:R22, R19:R18
   \   00000014   ....               RCALL   ?Subroutine3
     57          //    uint16_t uiBaudRateTemp = static_cast<uint16_t>(CPss21::m_xModbusSettings.BaudRate);//(F_CPU / (ulBaudRate * 16UL) - 1);//
     58              *m_UBRRL = static_cast<uint8_t>(uiBaudRateTemp);
   \                     ??CrossCallReturnLabel_2:
   \   00000016   9612               ADIW    R27:R26, 2
   \   00000018   91ED               LD      R30, X+
   \   0000001A   91FC               LD      R31, X
   \   0000001C   9713               SBIW    R27:R26, 3
   \   0000001E   8300               ST      Z, R16
     59              *m_UBRRH = static_cast<uint8_t>(uiBaudRateTemp >> 8);
   \   00000020   01FD               MOVW    R31:R30, R27:R26
   \   00000022   8100               LD      R16, Z
   \   00000024   81F1               LDD     R31, Z+1
   \   00000026   2FE0               MOV     R30, R16
   \   00000028   8310               ST      Z, R17
     60          
     61              *m_UCSRC = (CPss21::m_xModbusSettings.LinkParam &	// 2 ńňîď-áčňŕ, 8 áčň äŕííűő
     62                          (BIT(UPM11)|BIT(UPM10)|BIT(USBS1))) |
     63                         (BIT(UCSZ11)|BIT(UCSZ10));
   \   0000002A   9100....           LDS     R16, (??m_xModbusSettings + 2)
   \   0000002E   7308               ANDI    R16, 0x38
   \   00000030   6006               ORI     R16, 0x06
   \   00000032   01FD               MOVW    R31:R30, R27:R26
   \   00000034   85A0               LDD     R26, Z+8
   \   00000036   85B1               LDD     R27, Z+9
   \   00000038   930C               ST      X, R16
     64          
     65          //    /* Set data bits (7, 8 bits) */
     66          //    switch (ucDataBits)
     67          //    {
     68          //    case 8:
     69          //        *m_UCSRC |= (1 << UCSZ00) | (1 << UCSZ01);
     70          //        break;
     71          //    case 7:
     72          //        *m_UCSRC |= (1 << UCSZ01);
     73          //        break;
     74          //    }
     75          //
     76          //    /* Set parity */
     77          //    if (ucParity == 'N')
     78          //    {
     79          //        /* None */
     80          //    }
     81          //    else if (ucParity == 'E')
     82          //    {
     83          //        /* Even */
     84          //        *m_UCSRC |= (1 << UPM01);
     85          //    }
     86          //    else
     87          //    {
     88          //        /* Odd */
     89          //        *m_UCSRC |= (1 << UPM01) | (1 << UPM00);
     90          //    }
     91          //
     92          //    /* Stop bit (1 or 2) */
     93          //    if (ucStopBit == 1)
     94          //    {
     95          //        *m_UCSRC &= ~(1 << USBS0);
     96          //    }
     97          //    else if (ucStopBit == 2) /* 2 */
     98          //    {
     99          //        *m_UCSRC |= (1 << USBS0);
    100          //    }
    101          }
   \   0000003A   91A9               LD      R26, Y+
   \   0000003C   91B9               LD      R27, Y+
   \   0000003E   9625               ADIW    R29:R28, 5
   \   00000040   9508               RET

   \                                 In  segment CODE, align 2, keep-with-next
   \                     ?Subroutine3:
   \   00000000   E000               LDI     R16, 0
   \   00000002   E810               LDI     R17, 128
   \   00000004   E720               LDI     R18, 112
   \   00000006   E030               LDI     R19, 0
   \   00000008   ........           CALL    ?UL_DIVMOD_L03
   \   0000000C   5001               SUBI    R16, 1
   \   0000000E   4010               SBCI    R17, 0
   \   00000010   9508               RET
    102          
    103          //-----------------------------------------------------------------------------------------------------

   \                                 In  segment CODE, align 2, keep-with-next
    104          void CUart::Reset(void)
   \                     ??Reset:
    105          {
    106              m_nuiRxBuffByteCounter = 0;
   \   00000000   01F8               MOVW    R31:R30, R17:R16
   \   00000002   E020               LDI     R18, 0
   \   00000004   8F20               STD     Z+24, R18
   \   00000006   8F21               STD     Z+25, R18
    107              m_bfByteIsReceived = 0;
   \   00000008   A722               STD     Z+42, R18
    108              m_bfFrameIsSended = 0;
   \   0000000A   A723               STD     Z+43, R18
    109              m_bfRxBuffOverflow = 0;
   \   0000000C   A724               STD     Z+44, R18
    110          }
   \   0000000E   9508               RET
    111          
    112          //-----------------------------------------------------------------------------------------------------

   \                                 In  segment CODE, align 2, keep-with-next
    113          void CUart::Open(void)
   \                     ??Open:
    114          {
   \   00000000   ....               RCALL   ?Subroutine7
    115              *m_UCSRA |= (1 << RXC0) | (1 << TXC0);
   \                     ??CrossCallReturnLabel_46:
   \   00000002   6C20               ORI     R18, 0xC0
   \   00000004   ....               RCALL   ?Subroutine12
    116              *m_UCSRB |= (1 << RXEN0) | (1 << TXEN0);
   \                     ??CrossCallReturnLabel_38:
   \   00000006   6108               ORI     R16, 0x18
   \   00000008   ....               RJMP    ?Subroutine14

   \                                 In  segment CODE, align 2, keep-with-next
   \                     ?Subroutine14:
   \   00000000   930C               ST      X, R16
    117          }
   \   00000002                      REQUIRE ?Subroutine25
   \   00000002                      ;               // Fall through to label ?Subroutine25

   \                                 In  segment CODE, align 2, keep-with-next
   \                     ?Subroutine25:
   \   00000000   2FA4               MOV     R26, R20
   \   00000002   2FB3               MOV     R27, R19
   \   00000004   9508               RET

   \                                 In  segment CODE, align 2, keep-with-next
   \                     ?Subroutine12:
   \   00000000   932C               ST      X, R18
   \   00000002                      REQUIRE ??Subroutine41_0
   \   00000002                      ;               // Fall through to label ??Subroutine41_0

   \                                 In  segment CODE, align 2, keep-with-next
   \                     ??Subroutine41_0:
   \   00000000   81A6               LDD     R26, Z+6
   \   00000002   81B7               LDD     R27, Z+7
   \   00000004   910C               LD      R16, X
   \   00000006   9508               RET

   \                                 In  segment CODE, align 2, keep-with-next
   \                     ?Subroutine29:
   \   00000000   912C               LD      R18, X
   \   00000002   9508               RET

   \                                 In  segment CODE, align 2, keep-with-next
   \                     ?Subroutine7:
   \   00000000   2F3B               MOV     R19, R27
   \   00000002   2F4A               MOV     R20, R26
   \   00000004   01F8               MOVW    R31:R30, R17:R16
   \   00000006   81A4               LDD     R26, Z+4
   \   00000008   81B5               LDD     R27, Z+5
   \   0000000A   ....               RJMP    ?Subroutine29
    118          
    119          //-----------------------------------------------------------------------------------------------------

   \                                 In  segment CODE, align 2, keep-with-next
    120          void CUart::Close(void)
   \                     ??Close:
    121          {
   \   00000000   ....               RCALL   ?Subroutine4
    122              *m_UCSRB &= ~((1 << RXEN0) | (1 << RXCIE0));
   \                     ??CrossCallReturnLabel_45:
   \   00000002   762F               ANDI    R18, 0x6F
   \   00000004   932C               ST      X, R18
    123              *m_UCSRB &= ~((1 << TXEN0) | (1 << TXCIE0));
   \   00000006   ....               RCALL   ?Subroutine20
   \                     ??CrossCallReturnLabel_48:
   \   00000008   7B27               ANDI    R18, 0xB7
   \   0000000A   ....               RCALL   ?Subroutine12
    124              *m_UCSRB &= ~((1 << UDRIE0));
   \                     ??CrossCallReturnLabel_39:
   \   0000000C   7D0F               ANDI    R16, 0xDF
   \   0000000E                      REQUIRE ?Subroutine14
   \   0000000E                      ;               // Fall through to label ?Subroutine14
    125          }

   \                                 In  segment CODE, align 2, keep-with-next
   \                     ?Subroutine4:
   \   00000000   2F3B               MOV     R19, R27
   \   00000002   2F4A               MOV     R20, R26
   \   00000004                      REQUIRE ?Subroutine20
   \   00000004                      REQUIRE ??Subroutine42_0
   \   00000004                      ;               // Fall through to label ??Subroutine42_0

   \                                 In  segment CODE, align 2, keep-with-next
   \                     ??Subroutine42_0:
   \   00000000   01F8               MOVW    R31:R30, R17:R16
   \   00000002                      REQUIRE ?Subroutine20
   \   00000002                      ;               // Fall through to label ?Subroutine20

   \                                 In  segment CODE, align 2, keep-with-next
   \                     ?Subroutine20:
   \   00000000   81A6               LDD     R26, Z+6
   \   00000002   81B7               LDD     R27, Z+7
   \   00000004                      REQUIRE ?Subroutine29
   \   00000004                      ;               // Fall through to label ?Subroutine29
    126          
    127          //-----------------------------------------------------------------------------------------------------

   \                                 In  segment CODE, align 2, keep-with-next
    128          void CUart::Enable(void)
   \                     ??Enable:
    129          {
   \   00000000   ....               RCALL   ?Subroutine7
    130              *m_UCSRA |= (1 << RXC0);
   \                     ??CrossCallReturnLabel_47:
   \   00000002   6820               ORI     R18, 0x80
   \   00000004   ....               RCALL   ?Subroutine12
    131              *m_UCSRB |= (1 << RXEN0) | (1 << RXCIE0);
   \                     ??CrossCallReturnLabel_40:
   \   00000006   6900               ORI     R16, 0x90
   \   00000008   ....               RJMP    ?Subroutine14
    132          }
    133          
    134          //-----------------------------------------------------------------------------------------------------

   \                                 In  segment CODE, align 2, keep-with-next
    135          void CUart::Disable(void)
   \                     ??Disable:
    136          {
   \   00000000   019D               MOVW    R19:R18, R27:R26
    137              *m_UCSRB &= ~((1 << RXEN0) | (1 << RXCIE0));
   \   00000002   01F8               MOVW    R31:R30, R17:R16
   \   00000004   ....               RCALL   ??Subroutine41_0
   \                     ??CrossCallReturnLabel_42:
   \   00000006   760F               ANDI    R16, 0x6F
   \   00000008   930C               ST      X, R16
    138          }
   \   0000000A                      REQUIRE ?Subroutine30
   \   0000000A                      ;               // Fall through to label ?Subroutine30

   \                                 In  segment CODE, align 2, keep-with-next
   \                     ?Subroutine30:
   \   00000000   01D9               MOVW    R27:R26, R19:R18
   \   00000002   9508               RET
    139          
    140          //-----------------------------------------------------------------------------------------------------

   \                                 In  segment CODE, align 2, keep-with-next
    141          void CUart::Rs485RtsOn(void)
   \                     ??Rs485RtsOn:
    142          {
   \   00000000   019D               MOVW    R19:R18, R27:R26
   \   00000002   01F8               MOVW    R31:R30, R17:R16
    143              uint8_t uiData = m_rs485OutputPin;
   \   00000004   8941               LDD     R20, Z+17
    144              *m_rs485OutputPort |= (1 << uiData);
   \   00000006   ....               RCALL   ?Subroutine19
   \                     ??CrossCallReturnLabel_15:
   \   00000008   85A7               LDD     R26, Z+15
   \   0000000A   89B0               LDD     R27, Z+16
   \   0000000C   911C               LD      R17, X
   \   0000000E   2B10               OR      R17, R16
   \   00000010   931C               ST      X, R17
    145          }
   \   00000012   ....               RJMP    ?Subroutine30
    146          
    147          //-----------------------------------------------------------------------------------------------------

   \                                 In  segment CODE, align 2, keep-with-next
    148          void CUart::Rs485RtsOff(void)
   \                     ??Rs485RtsOff:
    149          {
   \   00000000   019D               MOVW    R19:R18, R27:R26
   \   00000002   01F8               MOVW    R31:R30, R17:R16
    150              uint8_t uiData = m_rs485OutputPin;
   \   00000004   ....               RCALL   ?Subroutine2
    151              *m_rs485OutputPort &= ~(1 << uiData);
    152          }
   \                     ??CrossCallReturnLabel_1:
   \   00000006   ....               RJMP    ?Subroutine30
    153          
    154          //-----------------------------------------------------------------------------------------------------

   \                                 In  segment CODE, align 2, keep-with-next
    155          void CUart::TransmitEnable(void)
   \                     ??TransmitEnable:
    156          {
   \   00000000   2F5B               MOV     R21, R27
   \   00000002   2F6A               MOV     R22, R26
   \   00000004   01D8               MOVW    R27:R26, R17:R16
    157              if (m_rs485DirectionPort)
   \   00000006   01F8               MOVW    R31:R30, R17:R16
   \   00000008   8504               LDD     R16, Z+12
   \   0000000A   8515               LDD     R17, Z+13
   \   0000000C   2B01               OR      R16, R17
   \   0000000E   F011               BREQ    ??TransmitEnable_1
    158              {
    159                  Rs485RtsOn();
   \   00000010   018D               MOVW    R17:R16, R27:R26
   \   00000012   ....               RCALL   ??Rs485RtsOn
    160              }
    161          
    162              *m_UCSRA |= (1 << TXC0) | (1 << UDRE0);
   \                     ??TransmitEnable_1:
   \   00000014   9614               ADIW    R27:R26, 4
   \   00000016   91ED               LD      R30, X+
   \   00000018   91FC               LD      R31, X
   \   0000001A   9715               SBIW    R27:R26, 5
   \   0000001C   8100               LD      R16, Z
   \   0000001E   6600               ORI     R16, 0x60
   \   00000020   8300               ST      Z, R16
    163              *m_UCSRB |= (1 << TXEN0) | (1 << UDRIE0);
   \   00000022   01FD               MOVW    R31:R30, R27:R26
   \   00000024   ....               RCALL   ??Subroutine41_0
   \                     ??CrossCallReturnLabel_43:
   \   00000026   6208               ORI     R16, 0x28
   \   00000028   930C               ST      X, R16
    164          
    165          }
   \   0000002A                      REQUIRE ?Subroutine26
   \   0000002A                      ;               // Fall through to label ?Subroutine26

   \                                 In  segment CODE, align 2, keep-with-next
   \                     ?Subroutine26:
   \   00000000   2FA6               MOV     R26, R22
   \   00000002   2FB5               MOV     R27, R21
   \   00000004   9508               RET
    166          
    167          //-----------------------------------------------------------------------------------------------------

   \                                 In  segment CODE, align 2, keep-with-next
    168          void CUart::TransmitDisable(void)
   \                     ??TransmitDisable:
    169          {
   \   00000000   2F5B               MOV     R21, R27
   \   00000002   2F6A               MOV     R22, R26
    170              *m_UCSRB &= ~((1 << TXEN0) | (1 << TXCIE0) | (1 << UDRIE0));
   \   00000004   ....               RCALL   ??Subroutine42_0
   \                     ??CrossCallReturnLabel_50:
   \   00000006   7927               ANDI    R18, 0x97
   \   00000008   932C               ST      X, R18
    171          
    172              if (m_rs485DirectionPort)
   \   0000000A   8524               LDD     R18, Z+12
   \   0000000C   8535               LDD     R19, Z+13
   \   0000000E   2B23               OR      R18, R19
   \   00000010   F009               BREQ    ??TransmitDisable_1
    173              {
    174                  Rs485RtsOff();
   \   00000012   ....               RCALL   ??Rs485RtsOff
    175              }
    176          }
   \                     ??TransmitDisable_1:
   \   00000014   ....               RJMP    ?Subroutine26
    177          
    178          //-----------------------------------------------------------------------------------------------------

   \                                 In  segment CODE, align 2, keep-with-next
   \                     ?Subroutine28:
   \   00000000   E010               LDI     R17, 0
   \   00000002   9508               RET

   \                                 In  segment CODE, align 2, keep-with-next
    179          int16_t CUart::Write(uint8_t *puiSourse, uint16_t uiLength)
   \                     ??Write:
    180          {
    181              m_puiTxBuffer = (uint8_t*)puiSourse;
   \   00000000   01F8               MOVW    R31:R30, R17:R16
   \   00000002   8B22               STD     Z+18, R18
   \   00000004   8B33               STD     Z+19, R19
    182              m_nuiTxBuffByteCounter = uiLength;
   \   00000006   8B44               STD     Z+20, R20
   \   00000008   8B55               STD     Z+21, R21
    183          
    184              return 1;
   \   0000000A   E001               LDI     R16, 1
   \   0000000C   ....               RJMP    ?Subroutine28
    185          }
    186          
    187          //-----------------------------------------------------------------------------------------------------

   \                                 In  segment CODE, align 2, keep-with-next
   \                     ?Subroutine5:
   \   00000000   E000               LDI     R16, 0
   \   00000002                      REQUIRE ?Subroutine28
   \   00000002                      ;               // Fall through to label ?Subroutine28

   \                                 In  segment CODE, align 2, keep-with-next
    188          int16_t CUart::Read(uint8_t *puiDestination, uint16_t uiLength)
   \                     ??Read:
    189          {
   \   00000000   ....               RCALL   ?Subroutine15
   \                     ??CrossCallReturnLabel_11:
   \   00000002   01F8               MOVW    R31:R30, R17:R16
    190              m_bfByteIsReceived = 0;
   \   00000004   E000               LDI     R16, 0
   \   00000006   A702               STD     Z+42, R16
    191          
    192              if (m_bfRxBuffOverflow)
   \   00000008   A504               LDD     R16, Z+44
   \   0000000A   2300               TST     R16
   \   0000000C   F429               BRNE    ??Read_3
    193              {
    194                  return -1;
    195              }
    196          
    197              if (uiLength <= m_nuiRxBuffByteCounter)
   \   0000000E   8D00               LDD     R16, Z+24
   \   00000010   8D11               LDD     R17, Z+25
   \   00000012   1704               CP      R16, R20
   \   00000014   0715               CPC     R17, R21
   \   00000016   F018               BRCS    ??Read_4
    198              {
    199                  return -1;
   \                     ??Read_3:
   \   00000018   EF0F               LDI     R16, 255
   \   0000001A   EF1F               LDI     R17, 255
   \   0000001C   C01B               RJMP    ??CrossCallReturnLabel_23
    200              }
    201              else if (m_nuiRxBuffByteCounter)
   \                     ??Read_4:
   \   0000001E   2B01               OR      R16, R17
   \   00000020   F0C1               BREQ    ??Read_5
    202              {
    203                  CPlatform::InterruptDisable();
   \   00000022   94F8               CLI
    204          
    205                  for (int16_t i = 0; i < m_nuiRxBuffByteCounter; i++)
   \   00000024   E080               LDI     R24, 0
   \   00000026   E090               LDI     R25, 0
   \   00000028   C00A               RJMP    ??Read_6
    206                  {
    207                      puiDestination[i] = m_auiIntermediateBuff[i];
   \                     ??Read_7:
   \   0000002A   01DF               MOVW    R27:R26, R31:R30
   \   0000002C   0FA8               ADD     R26, R24
   \   0000002E   1FB9               ADC     R27, R25
   \   00000030   965A               ADIW    R27:R26, 26
   \   00000032   910C               LD      R16, X
   \   00000034   01D9               MOVW    R27:R26, R19:R18
   \   00000036   0FA8               ADD     R26, R24
   \   00000038   1FB9               ADC     R27, R25
   \   0000003A   930C               ST      X, R16
    208                  }
   \   0000003C   9601               ADIW    R25:R24, 1
   \                     ??Read_6:
   \   0000003E   8D00               LDD     R16, Z+24
   \   00000040   8D11               LDD     R17, Z+25
   \   00000042   1780               CP      R24, R16
   \   00000044   0791               CPC     R25, R17
   \   00000046   F388               BRCS    ??Read_7
    209          
    210                  uint8_t uiCounter = m_nuiRxBuffByteCounter;
    211                  m_nuiRxBuffByteCounter = 0;
   \   00000048   E010               LDI     R17, 0
   \   0000004A   8F10               STD     Z+24, R17
   \   0000004C   8F11               STD     Z+25, R17
    212          
    213                  CPlatform::InterruptEnable();
   \   0000004E   9478               SEI
    214          
    215                  return uiCounter;
    216              }
   \   00000050   C001               RJMP    ??CrossCallReturnLabel_23
    217              else if (0 == m_nuiRxBuffByteCounter)
    218              {
    219                  return 0;
    220              }
    221              return 0;
   \                     ??Read_5:
   \   00000052   ....               RCALL   ?Subroutine5
   \                     ??CrossCallReturnLabel_23:
   \   00000054                      REQUIRE ?Subroutine36
   \   00000054                      ;               // Fall through to label ?Subroutine36
    222          }

   \                                 In  segment CODE, align 2, keep-with-next
   \                     ?Subroutine36:
   \   00000000   E0E4               LDI     R30, 4
   \   00000002   ........           JMP     ?EPILOGUE_B4_L09

   \                                 In  segment CODE, align 2, keep-with-next
   \                     ?Subroutine15:
   \   00000000   ........           JMP     ?PROLOGUE4_L09
    223          
    224          //-----------------------------------------------------------------------------------------------------

   \                                 In  segment CODE, align 2, keep-with-next
    225          void CUart::UdreInterruptHandler(void)
   \                     ??UdreInterruptHandler:
    226          {
   \   00000000   01AD               MOVW    R21:R20, R27:R26
    227              if (m_nuiTxBuffByteCounter == 0)
   \   00000002   01F8               MOVW    R31:R30, R17:R16
   \   00000004   8924               LDD     R18, Z+20
   \   00000006   8935               LDD     R19, Z+21
   \   00000008   2B23               OR      R18, R19
   \   0000000A   F459               BRNE    ??UdreInterruptHandler_1
    228              {
    229                  *m_UCSRB &= ~((1 << UDRIE0));
   \   0000000C   ....               RCALL   ?Subroutine20
   \                     ??CrossCallReturnLabel_49:
   \   0000000E   7D2F               ANDI    R18, 0xDF
   \   00000010   932C               ST      X, R18
    230                  *m_UCSRA |= (1 << TXC0);
   \   00000012   81A4               LDD     R26, Z+4
   \   00000014   81B5               LDD     R27, Z+5
   \   00000016   912C               LD      R18, X
   \   00000018   6420               ORI     R18, 0x40
   \   0000001A   ....               RCALL   ?Subroutine12
    231                  *m_UCSRB |= (1 << TXCIE0);
   \                     ??CrossCallReturnLabel_41:
   \   0000001C   6400               ORI     R16, 0x40
   \   0000001E   930C               ST      X, R16
    232                  return;
   \   00000020   C00E               RJMP    ??UdreInterruptHandler_2
    233              }
    234              *m_UDR = *m_puiTxBuffer++;
   \                     ??UdreInterruptHandler_1:
   \   00000022   89A2               LDD     R26, Z+18
   \   00000024   89B3               LDD     R27, Z+19
   \   00000026   912D               LD      R18, X+
   \   00000028   8BA2               STD     Z+18, R26
   \   0000002A   8BB3               STD     Z+19, R27
   \   0000002C   85A2               LDD     R26, Z+10
   \   0000002E   85B3               LDD     R27, Z+11
   \   00000030   932C               ST      X, R18
    235              m_nuiTxBuffByteCounter--;
   \   00000032   8904               LDD     R16, Z+20
   \   00000034   8915               LDD     R17, Z+21
   \   00000036   5001               SUBI    R16, 1
   \   00000038   4010               SBCI    R17, 0
   \   0000003A   8B04               STD     Z+20, R16
   \   0000003C   8B15               STD     Z+21, R17
    236          }
   \                     ??UdreInterruptHandler_2:
   \   0000003E                      REQUIRE ?Subroutine31
   \   0000003E                      ;               // Fall through to label ?Subroutine31

   \                                 In  segment CODE, align 2, keep-with-next
   \                     ?Subroutine31:
   \   00000000   01DA               MOVW    R27:R26, R21:R20
   \   00000002   9508               RET
    237          
    238          //-----------------------------------------------------------------------------------------------------

   \                                 In  segment CODE, align 2, keep-with-next
    239          void CUart::TxcInterruptHandler(void)
   \                     ??TxcInterruptHandler:
    240          {
   \   00000000   ....               RCALL   ?Subroutine4
    241              *m_UCSRB &= ~((1 << TXCIE0));
   \                     ??CrossCallReturnLabel_44:
   \   00000002   7B2F               ANDI    R18, 0xBF
   \   00000004   932C               ST      X, R18
    242              m_bfFrameIsSended = 1;
   \   00000006   E001               LDI     R16, 1
   \   00000008   A703               STD     Z+43, R16
    243              return;
   \   0000000A   ....               RJMP    ?Subroutine25
    244          }
    245          
    246          //-----------------------------------------------------------------------------------------------------

   \                                 In  segment CODE, align 2, keep-with-next
    247          void CUart::RecvInterruptHandler(void)
   \                     ??RecvInterruptHandler:
    248          {
   \   00000000   ....               RCALL   ?Subroutine15
    249              // ďđîěĺćóňî÷íűé áóôĺđ ďđč¸ěŕ ďĺđĺďîëíĺí?
    250              if (m_nuiRxBuffByteCounter >=
    251                      UART_INTERMEDIATE_BUFF_LENGTH)
   \                     ??CrossCallReturnLabel_12:
   \   00000002   01F8               MOVW    R31:R30, R17:R16
   \   00000004   8D20               LDD     R18, Z+24
   \   00000006   8D31               LDD     R19, Z+25
   \   00000008   3120               CPI     R18, 16
   \   0000000A   E040               LDI     R20, 0
   \   0000000C   0734               CPC     R19, R20
   \   0000000E   F020               BRCS    ??RecvInterruptHandler_1
    252              {
    253                  m_bfRxBuffOverflow = 1;
   \   00000010   E021               LDI     R18, 1
   \   00000012   A724               STD     Z+44, R18
    254                  m_bfByteIsReceived = 1;
   \   00000014   A722               STD     Z+42, R18
   \   00000016   C00D               RJMP    ??RecvInterruptHandler_2
    255              }
    256              else
    257              {
    258                  m_auiIntermediateBuff[m_nuiRxBuffByteCounter++] = *m_UDR;
   \                     ??RecvInterruptHandler_1:
   \   00000018   01C9               MOVW    R25:R24, R19:R18
   \   0000001A   9601               ADIW    R25:R24, 1
   \   0000001C   8F80               STD     Z+24, R24
   \   0000001E   8F91               STD     Z+25, R25
   \   00000020   85A2               LDD     R26, Z+10
   \   00000022   85B3               LDD     R27, Z+11
   \   00000024   914C               LD      R20, X
   \   00000026   0FE2               ADD     R30, R18
   \   00000028   1FF3               ADC     R31, R19
   \   0000002A   8F42               STD     Z+26, R20
    259                  m_bfByteIsReceived = 1;
   \   0000002C   01F8               MOVW    R31:R30, R17:R16
   \   0000002E   E001               LDI     R16, 1
   \   00000030   A702               STD     Z+42, R16
    260              }
    261          }
   \                     ??RecvInterruptHandler_2:
   \   00000032   ....               RJMP    ?Subroutine36
    262          
    263          ////-----------------------------------------------------------------------------------------------------
    264          //// Ďđĺđűâŕíčĺ ďî ďóńňîěó đĺăčńňđó äŕííűő UDR
    265          //#pragma vector = USART0_UDRE_vect
    266          //__interrupt void SIG_UART0_DATA(void)
    267          //{
    268          //    CPlatform::m_pxUart0 -> UdreInterruptHandler();
    269          //}
    270          //
    271          ////-----------------------------------------------------------------------------------------------------
    272          //// Ďđĺđűâŕíčĺ ďî çŕâĺđřĺíčţ ďĺđĺäŕ÷č UART
    273          //#pragma vector = USART0_TX_vect
    274          //__interrupt void SIG_UART0_TXC(void)
    275          //{
    276          //    CPlatform::m_pxUart0 -> TxcInterruptHandler();
    277          //}
    278          //
    279          ////-----------------------------------------------------------------------------------------------------
    280          //// Ďđĺđűâŕíčĺ ďî çŕâĺđřĺíčţ ďđčĺěŕ UART
    281          //#pragma vector = USART0_RX_vect
    282          //__interrupt void SIG_UART0_RECV(void)
    283          //{
    284          //    CPlatform::m_pxUart0 -> RecvInterruptHandler();
    285          //}
    286          
    287          //-----------------------------------------------------------------------------------------------------
    288          // Ďđĺđűâŕíčĺ ďî ďóńňîěó đĺăčńňđó äŕííűő UDR
    289          #pragma vector = USART1_UDRE_vect

   \                                 In  segment CODE, align 2, keep-with-next
    290          __interrupt void SIG_UART1_DATA(void)
   \                     ??SIG_UART1_DATA:
    291          {
   \   00000000   ....               RCALL   ?Subroutine11
    292              CPlatform::m_pxUart1 -> UdreInterruptHandler();
   \                     ??CrossCallReturnLabel_6:
   \   00000002   ....               RCALL   ?Subroutine22
   \                     ??CrossCallReturnLabel_17:
   \   00000004   ....               RCALL   ??UdreInterruptHandler
    293          }
   \   00000006                      REQUIRE ?Subroutine37
   \   00000006                      ;               // Fall through to label ?Subroutine37

   \                                 In  segment CODE, align 2, keep-with-next
   \                     ?Subroutine37:
   \   00000000   ....               RCALL   ?Subroutine16
   \                     ??CrossCallReturnLabel_27:
   \   00000002   9518               RETI

   \                                 In  segment CODE, align 2, keep-with-next
   \                     ?Subroutine21:
   \   00000000   9109               LD      R16, Y+
   \   00000002   9119               LD      R17, Y+
   \   00000004   9129               LD      R18, Y+
   \   00000006   9139               LD      R19, Y+
   \   00000008   9149               LD      R20, Y+
   \   0000000A   9159               LD      R21, Y+
   \   0000000C   9169               LD      R22, Y+
   \   0000000E   9508               RET

   \                                 In  segment CODE, align 2, keep-with-next
   \                     ?Subroutine22:
   \   00000000   9100....           LDS     R16, ??m_pxUart1
   \   00000004   9110....           LDS     R17, (??m_pxUart1 + 1)
   \   00000008   9508               RET

   \                                 In  segment CODE, align 2, keep-with-next
   \                     ?Subroutine18:
   \   00000000   936A               ST      -Y, R22
   \   00000002   935A               ST      -Y, R21
   \   00000004   934A               ST      -Y, R20
   \   00000006   933A               ST      -Y, R19
   \   00000008                      REQUIRE ??Subroutine43_0
   \   00000008                      ;               // Fall through to label ??Subroutine43_0

   \                                 In  segment CODE, align 2, keep-with-next
   \                     ??Subroutine43_0:
   \   00000000   932A               ST      -Y, R18
   \   00000002   931A               ST      -Y, R17
   \   00000004   930A               ST      -Y, R16
   \   00000006   9508               RET

   \                                 In  segment CODE, align 2, keep-with-next
   \                     ?Subroutine16:
   \   00000000   BF7B               OUT     0x3B, R23
   \   00000002   BF6F               OUT     0x3F, R22
   \   00000004   ....               RCALL   ?Subroutine21
   \                     ??CrossCallReturnLabel_26:
   \   00000006   9179               LD      R23, Y+
   \   00000008                      REQUIRE ?Subroutine24
   \   00000008                      ;               // Fall through to label ?Subroutine24

   \                                 In  segment CODE, align 2, keep-with-next
   \                     ?Subroutine24:
   \   00000000   91E9               LD      R30, Y+
   \   00000002   91F9               LD      R31, Y+
   \   00000004   9508               RET

   \                                 In  segment CODE, align 2, keep-with-next
   \                     ?Subroutine11:
   \   00000000   ....               RCALL   ?Subroutine23
   \                     ??CrossCallReturnLabel_21:
   \   00000002   937A               ST      -Y, R23
   \   00000004   ....               RCALL   ?Subroutine18
   \                     ??CrossCallReturnLabel_53:
   \   00000006   B76F               IN      R22, 0x3F
   \   00000008   B77B               IN      R23, 0x3B
   \   0000000A   9508               RET

   \                                 In  segment CODE, align 2, keep-with-next
   \                     ?Subroutine23:
   \   00000000   93FA               ST      -Y, R31
   \   00000002   93EA               ST      -Y, R30
   \   00000004   9508               RET
    294          
    295          //-----------------------------------------------------------------------------------------------------
    296          // Ďđĺđűâŕíčĺ ďî çŕâĺđřĺíčţ ďĺđĺäŕ÷č UART
    297          #pragma vector = USART1_TX_vect

   \                                 In  segment CODE, align 2, keep-with-next
    298          __interrupt void SIG_UART1_TXC(void)
   \                     ??SIG_UART1_TXC:
    299          {
   \   00000000   ....               RCALL   ?Subroutine23
   \                     ??CrossCallReturnLabel_18:
   \   00000002   ....               RCALL   ?Subroutine10
    300              CPlatform::m_pxUart1 -> TxcInterruptHandler();
   \                     ??CrossCallReturnLabel_5:
   \   00000004   ....               RCALL   ??TxcInterruptHandler
    301          }
   \   00000006   ....               RCALL   ?Subroutine17
   \                     ??CrossCallReturnLabel_24:
   \   00000008                      REQUIRE ?Subroutine38
   \   00000008                      ;               // Fall through to label ?Subroutine38

   \                                 In  segment CODE, align 2, keep-with-next
   \                     ?Subroutine38:
   \   00000000   ....               RCALL   ?Subroutine24
   \                     ??CrossCallReturnLabel_28:
   \   00000002   9518               RETI

   \                                 In  segment CODE, align 2, keep-with-next
   \                     ?Subroutine17:
   \   00000000   BF6B               OUT     0x3B, R22
   \   00000002   BF5F               OUT     0x3F, R21
   \   00000004                      REQUIRE ?Subroutine21
   \   00000004                      ;               // Fall through to label ?Subroutine21

   \                                 In  segment CODE, align 2, keep-with-next
   \                     ?Subroutine10:
   \   00000000   ....               RCALL   ?Subroutine18
   \                     ??CrossCallReturnLabel_52:
   \   00000002   B75F               IN      R21, 0x3F
   \   00000004   B76B               IN      R22, 0x3B
   \   00000006                      REQUIRE ?Subroutine22
   \   00000006                      ;               // Fall through to label ?Subroutine22
    302          
    303          //-----------------------------------------------------------------------------------------------------
    304          // Ďđĺđűâŕíčĺ ďî çŕâĺđřĺíčţ ďđčĺěŕ UART
    305          #pragma vector = USART1_RX_vect

   \                                 In  segment CODE, align 2, keep-with-next
    306          __interrupt void SIG_UART1_RECV(void)
   \                     ??SIG_UART1_RECV:
    307          {
   \   00000000   ....               RCALL   ?Subroutine23
   \                     ??CrossCallReturnLabel_19:
   \   00000002   920A               ST      -Y, R0
   \   00000004   ....               RCALL   ?Subroutine10
    308              CPlatform::m_pxUart1 -> RecvInterruptHandler();
   \                     ??CrossCallReturnLabel_4:
   \   00000006   ....               RCALL   ??RecvInterruptHandler
    309          }
   \   00000008   ....               RCALL   ?Subroutine17
   \                     ??CrossCallReturnLabel_25:
   \   0000000A   9009               LD      R0, Y+
   \   0000000C   ....               RJMP    ?Subroutine38
    310          
    311          //-----------------------------------------------------------------------------------------------------
    312          
    313          
    314          
    315          //----------------------------------------- EEPROM ----------------------------------------------------------------

   \                                 In  segment NEAR_Z, align 1, keep-with-next, root
   \   00000000                      REQUIRE `?<Segment init: NEAR_Z>`
    316          uint8_t* CEeprom::m_puiBuffer;
   \                     ??m_puiBuffer:
   \   00000000                      DS8 2
    317          uint16_t CEeprom::m_uiAddress;
   \                     ??m_uiAddress:
   \   00000002                      DS8 2
    318          uint16_t CEeprom::m_nuiBufferByteCounter;
   \                     ??m_nuiBufferByteCounter:
   \   00000004                      DS8 2
    319          uint16_t CEeprom::m_uiLength;
   \                     ??m_uiLength:
   \   00000006                      DS8 2
    320          bool CEeprom::m_bBufferIsWrited;
   \                     ??m_bBufferIsWrited:
   \   00000008                      DS8 1
    321          
    322          //-----------------------------------------------------------------------------------------------------

   \                                 In  segment CODE, align 2, keep-with-next
    323          CEeprom::CEeprom()
   \                     ??CEeprom:
   \   00000000                      REQUIRE ?Subroutine1
   \   00000000                      ;               // Fall through to label ?Subroutine1

   \                                 In  segment CODE, align 2, keep-with-next
   \                     ?Subroutine1:
    324          {
   \   00000000   ....               LDI     R18, LOW(??__vtbl_2)
   \   00000002   ....               LDI     R19, (??__vtbl_2) >> 8
   \   00000004                      REQUIRE ??Subroutine44_0
   \   00000004                      ;               // Fall through to label ??Subroutine44_0

   \                                 In  segment CODE, align 2, keep-with-next
   \                     ??Subroutine44_0:
   \   00000000   01F8               MOVW    R31:R30, R17:R16
   \   00000002   8320               ST      Z, R18
   \   00000004   8331               STD     Z+1, R19
   \   00000006   9508               RET
    325          
    326          }
    327          
    328          //-----------------------------------------------------------------------------------------------------

   \                                 In  segment CODE, align 2, keep-with-next
    329          CEeprom::~CEeprom()
   \                     `?~CEeprom`:
   \   00000000   ....               RJMP    ?Subroutine8
    330          {
    331          
    332          }
    333          
    334          //-----------------------------------------------------------------------------------------------------

   \                                 In  segment CODE, align 2, keep-with-next
    335          uint8_t CEeprom::Read(uint8_t *pucRamDestination, uint16_t uiEepromSourse, uint16_t nuiLength)
   \                     ??Read_1:
    336          {
   \   00000000   01F8               MOVW    R31:R30, R17:R16
   \   00000002   C007               RJMP    ??Read_8
    337              while (nuiLength != 0)
    338              {
    339                  *pucRamDestination++ = ReadByte(uiEepromSourse++);
   \                     ??Read_9:
   \   00000004   0189               MOVW    R17:R16, R19:R18
   \   00000006   ....               RCALL   ??ReadByte
   \   00000008   5F2F               SUBI    R18, 255
   \   0000000A   4F3F               SBCI    R19, 255
   \   0000000C   9301               ST      Z+, R16
    340                  nuiLength--;
   \   0000000E   5041               SUBI    R20, 1
   \   00000010   4050               SBCI    R21, 0
    341              }
   \                     ??Read_8:
   \   00000012   2F04               MOV     R16, R20
   \   00000014   2B05               OR      R16, R21
   \   00000016   F7B1               BRNE    ??Read_9
    342              return 1;
   \   00000018                      REQUIRE ?Subroutine32
   \   00000018                      ;               // Fall through to label ?Subroutine32
    343          }

   \                                 In  segment CODE, align 2, keep-with-next
   \                     ?Subroutine32:
   \   00000000   E001               LDI     R16, 1
   \   00000002   9508               RET
    344          
    345          //-----------------------------------------------------------------------------------------------------

   \                                 In  segment CODE, align 2, keep-with-next
    346          uint8_t CEeprom::Write(uint16_t uiEepromDestination, uint8_t *pucRamSourse, uint16_t nuiLength)
   \                     ??Write_1:
    347          {
   \   00000000   ....               RCALL   ?Subroutine15
   \                     ??CrossCallReturnLabel_13:
   \   00000002   01C8               MOVW    R25:R24, R17:R16
   \   00000004   01D9               MOVW    R27:R26, R19:R18
   \   00000006   01FA               MOVW    R31:R30, R21:R20
   \   00000008   C005               RJMP    ??Write_2
    348              while (nuiLength != 0)
    349              {
    350                  WriteByte((uiEepromDestination++), (*pucRamSourse++));
   \                     ??Write_3:
   \   0000000A   912D               LD      R18, X+
   \   0000000C   018C               MOVW    R17:R16, R25:R24
   \   0000000E   ....               RCALL   ??WriteByte
   \   00000010   9601               ADIW    R25:R24, 1
    351                  nuiLength--;
   \   00000012   9731               SBIW    R31:R30, 1
    352              }
   \                     ??Write_2:
   \   00000014   2F0E               MOV     R16, R30
   \   00000016   2B0F               OR      R16, R31
   \   00000018   F7C1               BRNE    ??Write_3
    353              return 1;
   \   0000001A   E001               LDI     R16, 1
   \   0000001C   ....               RJMP    ?Subroutine36
    354          }
    355          
    356          //-----------------------------------------------------------------------------------------------------

   \                                 In  segment CODE, align 2, keep-with-next
    357          uint8_t CEeprom::ReadByte(uint16_t ui16EepromSourse)
   \                     ??ReadByte:
   \                     ??ReadByte_1:
    358          {
    359              __watchdog_reset();
    360              while (BitIsSet(EECR, EEWE))
    361              {
    362                  __watchdog_reset();
   \   00000000   95A8               WDR
    363              }
   \   00000002   99E1               SBIC    0x1C, 0x01
   \   00000004   CFFD               RJMP    ??ReadByte_1
    364              __disable_interrupt();
   \   00000006   94F8               CLI
    365              EEAR = ui16EepromSourse;
   \   00000008   BB1F               OUT     0x1F, R17
   \   0000000A   BB0E               OUT     0x1E, R16
    366              SetBit(EECR, EERE);
   \   0000000C   9AE0               SBI     0x1C, 0x00
    367              __enable_interrupt();
   \   0000000E   9478               SEI
    368              return EEDR;
   \   00000010   B30D               IN      R16, 0x1D
   \   00000012   9508               RET
   \   00000014                      REQUIRE _A_EECR
   \   00000014                      REQUIRE _A_EEAR
   \   00000014                      REQUIRE _A_EEDR
    369          }
    370          
    371          //-----------------------------------------------------------------------------------------------------

   \                                 In  segment CODE, align 2, keep-with-next
    372          void CEeprom::WriteByte(uint16_t ui16EepromDestination, uint8_t ucData)
   \                     ??WriteByte:
    373          {
   \   00000000   01A8               MOVW    R21:R20, R17:R16
    374              if (ReadByte(ui16EepromDestination) != ucData)
   \   00000002   ....               RCALL   ??ReadByte
   \   00000004   1702               CP      R16, R18
   \   00000006   F051               BREQ    ??WriteByte_1
    375              {
    376                  __watchdog_reset();
    377                  while (BitIsSet(EECR, EEWE))
    378                  {
    379                      __watchdog_reset();
   \                     ??WriteByte_2:
   \   00000008   95A8               WDR
    380                  }
   \   0000000A   99E1               SBIC    0x1C, 0x01
   \   0000000C   CFFD               RJMP    ??WriteByte_2
    381                  __disable_interrupt();
   \   0000000E   94F8               CLI
    382                  EEAR = ui16EepromDestination;
   \   00000010   BB5F               OUT     0x1F, R21
   \   00000012   BB4E               OUT     0x1E, R20
    383                  EEDR = ucData;
   \   00000014   BB2D               OUT     0x1D, R18
    384                  EECR |= (1<<EEMWE);
   \   00000016   9AE2               SBI     0x1C, 0x02
    385                  EECR |= (1<<EEWE);
   \   00000018   9AE1               SBI     0x1C, 0x01
    386                  __enable_interrupt();
   \   0000001A   9478               SEI
    387              }
    388          }
   \                     ??WriteByte_1:
   \   0000001C   9508               RET
   \   0000001E                      REQUIRE _A_EECR
   \   0000001E                      REQUIRE _A_EEAR
   \   0000001E                      REQUIRE _A_EEDR
    389          
    390          //-----------------------------------------------------------------------------------------------------

   \                                 In  segment CODE, align 2, keep-with-next
    391          void CEeprom::WriteInterrupt(uint16_t uiEepromDestination, uint8_t *pucRamSourse, uint16_t nuiLength)
   \                     ??WriteInterrupt:
    392          {
    393              SetAddress(uiEepromDestination);
   \   00000000   ....               LDI     R30, LOW(??m_puiBuffer)
   \   00000002   ....               LDI     R31, (??m_puiBuffer) >> 8
   \   00000004   8302               STD     Z+2, R16
   \   00000006   8313               STD     Z+3, R17
    394              SetBufferPointer(pucRamSourse);
   \   00000008   8320               ST      Z, R18
   \   0000000A   8331               STD     Z+1, R19
    395              SetLength(nuiLength);
   \   0000000C   8346               STD     Z+6, R20
   \   0000000E   8357               STD     Z+7, R21
    396              SetBufferByteCounter(0);
   \   00000010   E000               LDI     R16, 0
   \   00000012   8304               STD     Z+4, R16
   \   00000014   8305               STD     Z+5, R16
    397          }
   \   00000016   9508               RET
    398          
    399          //-----------------------------------------------------------------------------------------------------
    400          // Ďđĺđűâŕíčĺ ďî çŕâĺđřĺíčţ çŕďčńč.

   \                                 In  segment CODE, align 2, keep-with-next
    401          void CEeprom::ReadyInterruptHandler(void)
   \                     ??ReadyInterruptHandler:
    402          {
   \   00000000   01AD               MOVW    R21:R20, R27:R26
    403              if (GetBufferByteCounter() < GetLength())
   \   00000002   ....               LDI     R30, LOW(??m_puiBuffer)
   \   00000004   ....               LDI     R31, (??m_puiBuffer) >> 8
   \   00000006   8124               LDD     R18, Z+4
   \   00000008   8135               LDD     R19, Z+5
   \   0000000A   8106               LDD     R16, Z+6
   \   0000000C   8117               LDD     R17, Z+7
   \   0000000E   1720               CP      R18, R16
   \   00000010   0731               CPC     R19, R17
   \   00000012   F4E8               BRCC    ??ReadyInterruptHandler_1
    404              {
    405                  EEAR = GetAddress();
   \   00000014   8102               LDD     R16, Z+2
   \   00000016   8113               LDD     R17, Z+3
   \   00000018   BB1F               OUT     0x1F, R17
   \   0000001A   BB0E               OUT     0x1E, R16
    406                  SetAddress(GetAddress() + 1);
   \   0000001C   8102               LDD     R16, Z+2
   \   0000001E   8113               LDD     R17, Z+3
   \   00000020   5F0F               SUBI    R16, 255
   \   00000022   4F1F               SBCI    R17, 255
   \   00000024   8302               STD     Z+2, R16
   \   00000026   8313               STD     Z+3, R17
    407                  EECR |= BIT(EERE);
   \   00000028   9AE0               SBI     0x1C, 0x00
    408          
    409                  if (EEDR != GetBufferPointer()[GetBufferByteCounter()])
   \   0000002A   81A0               LD      R26, Z
   \   0000002C   81B1               LDD     R27, Z+1
   \   0000002E   0FA2               ADD     R26, R18
   \   00000030   1FB3               ADC     R27, R19
   \   00000032   910C               LD      R16, X
   \   00000034   B31D               IN      R17, 0x1D
   \   00000036   1710               CP      R17, R16
   \   00000038   F019               BREQ    ??ReadyInterruptHandler_2
    410                  {
    411                      EEDR = GetBufferPointer()[GetBufferByteCounter()];
   \   0000003A   BB0D               OUT     0x1D, R16
    412                      EECR |= BIT(EEMWE);
   \   0000003C   9AE2               SBI     0x1C, 0x02
    413                      EECR |= BIT(EEWE);
   \   0000003E   9AE1               SBI     0x1C, 0x01
    414                  }
    415          
    416                  SetBufferByteCounter(GetBufferByteCounter() + 1);
   \                     ??ReadyInterruptHandler_2:
   \   00000040   8104               LDD     R16, Z+4
   \   00000042   8115               LDD     R17, Z+5
   \   00000044   5F0F               SUBI    R16, 255
   \   00000046   4F1F               SBCI    R17, 255
   \   00000048   8304               STD     Z+4, R16
   \   0000004A   8315               STD     Z+5, R17
    417              }
   \   0000004C   C006               RJMP    ??ReadyInterruptHandler_3
    418              else
    419              {
    420                  ReadyInterruptDisaable();
   \                     ??ReadyInterruptHandler_1:
   \   0000004E   98E3               CBI     0x1C, 0x03
    421                  EEAR   = 0x0000;			// Îáíóë˙ĺě äë˙ áĺçîďŕńíîńňč
   \   00000050   E000               LDI     R16, 0
   \   00000052   BB0F               OUT     0x1F, R16
   \   00000054   BB0E               OUT     0x1E, R16
    422                  SetBufferIsWrited(true);
   \   00000056   E001               LDI     R16, 1
   \   00000058   8700               STD     Z+8, R16
    423              }
    424          }
   \                     ??ReadyInterruptHandler_3:
   \   0000005A   ....               RJMP    ?Subroutine31
   \   0000005C                      REQUIRE _A_EEAR
   \   0000005C                      REQUIRE _A_EECR
   \   0000005C                      REQUIRE _A_EEDR
    425          
    426          //-----------------------------------------------------------------------------------------------------
    427          // Ďđĺđűâŕíčĺ ďî çŕâĺđřĺíčţ çŕďčńč.
    428          #pragma vector = EE_READY_vect

   \                                 In  segment CODE, align 2, keep-with-next
    429          __interrupt void EEPROM_EE_READY(void)
   \                     ??EEPROM_EE_READY:
    430          {
   \   00000000   ....               RCALL   ?Subroutine11
    431              CEeprom::ReadyInterruptHandler();
   \                     ??CrossCallReturnLabel_7:
   \   00000002   ....               RCALL   ??ReadyInterruptHandler
    432          }
   \   00000004   ....               RJMP    ?Subroutine37
    433          
    434          //-----------------------------------------------------------------------------------------------------
    435          
    436          
    437          
    438          
    439          
    440          
    441          
    442          //----------------------------------------- CSpi ----------------------------------------------------------------

   \                                 In  segment CODE, align 2, keep-with-next
    443          CSpi::CSpi()
   \                     ??CSpi:
   \   00000000                      REQUIRE ?Subroutine34
   \   00000000                      ;               // Fall through to label ?Subroutine34

   \                                 In  segment CODE, align 2, keep-with-next
   \                     ?Subroutine34:
    444          {
   \   00000000   ....               LDI     R18, LOW(??__vtbl_5)
   \   00000002   ....               LDI     R19, (??__vtbl_5) >> 8
   \   00000004   ....               RJMP    ??Subroutine44_0
    445          
    446          }
    447          
    448          //-----------------------------------------------------------------------------------------------------

   \                                 In  segment CODE, align 2, keep-with-next
    449          CSpi::~CSpi()
   \                     `?~CSpi`:
   \   00000000                      REQUIRE ?Subroutine8
   \   00000000                      ;               // Fall through to label ?Subroutine8
    450          {
    451          
    452          }
    453          
    454          //-----------------------------------------------------------------------------------------------------

   \                                 In  segment CODE, align 2, keep-with-next
    455          void CSpi::Init(void)
   \                     ??Init_1:
    456          {
    457              // Master mode.
    458          //    SPCR = (BIT(MSTR) | BIT(SPR1));		// master,  115200.
    459              SPCR = (BIT(MSTR) | BIT(SPR1) | BIT(SPR0));		// master,  57600.
   \   00000000   E103               LDI     R16, 19
   \   00000002   B90D               OUT     0x0D, R16
    460          
    461              DDRB |= (Bit(MOSI) | Bit(SCK));
   \   00000004   B307               IN      R16, 0x17
   \   00000006   6006               ORI     R16, 0x06
   \   00000008   BB07               OUT     0x17, R16
    462          
    463              SPCR  |= BIT(SPE);
   \   0000000A                      REQUIRE ?Subroutine33
   \   0000000A                      REQUIRE _A_SPCR
   \   0000000A                      REQUIRE _A_DDRB
   \   0000000A                      ;               // Fall through to label ?Subroutine33
    464          };

   \                                 In  segment CODE, align 2, keep-with-next
   \                     ?Subroutine33:
   \   00000000   9A6E               SBI     0x0D, 0x06
   \   00000002   9508               RET
    465          
    466          //-----------------------------------------------------------------------------------------------------

   \                                 In  segment CODE, align 2, keep-with-next
    467          void CSpi::Enable(void)
   \                     ??Enable_1:
    468          {
    469              // đŕçđĺřčě SPI.
    470              SPCR  |= BIT(SPE);
   \   00000000   ....               RJMP    ?Subroutine33
   \   00000002                      REQUIRE _A_SPCR
    471          }
    472          
    473          //-----------------------------------------------------------------------------------------------------

   \                                 In  segment CODE, align 2, keep-with-next
    474          void CSpi::Disable(void)
   \                     ??Disable_1:
    475          {
    476              SPCR &= ~BIT(SPE);
   \   00000000   986E               CBI     0x0D, 0x06
    477          }
   \   00000002   9508               RET
   \   00000004                      REQUIRE _A_SPCR
    478          
    479          //-----------------------------------------------------------------------------------------------------

   \                                 In  segment CODE, align 2, keep-with-next
    480          uint8_t CSpi::Exchange(uint8_t uiData)
   \                     ??Exchange:
    481          {
    482              delay_us(30);
   \   00000000   E416               LDI     R17, 70
   \   00000002   951A               DEC     R17
   \   00000004   F7F1               BRNE    $-2
    483              SPDR = uiData;
   \   00000006   B90F               OUT     0x0F, R16
    484          
    485              uint8_t uiGuardCounter = 0;
   \   00000008   E604               LDI     R16, 100
   \   0000000A   C001               RJMP    ??Exchange_2
    486          
    487              while(!(SPSR & BIT(SPIF)))		// Îćčäŕíčĺ ęîíöŕ ďĺđĺäŕ÷č
    488              {
    489                  CPlatform::WatchdogReset();
    490          
    491                  if (uiGuardCounter < 100)
    492                  {
    493                      uiGuardCounter++;
   \                     ??Exchange_3:
   \   0000000C   950A               DEC     R16
    494                  }
   \                     ??Exchange_2:
   \   0000000E   9977               SBIC    0x0E, 0x07
   \   00000010   C003               RJMP    ??Exchange_4
   \   00000012   95A8               WDR
   \   00000014   2300               TST     R16
   \   00000016   F7D1               BRNE    ??Exchange_3
    495                  else
    496                  {
    497                      return  SPDR;
    498                  }
    499              };
    500          
    501              return  SPDR;
   \                     ??Exchange_4:
   \   00000018   B10F               IN      R16, 0x0F
   \   0000001A   9508               RET
   \   0000001C                      REQUIRE _A_SPDR
   \   0000001C                      REQUIRE _A_SPSR
    502          }
    503          
    504          //-----------------------------------------------------------------------------------------------------

   \                                 In  segment CODE, align 2, keep-with-next
    505          uint8_t CSpi::Exchange(uint8_t *puiDestination, uint8_t *pucSourse, uint16_t nuiLength)
   \                     ??Exchange_1:
    506          {
   \   00000000   010C               MOVW    R1:R0, R25:R24
   \   00000002   01B8               MOVW    R23:R22, R17:R16
    507              if (nuiLength > BUFFER_LENGTH)
   \   00000004   3441               CPI     R20, 65
   \   00000006   E000               LDI     R16, 0
   \   00000008   0750               CPC     R21, R16
   \   0000000A   F488               BRCC    ??Exchange_5
    508              {
    509                  return 0;
    510              }
    511          
    512              for (uint16_t i = 0; i < nuiLength; i++)
   \   0000000C   E080               LDI     R24, 0
   \   0000000E   E090               LDI     R25, 0
   \   00000010   C00A               RJMP    ??Exchange_6
    513              {
    514                  puiDestination[i] = Exchange(pucSourse[i]);
   \                     ??Exchange_7:
   \   00000012   01F9               MOVW    R31:R30, R19:R18
   \   00000014   0FE8               ADD     R30, R24
   \   00000016   1FF9               ADC     R31, R25
   \   00000018   8100               LD      R16, Z
   \   0000001A   ....               RCALL   ??Exchange
   \   0000001C   01FB               MOVW    R31:R30, R23:R22
   \   0000001E   0FE8               ADD     R30, R24
   \   00000020   1FF9               ADC     R31, R25
   \   00000022   8300               ST      Z, R16
    515              }
   \   00000024   9601               ADIW    R25:R24, 1
   \                     ??Exchange_6:
   \   00000026   1784               CP      R24, R20
   \   00000028   0795               CPC     R25, R21
   \   0000002A   F398               BRCS    ??Exchange_7
    516              return 1;
   \   0000002C   E001               LDI     R16, 1
   \                     ??Exchange_5:
   \   0000002E   01C0               MOVW    R25:R24, R1:R0
   \   00000030   9508               RET
    517          }
    518          
    519          //-----------------------------------------------------------------------------------------------------

   \                                 In  segment CODE, align 2, keep-with-next
    520          uint8_t CSpi::Read(uint8_t *puiDestination, uint16_t nuiLength)
   \                     ??Read_2:
    521          {
    522          
    523              return 1;
   \   00000000   ....               RJMP    ?Subroutine32
    524          }
    525          //-----------------------------------------------------------------------------------------------------
    526          
    527          
    528          
    529          
    530          
    531          
    532          
    533          //-----------------------------------------------------------------------------------------------------
    534          // delay

   \                                 In  segment CODE, align 2, keep-with-next
    535          void delay_ms(uint16_t millisecs)
   \                     ??delay_ms:
    536          {
   \   00000000   C007               RJMP    ??delay_ms_1
    537              while(millisecs--)
    538              {
    539                  delay_us(1000);
   \                     ??delay_ms_2:
   \   00000002   ED25               LDI     R18, 213
   \   00000004   E036               LDI     R19, 6
   \   00000006   5021               SUBI    R18, 1
   \   00000008   4030               SBCI    R19, 0
   \   0000000A   F7E9               BRNE    $-4
   \   0000000C   C000               RJMP    $+2
   \   0000000E   0000               NOP
    540              }
   \                     ??delay_ms_1:
   \   00000010   ....               RCALL   ?Subroutine13
   \                     ??CrossCallReturnLabel_8:
   \   00000012   F7B9               BRNE    ??delay_ms_2
    541          }
   \   00000014   9508               RET

   \                                 In  segment CODE, align 2, keep-with-next
   \                     ?Subroutine13:
   \   00000000   0198               MOVW    R19:R18, R17:R16
   \   00000002   5001               SUBI    R16, 1
   \   00000004   4010               SBCI    R17, 0
   \   00000006   2B23               OR      R18, R19
   \   00000008   9508               RET

   \                                 In  segment CODE, align 2, keep-with-next
    542          void delay_s(uint16_t secs)
   \                     ??delay_s:
    543          {
   \   00000000   C009               RJMP    ??delay_s_1
    544              while(secs--)
    545              {
    546                  __delay_cycles(F_CPU);
   \                     ??delay_s_2:
   \   00000002   EF4F               LDI     R20, 255
   \   00000004   E75F               LDI     R21, 127
   \   00000006   E166               LDI     R22, 22
   \   00000008   5041               SUBI    R20, 1
   \   0000000A   4050               SBCI    R21, 0
   \   0000000C   4060               SBCI    R22, 0
   \   0000000E   F7E1               BRNE    $-6
   \   00000010   C000               RJMP    $+2
   \   00000012   0000               NOP
    547              }
   \                     ??delay_s_1:
   \   00000014   ....               RCALL   ?Subroutine13
   \                     ??CrossCallReturnLabel_9:
   \   00000016   F7A9               BRNE    ??delay_s_2
    548          }
   \   00000018   9508               RET

   \                                 In  segment CODE, align 2, keep-with-next
    549          void delay_mins(uint16_t minutes)
   \                     ??delay_mins:
    550          {
   \   00000000   C00B               RJMP    ??delay_mins_1
    551              while(minutes--)
    552              {
    553                  __delay_cycles(60*F_CPU);
   \                     ??delay_mins_2:
   \   00000002   EF4F               LDI     R20, 255
   \   00000004   EF5F               LDI     R21, 255
   \   00000006   E664               LDI     R22, 100
   \   00000008   E074               LDI     R23, 4
   \   0000000A   5041               SUBI    R20, 1
   \   0000000C   4050               SBCI    R21, 0
   \   0000000E   4060               SBCI    R22, 0
   \   00000010   4070               SBCI    R23, 0
   \   00000012   F7D9               BRNE    $-8
   \   00000014   C000               RJMP    $+2
   \   00000016   0000               NOP
    554              }
   \                     ??delay_mins_1:
   \   00000018   ....               RCALL   ?Subroutine13
   \                     ??CrossCallReturnLabel_10:
   \   0000001A   F799               BRNE    ??delay_mins_2
    555          }
   \   0000001C   9508               RET
    556          
    557          //-----------------------------------------------------------------------------------------------------

   \                                 In  segment NEAR_Z, align 1, keep-with-next, root
   \   00000000                      REQUIRE `?<Segment init: NEAR_Z>`
    558          uint16_t CPlatform::m_uiSystemTick;
   \                     ??m_uiSystemTick:
   \   00000000                      DS8 2

   \                                 In  segment NEAR_Z, align 1, keep-with-next, root
   \   00000000                      REQUIRE `?<Segment init: NEAR_Z>`
    559          uint8_t CPlatform::m_uiWatchDogStepID;
   \                     ??m_uiWatchDogStepID:
   \   00000000                      DS8 1
    560          //CUart* CPlatform::m_pxUart0;

   \                                 In  segment NEAR_Z, align 1, keep-with-next, root
   \   00000000                      REQUIRE `?<Segment init: NEAR_Z>`
    561          CUart* CPlatform::m_pxUart1;
   \                     ??m_pxUart1:
   \   00000000                      DS8 2
    562          
    563          //-----------------------------------------------------------------------------------------------------

   \                                 In  segment CODE, align 2, keep-with-next
    564          CPlatform::CPlatform()
   \                     ??CPlatform:
   \   00000000                      REQUIRE ?Subroutine35
   \   00000000                      ;               // Fall through to label ?Subroutine35

   \                                 In  segment CODE, align 2, keep-with-next
   \                     ?Subroutine35:
    565          {
   \   00000000   ....               LDI     R18, LOW(??__vtbl_3)
   \   00000002   ....               LDI     R19, (??__vtbl_3) >> 8
   \   00000004   ....               RJMP    ??Subroutine44_0
    566          
    567          }
    568          
    569          //-----------------------------------------------------------------------------------------------------

   \                                 In  segment CODE, align 2, keep-with-next
    570          CPlatform::~CPlatform()
   \                     `?~CPlatform`:
   \   00000000   ....               RJMP    ?Subroutine8
    571          {
    572          
    573          }
    574          
    575          //-----------------------------------------------------------------------------------------------------

   \                                 In  segment CODE, align 2, keep-with-next
    576          void CPlatform::Init(void)
   \                     ??Init_2:
    577          {
    578              SystemTickInit();
   \   00000000   ....               RCALL   ??SystemTickInit
    579              StatusLedSetPinOutput();
   \   00000002   91000061           LDS     R16, 97
   \   00000006   6800               ORI     R16, 0x80
   \   00000008   93000061           STS     97, R16
    580              TxLedSetPinOutput();
   \   0000000C   91000061           LDS     R16, 97
   \   00000010   6400               ORI     R16, 0x40
   \   00000012   93000061           STS     97, R16
    581              TxLedOff();
   \   00000016   91000062           LDS     R16, 98
   \   0000001A   6400               ORI     R16, 0x40
   \   0000001C   93000062           STS     98, R16
    582              KeyOneSetPinInput();
   \   00000020   98A2               CBI     0x14, 0x02
    583              KeyTwoSetPinInput();
   \   00000022   98A1               CBI     0x14, 0x01
    584              KeyThreeSetPinInput();
   \   00000024   98A0               CBI     0x14, 0x00
    585              ExternalKeySetPinInput();
   \   00000026   91000064           LDS     R16, 100
   \   0000002A   7F0E               ANDI    R16, 0xFE
   \   0000002C   93000064           STS     100, R16
    586              CPlatform::InterruptEnable();
   \   00000030   9478               SEI
    587          }
   \   00000032   9508               RET
   \   00000034                      REQUIRE _A_DDRF
   \   00000034                      REQUIRE _A_PORTF
   \   00000034                      REQUIRE _A_DDRC
   \   00000034                      REQUIRE _A_DDRG
    588          
    589          // Ńčđĺíŕ
    590          //-----------------------------------------------------------------------------------------------------

   \                                 In  segment CODE, align 2, keep-with-next
    591          void CPlatform::BuzzerTimerFrequencySet(uint16_t uiFrequency)
   \                     ??BuzzerTimerFrequencySet:
    592          {
    593              unsigned short usCompareMatch;
    594          
    595              // half-period time.
    596              usCompareMatch = ((F_CPU / (2UL * uiFrequency)) - 1UL);
   \   00000000   01A8               MOVW    R21:R20, R17:R16
   \   00000002   E060               LDI     R22, 0
   \   00000004   E070               LDI     R23, 0
   \   00000006   0F44               LSL     R20
   \   00000008   1F55               ROL     R21
   \   0000000A   1F66               ROL     R22
   \   0000000C   ....               RCALL   ?Subroutine3
    597              // Ńđŕáŕňűâŕĺň ďî Top ńîâďŕäĺíčţ çíŕ÷ĺíč˙ â ICR3.
    598              // Ĺńëč Top ďî ńîâďŕäĺíčţ çíŕ÷ĺíč˙ â OCR3A, ňî íĺëüç˙ čńďîëüçîâŕňü COM3A âűâîä.
    599              ICR3 = usCompareMatch * 2;
   \                     ??CrossCallReturnLabel_3:
   \   0000000E   0198               MOVW    R19:R18, R17:R16
   \   00000010   0F22               LSL     R18
   \   00000012   1F33               ROL     R19
   \   00000014   9330....           STS     (_A_ICR3 + 1), R19
   \   00000018   9320....           STS     _A_ICR3, R18
    600              OCR3A = usCompareMatch;
   \   0000001C   9310....           STS     (_A_OCR3A + 1), R17
   \   00000020   9300....           STS     _A_OCR3A, R16
    601              OCR3B = usCompareMatch;
   \   00000024   9310....           STS     (_A_OCR3B + 1), R17
   \   00000028   9300....           STS     _A_OCR3B, R16
    602          
    603              // Fast PWM Mode Top OCRn, prescaller - 1,
    604              // Clear OC3B on compare match (set output to low level).
    605              // Set OC3A on compare match (set output to high level).
    606              TCCR3A = (1 << COM3B1) | (1 << COM3A1) | (1 << COM3A0) | (1 << WGM31);
   \   0000002C   EE02               LDI     R16, 226
   \   0000002E   9300....           STS     _A_TCCR3A, R16
    607              TCCR3B = (1 << WGM33) | (1 << WGM32) | (1 << CS30);
   \   00000032   E109               LDI     R16, 25
   \   00000034                      REQUIRE ?Subroutine27
   \   00000034                      REQUIRE _A_ICR3
   \   00000034                      REQUIRE _A_OCR3A
   \   00000034                      REQUIRE _A_OCR3B
   \   00000034                      REQUIRE _A_TCCR3A
   \   00000034                      REQUIRE _A_TCCR3B
   \   00000034                      ;               // Fall through to label ?Subroutine27
    608          };

   \                                 In  segment CODE, align 2, keep-with-next
   \                     ?Subroutine27:
   \   00000000   9300....           STS     _A_TCCR3B, R16
   \   00000004   9508               RET
    609          
    610          //-----------------------------------------------------------------------------------------------------

   \                                 In  segment CODE, align 2, keep-with-next
    611          void CPlatform::BuzzerTimerStop(void)
   \                     ??BuzzerTimerStop:
    612          {
    613              // timer off.
    614              TCCR3A &= ~((1 << COM3B1) | (1 << COM3A1) | (1 << COM3A0) | (1 << WGM31));
   \   00000000   9100....           LDS     R16, _A_TCCR3A
   \   00000004   710D               ANDI    R16, 0x1D
   \   00000006   9300....           STS     _A_TCCR3A, R16
    615              TCCR3B &= ~((1 << WGM33) | (1 << WGM32) | (1 << CS30));
   \   0000000A   9100....           LDS     R16, _A_TCCR3B
   \   0000000E   7E06               ANDI    R16, 0xE6
   \   00000010   ....               RJMP    ?Subroutine27
   \   00000012                      REQUIRE _A_TCCR3A
   \   00000012                      REQUIRE _A_TCCR3B
    616          };
    617          
    618          //-----------------------------------------------------------------------------------------------------

   \                                 In  segment CODE, align 2, keep-with-next
    619          void CPlatform::SystemTickInit(void)
   \                     ??SystemTickInit:
    620          {
    621          #define MAIN_TIMER_TICK_RATE_HZ 1000
    622          
    623          //#define TIMER1_INTERRUPT
    624          #define TIMER2_INTERRUPT
    625          
    626          
    627          #ifdef TIMER2_INTERRUPT
    628              /* Hardware constants for timer 2. */
    629          #define portCLEAR_COUNTER_ON_MATCH              ( ( unsigned char ) _BV(WGM21) )
    630          #define portPRESCALE_64                         ( ( unsigned char ) (_BV(CS21) | _BV(CS20)) )
    631          #define portCLOCK_PRESCALER                     ( ( unsigned long ) 64 )
    632          #define portCOMPARE_MATCH_A_INTERRUPT_ENABLE    ( ( unsigned char ) _BV(OCIE2) )
    633          #endif //TIMER2_INTERRUPT
    634          
    635          #ifdef TIMER1_INTERRUPT
    636              /* Hardware constants for timer 1. */
    637          #define portCLEAR_COUNTER_ON_MATCH              ( ( unsigned char ) _BV(WGM12) )
    638          #define portPRESCALE_64                         ( ( unsigned char ) (_BV(CS11) | _BV(CS10)) )
    639          #define portCLOCK_PRESCALER                     ( ( unsigned long ) 64 )
    640          #define portCOMPARE_MATCH_A_INTERRUPT_ENABLE    ( ( unsigned char ) _BV(OCIE1A) )
    641          #endif //TIMER1_INTERRUPT
    642          
    643          #ifdef TIMER2_INTERRUPT
    644          
    645              /*
    646               * Setup timer 2 compare match A to generate a tick interrupt.
    647               */
    648          //  TMR2 mega128a
    649              unsigned long ulCompareMatch;
    650              unsigned char ucLowByte;
    651          
    652              /* Using 16bit timer 1 to generate the tick.  Correct fuses must be
    653              selected for the configCPU_CLOCK_HZ clock. */
    654          
    655          //ulCompareMatch  = (configCPU_CLOCK_HZ / prescaller) / period
    656          
    657              ulCompareMatch = F_CPU / MAIN_TIMER_TICK_RATE_HZ;
    658          
    659              /* We only have 16 bits so have to scale to get our required tick rate. */
    660              ulCompareMatch /= portCLOCK_PRESCALER;
    661          
    662              /* Adjust for correct value. */
    663              ulCompareMatch -= ( unsigned long ) 1;
    664          
    665              /* Setup compare match value for compare match A.  Interrupts are disabled
    666              before this is called so we need not worry here. */
    667              OCR2 = ulCompareMatch;
   \   00000000   E702               LDI     R16, 114
   \   00000002   BD03               OUT     0x23, R16
    668          
    669              /* Setup clock Sourse and compare match behaviour. */
    670              ucLowByte = portCLEAR_COUNTER_ON_MATCH | portPRESCALE_64;
    671              TCCR2 = ucLowByte;
   \   00000004   E00B               LDI     R16, 11
   \   00000006   BD05               OUT     0x25, R16
    672          
    673              /* Enable the interrupt - this is okay as interrupt are currently globally
    674              disabled. */
    675              ucLowByte = TIMSK;
    676              ucLowByte |= portCOMPARE_MATCH_A_INTERRUPT_ENABLE;
    677              TIMSK = ucLowByte;
   \   00000008   B707               IN      R16, 0x37
   \   0000000A   6800               ORI     R16, 0x80
   \   0000000C   BF07               OUT     0x37, R16
    678          
    679          #endif //TIMER2_INTERRUPT
    680          
    681          #ifdef TIMER1_INTERRUPT
    682          
    683          // mega128a
    684              unsigned long ulCompareMatch;
    685              unsigned char ucLowByte;
    686          
    687              /* Using 16bit timer 1 to generate the tick.  Correct fuses must be
    688              selected for the configCPU_CLOCK_HZ clock. */
    689          
    690              ulCompareMatch = CPlatform::F_CPU / MAIN_TIMER_TICK_RATE_HZ;
    691          
    692              /* We only have 16 bits so have to scale to get our required tick rate. */
    693              ulCompareMatch /= portCLOCK_PRESCALER;
    694          
    695              /* Adjust for correct value. */
    696              ulCompareMatch -= ( unsigned long ) 1;
    697          
    698              /* Setup compare match value for compare match A.  Interrupts are disabled
    699              before this is called so we need not worry here. */
    700              OCR1A = ulCompareMatch;
    701          
    702              /* Setup clock Sourse and compare match behaviour. */
    703              TCCR1A &= ~(_BV(WGM11) | _BV(WGM10));
    704              ucLowByte = portCLEAR_COUNTER_ON_MATCH | portPRESCALE_64;
    705              TCCR1B = ucLowByte;
    706          
    707              /* Enable the interrupt - this is okay as interrupt are currently globally
    708              disabled. */
    709              ucLowByte = TIMSK;
    710              ucLowByte |= portCOMPARE_MATCH_A_INTERRUPT_ENABLE;
    711              TIMSK = ucLowByte;
    712          
    713          #endif //TIMER1_INTERRUPT
    714          
    715          }
   \   0000000E   9508               RET
   \   00000010                      REQUIRE _A_OCR2
   \   00000010                      REQUIRE _A_TCCR2
   \   00000010                      REQUIRE _A_TIMSK
    716          
    717          //-----------------------------------------------------------------------------------------------------
    718          #ifdef TIMER1_INTERRUPT
    719          // Ďđĺđűâŕíčĺ TIMER1_COMPA_vect
    720          __interrupt void SystemTickInterrupt(void)
    721          {
    722              CPlatform::IncrementSystemTick();
    723          }
    724          #endif //TIMER1_INTERRUPT
    725          //-----------------------------------------------------------------------------------------------------
    726          #ifdef TIMER2_INTERRUPT
    727          // Ďđĺđűâŕíčĺ TIMER2_COMP_vect
    728          #pragma vector = TIMER2_COMP_vect	// Ďđĺđűâŕíčĺ ďî ńîâďŕäĺíčţ TMR2 ń OCR2

   \                                 In  segment CODE, align 2, keep-with-next
    729          __interrupt void SystemTickInterrupt(void)
   \                     ??SystemTickInterrupt:
    730          {
   \   00000000   ....               RCALL   ?Subroutine23
   \                     ??CrossCallReturnLabel_20:
   \   00000002   ....               RCALL   ??Subroutine43_0
   \                     ??CrossCallReturnLabel_51:
   \   00000004   B72F               IN      R18, 0x3F
    731              CPlatform::IncrementSystemTick();
   \   00000006   ....               LDI     R30, LOW(??m_uiSystemTick)
   \   00000008   ....               LDI     R31, (??m_uiSystemTick) >> 8
   \   0000000A   8100               LD      R16, Z
   \   0000000C   8111               LDD     R17, Z+1
   \   0000000E   5F0F               SUBI    R16, 255
   \   00000010   4F1F               SBCI    R17, 255
   \   00000012   8300               ST      Z, R16
   \   00000014   8311               STD     Z+1, R17
    732          }
   \   00000016   BF2F               OUT     0x3F, R18
   \   00000018   9109               LD      R16, Y+
   \   0000001A   9119               LD      R17, Y+
   \   0000001C   9129               LD      R18, Y+
   \   0000001E   ....               RJMP    ?Subroutine38

   \                                 In  segment INTVEC, offset 0x24, root
   \                     `??SystemTickInterrupt::??INTVEC 36`:
   \   00000024   ........           JMP     ??SystemTickInterrupt

   \                                 In  segment INTVEC, offset 0x58, root
   \                     `??EEPROM_EE_READY::??INTVEC 88`:
   \   00000058   ........           JMP     ??EEPROM_EE_READY

   \                                 In  segment INTVEC, offset 0x78, root
   \                     `??SIG_UART1_RECV::??INTVEC 120`:
   \   00000078   ........           JMP     ??SIG_UART1_RECV

   \                                 In  segment INTVEC, offset 0x7c, root
   \                     `??SIG_UART1_DATA::??INTVEC 124`:
   \   0000007C   ........           JMP     ??SIG_UART1_DATA

   \                                 In  segment INTVEC, offset 0x80, root
   \                     `??SIG_UART1_TXC::??INTVEC 128`:
   \   00000080   ........           JMP     ??SIG_UART1_TXC

   \                                 In  segment CODE, align 2, keep-with-next
   \   __version_3 CUart &CUart::new CUart()
   \                     `??new CUart`:
   \   00000000   E20F               LDI     R16, 47
   \   00000002   ....               RCALL   ??Subroutine40_0
   \                     ??CrossCallReturnLabel_36:
   \   00000004   F009               BREQ    `??new CUart_2`
   \   00000006   ....               RJMP    ??CUart
   \                     `??new CUart_2`:
   \   00000008   ....               RJMP    ?Subroutine5

   \                                 In  segment CODE, align 2, keep-with-next
   \   __version_3 CUart &CUart::new CUart(uint8_t volatile *, uint8_t volatile *, uint8_t volatile *, uint8_t volatile *, uint8_t volatile *, uint8_t volatile *, uint8_t volatile *, uint8_t, uint8_t volatile *, uint8_t)
   \                     `??new CUart_1`:
   \   00000000   ........           CALL    ?PROLOGUE8_L09
   \   00000004                      REQUIRE ?Register_R4_is_cg_reg
   \   00000004                      REQUIRE ?Register_R5_is_cg_reg
   \   00000004                      REQUIRE ?Register_R6_is_cg_reg
   \   00000004                      REQUIRE ?Register_R7_is_cg_reg
   \   00000004   01D8               MOVW    R27:R26, R17:R16
   \   00000006   0139               MOVW    R7:R6, R19:R18
   \   00000008   012A               MOVW    R5:R4, R21:R20
   \   0000000A   01CB               MOVW    R25:R24, R23:R22
   \   0000000C   E20F               LDI     R16, 47
   \   0000000E   ....               RCALL   ??Subroutine40_0
   \                     ??CrossCallReturnLabel_37:
   \   00000010   F059               BREQ    `??new CUart_3`
   \   00000012   ....               RCALL   ?Subroutine9
   \                     ??CrossCallReturnLabel_31:
   \   00000014   ....               RCALL   ?Subroutine9
   \                     ??CrossCallReturnLabel_32:
   \   00000016   ....               RCALL   ??Subroutine39_0
   \                     ??CrossCallReturnLabel_29:
   \   00000018   ....               RCALL   ??Subroutine39_0
   \                     ??CrossCallReturnLabel_30:
   \   0000001A   939A               ST      -Y, R25
   \   0000001C   938A               ST      -Y, R24
   \   0000001E   01B2               MOVW    R23:R22, R5:R4
   \   00000020   01A3               MOVW    R21:R20, R7:R6
   \   00000022   019D               MOVW    R19:R18, R27:R26
   \   00000024   ....               RCALL   ??CUart_1
   \   00000026   C001               RJMP    ??CrossCallReturnLabel_22
   \                     `??new CUart_3`:
   \   00000028   ....               RCALL   ?Subroutine5
   \                     ??CrossCallReturnLabel_22:
   \   0000002A   E1E2               LDI     R30, 18
   \   0000002C   ........           JMP     ?EPILOGUE_B8_L09

   \                                 In  segment CODE, align 2, keep-with-next
   \                     ?Subroutine9:
   \   00000000   8929               LDD     R18, Y+17
   \   00000002   932A               ST      -Y, R18
   \   00000004                      REQUIRE ??Subroutine39_0
   \   00000004                      ;               // Fall through to label ??Subroutine39_0

   \                                 In  segment CODE, align 2, keep-with-next
   \                     ??Subroutine39_0:
   \   00000000   8928               LDD     R18, Y+16
   \   00000002   8939               LDD     R19, Y+17
   \   00000004   933A               ST      -Y, R19
   \   00000006   932A               ST      -Y, R18
   \   00000008   9508               RET

   \                                 In  segment CODE, align 2, keep-with-next
   \   __version_3 CEeprom &CEeprom::new CEeprom()
   \                     `??new CEeprom`:
   \   00000000   ....               RCALL   ?Subroutine0
   \                     ??CrossCallReturnLabel_33:
   \   00000002   F009               BREQ    `??new CEeprom_1`
   \   00000004   ....               RJMP    ?Subroutine1
   \                     `??new CEeprom_1`:
   \   00000006   ....               RJMP    ?Subroutine5

   \                                 In  segment CODE, align 2, keep-with-next
   \                     ?Subroutine0:
   \   00000000   E002               LDI     R16, 2
   \   00000002                      REQUIRE ??Subroutine40_0
   \   00000002                      ;               // Fall through to label ??Subroutine40_0

   \                                 In  segment CODE, align 2, keep-with-next
   \                     ??Subroutine40_0:
   \   00000000   E010               LDI     R17, 0
   \   00000002   ........           CALL    `??operator new`
   \   00000006   2F20               MOV     R18, R16
   \   00000008   2B21               OR      R18, R17
   \   0000000A   9508               RET

   \                                 In  segment CODE, align 2, keep-with-next
   \   __version_3 CSpi &CSpi::new CSpi()
   \                     `??new CSpi`:
   \   00000000   ....               RCALL   ?Subroutine0
   \                     ??CrossCallReturnLabel_34:
   \   00000002   F009               BREQ    `??new CSpi_1`
   \   00000004   ....               RJMP    ?Subroutine34
   \                     `??new CSpi_1`:
   \   00000006                      REQUIRE ?Subroutine5
   \   00000006                      ;               // Fall through to label ?Subroutine5

   \                                 In  segment CODE, align 2, keep-with-next
   \   __version_3 CPlatform &CPlatform::new CPlatform()
   \                     `??new CPlatform`:
   \   00000000   ....               RCALL   ?Subroutine0
   \                     ??CrossCallReturnLabel_35:
   \   00000002   F009               BREQ    `??new CPlatform_1`
   \   00000004   ....               RJMP    ?Subroutine35
   \                     `??new CPlatform_1`:
   \   00000006   ....               RJMP    ?Subroutine5
    733          #endif //TIMER2_INTERRUPT
    734          
    735          
    736          

   Maximum stack usage in bytes:

   CSTACK RSTACK Function
   ------ ------ --------
      0      0   CEeprom::CEeprom()
      0      2   CEeprom::Read(uint8_t *, uint16_t, uint16_t)
        0      2   -> CEeprom::ReadByte(uint16_t)
      0      2   CEeprom::ReadByte(uint16_t)
      0      2   CEeprom::ReadyInterruptHandler()
      4      2   CEeprom::Write(uint16_t, uint8_t *, uint16_t)
        4      2   -> CEeprom::WriteByte(uint16_t, uint8_t)
      0      2   CEeprom::WriteByte(uint16_t, uint8_t)
        0      2   -> CEeprom::ReadByte(uint16_t)
      0      2   CEeprom::WriteInterrupt(uint16_t, uint8_t *, uint16_t)
      0      2   CEeprom::new CEeprom()
        0      4   -> operator new(unsigned int)
      0      2   CEeprom::~CEeprom()
        0      2   -> operator delete(void *)
      0      2   CPlatform::BuzzerTimerFrequencySet(uint16_t)
        0      4 ?UL_DIVMOD_L03
      0      2   CPlatform::BuzzerTimerStop()
      0      0   CPlatform::CPlatform()
      0      2   CPlatform::Init()
        0      2   -> CPlatform::SystemTickInit()
      0      2   CPlatform::SystemTickInit()
      0      2   CPlatform::new CPlatform()
        0      4   -> operator new(unsigned int)
      0      2   CPlatform::~CPlatform()
        0      2   -> operator delete(void *)
      0      0   CSpi::CSpi()
      0      2   CSpi::Disable()
      0      2   CSpi::Enable()
      0      2   CSpi::Exchange(uint8_t *, uint8_t *, uint16_t)
        0      2   -> CSpi::Exchange(uint8_t)
      0      2   CSpi::Exchange(uint8_t)
      0      2   CSpi::Init()
      0      2   CSpi::Read(uint8_t *, uint16_t)
      0      2   CSpi::new CSpi()
        0      4   -> operator new(unsigned int)
      0      0   CSpi::~CSpi()
        0      2   -> operator delete(void *)
      0      2   CUart::CUart()
     12      2   CUart::CUart(uint8_t volatile *, uint8_t volatile *, uint8_t volatile *, uint8_t volatile *, uint8_t volatile *, uint8_t volatile *, uint8_t volatile *, uint8_t, uint8_t volatile *, uint8_t)
       12      2 ?S_SHL_L02
       12      4 ?S_SHL_L02
      0      2   CUart::Close()
      0      2   CUart::Disable()
      0      2   CUart::Enable()
      7      2   CUart::Init(uint32_t, uint8_t, uint8_t, uint8_t, uint8_t *, uint8_t *)
        7      2 ?L_SHL_L03
        7      4 ?UL_DIVMOD_L03
      0      2   CUart::Open()
      4      2   CUart::Read(uint8_t *, uint16_t)
      4      2   CUart::RecvInterruptHandler()
      0      2   CUart::Reset()
      0      2   CUart::Rs485RtsOff()
        0      4 ?S_SHL_L02
      0      2   CUart::Rs485RtsOn()
        0      2 ?S_SHL_L02
      0      2   CUart::TransmitDisable()
        0      2   -> CUart::Rs485RtsOff()
      0      2   CUart::TransmitEnable()
        0      2   -> CUart::Rs485RtsOn()
      0      2   CUart::TxcInterruptHandler()
      0      2   CUart::UdreInterruptHandler()
      0      2   CUart::Write(uint8_t *, uint16_t)
      0      2   CUart::new CUart()
        0      2   -> CUart::CUart()
        0      4   -> operator new(unsigned int)
     30      2   CUart::new CUart(uint8_t volatile *, uint8_t volatile *, uint8_t volatile *, uint8_t volatile *, uint8_t volatile *, uint8_t volatile *, uint8_t volatile *, uint8_t, uint8_t volatile *, uint8_t)
       18      2   -> CUart::CUart(uint8_t volatile *, uint8_t volatile *, uint8_t volatile *, uint8_t volatile *, uint8_t volatile *, uint8_t volatile *, uint8_t volatile *, uint8_t, uint8_t volatile *, uint8_t)
       18      4   -> operator new(unsigned int)
      0      2   CUart::~CUart()
        0      2   -> operator delete(void *)
     10      2   EEPROM_EE_READY()
       10      2   -> CEeprom::ReadyInterruptHandler()
     10      2   SIG_UART1_DATA()
       10      2   -> CUart::UdreInterruptHandler()
     10      2   SIG_UART1_RECV()
       10      2   -> CUart::RecvInterruptHandler()
      9      2   SIG_UART1_TXC()
        9      2   -> CUart::TxcInterruptHandler()
      5      2   SystemTickInterrupt()
      0      2   delay_mins(uint16_t)
      0      2   delay_ms(uint16_t)
      0      2   delay_s(uint16_t)


   Segment part sizes:

   Bytes  Function/Label
   -----  --------------
      10  ??Subroutine39_0
      12  ??Subroutine40_0
       8  ??Subroutine41_0
       2  ??Subroutine42_0
       8  ??Subroutine43_0
       8  ??Subroutine44_0
       2  ?Subroutine0
       4  ?Subroutine1
       6  ?Subroutine10
      12  ?Subroutine11
       2  ?Subroutine12
      10  ?Subroutine13
       2  ?Subroutine14
       4  ?Subroutine15
       8  ?Subroutine16
       4  ?Subroutine17
       8  ?Subroutine18
       8  ?Subroutine19
      18  ?Subroutine2
       4  ?Subroutine20
      16  ?Subroutine21
      10  ?Subroutine22
       6  ?Subroutine23
       6  ?Subroutine24
       6  ?Subroutine25
       6  ?Subroutine26
       6  ?Subroutine27
       4  ?Subroutine28
       4  ?Subroutine29
      18  ?Subroutine3
       4  ?Subroutine30
       4  ?Subroutine31
       4  ?Subroutine32
       4  ?Subroutine33
       6  ?Subroutine34
       6  ?Subroutine35
       6  ?Subroutine36
       4  ?Subroutine37
       4  ?Subroutine38
       4  ?Subroutine4
       2  ?Subroutine5
      12  ?Subroutine7
      16  ?Subroutine8
       4  ?Subroutine9
       0  CEeprom::CEeprom()
      24  CEeprom::Read(uint8_t *, uint16_t, uint16_t)
      20  CEeprom::ReadByte(uint16_t)
      92  CEeprom::ReadyInterruptHandler()
      30  CEeprom::Write(uint16_t, uint8_t *, uint16_t)
      30  CEeprom::WriteByte(uint16_t, uint8_t)
      24  CEeprom::WriteInterrupt(uint16_t, uint8_t *, uint16_t)
       9  CEeprom::m_puiBuffer
          CEeprom::m_uiAddress
          CEeprom::m_nuiBufferByteCounter
          CEeprom::m_uiLength
          CEeprom::m_bBufferIsWrited
       8  CEeprom::new CEeprom()
       2  CEeprom::~CEeprom()
      52  CPlatform::BuzzerTimerFrequencySet(uint16_t)
      18  CPlatform::BuzzerTimerStop()
       0  CPlatform::CPlatform()
      52  CPlatform::Init()
      16  CPlatform::SystemTickInit()
       2  CPlatform::m_pxUart1
       2  CPlatform::m_uiSystemTick
       1  CPlatform::m_uiWatchDogStepID
       8  CPlatform::new CPlatform()
       2  CPlatform::~CPlatform()
       0  CSpi::CSpi()
       4  CSpi::Disable()
       2  CSpi::Enable()
      50  CSpi::Exchange(uint8_t *, uint8_t *, uint16_t)
      28  CSpi::Exchange(uint8_t)
      10  CSpi::Init()
       2  CSpi::Read(uint8_t *, uint16_t)
       6  CSpi::new CSpi()
       0  CSpi::~CSpi()
      12  CUart::CUart()
     106  CUart::CUart(uint8_t volatile *, uint8_t volatile *, uint8_t volatile *, uint8_t volatile *, uint8_t volatile *, uint8_t volatile *, uint8_t volatile *, uint8_t, uint8_t volatile *, uint8_t)
      14  CUart::Close()
      10  CUart::Disable()
      10  CUart::Enable()
      66  CUart::Init(uint32_t, uint8_t, uint8_t, uint8_t, uint8_t *, uint8_t *)
      10  CUart::Open()
      84  CUart::Read(uint8_t *, uint16_t)
      52  CUart::RecvInterruptHandler()
      16  CUart::Reset()
       8  CUart::Rs485RtsOff()
      20  CUart::Rs485RtsOn()
      22  CUart::TransmitDisable()
      42  CUart::TransmitEnable()
      12  CUart::TxcInterruptHandler()
      62  CUart::UdreInterruptHandler()
      14  CUart::Write(uint8_t *, uint16_t)
      10  CUart::new CUart()
      48  CUart::new CUart(uint8_t volatile *, uint8_t volatile *, uint8_t volatile *, uint8_t volatile *, uint8_t volatile *, uint8_t volatile *, uint8_t volatile *, uint8_t, uint8_t volatile *, uint8_t)
       2  CUart::~CUart()
       6  EEPROM_EE_READY()
       4  EEPROM_EE_READY()::??INTVEC 88
       6  SIG_UART1_DATA()
       4  SIG_UART1_DATA()::??INTVEC 124
      14  SIG_UART1_RECV()
       4  SIG_UART1_RECV()::??INTVEC 120
       8  SIG_UART1_TXC()
       4  SIG_UART1_TXC()::??INTVEC 128
      32  SystemTickInterrupt()
       4  SystemTickInterrupt()::??INTVEC 36
       1  _A_ACSR
       2  _A_ADC
       1  _A_ADCSRA
       1  _A_ADMUX
       1  _A_ASSR
       1  _A_DDRA
       1  _A_DDRB
       1  _A_DDRC
       1  _A_DDRD
       1  _A_DDRE
       1  _A_DDRF
       1  _A_DDRG
       2  _A_EEAR
       1  _A_EECR
       1  _A_EEDR
       1  _A_EICRA
       1  _A_EICRB
       1  _A_EIFR
       1  _A_EIMSK
       1  _A_ETIFR
       1  _A_ETIMSK
       2  _A_ICR1
       2  _A_ICR3
       1  _A_MCUCR
       1  _A_MCUCSR
       1  _A_OCDR
       1  _A_OCR0
       2  _A_OCR1A
       2  _A_OCR1B
       2  _A_OCR1C
       1  _A_OCR2
       2  _A_OCR3A
       2  _A_OCR3B
       2  _A_OCR3C
       1  _A_OSCCAL
       1  _A_PINA
       1  _A_PINB
       1  _A_PINC
       1  _A_PIND
       1  _A_PINE
       1  _A_PINF
       1  _A_PING
       1  _A_PORTA
       1  _A_PORTB
       1  _A_PORTC
       1  _A_PORTD
       1  _A_PORTE
       1  _A_PORTF
       1  _A_PORTG
       1  _A_RAMPZ
       1  _A_SFIOR
       2  _A_SP
       1  _A_SPCR
       1  _A_SPDR
       1  _A_SPMCSR
       1  _A_SPSR
       1  _A_SREG
       1  _A_TCCR0
       1  _A_TCCR1A
       1  _A_TCCR1B
       1  _A_TCCR1C
       1  _A_TCCR2
       1  _A_TCCR3A
       1  _A_TCCR3B
       1  _A_TCCR3C
       1  _A_TCNT0
       2  _A_TCNT1
       1  _A_TCNT2
       2  _A_TCNT3
       1  _A_TIFR
       1  _A_TIMSK
       1  _A_TWAR
       1  _A_TWBR
       1  _A_TWCR
       1  _A_TWDR
       1  _A_TWSR
       1  _A_UBRR0H
       1  _A_UBRR0L
       1  _A_UBRR1H
       1  _A_UBRR1L
       1  _A_UCSR0A
       1  _A_UCSR0B
       1  _A_UCSR0C
       1  _A_UCSR1A
       1  _A_UCSR1B
       1  _A_UCSR1C
       1  _A_UDR0
       1  _A_UDR1
       1  _A_WDTCR
       1  _A_XDIV
       1  _A_XMCRA
       1  _A_XMCRB
      30  delay_mins(uint16_t)
      22  delay_ms(uint16_t)
      26  delay_s(uint16_t)
      51  -- Other

 
   105 bytes in segment ABSOLUTE
 1 546 bytes in segment CODE
     7 bytes in segment INITTAB
    20 bytes in segment INTVEC
    44 bytes in segment NEAR_F
    14 bytes in segment NEAR_Z
 
 1 582 bytes of CODE memory (+  35 bytes shared)
    14 bytes of DATA memory (+ 105 bytes shared)

Errors: none
Warnings: 1
