###############################################################################
#
# IAR C/C++ Compiler V7.10.6.1378 for Atmel AVR           09/Aug/2022  02:57:08
# Copyright 1996-2018 IAR Systems AB.
#
#    Source file  =  D:\Projects\CautoProjects\PSS48\PSS48\src\Platform.cpp
#    Command line =  
#        -f C:\Users\ghost\AppData\Local\Temp\EWE304.tmp
#        (--string_literals_in_flash
#        D:\Projects\CautoProjects\PSS48\PSS48\src\Platform.cpp --cpu=m128a -ms
#        -o D:\Projects\CautoProjects\PSS48\PSS48\Debug\Obj -lC
#        D:\Projects\CautoProjects\PSS48\PSS48\Debug\List -lB
#        D:\Projects\CautoProjects\PSS48\PSS48\Debug\List -y
#        --initializers_in_flash --root_variables --no_cse --no_inline
#        --no_code_motion --no_cross_call --no_clustering --no_tbaa --debug
#        -DENABLE_BIT_DEFINITIONS -e -I
#        D:\Projects\CautoProjects\PSS48\PSS48\include\ -I
#        D:\Projects\CautoProjects\PSS48\PSS48\Modbus\ --eeprom_size 4096
#        --dlib --dlib_config "C:\Program Files (x86)\IAR Systems\Embedded
#        Workbench 8.0\avr\LIB\DLIB\dlAVR-3s-ec_mul-n.h" -On --eec++)
#    Locale       =  Russian_RUS.1251
#    List file    =  
#        D:\Projects\CautoProjects\PSS48\PSS48\Debug\List\Platform.lst
#    Object file  =  
#        D:\Projects\CautoProjects\PSS48\PSS48\Debug\Obj\Platform.r90
#
###############################################################################

D:\Projects\CautoProjects\PSS48\PSS48\src\Platform.cpp
      1          //-----------------------------------------------------------------------------------------------------
      2          //  Sourse      : FileName.cpp
      3          //  Created     : 01.06.2022
      4          //  Author      : Alexandr Volvenkin
      5          //  email       : aav-36@mail.ru
      6          //  GitHub      : https://github.com/AlexandrVolvenkin
      7          //-----------------------------------------------------------------------------------------------------
      8          #include "Platform.h"

   \                                 In  segment ABSOLUTE, at 0x9d, root
   \   union <unnamed> volatile __io _A_UCSR1C
   \                     _A_UCSR1C:
   \   00000000                      DS8 1

   \                                 In  segment ABSOLUTE, at 0x9c, root
   \   union <unnamed> volatile __io _A_UDR1
   \                     _A_UDR1:
   \   00000000                      DS8 1

   \                                 In  segment ABSOLUTE, at 0x9b, root
   \   union <unnamed> volatile __io _A_UCSR1A
   \                     _A_UCSR1A:
   \   00000000                      DS8 1

   \                                 In  segment ABSOLUTE, at 0x9a, root
   \   union <unnamed> volatile __io _A_UCSR1B
   \                     _A_UCSR1B:
   \   00000000                      DS8 1

   \                                 In  segment ABSOLUTE, at 0x99, root
   \   union <unnamed> volatile __io _A_UBRR1L
   \                     _A_UBRR1L:
   \   00000000                      DS8 1

   \                                 In  segment ABSOLUTE, at 0x98, root
   \   union <unnamed> volatile __io _A_UBRR1H
   \                     _A_UBRR1H:
   \   00000000                      DS8 1

   \                                 In  segment ABSOLUTE, at 0x95, root
   \   union <unnamed> volatile __io _A_UCSR0C
   \                     _A_UCSR0C:
   \   00000000                      DS8 1

   \                                 In  segment ABSOLUTE, at 0x90, root
   \   union <unnamed> volatile __io _A_UBRR0H
   \                     _A_UBRR0H:
   \   00000000                      DS8 1

   \                                 In  segment ABSOLUTE, at 0x8c, root
   \   union <unnamed> volatile __io _A_TCCR3C
   \                     _A_TCCR3C:
   \   00000000                      DS8 1

   \                                 In  segment ABSOLUTE, at 0x8b, root
   \   union <unnamed> volatile __io _A_TCCR3A
   \                     _A_TCCR3A:
   \   00000000                      DS8 1

   \                                 In  segment ABSOLUTE, at 0x8a, root
   \   union <unnamed> volatile __io _A_TCCR3B
   \                     _A_TCCR3B:
   \   00000000                      DS8 1

   \                                 In  segment ABSOLUTE, at 0x88, root
   \   union <unnamed> volatile __io _A_TCNT3
   \                     _A_TCNT3:
   \   00000000                      DS8 2

   \                                 In  segment ABSOLUTE, at 0x86, root
   \   union <unnamed> volatile __io _A_OCR3A
   \                     _A_OCR3A:
   \   00000000                      DS8 2

   \                                 In  segment ABSOLUTE, at 0x84, root
   \   union <unnamed> volatile __io _A_OCR3B
   \                     _A_OCR3B:
   \   00000000                      DS8 2

   \                                 In  segment ABSOLUTE, at 0x82, root
   \   union <unnamed> volatile __io _A_OCR3C
   \                     _A_OCR3C:
   \   00000000                      DS8 2

   \                                 In  segment ABSOLUTE, at 0x80, root
   \   union <unnamed> volatile __io _A_ICR3
   \                     _A_ICR3:
   \   00000000                      DS8 2

   \                                 In  segment ABSOLUTE, at 0x7d, root
   \   union <unnamed> volatile __io _A_ETIMSK
   \                     _A_ETIMSK:
   \   00000000                      DS8 1

   \                                 In  segment ABSOLUTE, at 0x7c, root
   \   union <unnamed> volatile __io _A_ETIFR
   \                     _A_ETIFR:
   \   00000000                      DS8 1

   \                                 In  segment ABSOLUTE, at 0x7a, root
   \   union <unnamed> volatile __io _A_TCCR1C
   \                     _A_TCCR1C:
   \   00000000                      DS8 1

   \                                 In  segment ABSOLUTE, at 0x78, root
   \   union <unnamed> volatile __io _A_OCR1C
   \                     _A_OCR1C:
   \   00000000                      DS8 2

   \                                 In  segment ABSOLUTE, at 0x74, root
   \   union <unnamed> volatile __io _A_TWCR
   \                     _A_TWCR:
   \   00000000                      DS8 1

   \                                 In  segment ABSOLUTE, at 0x73, root
   \   union <unnamed> volatile __io _A_TWDR
   \                     _A_TWDR:
   \   00000000                      DS8 1

   \                                 In  segment ABSOLUTE, at 0x72, root
   \   union <unnamed> volatile __io _A_TWAR
   \                     _A_TWAR:
   \   00000000                      DS8 1

   \                                 In  segment ABSOLUTE, at 0x71, root
   \   union <unnamed> volatile __io _A_TWSR
   \                     _A_TWSR:
   \   00000000                      DS8 1

   \                                 In  segment ABSOLUTE, at 0x70, root
   \   union <unnamed> volatile __io _A_TWBR
   \                     _A_TWBR:
   \   00000000                      DS8 1

   \                                 In  segment ABSOLUTE, at 0x6f, root
   \   union <unnamed> volatile __io _A_OSCCAL
   \                     _A_OSCCAL:
   \   00000000                      DS8 1

   \                                 In  segment ABSOLUTE, at 0x6d, root
   \   union <unnamed> volatile __io _A_XMCRA
   \                     _A_XMCRA:
   \   00000000                      DS8 1

   \                                 In  segment ABSOLUTE, at 0x6c, root
   \   union <unnamed> volatile __io _A_XMCRB
   \                     _A_XMCRB:
   \   00000000                      DS8 1

   \                                 In  segment ABSOLUTE, at 0x6a, root
   \   union <unnamed> volatile __io _A_EICRA
   \                     _A_EICRA:
   \   00000000                      DS8 1

   \                                 In  segment ABSOLUTE, at 0x68, root
   \   union <unnamed> volatile __io _A_SPMCSR
   \                     _A_SPMCSR:
   \   00000000                      DS8 1

   \                                 In  segment ABSOLUTE, at 0x65, root
   \   union <unnamed> volatile __io _A_PORTG
   \                     _A_PORTG:
   \   00000000                      DS8 1

   \                                 In  segment ABSOLUTE, at 0x64, root
   \   union <unnamed> volatile __io _A_DDRG
   \                     _A_DDRG:
   \   00000000                      DS8 1

   \                                 In  segment ABSOLUTE, at 0x63, root
   \   union <unnamed> volatile __io _A_PING
   \                     _A_PING:
   \   00000000                      DS8 1

   \                                 In  segment ABSOLUTE, at 0x62, root
   \   union <unnamed> volatile __io _A_PORTF
   \                     _A_PORTF:
   \   00000000                      DS8 1

   \                                 In  segment ABSOLUTE, at 0x61, root
   \   union <unnamed> volatile __io _A_DDRF
   \                     _A_DDRF:
   \   00000000                      DS8 1

   \                                 In  segment ABSOLUTE, at 0x5f, root
   \   union <unnamed> volatile __io _A_SREG
   \                     _A_SREG:
   \   00000000                      DS8 1

   \                                 In  segment ABSOLUTE, at 0x5d, root
   \   union <unnamed> volatile __io _A_SP
   \                     _A_SP:
   \   00000000                      DS8 2

   \                                 In  segment ABSOLUTE, at 0x5c, root
   \   union <unnamed> volatile __io _A_XDIV
   \                     _A_XDIV:
   \   00000000                      DS8 1

   \                                 In  segment ABSOLUTE, at 0x5b, root
   \   union <unnamed> volatile __io _A_RAMPZ
   \                     _A_RAMPZ:
   \   00000000                      DS8 1

   \                                 In  segment ABSOLUTE, at 0x5a, root
   \   union <unnamed> volatile __io _A_EICRB
   \                     _A_EICRB:
   \   00000000                      DS8 1

   \                                 In  segment ABSOLUTE, at 0x59, root
   \   union <unnamed> volatile __io _A_EIMSK
   \                     _A_EIMSK:
   \   00000000                      DS8 1

   \                                 In  segment ABSOLUTE, at 0x58, root
   \   union <unnamed> volatile __io _A_EIFR
   \                     _A_EIFR:
   \   00000000                      DS8 1

   \                                 In  segment ABSOLUTE, at 0x57, root
   \   union <unnamed> volatile __io _A_TIMSK
   \                     _A_TIMSK:
   \   00000000                      DS8 1

   \                                 In  segment ABSOLUTE, at 0x56, root
   \   union <unnamed> volatile __io _A_TIFR
   \                     _A_TIFR:
   \   00000000                      DS8 1

   \                                 In  segment ABSOLUTE, at 0x55, root
   \   union <unnamed> volatile __io _A_MCUCR
   \                     _A_MCUCR:
   \   00000000                      DS8 1

   \                                 In  segment ABSOLUTE, at 0x54, root
   \   union <unnamed> volatile __io _A_MCUCSR
   \                     _A_MCUCSR:
   \   00000000                      DS8 1

   \                                 In  segment ABSOLUTE, at 0x53, root
   \   union <unnamed> volatile __io _A_TCCR0
   \                     _A_TCCR0:
   \   00000000                      DS8 1

   \                                 In  segment ABSOLUTE, at 0x52, root
   \   union <unnamed> volatile __io _A_TCNT0
   \                     _A_TCNT0:
   \   00000000                      DS8 1

   \                                 In  segment ABSOLUTE, at 0x51, root
   \   union <unnamed> volatile __io _A_OCR0
   \                     _A_OCR0:
   \   00000000                      DS8 1

   \                                 In  segment ABSOLUTE, at 0x50, root
   \   union <unnamed> volatile __io _A_ASSR
   \                     _A_ASSR:
   \   00000000                      DS8 1

   \                                 In  segment ABSOLUTE, at 0x4f, root
   \   union <unnamed> volatile __io _A_TCCR1A
   \                     _A_TCCR1A:
   \   00000000                      DS8 1

   \                                 In  segment ABSOLUTE, at 0x4e, root
   \   union <unnamed> volatile __io _A_TCCR1B
   \                     _A_TCCR1B:
   \   00000000                      DS8 1

   \                                 In  segment ABSOLUTE, at 0x4c, root
   \   union <unnamed> volatile __io _A_TCNT1
   \                     _A_TCNT1:
   \   00000000                      DS8 2

   \                                 In  segment ABSOLUTE, at 0x4a, root
   \   union <unnamed> volatile __io _A_OCR1A
   \                     _A_OCR1A:
   \   00000000                      DS8 2

   \                                 In  segment ABSOLUTE, at 0x48, root
   \   union <unnamed> volatile __io _A_OCR1B
   \                     _A_OCR1B:
   \   00000000                      DS8 2

   \                                 In  segment ABSOLUTE, at 0x46, root
   \   union <unnamed> volatile __io _A_ICR1
   \                     _A_ICR1:
   \   00000000                      DS8 2

   \                                 In  segment ABSOLUTE, at 0x45, root
   \   union <unnamed> volatile __io _A_TCCR2
   \                     _A_TCCR2:
   \   00000000                      DS8 1

   \                                 In  segment ABSOLUTE, at 0x44, root
   \   union <unnamed> volatile __io _A_TCNT2
   \                     _A_TCNT2:
   \   00000000                      DS8 1

   \                                 In  segment ABSOLUTE, at 0x43, root
   \   union <unnamed> volatile __io _A_OCR2
   \                     _A_OCR2:
   \   00000000                      DS8 1

   \                                 In  segment ABSOLUTE, at 0x42, root
   \   union <unnamed> volatile __io _A_OCDR
   \                     _A_OCDR:
   \   00000000                      DS8 1

   \                                 In  segment ABSOLUTE, at 0x41, root
   \   union <unnamed> volatile __io _A_WDTCR
   \                     _A_WDTCR:
   \   00000000                      DS8 1

   \                                 In  segment ABSOLUTE, at 0x40, root
   \   union <unnamed> volatile __io _A_SFIOR
   \                     _A_SFIOR:
   \   00000000                      DS8 1

   \                                 In  segment ABSOLUTE, at 0x3e, root
   \   union <unnamed> volatile __io _A_EEAR
   \                     _A_EEAR:
   \   00000000                      DS8 2

   \                                 In  segment ABSOLUTE, at 0x3d, root
   \   union <unnamed> volatile __io _A_EEDR
   \                     _A_EEDR:
   \   00000000                      DS8 1

   \                                 In  segment ABSOLUTE, at 0x3c, root
   \   union <unnamed> volatile __io _A_EECR
   \                     _A_EECR:
   \   00000000                      DS8 1

   \                                 In  segment ABSOLUTE, at 0x3b, root
   \   union <unnamed> volatile __io _A_PORTA
   \                     _A_PORTA:
   \   00000000                      DS8 1

   \                                 In  segment ABSOLUTE, at 0x3a, root
   \   union <unnamed> volatile __io _A_DDRA
   \                     _A_DDRA:
   \   00000000                      DS8 1

   \                                 In  segment ABSOLUTE, at 0x39, root
   \   union <unnamed> volatile __io _A_PINA
   \                     _A_PINA:
   \   00000000                      DS8 1

   \                                 In  segment ABSOLUTE, at 0x38, root
   \   union <unnamed> volatile __io _A_PORTB
   \                     _A_PORTB:
   \   00000000                      DS8 1

   \                                 In  segment ABSOLUTE, at 0x37, root
   \   union <unnamed> volatile __io _A_DDRB
   \                     _A_DDRB:
   \   00000000                      DS8 1

   \                                 In  segment ABSOLUTE, at 0x36, root
   \   union <unnamed> volatile __io _A_PINB
   \                     _A_PINB:
   \   00000000                      DS8 1

   \                                 In  segment ABSOLUTE, at 0x35, root
   \   union <unnamed> volatile __io _A_PORTC
   \                     _A_PORTC:
   \   00000000                      DS8 1

   \                                 In  segment ABSOLUTE, at 0x34, root
   \   union <unnamed> volatile __io _A_DDRC
   \                     _A_DDRC:
   \   00000000                      DS8 1

   \                                 In  segment ABSOLUTE, at 0x33, root
   \   union <unnamed> volatile __io _A_PINC
   \                     _A_PINC:
   \   00000000                      DS8 1

   \                                 In  segment ABSOLUTE, at 0x32, root
   \   union <unnamed> volatile __io _A_PORTD
   \                     _A_PORTD:
   \   00000000                      DS8 1

   \                                 In  segment ABSOLUTE, at 0x31, root
   \   union <unnamed> volatile __io _A_DDRD
   \                     _A_DDRD:
   \   00000000                      DS8 1

   \                                 In  segment ABSOLUTE, at 0x30, root
   \   union <unnamed> volatile __io _A_PIND
   \                     _A_PIND:
   \   00000000                      DS8 1

   \                                 In  segment ABSOLUTE, at 0x2f, root
   \   union <unnamed> volatile __io _A_SPDR
   \                     _A_SPDR:
   \   00000000                      DS8 1

   \                                 In  segment ABSOLUTE, at 0x2e, root
   \   union <unnamed> volatile __io _A_SPSR
   \                     _A_SPSR:
   \   00000000                      DS8 1

   \                                 In  segment ABSOLUTE, at 0x2d, root
   \   union <unnamed> volatile __io _A_SPCR
   \                     _A_SPCR:
   \   00000000                      DS8 1

   \                                 In  segment ABSOLUTE, at 0x2c, root
   \   union <unnamed> volatile __io _A_UDR0
   \                     _A_UDR0:
   \   00000000                      DS8 1

   \                                 In  segment ABSOLUTE, at 0x2b, root
   \   union <unnamed> volatile __io _A_UCSR0A
   \                     _A_UCSR0A:
   \   00000000                      DS8 1

   \                                 In  segment ABSOLUTE, at 0x2a, root
   \   union <unnamed> volatile __io _A_UCSR0B
   \                     _A_UCSR0B:
   \   00000000                      DS8 1

   \                                 In  segment ABSOLUTE, at 0x29, root
   \   union <unnamed> volatile __io _A_UBRR0L
   \                     _A_UBRR0L:
   \   00000000                      DS8 1

   \                                 In  segment ABSOLUTE, at 0x28, root
   \   union <unnamed> volatile __io _A_ACSR
   \                     _A_ACSR:
   \   00000000                      DS8 1

   \                                 In  segment ABSOLUTE, at 0x27, root
   \   union <unnamed> volatile __io _A_ADMUX
   \                     _A_ADMUX:
   \   00000000                      DS8 1

   \                                 In  segment ABSOLUTE, at 0x26, root
   \   union <unnamed> volatile __io _A_ADCSRA
   \                     _A_ADCSRA:
   \   00000000                      DS8 1

   \                                 In  segment ABSOLUTE, at 0x24, root
   \   union <unnamed> volatile __io _A_ADC
   \                     _A_ADC:
   \   00000000                      DS8 2

   \                                 In  segment ABSOLUTE, at 0x23, root
   \   union <unnamed> volatile __io _A_PORTE
   \                     _A_PORTE:
   \   00000000                      DS8 1

   \                                 In  segment ABSOLUTE, at 0x22, root
   \   union <unnamed> volatile __io _A_DDRE
   \                     _A_DDRE:
   \   00000000                      DS8 1

   \                                 In  segment ABSOLUTE, at 0x21, root
   \   union <unnamed> volatile __io _A_PINE
   \                     _A_PINE:
   \   00000000                      DS8 1

   \                                 In  segment ABSOLUTE, at 0x20, root
   \   union <unnamed> volatile __io _A_PINF
   \                     _A_PINF:
   \   00000000                      DS8 1

   \                                 In  segment CODE, align 2, keep-with-next
   \   __version_3 void CEeprom::ReadyInterruptDisaable()
   \                     ??ReadyInterruptDisaable:
   \   00000000   98E3               CBI     0x1C, 0x03
   \   00000002   9508               RET
   \   00000004                      REQUIRE _A_EECR

   \                                 In  segment CODE, align 2, keep-with-next
   \   __version_3 uint8_t *CEeprom::GetBufferPointer()
   \                     ??GetBufferPointer:
   \   00000000   ....               LDI     R30, LOW(??m_puiBuffer)
   \   00000002   ....               LDI     R31, (??m_puiBuffer) >> 8
   \   00000004   8100               LD      R16, Z
   \   00000006   8111               LDD     R17, Z+1
   \   00000008   9508               RET

   \                                 In  segment CODE, align 2, keep-with-next
   \   __version_3 void CEeprom::SetBufferPointer(uint8_t *)
   \                     ??SetBufferPointer:
   \   00000000   ....               LDI     R30, LOW(??m_puiBuffer)
   \   00000002   ....               LDI     R31, (??m_puiBuffer) >> 8
   \   00000004   8300               ST      Z, R16
   \   00000006   8311               STD     Z+1, R17
   \   00000008   9508               RET

   \                                 In  segment CODE, align 2, keep-with-next
   \   __version_3 void CEeprom::SetAddress(uint16_t)
   \                     ??SetAddress:
   \   00000000   ....               LDI     R30, LOW(??m_uiAddress)
   \   00000002   ....               LDI     R31, (??m_uiAddress) >> 8
   \   00000004   8300               ST      Z, R16
   \   00000006   8311               STD     Z+1, R17
   \   00000008   9508               RET

   \                                 In  segment CODE, align 2, keep-with-next
   \   __version_3 uint16_t CEeprom::GetAddress()
   \                     ??GetAddress:
   \   00000000   ....               LDI     R30, LOW(??m_uiAddress)
   \   00000002   ....               LDI     R31, (??m_uiAddress) >> 8
   \   00000004   8100               LD      R16, Z
   \   00000006   8111               LDD     R17, Z+1
   \   00000008   9508               RET

   \                                 In  segment CODE, align 2, keep-with-next
   \   __version_3 void CEeprom::SetBufferByteCounter(uint16_t)
   \                     ??SetBufferByteCounter:
   \   00000000   ....               LDI     R30, LOW(??m_nuiBufferByteCounter)
   \   00000002   ....               LDI     R31, (??m_nuiBufferByteCounter) >> 8
   \   00000004   8300               ST      Z, R16
   \   00000006   8311               STD     Z+1, R17
   \   00000008   9508               RET

   \                                 In  segment CODE, align 2, keep-with-next
   \   __version_3 uint16_t CEeprom::GetBufferByteCounter()
   \                     ??GetBufferByteCounter:
   \   00000000   ....               LDI     R30, LOW(??m_nuiBufferByteCounter)
   \   00000002   ....               LDI     R31, (??m_nuiBufferByteCounter) >> 8
   \   00000004   8100               LD      R16, Z
   \   00000006   8111               LDD     R17, Z+1
   \   00000008   9508               RET

   \                                 In  segment CODE, align 2, keep-with-next
   \   __version_3 void CEeprom::SetLength(uint16_t)
   \                     ??SetLength:
   \   00000000   ....               LDI     R30, LOW(??m_uiLength)
   \   00000002   ....               LDI     R31, (??m_uiLength) >> 8
   \   00000004   8300               ST      Z, R16
   \   00000006   8311               STD     Z+1, R17
   \   00000008   9508               RET

   \                                 In  segment CODE, align 2, keep-with-next
   \   __version_3 uint16_t CEeprom::GetLength()
   \                     ??GetLength:
   \   00000000   ....               LDI     R30, LOW(??m_uiLength)
   \   00000002   ....               LDI     R31, (??m_uiLength) >> 8
   \   00000004   8100               LD      R16, Z
   \   00000006   8111               LDD     R17, Z+1
   \   00000008   9508               RET

   \                                 In  segment CODE, align 2, keep-with-next
   \   __version_3 void CEeprom::SetBufferIsWrited(bool)
   \                     ??SetBufferIsWrited:
   \   00000000   9300....           STS     ??m_bBufferIsWrited, R16
   \   00000004   9508               RET

   \                                 In  segment CODE, align 2, keep-with-next
   \   __version_3 void CPlatform::WatchdogReset()
   \                     ??WatchdogReset:
   \   00000000   95A8               WDR
   \   00000002   9508               RET

   \                                 In  segment CODE, align 2, keep-with-next
   \   __version_3 void CPlatform::InterruptEnable()
   \                     ??InterruptEnable:
   \   00000000   9478               SEI
   \   00000002   9508               RET

   \                                 In  segment CODE, align 2, keep-with-next
   \   __version_3 void CPlatform::InterruptDisable()
   \                     ??InterruptDisable:
   \   00000000   94F8               CLI
   \   00000002   9508               RET

   \                                 In  segment CODE, align 2, keep-with-next
   \   __version_3 void CPlatform::IncrementSystemTick()
   \                     ??IncrementSystemTick:
   \   00000000   ....               LDI     R30, LOW(??m_uiSystemTick)
   \   00000002   ....               LDI     R31, (??m_uiSystemTick) >> 8
   \   00000004   8100               LD      R16, Z
   \   00000006   8111               LDD     R17, Z+1
   \   00000008   5F0F               SUBI    R16, 255
   \   0000000A   4F1F               SBCI    R17, 255
   \   0000000C   8300               ST      Z, R16
   \   0000000E   8311               STD     Z+1, R17
   \   00000010   9508               RET

   \                                 In  segment CODE, align 2, keep-with-next
   \   __version_3 void CPlatform::StatusLedSetPinOutput()
   \                     ??StatusLedSetPinOutput:
   \   00000000   91000061           LDS     R16, 97
   \   00000004   6800               ORI     R16, 0x80
   \   00000006   93000061           STS     97, R16
   \   0000000A   9508               RET
   \   0000000C                      REQUIRE _A_DDRF

   \                                 In  segment CODE, align 2, keep-with-next
   \   __version_3 void CPlatform::TxLedSetPinOutput()
   \                     ??TxLedSetPinOutput:
   \   00000000   91000061           LDS     R16, 97
   \   00000004   6400               ORI     R16, 0x40
   \   00000006   93000061           STS     97, R16
   \   0000000A   9508               RET
   \   0000000C                      REQUIRE _A_DDRF

   \                                 In  segment CODE, align 2, keep-with-next
   \   __version_3 void CPlatform::TxLedOff()
   \                     ??TxLedOff:
   \   00000000   91000062           LDS     R16, 98
   \   00000004   6400               ORI     R16, 0x40
   \   00000006   93000062           STS     98, R16
   \   0000000A   9508               RET
   \   0000000C                      REQUIRE _A_PORTF

   \                                 In  segment CODE, align 2, keep-with-next
   \   __version_3 void CPlatform::KeyOneSetPinInput()
   \                     ??KeyOneSetPinInput:
   \   00000000   98A2               CBI     0x14, 0x02
   \   00000002   9508               RET
   \   00000004                      REQUIRE _A_DDRC

   \                                 In  segment CODE, align 2, keep-with-next
   \   __version_3 void CPlatform::KeyTwoSetPinInput()
   \                     ??KeyTwoSetPinInput:
   \   00000000   98A1               CBI     0x14, 0x01
   \   00000002   9508               RET
   \   00000004                      REQUIRE _A_DDRC

   \                                 In  segment CODE, align 2, keep-with-next
   \   __version_3 void CPlatform::KeyThreeSetPinInput()
   \                     ??KeyThreeSetPinInput:
   \   00000000   98A0               CBI     0x14, 0x00
   \   00000002   9508               RET
   \   00000004                      REQUIRE _A_DDRC

   \                                 In  segment CODE, align 2, keep-with-next
   \   __version_3 void CPlatform::ExternalKeySetPinInput()
   \                     ??ExternalKeySetPinInput:
   \   00000000   91000064           LDS     R16, 100
   \   00000004   7F0E               ANDI    R16, 0xFE
   \   00000006   93000064           STS     100, R16
   \   0000000A   9508               RET
   \   0000000C                      REQUIRE _A_DDRG
      9          #include "Pss21.h"

  };
   ^
"D:\Projects\CautoProjects\PSS48\PSS48\Modbus\Modbus.h",184  Warning[Pe375]: 
          declaration requires a typedef name

  };
   ^
"D:\Projects\CautoProjects\PSS48\PSS48\Modbus\Modbus.h",216  Warning[Pe375]: 
          declaration requires a typedef name
Warning[Pa082]: undefined behavior: the order of volatile accesses is undefined
          in this statement
     10          
     11          
     12          // ATMega128a
     13          //-----------------------------------------------------------------------------------------------------

   \                                 In  segment CODE, align 2, keep-with-next
     14          CUart::CUart()
   \                     ??CUart:
     15          {
   \   00000000   ....               LDI     R18, LOW(??__vtbl)
   \   00000002   ....               LDI     R19, (??__vtbl) >> 8
   \   00000004   01F8               MOVW    R31:R30, R17:R16
   \   00000006   A725               STD     Z+45, R18
   \   00000008   A736               STD     Z+46, R19
     16          
     17          }
   \   0000000A   9508               RET
     18          
     19          //-----------------------------------------------------------------------------------------------------

   \                                 In  segment CODE, align 2, keep-with-next
     20          CUart::CUart(volatile uint8_t *ubrrh, volatile uint8_t *ubrrl,
   \                     ??CUart_1:
     21                       volatile uint8_t *ucsra, volatile uint8_t *ucsrb,
     22                       volatile uint8_t *ucsrc, volatile uint8_t *udr,
     23                       volatile uint8_t *rs485ddr, volatile uint8_t rs485ddpin,
     24                       volatile uint8_t *rs485port, volatile uint8_t rs485pin) :
   \   00000000   ........           CALL    ?PROLOGUE10_L09
   \   00000004                      REQUIRE ?Register_R4_is_cg_reg
   \   00000004                      REQUIRE ?Register_R5_is_cg_reg
   \   00000004                      REQUIRE ?Register_R6_is_cg_reg
   \   00000004                      REQUIRE ?Register_R7_is_cg_reg
   \   00000004                      REQUIRE ?Register_R8_is_cg_reg
   \   00000004                      REQUIRE ?Register_R9_is_cg_reg
   \   00000004   01D8               MOVW    R27:R26, R17:R16
   \   00000006   0149               MOVW    R9:R8, R19:R18
   \   00000008   013A               MOVW    R7:R6, R21:R20
   \   0000000A   012B               MOVW    R5:R4, R23:R22
   \   0000000C   858A               LDD     R24, Y+10
   \   0000000E   859B               LDD     R25, Y+11
   \   00000010   842C               LDD     R2, Y+12
   \   00000012   843D               LDD     R3, Y+13
   \   00000014   840E               LDD     R0, Y+14
   \   00000016   841F               LDD     R1, Y+15
   \   00000018   8968               LDD     R22, Y+16
   \   0000001A   8979               LDD     R23, Y+17
   \   0000001C   892B               LDD     R18, Y+19
   \   0000001E   893C               LDD     R19, Y+20
   \   00000020   ....               LDI     R16, LOW(??__vtbl)
   \   00000022   ....               LDI     R17, (??__vtbl) >> 8
   \   00000024   01FD               MOVW    R31:R30, R27:R26
   \   00000026   A705               STD     Z+45, R16
   \   00000028   A716               STD     Z+46, R17
     25              m_UBRRH(ubrrh), m_UBRRL(ubrrl), m_UCSRA(ucsra),
   \   0000002A   01FD               MOVW    R31:R30, R27:R26
   \   0000002C   8280               ST      Z, R8
   \   0000002E   8291               STD     Z+1, R9
   \   00000030   01FD               MOVW    R31:R30, R27:R26
   \   00000032   8262               STD     Z+2, R6
   \   00000034   8273               STD     Z+3, R7
   \   00000036   01FD               MOVW    R31:R30, R27:R26
   \   00000038   8244               STD     Z+4, R4
   \   0000003A   8255               STD     Z+5, R5
     26              m_UCSRB(ucsrb), m_UCSRC(ucsrc), m_UDR(udr),
   \   0000003C   01FD               MOVW    R31:R30, R27:R26
   \   0000003E   8386               STD     Z+6, R24
   \   00000040   8397               STD     Z+7, R25
   \   00000042   01FD               MOVW    R31:R30, R27:R26
   \   00000044   8620               STD     Z+8, R2
   \   00000046   8631               STD     Z+9, R3
   \   00000048   01FD               MOVW    R31:R30, R27:R26
   \   0000004A   8602               STD     Z+10, R0
   \   0000004C   8613               STD     Z+11, R1
     27              m_rs485ddr(rs485ddr), m_rs485ddpin(rs485ddpin), m_rs485port(rs485port), m_rs485pin(rs485pin)
   \   0000004E   01FD               MOVW    R31:R30, R27:R26
   \   00000050   8764               STD     Z+12, R22
   \   00000052   8775               STD     Z+13, R23
   \   00000054   890A               LDD     R16, Y+18
   \   00000056   01FD               MOVW    R31:R30, R27:R26
   \   00000058   8706               STD     Z+14, R16
   \   0000005A   01FD               MOVW    R31:R30, R27:R26
   \   0000005C   8727               STD     Z+15, R18
   \   0000005E   8B30               STD     Z+16, R19
   \   00000060   890D               LDD     R16, Y+21
   \   00000062   01FD               MOVW    R31:R30, R27:R26
   \   00000064   8B01               STD     Z+17, R16
     28          {
     29              if (m_rs485ddr)
   \   00000066   01FD               MOVW    R31:R30, R27:R26
   \   00000068   8504               LDD     R16, Z+12
   \   0000006A   8515               LDD     R17, Z+13
   \   0000006C   2B01               OR      R16, R17
   \   0000006E   F0E9               BREQ    ??CUart_2
     30              {
     31                  *m_rs485ddr |= _BV(m_rs485ddpin);
                         ^
Warning[Pa082]: undefined behavior: the order of volatile accesses is undefined
          in this statement
   \   00000070   01FD               MOVW    R31:R30, R27:R26
   \   00000072   8546               LDD     R20, Z+14
   \   00000074   E001               LDI     R16, 1
   \   00000076   E010               LDI     R17, 0
   \   00000078   ........           CALL    ?S_SHL_L02
   \   0000007C   2F40               MOV     R20, R16
   \   0000007E   01FD               MOVW    R31:R30, R27:R26
   \   00000080   8504               LDD     R16, Z+12
   \   00000082   8515               LDD     R17, Z+13
   \   00000084   01F8               MOVW    R31:R30, R17:R16
   \   00000086   8100               LD      R16, Z
   \   00000088   2B04               OR      R16, R20
   \   0000008A   8300               ST      Z, R16
     32                  *m_rs485port &= ~(_BV(m_rs485pin));
                         ^
Warning[Pa082]: undefined behavior: the order of volatile accesses is undefined
          in this statement
   \   0000008C   01FD               MOVW    R31:R30, R27:R26
   \   0000008E   8941               LDD     R20, Z+17
   \   00000090   E001               LDI     R16, 1
   \   00000092   E010               LDI     R17, 0
   \   00000094   ........           CALL    ?S_SHL_L02
   \   00000098   2F40               MOV     R20, R16
   \   0000009A   9540               COM     R20
   \   0000009C   01FD               MOVW    R31:R30, R27:R26
   \   0000009E   8507               LDD     R16, Z+15
   \   000000A0   8910               LDD     R17, Z+16
   \   000000A2   01F8               MOVW    R31:R30, R17:R16
   \   000000A4   8100               LD      R16, Z
   \   000000A6   2304               AND     R16, R20
   \   000000A8   8300               ST      Z, R16
     33              }
     34          }
   \                     ??CUart_2:
   \   000000AA   018D               MOVW    R17:R16, R27:R26
   \   000000AC   E1E6               LDI     R30, 22
   \   000000AE   ........           JMP     ?EPILOGUE_B10_L09
     35          
     36          //-----------------------------------------------------------------------------------------------------

   \                                 In  segment CODE, align 2, keep-with-next
     37          CUart::~CUart()
   \                     `?~CUart`:
     38          {
   \   00000000   939A               ST      -Y, R25
   \   00000002   938A               ST      -Y, R24
   \   00000004   01C8               MOVW    R25:R24, R17:R16
   \   00000006   2F08               MOV     R16, R24
   \   00000008   2B09               OR      R16, R25
   \   0000000A   F029               BREQ    `?~CUart_1`
   \   0000000C   FB20               BST     R18, 0
   \   0000000E   F41E               BRTC    `?~CUart_1`
     39          
     40          }
   \   00000010   018C               MOVW    R17:R16, R25:R24
   \   00000012   ........           CALL    `??operator delete`
   \                     `?~CUart_1`:
   \   00000016   9189               LD      R24, Y+
   \   00000018   9199               LD      R25, Y+
   \   0000001A   9508               RET
     41          
     42          //-----------------------------------------------------------------------------------------------------

   \                                 In  segment CODE, align 2, keep-with-next
     43          void CUart::Init(uint32_t ulBaudRate,
   \                     ??Init:
     44                           uint8_t ucParity,
     45                           uint8_t ucDataBits,
     46                           uint8_t ucStopBit,
     47                           uint8_t *puiRxBuffer,
     48                           uint8_t *puiTxBuffer)
     49          {
   \   00000000   ........           CALL    ?PROLOGUE8_L09
   \   00000004                      REQUIRE ?Register_R4_is_cg_reg
   \   00000004                      REQUIRE ?Register_R5_is_cg_reg
   \   00000004                      REQUIRE ?Register_R6_is_cg_reg
   \   00000004                      REQUIRE ?Register_R7_is_cg_reg
   \   00000004   0128               MOVW    R5:R4, R17:R16
   \   00000006   01CA               MOVW    R25:R24, R21:R20
   \   00000008   01DB               MOVW    R27:R26, R23:R22
   \   0000000A   2E72               MOV     R7, R18
   \   0000000C   2E63               MOV     R6, R19
     50          //    m_puiRxBuffer = puiRxBuffer;
     51          //    m_puiTxBuffer = puiTxBuffer;
     52          
     53              /* Set the baud rate */
     54              uint16_t uiBaudRateTemp = static_cast<uint16_t>((F_CPU / (ulBaudRate * 16UL) - 1));
   \   0000000E   018C               MOVW    R17:R16, R25:R24
   \   00000010   019D               MOVW    R19:R18, R27:R26
   \   00000012   E140               LDI     R20, 16
   \   00000014   E050               LDI     R21, 0
   \   00000016   E060               LDI     R22, 0
   \   00000018   E070               LDI     R23, 0
   \   0000001A   ........           CALL    ?L_EC_MUL_L03
   \   0000001E   01A8               MOVW    R21:R20, R17:R16
   \   00000020   01B9               MOVW    R23:R22, R19:R18
   \   00000022   E000               LDI     R16, 0
   \   00000024   E810               LDI     R17, 128
   \   00000026   E720               LDI     R18, 112
   \   00000028   E030               LDI     R19, 0
   \   0000002A   ........           CALL    ?UL_DIVMOD_L03
   \   0000002E   0198               MOVW    R19:R18, R17:R16
   \   00000030   5021               SUBI    R18, 1
   \   00000032   4030               SBCI    R19, 0
     55          //    uint16_t uiBaudRateTemp = static_cast<uint16_t>(CPss21::m_xModbusSettings.BaudRate);//(F_CPU / (ulBaudRate * 16UL) - 1);//
     56              *m_UBRRL = static_cast<uint8_t>(uiBaudRateTemp);
   \   00000034   2F42               MOV     R20, R18
   \   00000036   01F2               MOVW    R31:R30, R5:R4
   \   00000038   8102               LDD     R16, Z+2
   \   0000003A   8113               LDD     R17, Z+3
   \   0000003C   01F8               MOVW    R31:R30, R17:R16
   \   0000003E   8340               ST      Z, R20
     57              *m_UBRRH = static_cast<uint8_t>(uiBaudRateTemp >> 8);
   \   00000040   0189               MOVW    R17:R16, R19:R18
   \   00000042   2F01               MOV     R16, R17
   \   00000044   E010               LDI     R17, 0
   \   00000046   2F40               MOV     R20, R16
   \   00000048   01F2               MOVW    R31:R30, R5:R4
   \   0000004A   8100               LD      R16, Z
   \   0000004C   8111               LDD     R17, Z+1
   \   0000004E   01F8               MOVW    R31:R30, R17:R16
   \   00000050   8340               ST      Z, R20
     58          
     59              *m_UCSRC = (CPss21::m_xModbusSettings.LinkParam &	// 2 ńňîď-áčňŕ, 8 áčň äŕííűő
     60                          (BIT(UPM11)|BIT(UPM10)|BIT(USBS1))) |
     61                         (BIT(UCSZ11)|BIT(UCSZ10));
   \   00000052   9140....           LDS     R20, (??m_xModbusSettings + 2)
   \   00000056   7348               ANDI    R20, 0x38
   \   00000058   6046               ORI     R20, 0x06
   \   0000005A   01F2               MOVW    R31:R30, R5:R4
   \   0000005C   8500               LDD     R16, Z+8
   \   0000005E   8511               LDD     R17, Z+9
   \   00000060   01F8               MOVW    R31:R30, R17:R16
   \   00000062   8340               ST      Z, R20
     62          
     63          //    /* Set data bits (7, 8 bits) */
     64          //    switch (ucDataBits)
     65          //    {
     66          //    case 8:
     67          //        *m_UCSRC |= (1 << UCSZ00) | (1 << UCSZ01);
     68          //        break;
     69          //    case 7:
     70          //        *m_UCSRC |= (1 << UCSZ01);
     71          //        break;
     72          //    }
     73          //
     74          //    /* Set parity */
     75          //    if (ucParity == 'N')
     76          //    {
     77          //        /* None */
     78          //    }
     79          //    else if (ucParity == 'E')
     80          //    {
     81          //        /* Even */
     82          //        *m_UCSRC |= (1 << UPM01);
     83          //    }
     84          //    else
     85          //    {
     86          //        /* Odd */
     87          //        *m_UCSRC |= (1 << UPM01) | (1 << UPM00);
     88          //    }
     89          //
     90          //    /* Stop bit (1 or 2) */
     91          //    if (ucStopBit == 1)
     92          //    {
     93          //        *m_UCSRC &= ~(1 << USBS0);
     94          //    }
     95          //    else if (ucStopBit == 2) /* 2 */
     96          //    {
     97          //        *m_UCSRC |= (1 << USBS0);
     98          //    }
     99          }
   \   00000064   E0ED               LDI     R30, 13
   \   00000066   ........           JMP     ?EPILOGUE_B8_L09
    100          
    101          //-----------------------------------------------------------------------------------------------------

   \                                 In  segment CODE, align 2, keep-with-next
    102          void CUart::Reset(void)
   \                     ??Reset:
    103          {
    104              m_nuiRxBuffByteCounter = 0;
   \   00000000   01F8               MOVW    R31:R30, R17:R16
   \   00000002   E020               LDI     R18, 0
   \   00000004   8F20               STD     Z+24, R18
   \   00000006   E020               LDI     R18, 0
   \   00000008   8F21               STD     Z+25, R18
    105              m_bfByteIsReceived = 0;
   \   0000000A   01F8               MOVW    R31:R30, R17:R16
   \   0000000C   E020               LDI     R18, 0
   \   0000000E   A722               STD     Z+42, R18
    106              m_bfFrameIsSended = 0;
   \   00000010   01F8               MOVW    R31:R30, R17:R16
   \   00000012   E020               LDI     R18, 0
   \   00000014   A723               STD     Z+43, R18
    107              m_bfRxBuffOverflow = 0;
   \   00000016   01F8               MOVW    R31:R30, R17:R16
   \   00000018   E020               LDI     R18, 0
   \   0000001A   A724               STD     Z+44, R18
    108          }
   \   0000001C   9508               RET
    109          
    110          //-----------------------------------------------------------------------------------------------------

   \                                 In  segment CODE, align 2, keep-with-next
    111          void CUart::Open(void)
   \                     ??Open:
    112          {
   \   00000000   2F3B               MOV     R19, R27
   \   00000002   2F4A               MOV     R20, R26
    113              *m_UCSRA |= (1 << RXC0) | (1 << TXC0);
   \   00000004   01F8               MOVW    R31:R30, R17:R16
   \   00000006   81A4               LDD     R26, Z+4
   \   00000008   81B5               LDD     R27, Z+5
   \   0000000A   912C               LD      R18, X
   \   0000000C   6C20               ORI     R18, 0xC0
   \   0000000E   932C               ST      X, R18
    114              *m_UCSRB |= (1 << RXEN0) | (1 << TXEN0);
   \   00000010   01F8               MOVW    R31:R30, R17:R16
   \   00000012   81A6               LDD     R26, Z+6
   \   00000014   81B7               LDD     R27, Z+7
   \   00000016   912C               LD      R18, X
   \   00000018   6128               ORI     R18, 0x18
   \   0000001A   932C               ST      X, R18
    115          }
   \   0000001C   2FA4               MOV     R26, R20
   \   0000001E   2FB3               MOV     R27, R19
   \   00000020   9508               RET
    116          
    117          //-----------------------------------------------------------------------------------------------------

   \                                 In  segment CODE, align 2, keep-with-next
    118          void CUart::Close(void)
   \                     ??Close:
    119          {
   \   00000000   2F3B               MOV     R19, R27
   \   00000002   2F4A               MOV     R20, R26
    120              *m_UCSRB &= ~((1 << RXEN0) | (1 << RXCIE0));
   \   00000004   01F8               MOVW    R31:R30, R17:R16
   \   00000006   81A6               LDD     R26, Z+6
   \   00000008   81B7               LDD     R27, Z+7
   \   0000000A   912C               LD      R18, X
   \   0000000C   762F               ANDI    R18, 0x6F
   \   0000000E   932C               ST      X, R18
    121              *m_UCSRB &= ~((1 << TXEN0) | (1 << TXCIE0));
   \   00000010   01F8               MOVW    R31:R30, R17:R16
   \   00000012   81A6               LDD     R26, Z+6
   \   00000014   81B7               LDD     R27, Z+7
   \   00000016   912C               LD      R18, X
   \   00000018   7B27               ANDI    R18, 0xB7
   \   0000001A   932C               ST      X, R18
    122              *m_UCSRB &= ~((1 << UDRIE0));
   \   0000001C   01F8               MOVW    R31:R30, R17:R16
   \   0000001E   81A6               LDD     R26, Z+6
   \   00000020   81B7               LDD     R27, Z+7
   \   00000022   912C               LD      R18, X
   \   00000024   7D2F               ANDI    R18, 0xDF
   \   00000026   932C               ST      X, R18
    123          }
   \   00000028   2FA4               MOV     R26, R20
   \   0000002A   2FB3               MOV     R27, R19
   \   0000002C   9508               RET
    124          
    125          //-----------------------------------------------------------------------------------------------------

   \                                 In  segment CODE, align 2, keep-with-next
    126          void CUart::Enable(void)
   \                     ??Enable:
    127          {
   \   00000000   2F3B               MOV     R19, R27
   \   00000002   2F4A               MOV     R20, R26
    128              *m_UCSRA |= (1 << RXC0);
   \   00000004   01F8               MOVW    R31:R30, R17:R16
   \   00000006   81A4               LDD     R26, Z+4
   \   00000008   81B5               LDD     R27, Z+5
   \   0000000A   912C               LD      R18, X
   \   0000000C   6820               ORI     R18, 0x80
   \   0000000E   932C               ST      X, R18
    129          //    *m_UCSRB |= (1 << RXCIE0);
    130              *m_UCSRB |= (1 << RXEN0) | (1 << RXCIE0);
   \   00000010   01F8               MOVW    R31:R30, R17:R16
   \   00000012   81A6               LDD     R26, Z+6
   \   00000014   81B7               LDD     R27, Z+7
   \   00000016   912C               LD      R18, X
   \   00000018   6920               ORI     R18, 0x90
   \   0000001A   932C               ST      X, R18
    131          }
   \   0000001C   2FA4               MOV     R26, R20
   \   0000001E   2FB3               MOV     R27, R19
   \   00000020   9508               RET
    132          
    133          //-----------------------------------------------------------------------------------------------------

   \                                 In  segment CODE, align 2, keep-with-next
    134          void CUart::Disable(void)
   \                     ??Disable:
    135          {
   \   00000000   2F3B               MOV     R19, R27
   \   00000002   2F4A               MOV     R20, R26
    136          //    *m_UCSRB &= ~((1 << RXCIE0));
    137          //    *m_UCSRB &= ~((1 << TXEN0) | (1 << TXCIE0));
    138              *m_UCSRB &= ~((1 << RXEN0) | (1 << RXCIE0));
   \   00000004   01F8               MOVW    R31:R30, R17:R16
   \   00000006   81A6               LDD     R26, Z+6
   \   00000008   81B7               LDD     R27, Z+7
   \   0000000A   912C               LD      R18, X
   \   0000000C   762F               ANDI    R18, 0x6F
   \   0000000E   932C               ST      X, R18
    139          }
   \   00000010   2FA4               MOV     R26, R20
   \   00000012   2FB3               MOV     R27, R19
   \   00000014   9508               RET
    140          
    141          //-----------------------------------------------------------------------------------------------------

   \                                 In  segment CODE, align 2, keep-with-next
    142          void CUart::Rs485RtsOn(void)
   \                     ??Rs485RtsOn:
    143          {
   \   00000000   2F3B               MOV     R19, R27
   \   00000002   2F6A               MOV     R22, R26
   \   00000004   01F8               MOVW    R31:R30, R17:R16
    144              *m_rs485port |= (1 << m_rs485pin);
                     ^
Warning[Pa082]: undefined behavior: the order of volatile accesses is undefined
          in this statement
   \   00000006   8941               LDD     R20, Z+17
   \   00000008   E001               LDI     R16, 1
   \   0000000A   E010               LDI     R17, 0
   \   0000000C   ........           CALL    ?S_SHL_L02
   \   00000010   85A7               LDD     R26, Z+15
   \   00000012   89B0               LDD     R27, Z+16
   \   00000014   911C               LD      R17, X
   \   00000016   2B10               OR      R17, R16
   \   00000018   931C               ST      X, R17
    145          }
   \   0000001A   2FA6               MOV     R26, R22
   \   0000001C   2FB3               MOV     R27, R19
   \   0000001E   9508               RET
    146          
    147          //-----------------------------------------------------------------------------------------------------

   \                                 In  segment CODE, align 2, keep-with-next
    148          void CUart::Rs485RtsOff(void)
   \                     ??Rs485RtsOff:
    149          {
   \   00000000   2F3B               MOV     R19, R27
   \   00000002   2F6A               MOV     R22, R26
   \   00000004   01F8               MOVW    R31:R30, R17:R16
    150              *m_rs485port &= ~(1 << m_rs485pin);
                     ^
Warning[Pa082]: undefined behavior: the order of volatile accesses is undefined
          in this statement
   \   00000006   8941               LDD     R20, Z+17
   \   00000008   E001               LDI     R16, 1
   \   0000000A   E010               LDI     R17, 0
   \   0000000C   ........           CALL    ?S_SHL_L02
   \   00000010   9500               COM     R16
   \   00000012   85A7               LDD     R26, Z+15
   \   00000014   89B0               LDD     R27, Z+16
   \   00000016   911C               LD      R17, X
   \   00000018   2310               AND     R17, R16
   \   0000001A   931C               ST      X, R17
    151          }
   \   0000001C   2FA6               MOV     R26, R22
   \   0000001E   2FB3               MOV     R27, R19
   \   00000020   9508               RET
    152          
    153          //-----------------------------------------------------------------------------------------------------

   \                                 In  segment CODE, align 2, keep-with-next
    154          void CUart::TransmitEnable(void)
   \                     ??TransmitEnable:
    155          {
   \   00000000   2F5B               MOV     R21, R27
   \   00000002   2E0A               MOV     R0, R26
   \   00000004   01D8               MOVW    R27:R26, R17:R16
    156              if (m_rs485ddr)
   \   00000006   01FD               MOVW    R31:R30, R27:R26
   \   00000008   8504               LDD     R16, Z+12
   \   0000000A   8515               LDD     R17, Z+13
   \   0000000C   2B01               OR      R16, R17
   \   0000000E   F011               BREQ    ??TransmitEnable_1
    157              {
    158                  Rs485RtsOn();
   \   00000010   018D               MOVW    R17:R16, R27:R26
   \   00000012   ....               RCALL   ??Rs485RtsOn
    159              }
    160          
    161              *m_UCSRA |= (1 << TXC0) | (1 << UDRE0);
   \                     ??TransmitEnable_1:
   \   00000014   9614               ADIW    R27:R26, 4
   \   00000016   91ED               LD      R30, X+
   \   00000018   91FC               LD      R31, X
   \   0000001A   9715               SBIW    R27:R26, 5
   \   0000001C   8100               LD      R16, Z
   \   0000001E   6600               ORI     R16, 0x60
   \   00000020   8300               ST      Z, R16
    162          //    *m_UCSRB |= (1 << UDRIE0);
    163          ////    *m_UCSRA |= (1 << TXC0) | (1 << UDRE0);
    164              *m_UCSRB |= (1 << TXEN0) | (1 << UDRIE0);
   \   00000022   9616               ADIW    R27:R26, 6
   \   00000024   91ED               LD      R30, X+
   \   00000026   91FC               LD      R31, X
   \   00000028   9717               SBIW    R27:R26, 7
   \   0000002A   8100               LD      R16, Z
   \   0000002C   6208               ORI     R16, 0x28
   \   0000002E   8300               ST      Z, R16
    165          
    166          }
   \   00000030   2DA0               MOV     R26, R0
   \   00000032   2FB5               MOV     R27, R21
   \   00000034   9508               RET
    167          
    168          //-----------------------------------------------------------------------------------------------------

   \                                 In  segment CODE, align 2, keep-with-next
    169          void CUart::TransmitDisable(void)
   \                     ??TransmitDisable:
    170          {
   \   00000000   2F5B               MOV     R21, R27
   \   00000002   2E0A               MOV     R0, R26
   \   00000004   01D8               MOVW    R27:R26, R17:R16
    171          //    *m_UCSRB &= ~((1 << TXCIE0) | (1 << UDRIE0));
    172          ////    *m_UCSRA &= ~(1 << UDRE0);
    173              *m_UCSRB &= ~((1 << TXEN0) | (1 << TXCIE0) | (1 << UDRIE0));
   \   00000006   9616               ADIW    R27:R26, 6
   \   00000008   91ED               LD      R30, X+
   \   0000000A   91FC               LD      R31, X
   \   0000000C   9717               SBIW    R27:R26, 7
   \   0000000E   8100               LD      R16, Z
   \   00000010   7907               ANDI    R16, 0x97
   \   00000012   8300               ST      Z, R16
    174          
    175              if (m_rs485ddr)
   \   00000014   01FD               MOVW    R31:R30, R27:R26
   \   00000016   8504               LDD     R16, Z+12
   \   00000018   8515               LDD     R17, Z+13
   \   0000001A   2B01               OR      R16, R17
   \   0000001C   F011               BREQ    ??TransmitDisable_1
    176              {
    177                  Rs485RtsOff();
   \   0000001E   018D               MOVW    R17:R16, R27:R26
   \   00000020   ....               RCALL   ??Rs485RtsOff
    178              }
    179          }
   \                     ??TransmitDisable_1:
   \   00000022   2DA0               MOV     R26, R0
   \   00000024   2FB5               MOV     R27, R21
   \   00000026   9508               RET
    180          
    181          //-----------------------------------------------------------------------------------------------------

   \                                 In  segment CODE, align 2, keep-with-next
    182          int16_t CUart::Write(uint8_t *puiSourse, uint16_t uiLength)
   \                     ??Write:
    183          {
   \   00000000   01F8               MOVW    R31:R30, R17:R16
    184              m_puiTxBuffer = (uint8_t*)puiSourse;
   \   00000002   8B22               STD     Z+18, R18
   \   00000004   8B33               STD     Z+19, R19
    185              m_nuiTxBuffByteCounter = uiLength;
   \   00000006   8B44               STD     Z+20, R20
   \   00000008   8B55               STD     Z+21, R21
    186          
    187          //    *m_UCSRA &= ~(1 << RXC0);
    188          //    *m_UCSRB &= ~((1 << RXEN0) | (1 << RXCIE0));
    189          //
    190          //    if (m_rs485ddr)
    191          //    {
    192          //        Rs485RtsOn();
    193          //    }
    194          ////    UDR0 = *pucUsartTxBuff++;
    195          //    //    UCSR0B |= (1 << TXEN0) | (1 << TXCIE0);
    196          //    *m_UCSRA |= (1 << TXC0) | (1 << UDRE0);
    197          //    *m_UCSRB |= (1 << TXEN0) | (1 << UDRIE0);
    198          
    199              return 1;
   \   0000000A   E001               LDI     R16, 1
   \   0000000C   E010               LDI     R17, 0
   \   0000000E   9508               RET
    200          }
    201          
    202          //-----------------------------------------------------------------------------------------------------

   \                                 In  segment CODE, align 2, keep-with-next
    203          int16_t CUart::Read(uint8_t *puiDestination, uint16_t uiLength)
   \                     ??Read:
    204          {
   \   00000000   ........           CALL    ?PROLOGUE8_L09
   \   00000004                      REQUIRE ?Register_R4_is_cg_reg
   \   00000004                      REQUIRE ?Register_R5_is_cg_reg
   \   00000004                      REQUIRE ?Register_R6_is_cg_reg
   \   00000004                      REQUIRE ?Register_R7_is_cg_reg
   \   00000004   01D8               MOVW    R27:R26, R17:R16
   \   00000006   01C9               MOVW    R25:R24, R19:R18
   \   00000008   012A               MOVW    R5:R4, R21:R20
    205              m_bfByteIsReceived = 0;
   \   0000000A   01FD               MOVW    R31:R30, R27:R26
   \   0000000C   E000               LDI     R16, 0
   \   0000000E   A702               STD     Z+42, R16
    206          
    207              if (m_bfRxBuffOverflow)
   \   00000010   01FD               MOVW    R31:R30, R27:R26
   \   00000012   A504               LDD     R16, Z+44
   \   00000014   2300               TST     R16
   \   00000016   F019               BREQ    ??Read_3
    208              {
    209                  return -1;
   \   00000018   EF0F               LDI     R16, 255
   \   0000001A   EF1F               LDI     R17, 255
   \   0000001C   C03A               RJMP    ??Read_4
    210              }
    211          
    212              if (uiLength <= m_nuiRxBuffByteCounter)
   \                     ??Read_3:
   \   0000001E   01FD               MOVW    R31:R30, R27:R26
   \   00000020   8D00               LDD     R16, Z+24
   \   00000022   8D11               LDD     R17, Z+25
   \   00000024   1504               CP      R16, R4
   \   00000026   0515               CPC     R17, R5
   \   00000028   F018               BRCS    ??Read_5
    213              {
    214                  return -1;
   \   0000002A   EF0F               LDI     R16, 255
   \   0000002C   EF1F               LDI     R17, 255
   \   0000002E   C031               RJMP    ??Read_4
    215              }
    216              else if (m_nuiRxBuffByteCounter)
   \                     ??Read_5:
   \   00000030   01FD               MOVW    R31:R30, R27:R26
   \   00000032   8D00               LDD     R16, Z+24
   \   00000034   8D11               LDD     R17, Z+25
   \   00000036   2B01               OR      R16, R17
   \   00000038   F111               BREQ    ??Read_6
    217              {
    218                  CPlatform::InterruptDisable();
   \   0000003A   ........           CALL    ??InterruptDisable
    219          //
    220                  for (int16_t i = 0; i < m_nuiRxBuffByteCounter; i++)
   \   0000003E   E000               LDI     R16, 0
   \   00000040   E010               LDI     R17, 0
   \                     ??Read_7:
   \   00000042   01FD               MOVW    R31:R30, R27:R26
   \   00000044   8D20               LDD     R18, Z+24
   \   00000046   8D31               LDD     R19, Z+25
   \   00000048   1702               CP      R16, R18
   \   0000004A   0713               CPC     R17, R19
   \   0000004C   F458               BRCC    ??Read_8
    221                  {
    222                      puiDestination[i] = m_auiIntermediateBuff[i];
   \   0000004E   01FD               MOVW    R31:R30, R27:R26
   \   00000050   0FE0               ADD     R30, R16
   \   00000052   1FF1               ADC     R31, R17
   \   00000054   8D22               LDD     R18, Z+26
   \   00000056   01FC               MOVW    R31:R30, R25:R24
   \   00000058   0FE0               ADD     R30, R16
   \   0000005A   1FF1               ADC     R31, R17
   \   0000005C   8320               ST      Z, R18
    223                  }
   \   0000005E   5F0F               SUBI    R16, 255
   \   00000060   4F1F               SBCI    R17, 255
   \   00000062   CFEF               RJMP    ??Read_7
    224          
    225                  uint8_t uiCounter = m_nuiRxBuffByteCounter;
   \                     ??Read_8:
   \   00000064   01FD               MOVW    R31:R30, R27:R26
   \   00000066   8C60               LDD     R6, Z+24
   \   00000068   8C71               LDD     R7, Z+25
    226                  m_nuiRxBuffByteCounter = 0;
   \   0000006A   01FD               MOVW    R31:R30, R27:R26
   \   0000006C   E000               LDI     R16, 0
   \   0000006E   8F00               STD     Z+24, R16
   \   00000070   E000               LDI     R16, 0
   \   00000072   8F01               STD     Z+25, R16
    227          
    228                  CPlatform::InterruptEnable();
   \   00000074   ........           CALL    ??InterruptEnable
    229          
    230                  return uiCounter;
   \   00000078   2D06               MOV     R16, R6
   \   0000007A   E010               LDI     R17, 0
   \   0000007C   C00A               RJMP    ??Read_4
    231              }
    232              else if (0 == m_nuiRxBuffByteCounter)
   \                     ??Read_6:
   \   0000007E   01FD               MOVW    R31:R30, R27:R26
   \   00000080   8D00               LDD     R16, Z+24
   \   00000082   8D11               LDD     R17, Z+25
   \   00000084   2B01               OR      R16, R17
   \   00000086   F419               BRNE    ??Read_9
    233              {
    234                  return 0;
   \   00000088   E000               LDI     R16, 0
   \   0000008A   E010               LDI     R17, 0
   \   0000008C   C002               RJMP    ??Read_4
    235              }
    236              return 0;
   \                     ??Read_9:
   \   0000008E   E000               LDI     R16, 0
   \   00000090   E010               LDI     R17, 0
   \                     ??Read_4:
   \   00000092   E0E8               LDI     R30, 8
   \   00000094   ........           JMP     ?EPILOGUE_B8_L09
    237          }
    238          
    239          //-----------------------------------------------------------------------------------------------------

   \                                 In  segment CODE, align 2, keep-with-next
    240          void CUart::UdreInterruptHandler(void)
   \                     ??UdreInterruptHandler:
    241          {
   \   00000000   01AD               MOVW    R21:R20, R27:R26
    242              if (m_nuiTxBuffByteCounter == 0)
   \   00000002   01F8               MOVW    R31:R30, R17:R16
   \   00000004   8924               LDD     R18, Z+20
   \   00000006   8935               LDD     R19, Z+21
   \   00000008   2B23               OR      R18, R19
   \   0000000A   F499               BRNE    ??UdreInterruptHandler_1
    243              {
    244                  *m_UCSRB &= ~((1 << UDRIE0));
   \   0000000C   01F8               MOVW    R31:R30, R17:R16
   \   0000000E   81A6               LDD     R26, Z+6
   \   00000010   81B7               LDD     R27, Z+7
   \   00000012   912C               LD      R18, X
   \   00000014   7D2F               ANDI    R18, 0xDF
   \   00000016   932C               ST      X, R18
    245                  *m_UCSRA |= (1 << TXC0);
   \   00000018   01F8               MOVW    R31:R30, R17:R16
   \   0000001A   81A4               LDD     R26, Z+4
   \   0000001C   81B5               LDD     R27, Z+5
   \   0000001E   912C               LD      R18, X
   \   00000020   6420               ORI     R18, 0x40
   \   00000022   932C               ST      X, R18
    246                  *m_UCSRB |= (1 << TXCIE0);
   \   00000024   01F8               MOVW    R31:R30, R17:R16
   \   00000026   81A6               LDD     R26, Z+6
   \   00000028   81B7               LDD     R27, Z+7
   \   0000002A   912C               LD      R18, X
   \   0000002C   6420               ORI     R18, 0x40
   \   0000002E   932C               ST      X, R18
    247                  return;
   \   00000030   C015               RJMP    ??UdreInterruptHandler_2
    248              }
    249              *m_UDR = *m_puiTxBuffer++;
   \                     ??UdreInterruptHandler_1:
   \   00000032   01F8               MOVW    R31:R30, R17:R16
   \   00000034   89A2               LDD     R26, Z+18
   \   00000036   89B3               LDD     R27, Z+19
   \   00000038   019D               MOVW    R19:R18, R27:R26
   \   0000003A   5F2F               SUBI    R18, 255
   \   0000003C   4F3F               SBCI    R19, 255
   \   0000003E   01F8               MOVW    R31:R30, R17:R16
   \   00000040   8B22               STD     Z+18, R18
   \   00000042   8B33               STD     Z+19, R19
   \   00000044   912C               LD      R18, X
   \   00000046   01F8               MOVW    R31:R30, R17:R16
   \   00000048   85A2               LDD     R26, Z+10
   \   0000004A   85B3               LDD     R27, Z+11
   \   0000004C   932C               ST      X, R18
    250              m_nuiTxBuffByteCounter--;
   \   0000004E   01F8               MOVW    R31:R30, R17:R16
   \   00000050   8924               LDD     R18, Z+20
   \   00000052   8935               LDD     R19, Z+21
   \   00000054   5021               SUBI    R18, 1
   \   00000056   4030               SBCI    R19, 0
   \   00000058   8B24               STD     Z+20, R18
   \   0000005A   8B35               STD     Z+21, R19
    251          }
   \                     ??UdreInterruptHandler_2:
   \   0000005C   01DA               MOVW    R27:R26, R21:R20
   \   0000005E   9508               RET
    252          
    253          //-----------------------------------------------------------------------------------------------------

   \                                 In  segment CODE, align 2, keep-with-next
    254          void CUart::TxcInterruptHandler(void)
   \                     ??TxcInterruptHandler:
    255          {
   \   00000000   2F3B               MOV     R19, R27
   \   00000002   2F4A               MOV     R20, R26
    256              *m_UCSRB &= ~((1 << TXCIE0));
   \   00000004   01F8               MOVW    R31:R30, R17:R16
   \   00000006   81A6               LDD     R26, Z+6
   \   00000008   81B7               LDD     R27, Z+7
   \   0000000A   912C               LD      R18, X
   \   0000000C   7B2F               ANDI    R18, 0xBF
   \   0000000E   932C               ST      X, R18
    257          //    *m_UCSRB &= ~((1 << TXEN0) | (1 << TXCIE0));
    258          
    259          //    if (m_rs485ddr)//debag//
    260          //    {
    261          //        Rs485RtsOff();
    262          //    }
    263          //    *m_UCSRA |= (1 << RXC0);
    264          //    *m_UCSRB |= (1 << RXEN0) | (1 << RXCIE0);
    265              m_bfFrameIsSended = 1;
   \   00000010   01F8               MOVW    R31:R30, R17:R16
   \   00000012   E021               LDI     R18, 1
   \   00000014   A723               STD     Z+43, R18
    266              return;
   \   00000016   2FA4               MOV     R26, R20
   \   00000018   2FB3               MOV     R27, R19
   \   0000001A   9508               RET
    267          }
    268          
    269          //-----------------------------------------------------------------------------------------------------

   \                                 In  segment CODE, align 2, keep-with-next
    270          void CUart::RecvInterruptHandler(void)
   \                     ??RecvInterruptHandler:
    271          {
   \   00000000   ........           CALL    ?PROLOGUE4_L09
    272              // ďđîěĺćóňî÷íűé áóôĺđ ďđč¸ěŕ ďĺđĺďîëíĺí?
    273              if (m_nuiRxBuffByteCounter >=
    274                      UART_INTERMEDIATE_BUFF_LENGTH)
   \   00000004   01F8               MOVW    R31:R30, R17:R16
   \   00000006   8D80               LDD     R24, Z+24
   \   00000008   8D91               LDD     R25, Z+25
   \   0000000A   9740               SBIW    R25:R24, 16
   \   0000000C   F038               BRCS    ??RecvInterruptHandler_1
    275              {
    276                  m_bfRxBuffOverflow = 1;
   \   0000000E   01F8               MOVW    R31:R30, R17:R16
   \   00000010   E021               LDI     R18, 1
   \   00000012   A724               STD     Z+44, R18
    277                  // íĺ číęđĺěĺíňčđóĺě pucUsartRxBuff, ÷ňîáű íĺ âűéňč çŕ ăđŕíčöű áóôĺđŕ.
    278                  m_bfByteIsReceived = 1;
   \   00000014   01F8               MOVW    R31:R30, R17:R16
   \   00000016   E021               LDI     R18, 1
   \   00000018   A722               STD     Z+42, R18
   \   0000001A   C013               RJMP    ??RecvInterruptHandler_2
    279              }
    280              else
    281              {
    282          //        m_puiRxBuffer[m_nuiRxBuffByteCounter++] = *m_UDR;
    283          //        uint8_t uiTempUdr = *m_UDR;
    284          //        if (uiTempUdr != 0)
    285          //        {
    286          //            uiTempUdr = uiTempUdr;
    287          //        }
    288          //        m_auiIntermediateBuff[m_nuiRxBuffByteCounter++] = uiTempUdr;
    289                  m_auiIntermediateBuff[m_nuiRxBuffByteCounter++] = *m_UDR;
   \                     ??RecvInterruptHandler_1:
   \   0000001C   01F8               MOVW    R31:R30, R17:R16
   \   0000001E   8D20               LDD     R18, Z+24
   \   00000020   8D31               LDD     R19, Z+25
   \   00000022   01C9               MOVW    R25:R24, R19:R18
   \   00000024   9601               ADIW    R25:R24, 1
   \   00000026   01F8               MOVW    R31:R30, R17:R16
   \   00000028   8F80               STD     Z+24, R24
   \   0000002A   8F91               STD     Z+25, R25
   \   0000002C   01F8               MOVW    R31:R30, R17:R16
   \   0000002E   85A2               LDD     R26, Z+10
   \   00000030   85B3               LDD     R27, Z+11
   \   00000032   914C               LD      R20, X
   \   00000034   01F8               MOVW    R31:R30, R17:R16
   \   00000036   0FE2               ADD     R30, R18
   \   00000038   1FF3               ADC     R31, R19
   \   0000003A   8F42               STD     Z+26, R20
    290                  m_bfByteIsReceived = 1;
   \   0000003C   01F8               MOVW    R31:R30, R17:R16
   \   0000003E   E021               LDI     R18, 1
   \   00000040   A722               STD     Z+42, R18
    291              }
    292          }
   \                     ??RecvInterruptHandler_2:
   \   00000042   E0E4               LDI     R30, 4
   \   00000044   ........           JMP     ?EPILOGUE_B4_L09
    293          
    294          ////-----------------------------------------------------------------------------------------------------
    295          //// Ďđĺđűâŕíčĺ ďî ďóńňîěó đĺăčńňđó äŕííűő UDR
    296          //#pragma vector = USART0_UDRE_vect
    297          //__interrupt void SIG_UART0_DATA(void)
    298          //{
    299          //    CPlatform::m_pxUart0 -> UdreInterruptHandler();
    300          //}
    301          //
    302          ////-----------------------------------------------------------------------------------------------------
    303          //// Ďđĺđűâŕíčĺ ďî çŕâĺđřĺíčţ ďĺđĺäŕ÷č UART
    304          //#pragma vector = USART0_TX_vect
    305          //__interrupt void SIG_UART0_TXC(void)
    306          //{
    307          //    CPlatform::m_pxUart0 -> TxcInterruptHandler();
    308          //}
    309          //
    310          ////-----------------------------------------------------------------------------------------------------
    311          //// Ďđĺđűâŕíčĺ ďî çŕâĺđřĺíčţ ďđčĺěŕ UART
    312          //#pragma vector = USART0_RX_vect
    313          //__interrupt void SIG_UART0_RECV(void)
    314          //{
    315          //    CPlatform::m_pxUart0 -> RecvInterruptHandler();
    316          //}
    317          
    318          //-----------------------------------------------------------------------------------------------------
    319          // Ďđĺđűâŕíčĺ ďî ďóńňîěó đĺăčńňđó äŕííűő UDR
    320          #pragma vector = USART1_UDRE_vect

   \                                 In  segment CODE, align 2, keep-with-next
    321          __interrupt void SIG_UART1_DATA(void)
   \                     ??SIG_UART1_DATA:
    322          {
   \   00000000   93FA               ST      -Y, R31
   \   00000002   93EA               ST      -Y, R30
   \   00000004   937A               ST      -Y, R23
   \   00000006   936A               ST      -Y, R22
   \   00000008   935A               ST      -Y, R21
   \   0000000A   934A               ST      -Y, R20
   \   0000000C   933A               ST      -Y, R19
   \   0000000E   932A               ST      -Y, R18
   \   00000010   931A               ST      -Y, R17
   \   00000012   930A               ST      -Y, R16
   \   00000014   B76F               IN      R22, 0x3F
   \   00000016   B77B               IN      R23, 0x3B
    323              CPlatform::m_pxUart1 -> UdreInterruptHandler();
   \   00000018   9100....           LDS     R16, ??m_pxUart1
   \   0000001C   9110....           LDS     R17, (??m_pxUart1 + 1)
   \   00000020   ....               RCALL   ??UdreInterruptHandler
    324          }
   \   00000022   BF7B               OUT     0x3B, R23
   \   00000024   BF6F               OUT     0x3F, R22
   \   00000026   9109               LD      R16, Y+
   \   00000028   9119               LD      R17, Y+
   \   0000002A   9129               LD      R18, Y+
   \   0000002C   9139               LD      R19, Y+
   \   0000002E   9149               LD      R20, Y+
   \   00000030   9159               LD      R21, Y+
   \   00000032   9169               LD      R22, Y+
   \   00000034   9179               LD      R23, Y+
   \   00000036   91E9               LD      R30, Y+
   \   00000038   91F9               LD      R31, Y+
   \   0000003A   9518               RETI
    325          
    326          //-----------------------------------------------------------------------------------------------------
    327          // Ďđĺđűâŕíčĺ ďî çŕâĺđřĺíčţ ďĺđĺäŕ÷č UART
    328          #pragma vector = USART1_TX_vect

   \                                 In  segment CODE, align 2, keep-with-next
    329          __interrupt void SIG_UART1_TXC(void)
   \                     ??SIG_UART1_TXC:
    330          {
   \   00000000   93FA               ST      -Y, R31
   \   00000002   93EA               ST      -Y, R30
   \   00000004   936A               ST      -Y, R22
   \   00000006   935A               ST      -Y, R21
   \   00000008   934A               ST      -Y, R20
   \   0000000A   933A               ST      -Y, R19
   \   0000000C   932A               ST      -Y, R18
   \   0000000E   931A               ST      -Y, R17
   \   00000010   930A               ST      -Y, R16
   \   00000012   B75F               IN      R21, 0x3F
   \   00000014   B76B               IN      R22, 0x3B
    331              CPlatform::m_pxUart1 -> TxcInterruptHandler();
   \   00000016   9100....           LDS     R16, ??m_pxUart1
   \   0000001A   9110....           LDS     R17, (??m_pxUart1 + 1)
   \   0000001E   ....               RCALL   ??TxcInterruptHandler
    332          }
   \   00000020   BF6B               OUT     0x3B, R22
   \   00000022   BF5F               OUT     0x3F, R21
   \   00000024   9109               LD      R16, Y+
   \   00000026   9119               LD      R17, Y+
   \   00000028   9129               LD      R18, Y+
   \   0000002A   9139               LD      R19, Y+
   \   0000002C   9149               LD      R20, Y+
   \   0000002E   9159               LD      R21, Y+
   \   00000030   9169               LD      R22, Y+
   \   00000032   91E9               LD      R30, Y+
   \   00000034   91F9               LD      R31, Y+
   \   00000036   9518               RETI
    333          
    334          //-----------------------------------------------------------------------------------------------------
    335          // Ďđĺđűâŕíčĺ ďî çŕâĺđřĺíčţ ďđčĺěŕ UART
    336          #pragma vector = USART1_RX_vect

   \                                 In  segment CODE, align 2, keep-with-next
    337          __interrupt void SIG_UART1_RECV(void)
   \                     ??SIG_UART1_RECV:
    338          {
   \   00000000   93FA               ST      -Y, R31
   \   00000002   93EA               ST      -Y, R30
   \   00000004   920A               ST      -Y, R0
   \   00000006   936A               ST      -Y, R22
   \   00000008   935A               ST      -Y, R21
   \   0000000A   934A               ST      -Y, R20
   \   0000000C   933A               ST      -Y, R19
   \   0000000E   932A               ST      -Y, R18
   \   00000010   931A               ST      -Y, R17
   \   00000012   930A               ST      -Y, R16
   \   00000014   B75F               IN      R21, 0x3F
   \   00000016   B76B               IN      R22, 0x3B
    339              CPlatform::m_pxUart1 -> RecvInterruptHandler();
   \   00000018   9100....           LDS     R16, ??m_pxUart1
   \   0000001C   9110....           LDS     R17, (??m_pxUart1 + 1)
   \   00000020   ....               RCALL   ??RecvInterruptHandler
    340          }
   \   00000022   BF6B               OUT     0x3B, R22
   \   00000024   BF5F               OUT     0x3F, R21
   \   00000026   9109               LD      R16, Y+
   \   00000028   9119               LD      R17, Y+
   \   0000002A   9129               LD      R18, Y+
   \   0000002C   9139               LD      R19, Y+
   \   0000002E   9149               LD      R20, Y+
   \   00000030   9159               LD      R21, Y+
   \   00000032   9169               LD      R22, Y+
   \   00000034   9009               LD      R0, Y+
   \   00000036   91E9               LD      R30, Y+
   \   00000038   91F9               LD      R31, Y+
   \   0000003A   9518               RETI
    341          
    342          //-----------------------------------------------------------------------------------------------------
    343          
    344          
    345          
    346          //----------------------------------------- EEPROM ----------------------------------------------------------------

   \                                 In  segment NEAR_Z, align 1, keep-with-next, root
   \   00000000                      REQUIRE `?<Segment init: NEAR_Z>`
    347          uint8_t* CEeprom::m_puiBuffer;
   \                     ??m_puiBuffer:
   \   00000000                      DS8 2

   \                                 In  segment NEAR_Z, align 1, keep-with-next, root
   \   00000000                      REQUIRE `?<Segment init: NEAR_Z>`
    348          uint16_t CEeprom::m_uiAddress;
   \                     ??m_uiAddress:
   \   00000000                      DS8 2

   \                                 In  segment NEAR_Z, align 1, keep-with-next, root
   \   00000000                      REQUIRE `?<Segment init: NEAR_Z>`
    349          uint16_t CEeprom::m_nuiBufferByteCounter;
   \                     ??m_nuiBufferByteCounter:
   \   00000000                      DS8 2

   \                                 In  segment NEAR_Z, align 1, keep-with-next, root
   \   00000000                      REQUIRE `?<Segment init: NEAR_Z>`
    350          uint16_t CEeprom::m_uiLength;
   \                     ??m_uiLength:
   \   00000000                      DS8 2

   \                                 In  segment NEAR_Z, align 1, keep-with-next, root
   \   00000000                      REQUIRE `?<Segment init: NEAR_Z>`
    351          bool CEeprom::m_bBufferIsWrited;
   \                     ??m_bBufferIsWrited:
   \   00000000                      DS8 1
    352          
    353          //-----------------------------------------------------------------------------------------------------

   \                                 In  segment CODE, align 2, keep-with-next
    354          CEeprom::CEeprom()
   \                     ??CEeprom:
    355          {
   \   00000000   ....               LDI     R18, LOW(??__vtbl_2)
   \   00000002   ....               LDI     R19, (??__vtbl_2) >> 8
   \   00000004   01F8               MOVW    R31:R30, R17:R16
   \   00000006   8320               ST      Z, R18
   \   00000008   8331               STD     Z+1, R19
    356          
    357          }
   \   0000000A   9508               RET
    358          
    359          //-----------------------------------------------------------------------------------------------------

   \                                 In  segment CODE, align 2, keep-with-next
    360          CEeprom::~CEeprom()
   \                     `?~CEeprom`:
    361          {
   \   00000000   939A               ST      -Y, R25
   \   00000002   938A               ST      -Y, R24
   \   00000004   01C8               MOVW    R25:R24, R17:R16
   \   00000006   2F08               MOV     R16, R24
   \   00000008   2B09               OR      R16, R25
   \   0000000A   F029               BREQ    `?~CEeprom_1`
   \   0000000C   FB20               BST     R18, 0
   \   0000000E   F41E               BRTC    `?~CEeprom_1`
    362          
    363          }
   \   00000010   018C               MOVW    R17:R16, R25:R24
   \   00000012   ........           CALL    `??operator delete`
   \                     `?~CEeprom_1`:
   \   00000016   9189               LD      R24, Y+
   \   00000018   9199               LD      R25, Y+
   \   0000001A   9508               RET
    364          
    365          //-----------------------------------------------------------------------------------------------------

   \                                 In  segment CODE, align 2, keep-with-next
    366          uint8_t CEeprom::Read(uint8_t *pucRamDestination, uint16_t uiEepromSourse, uint16_t nuiLength)
   \                     ??Read_1:
    367          {
   \   00000000   2F79               MOV     R23, R25
   \   00000002   2E08               MOV     R0, R24
   \   00000004   01F8               MOVW    R31:R30, R17:R16
   \   00000006   01C9               MOVW    R25:R24, R19:R18
    368              while (nuiLength != 0)
   \                     ??Read_10:
   \   00000008   2F04               MOV     R16, R20
   \   0000000A   2B05               OR      R16, R21
   \   0000000C   F041               BREQ    ??Read_11
    369              {
    370                  *pucRamDestination++ = ReadByte(uiEepromSourse++);
   \   0000000E   018C               MOVW    R17:R16, R25:R24
   \   00000010   ....               RCALL   ??ReadByte
   \   00000012   9601               ADIW    R25:R24, 1
   \   00000014   8300               ST      Z, R16
   \   00000016   9631               ADIW    R31:R30, 1
    371                  nuiLength--;
   \   00000018   5041               SUBI    R20, 1
   \   0000001A   4050               SBCI    R21, 0
   \   0000001C   CFF5               RJMP    ??Read_10
    372              }
    373              return 1;
   \                     ??Read_11:
   \   0000001E   E001               LDI     R16, 1
   \   00000020   2D80               MOV     R24, R0
   \   00000022   2F97               MOV     R25, R23
   \   00000024   9508               RET
    374          }
    375          
    376          //-----------------------------------------------------------------------------------------------------

   \                                 In  segment CODE, align 2, keep-with-next
    377          uint8_t CEeprom::Write(uint16_t uiEepromDestination, uint8_t *pucRamSourse, uint16_t nuiLength)
   \                     ??Write_1:
    378          {
   \   00000000   ........           CALL    ?PROLOGUE4_L09
   \   00000004   0108               MOVW    R1:R0, R17:R16
   \   00000006   01F9               MOVW    R31:R30, R19:R18
   \   00000008   01CA               MOVW    R25:R24, R21:R20
    379              while (nuiLength != 0)
   \                     ??Write_2:
   \   0000000A   2F08               MOV     R16, R24
   \   0000000C   2B09               OR      R16, R25
   \   0000000E   F061               BREQ    ??Write_3
    380              {
    381                  WriteByte((uiEepromDestination++), (*pucRamSourse++));
   \   00000010   01DF               MOVW    R27:R26, R31:R30
   \   00000012   01FD               MOVW    R31:R30, R27:R26
   \   00000014   9631               ADIW    R31:R30, 1
   \   00000016   912C               LD      R18, X
   \   00000018   0180               MOVW    R17:R16, R1:R0
   \   0000001A   ....               RCALL   ??WriteByte
   \   0000001C   E001               LDI     R16, 1
   \   0000001E   0E00               ADD     R0, R16
   \   00000020   E000               LDI     R16, 0
   \   00000022   1E10               ADC     R1, R16
    382                  nuiLength--;
   \   00000024   9701               SBIW    R25:R24, 1
   \   00000026   CFF1               RJMP    ??Write_2
    383              }
    384              return 1;
   \                     ??Write_3:
   \   00000028   E001               LDI     R16, 1
   \   0000002A   E0E4               LDI     R30, 4
   \   0000002C   ........           JMP     ?EPILOGUE_B4_L09
    385          }
    386          
    387          //-----------------------------------------------------------------------------------------------------

   \                                 In  segment CODE, align 2, keep-with-next
    388          uint8_t CEeprom::ReadByte(uint16_t ui16EepromSourse)
   \                     ??ReadByte:
    389          {
   \   00000000   0198               MOVW    R19:R18, R17:R16
    390              __watchdog_reset();
   \   00000002   95A8               WDR
    391              while (BitIsSet(EECR, EEWE))
   \                     ??ReadByte_1:
   \   00000004   9BE1               SBIS    0x1C, 0x01
   \   00000006   C002               RJMP    ??ReadByte_2
    392              {
    393                  __watchdog_reset();
   \   00000008   95A8               WDR
   \   0000000A   CFFC               RJMP    ??ReadByte_1
    394              }
    395              __disable_interrupt();
   \                     ??ReadByte_2:
   \   0000000C   94F8               CLI
    396              EEAR = ui16EepromSourse;
   \   0000000E   BB3F               OUT     0x1F, R19
   \   00000010   BB2E               OUT     0x1E, R18
    397              SetBit(EECR, EERE);
   \   00000012   9AE0               SBI     0x1C, 0x00
    398              __enable_interrupt();
   \   00000014   9478               SEI
    399              return EEDR;
   \   00000016   B30D               IN      R16, 0x1D
   \   00000018   9508               RET
   \   0000001A                      REQUIRE _A_EECR
   \   0000001A                      REQUIRE _A_EEAR
   \   0000001A                      REQUIRE _A_EEDR
    400          }
    401          
    402          //-----------------------------------------------------------------------------------------------------

   \                                 In  segment CODE, align 2, keep-with-next
    403          void CEeprom::WriteByte(uint16_t ui16EepromDestination, uint8_t ucData)
   \                     ??WriteByte:
    404          {
   \   00000000   01A8               MOVW    R21:R20, R17:R16
   \   00000002   2F62               MOV     R22, R18
    405              if (ReadByte(ui16EepromDestination) != ucData)
   \   00000004   018A               MOVW    R17:R16, R21:R20
   \   00000006   ....               RCALL   ??ReadByte
   \   00000008   1706               CP      R16, R22
   \   0000000A   F061               BREQ    ??WriteByte_1
    406              {
    407                  __watchdog_reset();
   \   0000000C   95A8               WDR
    408                  while (BitIsSet(EECR, EEWE))
   \                     ??WriteByte_2:
   \   0000000E   9BE1               SBIS    0x1C, 0x01
   \   00000010   C002               RJMP    ??WriteByte_3
    409                  {
    410                      __watchdog_reset();
   \   00000012   95A8               WDR
   \   00000014   CFFC               RJMP    ??WriteByte_2
    411                  }
    412                  __disable_interrupt();
   \                     ??WriteByte_3:
   \   00000016   94F8               CLI
    413                  EEAR = ui16EepromDestination;
   \   00000018   BB5F               OUT     0x1F, R21
   \   0000001A   BB4E               OUT     0x1E, R20
    414                  EEDR = ucData;
   \   0000001C   BB6D               OUT     0x1D, R22
    415                  EECR |= (1<<EEMWE);
   \   0000001E   9AE2               SBI     0x1C, 0x02
    416                  EECR |= (1<<EEWE);
   \   00000020   9AE1               SBI     0x1C, 0x01
    417                  __enable_interrupt();
   \   00000022   9478               SEI
    418              }
    419          }
   \                     ??WriteByte_1:
   \   00000024   9508               RET
   \   00000026                      REQUIRE _A_EECR
   \   00000026                      REQUIRE _A_EEAR
   \   00000026                      REQUIRE _A_EEDR
    420          
    421          //-----------------------------------------------------------------------------------------------------

   \                                 In  segment CODE, align 2, keep-with-next
    422          void CEeprom::WriteInterrupt(uint16_t uiEepromDestination, uint8_t *pucRamSourse, uint16_t nuiLength)
   \                     ??WriteInterrupt:
    423          {
   \   00000000   ........           CALL    ?PROLOGUE6_L09
   \   00000004                      REQUIRE ?Register_R4_is_cg_reg
   \   00000004                      REQUIRE ?Register_R5_is_cg_reg
   \   00000004   01C8               MOVW    R25:R24, R17:R16
   \   00000006   0129               MOVW    R5:R4, R19:R18
   \   00000008   01DA               MOVW    R27:R26, R21:R20
    424              SetAddress(uiEepromDestination);
   \   0000000A   018C               MOVW    R17:R16, R25:R24
   \   0000000C   ........           CALL    ??SetAddress
    425              SetBufferPointer(pucRamSourse);
   \   00000010   0182               MOVW    R17:R16, R5:R4
   \   00000012   ........           CALL    ??SetBufferPointer
    426              SetLength(nuiLength);
   \   00000016   018D               MOVW    R17:R16, R27:R26
   \   00000018   ........           CALL    ??SetLength
    427              SetBufferByteCounter(0);
   \   0000001C   E000               LDI     R16, 0
   \   0000001E   E010               LDI     R17, 0
   \   00000020   ........           CALL    ??SetBufferByteCounter
    428          }
   \   00000024   E0E6               LDI     R30, 6
   \   00000026   ........           JMP     ?EPILOGUE_B6_L09
    429          
    430          //-----------------------------------------------------------------------------------------------------
    431          // Ďđĺđűâŕíčĺ ďî çŕâĺđřĺíčţ çŕďčńč.

   \                                 In  segment CODE, align 2, keep-with-next
    432          void CEeprom::ReadyInterruptHandler(void)
   \                     ??ReadyInterruptHandler:
    433          {
   \   00000000   ........           CALL    ?PROLOGUE4_L09
    434              if (GetBufferByteCounter() < GetLength())
   \   00000004   ........           CALL    ??GetBufferByteCounter
   \   00000008   01C8               MOVW    R25:R24, R17:R16
   \   0000000A   ........           CALL    ??GetLength
   \   0000000E   1780               CP      R24, R16
   \   00000010   0791               CPC     R25, R17
   \   00000012   F540               BRCC    ??ReadyInterruptHandler_1
    435              {
    436                  EEAR = GetAddress();
   \   00000014   ........           CALL    ??GetAddress
   \   00000018   BB1F               OUT     0x1F, R17
   \   0000001A   BB0E               OUT     0x1E, R16
    437                  SetAddress(GetAddress() + 1);
   \   0000001C   ........           CALL    ??GetAddress
   \   00000020   5F0F               SUBI    R16, 255
   \   00000022   4F1F               SBCI    R17, 255
   \   00000024   ........           CALL    ??SetAddress
    438                  EECR |= BIT(EERE);
   \   00000028   9AE0               SBI     0x1C, 0x00
    439          
    440                  if (EEDR != GetBufferPointer()[GetBufferByteCounter()])
   \   0000002A   B38D               IN      R24, 0x1D
   \   0000002C   ........           CALL    ??GetBufferPointer
   \   00000030   01D8               MOVW    R27:R26, R17:R16
   \   00000032   ........           CALL    ??GetBufferByteCounter
   \   00000036   0FA0               ADD     R26, R16
   \   00000038   1FB1               ADC     R27, R17
   \   0000003A   910C               LD      R16, X
   \   0000003C   1780               CP      R24, R16
   \   0000003E   F059               BREQ    ??ReadyInterruptHandler_2
    441                  {
    442                      EEDR = GetBufferPointer()[GetBufferByteCounter()];
   \   00000040   ........           CALL    ??GetBufferPointer
   \   00000044   01D8               MOVW    R27:R26, R17:R16
   \   00000046   ........           CALL    ??GetBufferByteCounter
   \   0000004A   0FA0               ADD     R26, R16
   \   0000004C   1FB1               ADC     R27, R17
   \   0000004E   910C               LD      R16, X
   \   00000050   BB0D               OUT     0x1D, R16
    443                      EECR |= BIT(EEMWE);
   \   00000052   9AE2               SBI     0x1C, 0x02
    444                      EECR |= BIT(EEWE);
   \   00000054   9AE1               SBI     0x1C, 0x01
    445                  }
    446          
    447                  SetBufferByteCounter(GetBufferByteCounter() + 1);
   \                     ??ReadyInterruptHandler_2:
   \   00000056   ........           CALL    ??GetBufferByteCounter
   \   0000005A   5F0F               SUBI    R16, 255
   \   0000005C   4F1F               SBCI    R17, 255
   \   0000005E   ........           CALL    ??SetBufferByteCounter
   \   00000062   C009               RJMP    ??ReadyInterruptHandler_3
    448              }
    449              else
    450              {
    451                  ReadyInterruptDisaable();
   \                     ??ReadyInterruptHandler_1:
   \   00000064   ........           CALL    ??ReadyInterruptDisaable
    452                  EEAR   = 0x0000;			// Îáíóë˙ĺě äë˙ áĺçîďŕńíîńňč
   \   00000068   E000               LDI     R16, 0
   \   0000006A   E010               LDI     R17, 0
   \   0000006C   BB1F               OUT     0x1F, R17
   \   0000006E   BB0E               OUT     0x1E, R16
    453                  SetBufferIsWrited(true);
   \   00000070   E001               LDI     R16, 1
   \   00000072   ........           CALL    ??SetBufferIsWrited
    454              }
    455          }
   \                     ??ReadyInterruptHandler_3:
   \   00000076   E0E4               LDI     R30, 4
   \   00000078   ........           JMP     ?EPILOGUE_B4_L09
   \   0000007C                      REQUIRE _A_EEAR
   \   0000007C                      REQUIRE _A_EECR
   \   0000007C                      REQUIRE _A_EEDR
    456          
    457          //-----------------------------------------------------------------------------------------------------
    458          // Ďđĺđűâŕíčĺ ďî çŕâĺđřĺíčţ çŕďčńč.
    459          #pragma vector = EE_READY_vect

   \                                 In  segment CODE, align 2, keep-with-next
    460          __interrupt void EEPROM_EE_READY(void)
   \                     ??EEPROM_EE_READY:
    461          {
   \   00000000   939A               ST      -Y, R25
   \   00000002   938A               ST      -Y, R24
   \   00000004   93FA               ST      -Y, R31
   \   00000006   93EA               ST      -Y, R30
   \   00000008   923A               ST      -Y, R3
   \   0000000A   922A               ST      -Y, R2
   \   0000000C   921A               ST      -Y, R1
   \   0000000E   920A               ST      -Y, R0
   \   00000010   937A               ST      -Y, R23
   \   00000012   936A               ST      -Y, R22
   \   00000014   935A               ST      -Y, R21
   \   00000016   934A               ST      -Y, R20
   \   00000018   933A               ST      -Y, R19
   \   0000001A   932A               ST      -Y, R18
   \   0000001C   931A               ST      -Y, R17
   \   0000001E   930A               ST      -Y, R16
   \   00000020   B78F               IN      R24, 0x3F
   \   00000022   B79B               IN      R25, 0x3B
    462              CEeprom::ReadyInterruptHandler();
   \   00000024   ....               RCALL   ??ReadyInterruptHandler
    463          }
   \   00000026   BF9B               OUT     0x3B, R25
   \   00000028   BF8F               OUT     0x3F, R24
   \   0000002A   9109               LD      R16, Y+
   \   0000002C   9119               LD      R17, Y+
   \   0000002E   9129               LD      R18, Y+
   \   00000030   9139               LD      R19, Y+
   \   00000032   9149               LD      R20, Y+
   \   00000034   9159               LD      R21, Y+
   \   00000036   9169               LD      R22, Y+
   \   00000038   9179               LD      R23, Y+
   \   0000003A   9009               LD      R0, Y+
   \   0000003C   9019               LD      R1, Y+
   \   0000003E   9029               LD      R2, Y+
   \   00000040   9039               LD      R3, Y+
   \   00000042   91E9               LD      R30, Y+
   \   00000044   91F9               LD      R31, Y+
   \   00000046   9189               LD      R24, Y+
   \   00000048   9199               LD      R25, Y+
   \   0000004A   9518               RETI
    464          
    465          //-----------------------------------------------------------------------------------------------------
    466          
    467          
    468          
    469          
    470          
    471          
    472          
    473          //----------------------------------------- CSpi ----------------------------------------------------------------

   \                                 In  segment CODE, align 2, keep-with-next
    474          CSpi::CSpi()
   \                     ??CSpi:
    475          {
   \   00000000   ....               LDI     R18, LOW(??__vtbl_5)
   \   00000002   ....               LDI     R19, (??__vtbl_5) >> 8
   \   00000004   01F8               MOVW    R31:R30, R17:R16
   \   00000006   8320               ST      Z, R18
   \   00000008   8331               STD     Z+1, R19
    476          
    477          }
   \   0000000A   9508               RET
    478          
    479          //-----------------------------------------------------------------------------------------------------

   \                                 In  segment CODE, align 2, keep-with-next
    480          CSpi::~CSpi()
   \                     `?~CSpi`:
    481          {
   \   00000000   939A               ST      -Y, R25
   \   00000002   938A               ST      -Y, R24
   \   00000004   01C8               MOVW    R25:R24, R17:R16
   \   00000006   2F08               MOV     R16, R24
   \   00000008   2B09               OR      R16, R25
   \   0000000A   F029               BREQ    `?~CSpi_1`
   \   0000000C   FB20               BST     R18, 0
   \   0000000E   F41E               BRTC    `?~CSpi_1`
    482          
    483          }
   \   00000010   018C               MOVW    R17:R16, R25:R24
   \   00000012   ........           CALL    `??operator delete`
   \                     `?~CSpi_1`:
   \   00000016   9189               LD      R24, Y+
   \   00000018   9199               LD      R25, Y+
   \   0000001A   9508               RET
    484          
    485          //-----------------------------------------------------------------------------------------------------

   \                                 In  segment CODE, align 2, keep-with-next
    486          void CSpi::Init(void)
   \                     ??Init_1:
    487          {
    488              // Master mode.
    489          //    SPCR = (BIT(MSTR) | BIT(SPR1));		// master,  115200.
    490              SPCR = (BIT(MSTR) | BIT(SPR1) | BIT(SPR0));		// master,  57600.
   \   00000000   E103               LDI     R16, 19
   \   00000002   B90D               OUT     0x0D, R16
    491          
    492              DDRB |= (Bit(MOSI) | Bit(SCK));		// PB1 (SCK), PB2 (MOSI) - íŕ âűőîä
   \   00000004   B307               IN      R16, 0x17
   \   00000006   6006               ORI     R16, 0x06
   \   00000008   BB07               OUT     0x17, R16
    493          //    PORTB |= (Bit(MOSI) | Bit(SCK));
    494          
    495              SPCR  |= BIT(SPE);			// Ŕęňčâčđóĺě číňĺđôĺéń SPI
   \   0000000A   9A6E               SBI     0x0D, 0x06
    496          };
   \   0000000C   9508               RET
   \   0000000E                      REQUIRE _A_SPCR
   \   0000000E                      REQUIRE _A_DDRB
    497          
    498          //-----------------------------------------------------------------------------------------------------

   \                                 In  segment CODE, align 2, keep-with-next
    499          void CSpi::Reset(void)
   \                     ??Reset_1:
    500          {
    501          //    m_nuiBuffByteCounter = 0;
    502          //    m_uiReceivedByteCounter = 0;
    503          //    m_bfByteIsReceived = 0;
    504          //    m_bfByteIsTransmited = 0;
    505          //    m_bfDataExchangeInProgress = 0;
    506          //    m_bfDataExchangeIsOccur = 0;
    507          //    m_bfRxBuffOverflow = 0;
    508          //    m_uiExchangeByte = 0;
    509          }
   \   00000000   9508               RET
    510          
    511          //-----------------------------------------------------------------------------------------------------

   \                                 In  segment CODE, align 2, keep-with-next
    512          void CSpi::Enable(void)
   \                     ??Enable_1:
    513          {
    514              // đŕçđĺřčě SPI.
    515              SPCR  |= BIT(SPE);
   \   00000000   9A6E               SBI     0x0D, 0x06
    516          }
   \   00000002   9508               RET
   \   00000004                      REQUIRE _A_SPCR
    517          
    518          //-----------------------------------------------------------------------------------------------------

   \                                 In  segment CODE, align 2, keep-with-next
    519          void CSpi::Disable(void)
   \                     ??Disable_1:
    520          {
    521              SPCR &= ~BIT(SPE);
   \   00000000   986E               CBI     0x0D, 0x06
    522          }
   \   00000002   9508               RET
   \   00000004                      REQUIRE _A_SPCR
    523          
    524          //-----------------------------------------------------------------------------------------------------

   \                                 In  segment CODE, align 2, keep-with-next
    525          uint8_t CSpi::Exchange(uint8_t uiData)
   \                     ??Exchange:
    526          {
   \   00000000   939A               ST      -Y, R25
   \   00000002   938A               ST      -Y, R24
   \   00000004   2F90               MOV     R25, R16
    527              delay_us(30);
   \   00000006   E406               LDI     R16, 70
   \   00000008   950A               DEC     R16
   \   0000000A   F7F1               BRNE    $-2
    528              SPDR = uiData;
   \   0000000C   B99F               OUT     0x0F, R25
    529          
    530              uint8_t uiGuardCounter = 0;
   \   0000000E   E080               LDI     R24, 0
    531          
    532              while(!(SPSR & BIT(SPIF)))		// Îćčäŕíčĺ ęîíöŕ ďĺđĺäŕ÷č
   \                     ??Exchange_2:
   \   00000010   9977               SBIC    0x0E, 0x07
   \   00000012   C008               RJMP    ??Exchange_3
    533              {
    534                  CPlatform::WatchdogReset();
   \   00000014   ........           CALL    ??WatchdogReset
    535          
    536                  if (uiGuardCounter < 100)
   \   00000018   3684               CPI     R24, 100
   \   0000001A   F410               BRCC    ??Exchange_4
    537                  {
    538                      uiGuardCounter++;
   \   0000001C   9583               INC     R24
   \   0000001E   CFF8               RJMP    ??Exchange_2
    539                  }
    540                  else
    541                  {
    542                      return  SPDR;
   \                     ??Exchange_4:
   \   00000020   B10F               IN      R16, 0x0F
   \   00000022   C001               RJMP    ??Exchange_5
    543                  }
    544              };
    545          
    546              return  SPDR;
   \                     ??Exchange_3:
   \   00000024   B10F               IN      R16, 0x0F
   \                     ??Exchange_5:
   \   00000026   9189               LD      R24, Y+
   \   00000028   9199               LD      R25, Y+
   \   0000002A   9508               RET
   \   0000002C                      REQUIRE _A_SPDR
   \   0000002C                      REQUIRE _A_SPSR
    547          }
    548          
    549          //-----------------------------------------------------------------------------------------------------

   \                                 In  segment CODE, align 2, keep-with-next
    550          uint8_t CSpi::Exchange(uint8_t *puiDestination, uint8_t *pucSourse, uint16_t nuiLength)
   \                     ??Exchange_1:
    551          {
   \   00000000   ........           CALL    ?PROLOGUE8_L09
   \   00000004                      REQUIRE ?Register_R4_is_cg_reg
   \   00000004                      REQUIRE ?Register_R5_is_cg_reg
   \   00000004                      REQUIRE ?Register_R6_is_cg_reg
   \   00000004                      REQUIRE ?Register_R7_is_cg_reg
   \   00000004   0138               MOVW    R7:R6, R17:R16
   \   00000006   0129               MOVW    R5:R4, R19:R18
   \   00000008   01DA               MOVW    R27:R26, R21:R20
    552              if (nuiLength > BUFFER_LENGTH)
   \   0000000A   34A1               CPI     R26, 65
   \   0000000C   E000               LDI     R16, 0
   \   0000000E   07B0               CPC     R27, R16
   \   00000010   F010               BRCS    ??Exchange_6
    553              {
    554                  return 0;
   \   00000012   E000               LDI     R16, 0
   \   00000014   C011               RJMP    ??Exchange_7
    555              }
    556          
    557              for (uint16_t i = 0; i < nuiLength; i++)
   \                     ??Exchange_6:
   \   00000016   E080               LDI     R24, 0
   \   00000018   E090               LDI     R25, 0
   \                     ??Exchange_8:
   \   0000001A   178A               CP      R24, R26
   \   0000001C   079B               CPC     R25, R27
   \   0000001E   F458               BRCC    ??Exchange_9
    558              {
    559                  puiDestination[i] = Exchange(pucSourse[i]);
   \   00000020   01F2               MOVW    R31:R30, R5:R4
   \   00000022   0FE8               ADD     R30, R24
   \   00000024   1FF9               ADC     R31, R25
   \   00000026   8100               LD      R16, Z
   \   00000028   ....               RCALL   ??Exchange
   \   0000002A   01F3               MOVW    R31:R30, R7:R6
   \   0000002C   0FE8               ADD     R30, R24
   \   0000002E   1FF9               ADC     R31, R25
   \   00000030   8300               ST      Z, R16
    560              }
   \   00000032   9601               ADIW    R25:R24, 1
   \   00000034   CFF2               RJMP    ??Exchange_8
    561              return 1;
   \                     ??Exchange_9:
   \   00000036   E001               LDI     R16, 1
   \                     ??Exchange_7:
   \   00000038   E0E8               LDI     R30, 8
   \   0000003A   ........           JMP     ?EPILOGUE_B8_L09
    562          }
    563          
    564          //-----------------------------------------------------------------------------------------------------

   \                                 In  segment CODE, align 2, keep-with-next
    565          uint8_t CSpi::Read(uint8_t *puiDestination, uint16_t nuiLength)
   \                     ??Read_2:
    566          {
   \   00000000   01A8               MOVW    R21:R20, R17:R16
    567          
    568              return 1;
   \   00000002   E001               LDI     R16, 1
   \   00000004   9508               RET
    569          }
    570          //-----------------------------------------------------------------------------------------------------
    571          
    572          
    573          
    574          
    575          
    576          
    577          
    578          //-----------------------------------------------------------------------------------------------------
    579          // delay

   \                                 In  segment CODE, align 2, keep-with-next
    580          void delay_ms(uint16_t millisecs)
   \                     ??delay_ms:
   \                     ??delay_ms_1:
    581          {
    582              while(millisecs--)
   \   00000000   0198               MOVW    R19:R18, R17:R16
   \   00000002   0189               MOVW    R17:R16, R19:R18
   \   00000004   5001               SUBI    R16, 1
   \   00000006   4010               SBCI    R17, 0
   \   00000008   2B23               OR      R18, R19
   \   0000000A   F041               BREQ    ??delay_ms_2
    583              {
    584                  delay_us(1000);
   \   0000000C   ED25               LDI     R18, 213
   \   0000000E   E036               LDI     R19, 6
   \   00000010   5021               SUBI    R18, 1
   \   00000012   4030               SBCI    R19, 0
   \   00000014   F7E9               BRNE    $-4
   \   00000016   C000               RJMP    $+2
   \   00000018   0000               NOP
   \   0000001A   CFF2               RJMP    ??delay_ms_1
    585              }
    586          }
   \                     ??delay_ms_2:
   \   0000001C   9508               RET

   \                                 In  segment CODE, align 2, keep-with-next
    587          void delay_s(uint16_t secs)
   \                     ??delay_s:
   \                     ??delay_s_1:
    588          {
    589              while(secs--)
   \   00000000   0198               MOVW    R19:R18, R17:R16
   \   00000002   0189               MOVW    R17:R16, R19:R18
   \   00000004   5001               SUBI    R16, 1
   \   00000006   4010               SBCI    R17, 0
   \   00000008   2B23               OR      R18, R19
   \   0000000A   F051               BREQ    ??delay_s_2
    590              {
    591                  __delay_cycles(F_CPU);
   \   0000000C   EF4F               LDI     R20, 255
   \   0000000E   E75F               LDI     R21, 127
   \   00000010   E166               LDI     R22, 22
   \   00000012   5041               SUBI    R20, 1
   \   00000014   4050               SBCI    R21, 0
   \   00000016   4060               SBCI    R22, 0
   \   00000018   F7E1               BRNE    $-6
   \   0000001A   C000               RJMP    $+2
   \   0000001C   0000               NOP
   \   0000001E   CFF0               RJMP    ??delay_s_1
    592              }
    593          }
   \                     ??delay_s_2:
   \   00000020   9508               RET

   \                                 In  segment CODE, align 2, keep-with-next
    594          void delay_mins(uint16_t minutes)
   \                     ??delay_mins:
   \                     ??delay_mins_1:
    595          {
    596              while(minutes--)
   \   00000000   0198               MOVW    R19:R18, R17:R16
   \   00000002   0189               MOVW    R17:R16, R19:R18
   \   00000004   5001               SUBI    R16, 1
   \   00000006   4010               SBCI    R17, 0
   \   00000008   2B23               OR      R18, R19
   \   0000000A   F061               BREQ    ??delay_mins_2
    597              {
    598                  __delay_cycles(60*F_CPU);
   \   0000000C   EF4F               LDI     R20, 255
   \   0000000E   EF5F               LDI     R21, 255
   \   00000010   E664               LDI     R22, 100
   \   00000012   E074               LDI     R23, 4
   \   00000014   5041               SUBI    R20, 1
   \   00000016   4050               SBCI    R21, 0
   \   00000018   4060               SBCI    R22, 0
   \   0000001A   4070               SBCI    R23, 0
   \   0000001C   F7D9               BRNE    $-8
   \   0000001E   C000               RJMP    $+2
   \   00000020   0000               NOP
   \   00000022   CFEE               RJMP    ??delay_mins_1
    599              }
    600          }
   \                     ??delay_mins_2:
   \   00000024   9508               RET
    601          
    602          //-----------------------------------------------------------------------------------------------------

   \                                 In  segment NEAR_Z, align 1, keep-with-next, root
   \   00000000                      REQUIRE `?<Segment init: NEAR_Z>`
    603          uint16_t CPlatform::m_uiSystemTick;
   \                     ??m_uiSystemTick:
   \   00000000                      DS8 2

   \                                 In  segment NEAR_Z, align 1, keep-with-next, root
   \   00000000                      REQUIRE `?<Segment init: NEAR_Z>`
    604          uint8_t CPlatform::m_uiWatchDogStepID;
   \                     ??m_uiWatchDogStepID:
   \   00000000                      DS8 1
    605          //CUart* CPlatform::m_pxUart0;

   \                                 In  segment NEAR_Z, align 1, keep-with-next, root
   \   00000000                      REQUIRE `?<Segment init: NEAR_Z>`
    606          CUart* CPlatform::m_pxUart1;
   \                     ??m_pxUart1:
   \   00000000                      DS8 2
    607          
    608          //-----------------------------------------------------------------------------------------------------

   \                                 In  segment CODE, align 2, keep-with-next
    609          CPlatform::CPlatform()
   \                     ??CPlatform:
    610          {
   \   00000000   ....               LDI     R18, LOW(??__vtbl_3)
   \   00000002   ....               LDI     R19, (??__vtbl_3) >> 8
   \   00000004   01F8               MOVW    R31:R30, R17:R16
   \   00000006   8320               ST      Z, R18
   \   00000008   8331               STD     Z+1, R19
    611          
    612          }
   \   0000000A   9508               RET
    613          
    614          //-----------------------------------------------------------------------------------------------------

   \                                 In  segment CODE, align 2, keep-with-next
    615          CPlatform::~CPlatform()
   \                     `?~CPlatform`:
    616          {
   \   00000000   939A               ST      -Y, R25
   \   00000002   938A               ST      -Y, R24
   \   00000004   01C8               MOVW    R25:R24, R17:R16
   \   00000006   2F08               MOV     R16, R24
   \   00000008   2B09               OR      R16, R25
   \   0000000A   F029               BREQ    `?~CPlatform_1`
   \   0000000C   FB20               BST     R18, 0
   \   0000000E   F41E               BRTC    `?~CPlatform_1`
    617          
    618          }
   \   00000010   018C               MOVW    R17:R16, R25:R24
   \   00000012   ........           CALL    `??operator delete`
   \                     `?~CPlatform_1`:
   \   00000016   9189               LD      R24, Y+
   \   00000018   9199               LD      R25, Y+
   \   0000001A   9508               RET
    619          
    620          //-----------------------------------------------------------------------------------------------------

   \                                 In  segment CODE, align 2, keep-with-next
    621          void CPlatform::Init(void)
   \                     ??Init_2:
    622          {
    623              SystemTickInit();
   \   00000000   ....               RCALL   ??SystemTickInit
    624              StatusLedSetPinOutput();
   \   00000002   ........           CALL    ??StatusLedSetPinOutput
    625              TxLedSetPinOutput();
   \   00000006   ........           CALL    ??TxLedSetPinOutput
    626              TxLedOff();
   \   0000000A   ........           CALL    ??TxLedOff
    627              KeyOneSetPinInput();
   \   0000000E   ........           CALL    ??KeyOneSetPinInput
    628              KeyTwoSetPinInput();
   \   00000012   ........           CALL    ??KeyTwoSetPinInput
    629              KeyThreeSetPinInput();
   \   00000016   ........           CALL    ??KeyThreeSetPinInput
    630              ExternalKeySetPinInput();
   \   0000001A   ........           CALL    ??ExternalKeySetPinInput
    631              CPlatform::InterruptEnable();
   \   0000001E   ........           CALL    ??InterruptEnable
    632          }
   \   00000022   9508               RET
    633          
    634          // Ńčđĺíŕ
    635          //-----------------------------------------------------------------------------------------------------

   \                                 In  segment CODE, align 2, keep-with-next
    636          void CPlatform::BuzzerTimerFrequencySet(uint16_t uiFrequency)
   \                     ??BuzzerTimerFrequencySet:
    637          {
   \   00000000   ........           CALL    ?PROLOGUE4_L09
   \   00000004   01C8               MOVW    R25:R24, R17:R16
    638              unsigned short usCompareMatch;
    639          
    640              // half-period time.
    641              usCompareMatch = ((F_CPU / (2UL * uiFrequency)) - 1UL);
   \   00000006   01AC               MOVW    R21:R20, R25:R24
   \   00000008   E060               LDI     R22, 0
   \   0000000A   E070               LDI     R23, 0
   \   0000000C   0F44               LSL     R20
   \   0000000E   1F55               ROL     R21
   \   00000010   1F66               ROL     R22
   \   00000012   1F77               ROL     R23
   \   00000014   E000               LDI     R16, 0
   \   00000016   E810               LDI     R17, 128
   \   00000018   E720               LDI     R18, 112
   \   0000001A   E030               LDI     R19, 0
   \   0000001C   ........           CALL    ?UL_DIVMOD_L03
   \   00000020   5001               SUBI    R16, 1
   \   00000022   4010               SBCI    R17, 0
   \   00000024   01D8               MOVW    R27:R26, R17:R16
    642              // Ńđŕáŕňűâŕĺň ďî Top ńîâďŕäĺíčţ çíŕ÷ĺíč˙ â ICR3.
    643              // Ĺńëč Top ďî ńîâďŕäĺíčţ çíŕ÷ĺíč˙ â OCR3A, ňî íĺëüç˙ čńďîëüçîâŕňü COM3A âűâîä.
    644              ICR3 = usCompareMatch * 2;
   \   00000026   018D               MOVW    R17:R16, R27:R26
   \   00000028   0F00               LSL     R16
   \   0000002A   1F11               ROL     R17
   \   0000002C   9310....           STS     (_A_ICR3 + 1), R17
   \   00000030   9300....           STS     _A_ICR3, R16
    645              OCR3A = usCompareMatch;
   \   00000034   93B0....           STS     (_A_OCR3A + 1), R27
   \   00000038   93A0....           STS     _A_OCR3A, R26
    646              OCR3B = usCompareMatch;
   \   0000003C   93B0....           STS     (_A_OCR3B + 1), R27
   \   00000040   93A0....           STS     _A_OCR3B, R26
    647          
    648              // Fast PWM Mode Top OCRn, prescaller - 1,
    649              // Clear OC3B on compare match (set output to low level).
    650              // Set OC3A on compare match (set output to high level).
    651              TCCR3A = (1 << COM3B1) | (1 << COM3A1) | (1 << COM3A0) | (1 << WGM31);
   \   00000044   EE02               LDI     R16, 226
   \   00000046   9300....           STS     _A_TCCR3A, R16
    652              TCCR3B = (1 << WGM33) | (1 << WGM32) | (1 << CS30);
   \   0000004A   E109               LDI     R16, 25
   \   0000004C   9300....           STS     _A_TCCR3B, R16
    653          };
   \   00000050   E0E4               LDI     R30, 4
   \   00000052   ........           JMP     ?EPILOGUE_B4_L09
   \   00000056                      REQUIRE _A_ICR3
   \   00000056                      REQUIRE _A_OCR3A
   \   00000056                      REQUIRE _A_OCR3B
   \   00000056                      REQUIRE _A_TCCR3A
   \   00000056                      REQUIRE _A_TCCR3B
    654          
    655          //-----------------------------------------------------------------------------------------------------

   \                                 In  segment CODE, align 2, keep-with-next
    656          void CPlatform::BuzzerTimerStop(void)
   \                     ??BuzzerTimerStop:
    657          {
    658              // timer off.
    659              TCCR3A &= ~((1 << COM3B1) | (1 << COM3A1) | (1 << COM3A0) | (1 << WGM31));
   \   00000000   9100....           LDS     R16, _A_TCCR3A
   \   00000004   710D               ANDI    R16, 0x1D
   \   00000006   9300....           STS     _A_TCCR3A, R16
    660              TCCR3B &= ~((1 << WGM33) | (1 << WGM32) | (1 << CS30));
   \   0000000A   9100....           LDS     R16, _A_TCCR3B
   \   0000000E   7E06               ANDI    R16, 0xE6
   \   00000010   9300....           STS     _A_TCCR3B, R16
    661          };
   \   00000014   9508               RET
   \   00000016                      REQUIRE _A_TCCR3A
   \   00000016                      REQUIRE _A_TCCR3B
    662          
    663          //-----------------------------------------------------------------------------------------------------

   \                                 In  segment CODE, align 2, keep-with-next
    664          void CPlatform::SystemTickInit(void)
   \                     ??SystemTickInit:
    665          {
    666          #define MAIN_TIMER_TICK_RATE_HZ 1000
    667          
    668          //#define TIMER1_INTERRUPT
    669          #define TIMER2_INTERRUPT
    670          
    671          
    672          #ifdef TIMER2_INTERRUPT
    673              /* Hardware constants for timer 2. */
    674          #define portCLEAR_COUNTER_ON_MATCH              ( ( unsigned char ) _BV(WGM21) )
    675          #define portPRESCALE_64                         ( ( unsigned char ) (_BV(CS21) | _BV(CS20)) )
    676          #define portCLOCK_PRESCALER                     ( ( unsigned long ) 64 )
    677          #define portCOMPARE_MATCH_A_INTERRUPT_ENABLE    ( ( unsigned char ) _BV(OCIE2) )
    678          #endif //TIMER2_INTERRUPT
    679          
    680          #ifdef TIMER1_INTERRUPT
    681              /* Hardware constants for timer 1. */
    682          #define portCLEAR_COUNTER_ON_MATCH              ( ( unsigned char ) _BV(WGM12) )
    683          #define portPRESCALE_64                         ( ( unsigned char ) (_BV(CS11) | _BV(CS10)) )
    684          #define portCLOCK_PRESCALER                     ( ( unsigned long ) 64 )
    685          #define portCOMPARE_MATCH_A_INTERRUPT_ENABLE    ( ( unsigned char ) _BV(OCIE1A) )
    686          #endif //TIMER1_INTERRUPT
    687          
    688          #ifdef TIMER2_INTERRUPT
    689          
    690              /*
    691               * Setup timer 2 compare match A to generate a tick interrupt.
    692               */
    693          //  TMR2 mega128a
    694              unsigned long ulCompareMatch;
    695              unsigned char ucLowByte;
    696          
    697              /* Using 16bit timer 1 to generate the tick.  Correct fuses must be
    698              selected for the configCPU_CLOCK_HZ clock. */
    699          
    700          //ulCompareMatch  = (configCPU_CLOCK_HZ / prescaller) / period
    701          
    702              ulCompareMatch = F_CPU / MAIN_TIMER_TICK_RATE_HZ;
   \   00000000   EC0C               LDI     R16, 204
   \   00000002   E11C               LDI     R17, 28
   \   00000004   E020               LDI     R18, 0
   \   00000006   E030               LDI     R19, 0
    703          
    704              /* We only have 16 bits so have to scale to get our required tick rate. */
    705              ulCompareMatch /= portCLOCK_PRESCALER;
   \   00000008   E046               LDI     R20, 6
   \   0000000A   ........           CALL    ?UL_SHR_L03
    706          
    707              /* Adjust for correct value. */
    708              ulCompareMatch -= ( unsigned long ) 1;
   \   0000000E   5001               SUBI    R16, 1
   \   00000010   4010               SBCI    R17, 0
   \   00000012   4020               SBCI    R18, 0
   \   00000014   4030               SBCI    R19, 0
    709          
    710              /* Setup compare match value for compare match A.  Interrupts are disabled
    711              before this is called so we need not worry here. */
    712              OCR2 = ulCompareMatch;
   \   00000016   01B8               MOVW    R23:R22, R17:R16
   \   00000018   BD63               OUT     0x23, R22
    713          
    714              /* Setup clock Sourse and compare match behaviour. */
    715              ucLowByte = portCLEAR_COUNTER_ON_MATCH | portPRESCALE_64;
   \   0000001A   E05B               LDI     R21, 11
    716              TCCR2 = ucLowByte;
   \   0000001C   BD55               OUT     0x25, R21
    717          
    718              /* Enable the interrupt - this is okay as interrupt are currently globally
    719              disabled. */
    720              ucLowByte = TIMSK;
   \   0000001E   B747               IN      R20, 0x37
   \   00000020   2F54               MOV     R21, R20
    721              ucLowByte |= portCOMPARE_MATCH_A_INTERRUPT_ENABLE;
   \   00000022   6850               ORI     R21, 0x80
    722              TIMSK = ucLowByte;
   \   00000024   BF57               OUT     0x37, R21
    723          
    724          #endif //TIMER2_INTERRUPT
    725          
    726          #ifdef TIMER1_INTERRUPT
    727          
    728          // mega128a
    729              unsigned long ulCompareMatch;
    730              unsigned char ucLowByte;
    731          
    732              /* Using 16bit timer 1 to generate the tick.  Correct fuses must be
    733              selected for the configCPU_CLOCK_HZ clock. */
    734          
    735              ulCompareMatch = CPlatform::F_CPU / MAIN_TIMER_TICK_RATE_HZ;
    736          
    737              /* We only have 16 bits so have to scale to get our required tick rate. */
    738              ulCompareMatch /= portCLOCK_PRESCALER;
    739          
    740              /* Adjust for correct value. */
    741              ulCompareMatch -= ( unsigned long ) 1;
    742          
    743              /* Setup compare match value for compare match A.  Interrupts are disabled
    744              before this is called so we need not worry here. */
    745              OCR1A = ulCompareMatch;
    746          
    747              /* Setup clock Sourse and compare match behaviour. */
    748              TCCR1A &= ~(_BV(WGM11) | _BV(WGM10));
    749              ucLowByte = portCLEAR_COUNTER_ON_MATCH | portPRESCALE_64;
    750              TCCR1B = ucLowByte;
    751          
    752              /* Enable the interrupt - this is okay as interrupt are currently globally
    753              disabled. */
    754              ucLowByte = TIMSK;
    755              ucLowByte |= portCOMPARE_MATCH_A_INTERRUPT_ENABLE;
    756              TIMSK = ucLowByte;
    757          
    758          #endif //TIMER1_INTERRUPT
    759          
    760          }
   \   00000026   9508               RET
   \   00000028                      REQUIRE _A_OCR2
   \   00000028                      REQUIRE _A_TCCR2
   \   00000028                      REQUIRE _A_TIMSK
    761          
    762          //-----------------------------------------------------------------------------------------------------
    763          #ifdef TIMER1_INTERRUPT
    764          // Ďđĺđűâŕíčĺ TIMER1_COMPA_vect
    765          __interrupt void SystemTickInterrupt(void)
    766          {
    767              CPlatform::IncrementSystemTick();
    768          }
    769          #endif //TIMER1_INTERRUPT
    770          //-----------------------------------------------------------------------------------------------------
    771          #ifdef TIMER2_INTERRUPT
    772          // Ďđĺđűâŕíčĺ TIMER2_COMP_vect
    773          #pragma vector = TIMER2_COMP_vect	// Ďđĺđűâŕíčĺ ďî ńîâďŕäĺíčţ TMR2 ń OCR2

   \                                 In  segment CODE, align 2, keep-with-next
    774          __interrupt void SystemTickInterrupt(void)
   \                     ??SystemTickInterrupt:
    775          {
   \   00000000   939A               ST      -Y, R25
   \   00000002   938A               ST      -Y, R24
   \   00000004   93FA               ST      -Y, R31
   \   00000006   93EA               ST      -Y, R30
   \   00000008   923A               ST      -Y, R3
   \   0000000A   922A               ST      -Y, R2
   \   0000000C   921A               ST      -Y, R1
   \   0000000E   920A               ST      -Y, R0
   \   00000010   937A               ST      -Y, R23
   \   00000012   936A               ST      -Y, R22
   \   00000014   935A               ST      -Y, R21
   \   00000016   934A               ST      -Y, R20
   \   00000018   933A               ST      -Y, R19
   \   0000001A   932A               ST      -Y, R18
   \   0000001C   931A               ST      -Y, R17
   \   0000001E   930A               ST      -Y, R16
   \   00000020   B78F               IN      R24, 0x3F
   \   00000022   B79B               IN      R25, 0x3B
    776              CPlatform::IncrementSystemTick();
   \   00000024   ........           CALL    ??IncrementSystemTick
    777          }
   \   00000028   BF9B               OUT     0x3B, R25
   \   0000002A   BF8F               OUT     0x3F, R24
   \   0000002C   9109               LD      R16, Y+
   \   0000002E   9119               LD      R17, Y+
   \   00000030   9129               LD      R18, Y+
   \   00000032   9139               LD      R19, Y+
   \   00000034   9149               LD      R20, Y+
   \   00000036   9159               LD      R21, Y+
   \   00000038   9169               LD      R22, Y+
   \   0000003A   9179               LD      R23, Y+
   \   0000003C   9009               LD      R0, Y+
   \   0000003E   9019               LD      R1, Y+
   \   00000040   9029               LD      R2, Y+
   \   00000042   9039               LD      R3, Y+
   \   00000044   91E9               LD      R30, Y+
   \   00000046   91F9               LD      R31, Y+
   \   00000048   9189               LD      R24, Y+
   \   0000004A   9199               LD      R25, Y+
   \   0000004C   9518               RETI

   \                                 In  segment INTVEC, offset 0x24, root
   \                     `??SystemTickInterrupt::??INTVEC 36`:
   \   00000024   ........           JMP     ??SystemTickInterrupt

   \                                 In  segment INTVEC, offset 0x58, root
   \                     `??EEPROM_EE_READY::??INTVEC 88`:
   \   00000058   ........           JMP     ??EEPROM_EE_READY

   \                                 In  segment INTVEC, offset 0x78, root
   \                     `??SIG_UART1_RECV::??INTVEC 120`:
   \   00000078   ........           JMP     ??SIG_UART1_RECV

   \                                 In  segment INTVEC, offset 0x7c, root
   \                     `??SIG_UART1_DATA::??INTVEC 124`:
   \   0000007C   ........           JMP     ??SIG_UART1_DATA

   \                                 In  segment INTVEC, offset 0x80, root
   \                     `??SIG_UART1_TXC::??INTVEC 128`:
   \   00000080   ........           JMP     ??SIG_UART1_TXC

   \                                 In  segment CODE, align 2, keep-with-next
   \   __version_3 CUart &CUart::new CUart()
   \                     `??new CUart`:
   \   00000000   E20F               LDI     R16, 47
   \   00000002   E010               LDI     R17, 0
   \   00000004   ........           CALL    `??operator new`
   \   00000008   2F20               MOV     R18, R16
   \   0000000A   2B21               OR      R18, R17
   \   0000000C   F011               BREQ    `??new CUart_2`
   \   0000000E   ....               RCALL   ??CUart
   \   00000010   9508               RET
   \                     `??new CUart_2`:
   \   00000012   E000               LDI     R16, 0
   \   00000014   E010               LDI     R17, 0
   \   00000016   9508               RET

   \                                 In  segment CODE, align 2, keep-with-next
   \   __version_3 CUart &CUart::new CUart(uint8_t volatile *, uint8_t volatile *, uint8_t volatile *, uint8_t volatile *, uint8_t volatile *, uint8_t volatile *, uint8_t volatile *, uint8_t, uint8_t volatile *, uint8_t)
   \                     `??new CUart_1`:
   \   00000000   ........           CALL    ?PROLOGUE16_L09
   \   00000004                      REQUIRE ?Register_R4_is_cg_reg
   \   00000004                      REQUIRE ?Register_R5_is_cg_reg
   \   00000004                      REQUIRE ?Register_R6_is_cg_reg
   \   00000004                      REQUIRE ?Register_R7_is_cg_reg
   \   00000004                      REQUIRE ?Register_R8_is_cg_reg
   \   00000004                      REQUIRE ?Register_R9_is_cg_reg
   \   00000004                      REQUIRE ?Register_R10_is_cg_reg
   \   00000004                      REQUIRE ?Register_R11_is_cg_reg
   \   00000004                      REQUIRE ?Register_R12_is_cg_reg
   \   00000004                      REQUIRE ?Register_R13_is_cg_reg
   \   00000004                      REQUIRE ?Register_R14_is_cg_reg
   \   00000004                      REQUIRE ?Register_R15_is_cg_reg
   \   00000004   0158               MOVW    R11:R10, R17:R16
   \   00000006   0179               MOVW    R15:R14, R19:R18
   \   00000008   016A               MOVW    R13:R12, R21:R20
   \   0000000A   014B               MOVW    R9:R8, R23:R22
   \   0000000C   8868               LDD     R6, Y+16
   \   0000000E   8879               LDD     R7, Y+17
   \   00000010   884A               LDD     R4, Y+18
   \   00000012   885B               LDD     R5, Y+19
   \   00000014   89AC               LDD     R26, Y+20
   \   00000016   89BD               LDD     R27, Y+21
   \   00000018   898F               LDD     R24, Y+23
   \   0000001A   8D98               LDD     R25, Y+24
   \   0000001C   E20F               LDI     R16, 47
   \   0000001E   E010               LDI     R17, 0
   \   00000020   ........           CALL    `??operator new`
   \   00000024   2F20               MOV     R18, R16
   \   00000026   2B21               OR      R18, R17
   \   00000028   F099               BREQ    `??new CUart_3`
   \   0000002A   8D29               LDD     R18, Y+25
   \   0000002C   932A               ST      -Y, R18
   \   0000002E   939A               ST      -Y, R25
   \   00000030   938A               ST      -Y, R24
   \   00000032   8D29               LDD     R18, Y+25
   \   00000034   932A               ST      -Y, R18
   \   00000036   93BA               ST      -Y, R27
   \   00000038   93AA               ST      -Y, R26
   \   0000003A   925A               ST      -Y, R5
   \   0000003C   924A               ST      -Y, R4
   \   0000003E   927A               ST      -Y, R7
   \   00000040   926A               ST      -Y, R6
   \   00000042   929A               ST      -Y, R9
   \   00000044   928A               ST      -Y, R8
   \   00000046   01B6               MOVW    R23:R22, R13:R12
   \   00000048   01A7               MOVW    R21:R20, R15:R14
   \   0000004A   0195               MOVW    R19:R18, R11:R10
   \   0000004C   ....               RCALL   ??CUart_1
   \   0000004E   C002               RJMP    `??new CUart_4`
   \                     `??new CUart_3`:
   \   00000050   E000               LDI     R16, 0
   \   00000052   E010               LDI     R17, 0
   \                     `??new CUart_4`:
   \   00000054   E1EA               LDI     R30, 26
   \   00000056   ........           JMP     ?EPILOGUE_B16_L09

   \                                 In  segment CODE, align 2, keep-with-next
   \   __version_3 CEeprom &CEeprom::new CEeprom()
   \                     `??new CEeprom`:
   \   00000000   E002               LDI     R16, 2
   \   00000002   E010               LDI     R17, 0
   \   00000004   ........           CALL    `??operator new`
   \   00000008   2F20               MOV     R18, R16
   \   0000000A   2B21               OR      R18, R17
   \   0000000C   F011               BREQ    `??new CEeprom_1`
   \   0000000E   ....               RCALL   ??CEeprom
   \   00000010   9508               RET
   \                     `??new CEeprom_1`:
   \   00000012   E000               LDI     R16, 0
   \   00000014   E010               LDI     R17, 0
   \   00000016   9508               RET

   \                                 In  segment CODE, align 2, keep-with-next
   \   __version_3 CSpi &CSpi::new CSpi()
   \                     `??new CSpi`:
   \   00000000   E002               LDI     R16, 2
   \   00000002   E010               LDI     R17, 0
   \   00000004   ........           CALL    `??operator new`
   \   00000008   2F20               MOV     R18, R16
   \   0000000A   2B21               OR      R18, R17
   \   0000000C   F011               BREQ    `??new CSpi_1`
   \   0000000E   ....               RCALL   ??CSpi
   \   00000010   9508               RET
   \                     `??new CSpi_1`:
   \   00000012   E000               LDI     R16, 0
   \   00000014   E010               LDI     R17, 0
   \   00000016   9508               RET

   \                                 In  segment CODE, align 2, keep-with-next
   \   __version_3 CPlatform &CPlatform::new CPlatform()
   \                     `??new CPlatform`:
   \   00000000   E002               LDI     R16, 2
   \   00000002   E010               LDI     R17, 0
   \   00000004   ........           CALL    `??operator new`
   \   00000008   2F20               MOV     R18, R16
   \   0000000A   2B21               OR      R18, R17
   \   0000000C   F011               BREQ    `??new CPlatform_1`
   \   0000000E   ....               RCALL   ??CPlatform
   \   00000010   9508               RET
   \                     `??new CPlatform_1`:
   \   00000012   E000               LDI     R16, 0
   \   00000014   E010               LDI     R17, 0
   \   00000016   9508               RET
    778          #endif //TIMER2_INTERRUPT
    779          
    780          
    781          

   Maximum stack usage in bytes:

   CSTACK RSTACK Function
   ------ ------ --------
      0      2   CEeprom::CEeprom()
      0      2   CEeprom::GetAddress()
      0      2   CEeprom::GetBufferByteCounter()
      0      2   CEeprom::GetBufferPointer()
      0      2   CEeprom::GetLength()
      0      2   CEeprom::Read(uint8_t *, uint16_t, uint16_t)
        0      2   -> CEeprom::ReadByte(uint16_t)
      0      2   CEeprom::ReadByte(uint16_t)
      0      2   CEeprom::ReadyInterruptDisaable()
      4      2   CEeprom::ReadyInterruptHandler()
        4      2   -> CEeprom::GetAddress()
        4      2   -> CEeprom::GetBufferByteCounter()
        4      2   -> CEeprom::GetBufferPointer()
        4      2   -> CEeprom::GetLength()
        4      2   -> CEeprom::ReadyInterruptDisaable()
        4      2   -> CEeprom::SetAddress(uint16_t)
        4      2   -> CEeprom::SetBufferByteCounter(uint16_t)
        4      2   -> CEeprom::SetBufferIsWrited(bool)
      0      2   CEeprom::SetAddress(uint16_t)
      0      2   CEeprom::SetBufferByteCounter(uint16_t)
      0      2   CEeprom::SetBufferIsWrited(bool)
      0      2   CEeprom::SetBufferPointer(uint8_t *)
      0      2   CEeprom::SetLength(uint16_t)
      4      2   CEeprom::Write(uint16_t, uint8_t *, uint16_t)
        4      2   -> CEeprom::WriteByte(uint16_t, uint8_t)
      0      2   CEeprom::WriteByte(uint16_t, uint8_t)
        0      2   -> CEeprom::ReadByte(uint16_t)
      6      2   CEeprom::WriteInterrupt(uint16_t, uint8_t *, uint16_t)
        6      2   -> CEeprom::SetAddress(uint16_t)
        6      2   -> CEeprom::SetBufferByteCounter(uint16_t)
        6      2   -> CEeprom::SetBufferPointer(uint8_t *)
        6      2   -> CEeprom::SetLength(uint16_t)
      0      2   CEeprom::new CEeprom()
        0      2   -> CEeprom::CEeprom()
        0      2   -> operator new(unsigned int)
      2      2   CEeprom::~CEeprom()
        2      2   -> operator delete(void *)
      4      2   CPlatform::BuzzerTimerFrequencySet(uint16_t)
        4      2 ?UL_DIVMOD_L03
      0      2   CPlatform::BuzzerTimerStop()
      0      2   CPlatform::CPlatform()
      0      2   CPlatform::ExternalKeySetPinInput()
      0      2   CPlatform::IncrementSystemTick()
      0      2   CPlatform::Init()
        0      2   -> CPlatform::ExternalKeySetPinInput()
        0      2   -> CPlatform::InterruptEnable()
        0      2   -> CPlatform::KeyOneSetPinInput()
        0      2   -> CPlatform::KeyThreeSetPinInput()
        0      2   -> CPlatform::KeyTwoSetPinInput()
        0      2   -> CPlatform::StatusLedSetPinOutput()
        0      2   -> CPlatform::SystemTickInit()
        0      2   -> CPlatform::TxLedOff()
        0      2   -> CPlatform::TxLedSetPinOutput()
      0      2   CPlatform::InterruptDisable()
      0      2   CPlatform::InterruptEnable()
      0      2   CPlatform::KeyOneSetPinInput()
      0      2   CPlatform::KeyThreeSetPinInput()
      0      2   CPlatform::KeyTwoSetPinInput()
      0      2   CPlatform::StatusLedSetPinOutput()
      0      2   CPlatform::SystemTickInit()
        0      2 ?UL_SHR_L03
      0      2   CPlatform::TxLedOff()
      0      2   CPlatform::TxLedSetPinOutput()
      0      2   CPlatform::WatchdogReset()
      0      2   CPlatform::new CPlatform()
        0      2   -> CPlatform::CPlatform()
        0      2   -> operator new(unsigned int)
      2      2   CPlatform::~CPlatform()
        2      2   -> operator delete(void *)
      0      2   CSpi::CSpi()
      0      2   CSpi::Disable()
      0      2   CSpi::Enable()
      8      2   CSpi::Exchange(uint8_t *, uint8_t *, uint16_t)
        8      2   -> CSpi::Exchange(uint8_t)
      2      2   CSpi::Exchange(uint8_t)
        2      2   -> CPlatform::WatchdogReset()
      0      2   CSpi::Init()
      0      2   CSpi::Read(uint8_t *, uint16_t)
      0      2   CSpi::Reset()
      0      2   CSpi::new CSpi()
        0      2   -> CSpi::CSpi()
        0      2   -> operator new(unsigned int)
      2      2   CSpi::~CSpi()
        2      2   -> operator delete(void *)
      0      2   CUart::CUart()
     22      2   CUart::CUart(uint8_t volatile *, uint8_t volatile *, uint8_t volatile *, uint8_t volatile *, uint8_t volatile *, uint8_t volatile *, uint8_t volatile *, uint8_t, uint8_t volatile *, uint8_t)
       22      2 ?S_SHL_L02
      0      2   CUart::Close()
      0      2   CUart::Disable()
      0      2   CUart::Enable()
     13      2   CUart::Init(uint32_t, uint8_t, uint8_t, uint8_t, uint8_t *, uint8_t *)
       13      2 ?L_EC_MUL_L03
       13      2 ?UL_DIVMOD_L03
      0      2   CUart::Open()
      8      2   CUart::Read(uint8_t *, uint16_t)
        8      2   -> CPlatform::InterruptDisable()
        8      2   -> CPlatform::InterruptEnable()
      4      2   CUart::RecvInterruptHandler()
      0      2   CUart::Reset()
      0      2   CUart::Rs485RtsOff()
        0      2 ?S_SHL_L02
      0      2   CUart::Rs485RtsOn()
        0      2 ?S_SHL_L02
      0      2   CUart::TransmitDisable()
        0      2   -> CUart::Rs485RtsOff()
      0      2   CUart::TransmitEnable()
        0      2   -> CUart::Rs485RtsOn()
      0      2   CUart::TxcInterruptHandler()
      0      2   CUart::UdreInterruptHandler()
      0      2   CUart::Write(uint8_t *, uint16_t)
      0      2   CUart::new CUart()
        0      2   -> CUart::CUart()
        0      2   -> operator new(unsigned int)
     38      2   CUart::new CUart(uint8_t volatile *, uint8_t volatile *, uint8_t volatile *, uint8_t volatile *, uint8_t volatile *, uint8_t volatile *, uint8_t volatile *, uint8_t, uint8_t volatile *, uint8_t)
       26      2   -> CUart::CUart(uint8_t volatile *, uint8_t volatile *, uint8_t volatile *, uint8_t volatile *, uint8_t volatile *, uint8_t volatile *, uint8_t volatile *, uint8_t, uint8_t volatile *, uint8_t)
       26      2   -> operator new(unsigned int)
      2      2   CUart::~CUart()
        2      2   -> operator delete(void *)
     16      2   EEPROM_EE_READY()
       16      2   -> CEeprom::ReadyInterruptHandler()
     10      2   SIG_UART1_DATA()
       10      2   -> CUart::UdreInterruptHandler()
     10      2   SIG_UART1_RECV()
       10      2   -> CUart::RecvInterruptHandler()
      9      2   SIG_UART1_TXC()
        9      2   -> CUart::TxcInterruptHandler()
     16      2   SystemTickInterrupt()
       16      2   -> CPlatform::IncrementSystemTick()
      0      2   delay_mins(uint16_t)
      0      2   delay_ms(uint16_t)
      0      2   delay_s(uint16_t)


   Segment part sizes:

   Bytes  Function/Label
   -----  --------------
      12  CEeprom::CEeprom()
      10  CEeprom::GetAddress()
      10  CEeprom::GetBufferByteCounter()
      10  CEeprom::GetBufferPointer()
      10  CEeprom::GetLength()
      38  CEeprom::Read(uint8_t *, uint16_t, uint16_t)
      26  CEeprom::ReadByte(uint16_t)
       4  CEeprom::ReadyInterruptDisaable()
     124  CEeprom::ReadyInterruptHandler()
      10  CEeprom::SetAddress(uint16_t)
      10  CEeprom::SetBufferByteCounter(uint16_t)
       6  CEeprom::SetBufferIsWrited(bool)
      10  CEeprom::SetBufferPointer(uint8_t *)
      10  CEeprom::SetLength(uint16_t)
      48  CEeprom::Write(uint16_t, uint8_t *, uint16_t)
      38  CEeprom::WriteByte(uint16_t, uint8_t)
      42  CEeprom::WriteInterrupt(uint16_t, uint8_t *, uint16_t)
       1  CEeprom::m_bBufferIsWrited
       2  CEeprom::m_nuiBufferByteCounter
       2  CEeprom::m_puiBuffer
       2  CEeprom::m_uiAddress
       2  CEeprom::m_uiLength
      24  CEeprom::new CEeprom()
      28  CEeprom::~CEeprom()
      86  CPlatform::BuzzerTimerFrequencySet(uint16_t)
      22  CPlatform::BuzzerTimerStop()
      12  CPlatform::CPlatform()
      12  CPlatform::ExternalKeySetPinInput()
      18  CPlatform::IncrementSystemTick()
      36  CPlatform::Init()
       4  CPlatform::InterruptDisable()
       4  CPlatform::InterruptEnable()
       4  CPlatform::KeyOneSetPinInput()
       4  CPlatform::KeyThreeSetPinInput()
       4  CPlatform::KeyTwoSetPinInput()
      12  CPlatform::StatusLedSetPinOutput()
      40  CPlatform::SystemTickInit()
      12  CPlatform::TxLedOff()
      12  CPlatform::TxLedSetPinOutput()
       4  CPlatform::WatchdogReset()
       2  CPlatform::m_pxUart1
       2  CPlatform::m_uiSystemTick
       1  CPlatform::m_uiWatchDogStepID
      24  CPlatform::new CPlatform()
      28  CPlatform::~CPlatform()
      12  CSpi::CSpi()
       4  CSpi::Disable()
       4  CSpi::Enable()
      62  CSpi::Exchange(uint8_t *, uint8_t *, uint16_t)
      44  CSpi::Exchange(uint8_t)
      14  CSpi::Init()
       6  CSpi::Read(uint8_t *, uint16_t)
       2  CSpi::Reset()
      24  CSpi::new CSpi()
      28  CSpi::~CSpi()
      12  CUart::CUart()
     178  CUart::CUart(uint8_t volatile *, uint8_t volatile *, uint8_t volatile *, uint8_t volatile *, uint8_t volatile *, uint8_t volatile *, uint8_t volatile *, uint8_t, uint8_t volatile *, uint8_t)
      46  CUart::Close()
      22  CUart::Disable()
      34  CUart::Enable()
     106  CUart::Init(uint32_t, uint8_t, uint8_t, uint8_t, uint8_t *, uint8_t *)
      34  CUart::Open()
     152  CUart::Read(uint8_t *, uint16_t)
      72  CUart::RecvInterruptHandler()
      30  CUart::Reset()
      34  CUart::Rs485RtsOff()
      32  CUart::Rs485RtsOn()
      40  CUart::TransmitDisable()
      54  CUart::TransmitEnable()
      28  CUart::TxcInterruptHandler()
      96  CUart::UdreInterruptHandler()
      16  CUart::Write(uint8_t *, uint16_t)
      24  CUart::new CUart()
      90  CUart::new CUart(uint8_t volatile *, uint8_t volatile *, uint8_t volatile *, uint8_t volatile *, uint8_t volatile *, uint8_t volatile *, uint8_t volatile *, uint8_t, uint8_t volatile *, uint8_t)
      28  CUart::~CUart()
      76  EEPROM_EE_READY()
       4  EEPROM_EE_READY()::??INTVEC 88
      60  SIG_UART1_DATA()
       4  SIG_UART1_DATA()::??INTVEC 124
      60  SIG_UART1_RECV()
       4  SIG_UART1_RECV()::??INTVEC 120
      56  SIG_UART1_TXC()
       4  SIG_UART1_TXC()::??INTVEC 128
      78  SystemTickInterrupt()
       4  SystemTickInterrupt()::??INTVEC 36
       1  _A_ACSR
       2  _A_ADC
       1  _A_ADCSRA
       1  _A_ADMUX
       1  _A_ASSR
       1  _A_DDRA
       1  _A_DDRB
       1  _A_DDRC
       1  _A_DDRD
       1  _A_DDRE
       1  _A_DDRF
       1  _A_DDRG
       2  _A_EEAR
       1  _A_EECR
       1  _A_EEDR
       1  _A_EICRA
       1  _A_EICRB
       1  _A_EIFR
       1  _A_EIMSK
       1  _A_ETIFR
       1  _A_ETIMSK
       2  _A_ICR1
       2  _A_ICR3
       1  _A_MCUCR
       1  _A_MCUCSR
       1  _A_OCDR
       1  _A_OCR0
       2  _A_OCR1A
       2  _A_OCR1B
       2  _A_OCR1C
       1  _A_OCR2
       2  _A_OCR3A
       2  _A_OCR3B
       2  _A_OCR3C
       1  _A_OSCCAL
       1  _A_PINA
       1  _A_PINB
       1  _A_PINC
       1  _A_PIND
       1  _A_PINE
       1  _A_PINF
       1  _A_PING
       1  _A_PORTA
       1  _A_PORTB
       1  _A_PORTC
       1  _A_PORTD
       1  _A_PORTE
       1  _A_PORTF
       1  _A_PORTG
       1  _A_RAMPZ
       1  _A_SFIOR
       2  _A_SP
       1  _A_SPCR
       1  _A_SPDR
       1  _A_SPMCSR
       1  _A_SPSR
       1  _A_SREG
       1  _A_TCCR0
       1  _A_TCCR1A
       1  _A_TCCR1B
       1  _A_TCCR1C
       1  _A_TCCR2
       1  _A_TCCR3A
       1  _A_TCCR3B
       1  _A_TCCR3C
       1  _A_TCNT0
       2  _A_TCNT1
       1  _A_TCNT2
       2  _A_TCNT3
       1  _A_TIFR
       1  _A_TIMSK
       1  _A_TWAR
       1  _A_TWBR
       1  _A_TWCR
       1  _A_TWDR
       1  _A_TWSR
       1  _A_UBRR0H
       1  _A_UBRR0L
       1  _A_UBRR1H
       1  _A_UBRR1L
       1  _A_UCSR0A
       1  _A_UCSR0B
       1  _A_UCSR0C
       1  _A_UCSR1A
       1  _A_UCSR1B
       1  _A_UCSR1C
       1  _A_UDR0
       1  _A_UDR1
       1  _A_WDTCR
       1  _A_XDIV
       1  _A_XMCRA
       1  _A_XMCRB
      38  delay_mins(uint16_t)
      30  delay_ms(uint16_t)
      34  delay_s(uint16_t)
      51  -- Other

 
   105 bytes in segment ABSOLUTE
 2 568 bytes in segment CODE
     7 bytes in segment INITTAB
    20 bytes in segment INTVEC
    44 bytes in segment NEAR_F
    14 bytes in segment NEAR_Z
 
 2 424 bytes of CODE memory (+ 215 bytes shared)
    14 bytes of DATA memory (+ 105 bytes shared)

Errors: none
Warnings: 7
