///////////////////////////////////////////////////////////////////////////////
//
// IAR C/C++ Compiler V7.10.6.1378 for Atmel AVR          09/Aug/2022  11:07:08
// Copyright 1996-2018 IAR Systems AB.
//
//    Source file  =  D:\Projects\CautoProjects\PSS48\PSS48\src\Pss21.cpp
//    Command line =  
//        -f C:\Users\ghost\AppData\Local\Temp\EW3BC0.tmp
//        (--string_literals_in_flash
//        D:\Projects\CautoProjects\PSS48\PSS48\src\Pss21.cpp --cpu=m128a -ms
//        -o D:\Projects\CautoProjects\PSS48\PSS48\Debug\Obj -lC
//        D:\Projects\CautoProjects\PSS48\PSS48\Debug\List -lB
//        D:\Projects\CautoProjects\PSS48\PSS48\Debug\List -y
//        --initializers_in_flash --root_variables --debug
//        -DENABLE_BIT_DEFINITIONS -e -I
//        D:\Projects\CautoProjects\PSS48\PSS48\include\ -I
//        D:\Projects\CautoProjects\PSS48\PSS48\Modbus\ --eeprom_size 4096
//        --dlib --dlib_config "C:\Program Files (x86)\IAR Systems\Embedded
//        Workbench 8.0\avr\LIB\DLIB\dlAVR-3s-ec_mul-n.h" -Ohz --eec++)
//    Locale       =  Russian_RUS.1251
//    List file    =  
//        D:\Projects\CautoProjects\PSS48\PSS48\Debug\List\Pss21.s90
//
///////////////////////////////////////////////////////////////////////////////

        NAME Pss21

        RSEG CSTACK:DATA:NOROOT(0)
        RSEG RSTACK:DATA:NOROOT(0)

        ERROR
//NOTE: This module defines or uses C++ features that are not
//      accessible from assembler code. Assembling this file will
//      not produce an equivalent object file to the one produced
//      by the C++ compiler.

        EXTERN ?CV_SWITCH_L06
        EXTERN ?EPILOGUE_B3_L09
        EXTERN ?EPILOGUE_B4_L09
        EXTERN ?EPILOGUE_B5_L09
        EXTERN ?PROLOGUE3_L09
        EXTERN ?PROLOGUE4_L09
        EXTERN ?PROLOGUE5_L09
        EXTERN ?Register_R4_is_cg_reg
        EXTERN ?SS_DIVMOD_L02
        EXTERN ?SS_SHR_L02
        EXTERN ?S_EC_MUL_L02
        EXTERN ?S_SHL_L02
        EXTERN ?UL_DIVMOD_L03
        EXTERN ?UL_SHR_L03
        EXTERN ?call_ctors
        EXTERN ?need_segment_init

        PUBWEAK `?<Segment init: NEAR_I>`
        PUBWEAK `?<Segment init: NEAR_Z>`
        PUBLIC ??ActiveAlarmWindowOff
        PUBLIC ??ActiveAlarmWindowOn
        PUBLIC ??AddressBusInit
        PUBLIC ??AlarmTypeChange
        PUBLIC ??AlarmTypeReceipt
        PUBLIC ??AlarmTypeReset
        PUBLIC ??AlarmTypeSet
        PUBLIC ??AlarmsProcessing
        PUBLIC ??AllAlarmWindowOff
        PUBLIC ??AllAlarmWindowOn
        PUBLIC ??ConfigurationInit
        PUBLIC ??ConnectDevice
        PUBLIC ??CreateDevices
        PUBLIC ??DestroyDevices
        PUBLIC ??DisconnectDevice
        PUBLIC ??DiscreteOutputControlClear
        PUBLIC ??DiscreteOutputsSet
        PUBLIC ??DiscreteSignalsProcessing
        PUBLIC ??ErrorMainCycle
        PUBLIC ??ErrorWindowOn
        PUBWEAK ??ExternalKeyState
        PUBLIC ??GetDiscreteInputState
        PUBLIC ??GetTimeoutModbusRtuLinkControl
        PUBLIC ??Init
        PUBLIC ??InitAllocationContext
        PUBWEAK ??KeyOneState
        PUBLIC ??KeyStateProcessing
        PUBWEAK ??KeyThreeState
        PUBWEAK ??KeyTwoState
        PUBLIC ??LinkControlErrorMainCycle
        PUBLIC ??MainFsm
        PUBLIC ??ModbusDefaultInit
        PUBLIC ??ModbusDeviceControl
        PUBLIC ??ModbusDeviceControl_1
        PUBLIC ??ModbusInit
        PUBLIC ??ModbusRtuLinkControlInProgress
        PUBLIC ??ModbusRtuLinkControlIsOn
        PUBLIC ??ModulesInteraction
        PUBLIC ??NotifyersControlProcessing
        PUBLIC ??ReceiptResetGlobalFlagsClear
        PUBLIC ??ReportType
        PUBLIC ??RestoreContextNotifyerControl
        PUBLIC ??SaveContextNotifyerControl
        PUBLIC ??SearchModules
        PUBLIC ??SendToDevicesModbusReceipt
        PUBLIC ??SendToDevicesModbusReset
        PUBLIC ??SendToDevicesReceipt
        PUBLIC ??SendToDevicesReset
        PUBLIC ??SetAlarmWindowType
        PUBLIC ??SetBytesFromBits
        PUBLIC ??SetModeModbusRtuLinkControlInProgress
        PUBLIC ??TestMainCycle
        PUBLIC ??m_apxAlarmDfa
        PUBLIC ??m_apxDrivers
        PUBLIC ??m_aucRtuDiscreteDataArray
        PUBLIC ??m_aucRtuHoldingRegistersArray
        PUBLIC ??m_aucRtuInputRegistersArray
        PUBLIC ??m_auiErrorLedOn
        PUBLIC ??m_auiIntermediateBuff
        PUBLIC ??m_auiReceiveMessageBuff
        PUBLIC ??m_auiSpiRxBuffer
        PUBLIC ??m_auiSpiTxBuffer
        PUBLIC ??m_axAlarmWindowControl
        PUBLIC ??m_axDiscreteOutputControl
        PUBLIC ??m_uiCommonAlarmType
        PUBLIC ??m_uiCommonAlarmTypePrevious
        PUBLIC ??m_uiDiscreteSignalsReceipt
        PUBLIC ??m_uiDiscreteSignalsReset
        PUBLIC ??m_uiErrorCode
        PUBLIC ??m_uiExternalReceipt
        PUBLIC ??m_uiExternalReset
        PUBLIC ??m_uiFsmState
        PUBLIC ??m_uiModbusReceipt
        PUBLIC ??m_uiModbusReset
        PUBLIC ??m_uiModuleIndex
        PUBLIC ??m_uiPanelReceipt
        PUBLIC ??m_uiPanelReset
        PUBLIC ??m_uiType
        PUBLIC ??m_xBuzzerNotifyerControl
        PUBLIC ??m_xCheckKey
        PUBLIC ??m_xDataStore
        PUBLIC ??m_xDeviceConfigSearch
        PUBLIC ??m_xDeviceConfiguration
        PUBLIC ??m_xDeviceState
        PUBLIC ??m_xDiscreteOutputDataBase
        PUBLIC ??m_xEmergencyAlarmWindowNotifyerControl
        PUBLIC ??m_xEventUniteLogicAndOne
        PUBLIC ??m_xExternalKey
        PUBLIC ??m_xLightBoard
        PUBLIC ??m_xMainCycleTimer
        PUBLIC ??m_xModbusRtuLinkControl
        PUBLIC ??m_xModbusRtuOne
        PUBLIC ??m_xModbusSettings
        PUBLIC ??m_xPreventiveAlarmWindowNotifyerControl
        PUBLIC ??m_xReceiptKey
        PUBLIC ??m_xResetKey
        PUBLIC ??m_xStatusLedNotifyerControl
        PUBLIC ??m_xUart1
        PUBWEAK _A_ACSR
        PUBWEAK _A_ADC
        PUBWEAK _A_ADCSRA
        PUBWEAK _A_ADMUX
        PUBWEAK _A_ASSR
        PUBWEAK _A_DDRA
        PUBWEAK _A_DDRB
        PUBWEAK _A_DDRC
        PUBWEAK _A_DDRD
        PUBWEAK _A_DDRE
        PUBWEAK _A_DDRF
        PUBWEAK _A_DDRG
        PUBWEAK _A_EEAR
        PUBWEAK _A_EECR
        PUBWEAK _A_EEDR
        PUBWEAK _A_EICRA
        PUBWEAK _A_EICRB
        PUBWEAK _A_EIFR
        PUBWEAK _A_EIMSK
        PUBWEAK _A_ETIFR
        PUBWEAK _A_ETIMSK
        PUBWEAK _A_ICR1
        PUBWEAK _A_ICR3
        PUBWEAK _A_MCUCR
        PUBWEAK _A_MCUCSR
        PUBWEAK _A_OCDR
        PUBWEAK _A_OCR0
        PUBWEAK _A_OCR1A
        PUBWEAK _A_OCR1B
        PUBWEAK _A_OCR1C
        PUBWEAK _A_OCR2
        PUBWEAK _A_OCR3A
        PUBWEAK _A_OCR3B
        PUBWEAK _A_OCR3C
        PUBWEAK _A_OSCCAL
        PUBWEAK _A_PINA
        PUBWEAK _A_PINB
        PUBWEAK _A_PINC
        PUBWEAK _A_PIND
        PUBWEAK _A_PINE
        PUBWEAK _A_PINF
        PUBWEAK _A_PING
        PUBWEAK _A_PORTA
        PUBWEAK _A_PORTB
        PUBWEAK _A_PORTC
        PUBWEAK _A_PORTD
        PUBWEAK _A_PORTE
        PUBWEAK _A_PORTF
        PUBWEAK _A_PORTG
        PUBWEAK _A_RAMPZ
        PUBWEAK _A_SFIOR
        PUBWEAK _A_SP
        PUBWEAK _A_SPCR
        PUBWEAK _A_SPDR
        PUBWEAK _A_SPMCSR
        PUBWEAK _A_SPSR
        PUBWEAK _A_SREG
        PUBWEAK _A_TCCR0
        PUBWEAK _A_TCCR1A
        PUBWEAK _A_TCCR1B
        PUBWEAK _A_TCCR1C
        PUBWEAK _A_TCCR2
        PUBWEAK _A_TCCR3A
        PUBWEAK _A_TCCR3B
        PUBWEAK _A_TCCR3C
        PUBWEAK _A_TCNT0
        PUBWEAK _A_TCNT1
        PUBWEAK _A_TCNT2
        PUBWEAK _A_TCNT3
        PUBWEAK _A_TIFR
        PUBWEAK _A_TIMSK
        PUBWEAK _A_TWAR
        PUBWEAK _A_TWBR
        PUBWEAK _A_TWCR
        PUBWEAK _A_TWDR
        PUBWEAK _A_TWSR
        PUBWEAK _A_UBRR0H
        PUBWEAK _A_UBRR0L
        PUBWEAK _A_UBRR1H
        PUBWEAK _A_UBRR1L
        PUBWEAK _A_UCSR0A
        PUBWEAK _A_UCSR0B
        PUBWEAK _A_UCSR0C
        PUBWEAK _A_UCSR1A
        PUBWEAK _A_UCSR1B
        PUBWEAK _A_UCSR1C
        PUBWEAK _A_UDR0
        PUBWEAK _A_UDR1
        PUBWEAK _A_WDTCR
        PUBWEAK _A_XDIV
        PUBWEAK _A_XMCRA
        PUBWEAK _A_XMCRB
        PUBWEAK __?EEARH
        PUBWEAK __?EEARL
        PUBWEAK __?EECR
        PUBWEAK __?EEDR

`?<Name CPlatform 156>` SYMBOL "CPlatform"
??m_pxUart1         SYMBOL "m_pxUart1", `?<Name CPlatform 156>`
`?<Name CPss21 269>` SYMBOL "CPss21"
??m_apxAlarmDfa     SYMBOL "m_apxAlarmDfa", `?<Name CPss21 269>`
??m_apxDrivers      SYMBOL "m_apxDrivers", `?<Name CPss21 269>`
??m_aucRtuDiscreteDataArray SYMBOL "m_aucRtuDiscreteDataArray", `?<Name CPss21 269>`
??m_aucRtuHoldingRegistersArray SYMBOL "m_aucRtuHoldingRegistersArray", `?<Name CPss21 269>`
??m_aucRtuInputRegistersArray SYMBOL "m_aucRtuInputRegistersArray", `?<Name CPss21 269>`
??m_auiErrorLedOn   SYMBOL "m_auiErrorLedOn", `?<Name CPss21 269>`
??m_auiIntermediateBuff SYMBOL "m_auiIntermediateBuff", `?<Name CPss21 269>`
??m_auiReceiveMessageBuff SYMBOL "m_auiReceiveMessageBuff", `?<Name CPss21 269>`
??m_auiSpiRxBuffer  SYMBOL "m_auiSpiRxBuffer", `?<Name CPss21 269>`
??m_auiSpiTxBuffer  SYMBOL "m_auiSpiTxBuffer", `?<Name CPss21 269>`
??m_axAlarmWindowControl SYMBOL "m_axAlarmWindowControl", `?<Name CPss21 269>`
??m_axDiscreteOutputControl SYMBOL "m_axDiscreteOutputControl", `?<Name CPss21 269>`
??m_uiCommonAlarmType SYMBOL "m_uiCommonAlarmType", `?<Name CPss21 269>`
??m_uiCommonAlarmTypePrevious SYMBOL "m_uiCommonAlarmTypePrevious", `?<Name CPss21 269>`
??m_uiDiscreteSignalsReceipt SYMBOL "m_uiDiscreteSignalsReceipt", `?<Name CPss21 269>`
??m_uiDiscreteSignalsReset SYMBOL "m_uiDiscreteSignalsReset", `?<Name CPss21 269>`
??m_uiErrorCode     SYMBOL "m_uiErrorCode", `?<Name CPss21 269>`
??m_uiExternalReceipt SYMBOL "m_uiExternalReceipt", `?<Name CPss21 269>`
??m_uiExternalReset SYMBOL "m_uiExternalReset", `?<Name CPss21 269>`
??m_uiFsmState      SYMBOL "m_uiFsmState", `?<Name CPss21 269>`
??m_uiModbusReceipt SYMBOL "m_uiModbusReceipt", `?<Name CPss21 269>`
??m_uiModbusReset   SYMBOL "m_uiModbusReset", `?<Name CPss21 269>`
??m_uiModuleIndex   SYMBOL "m_uiModuleIndex", `?<Name CPss21 269>`
??m_uiPanelReceipt  SYMBOL "m_uiPanelReceipt", `?<Name CPss21 269>`
??m_uiPanelReset    SYMBOL "m_uiPanelReset", `?<Name CPss21 269>`
??m_uiType          SYMBOL "m_uiType", `?<Name CPss21 269>`
??m_xBuzzerNotifyerControl SYMBOL "m_xBuzzerNotifyerControl", `?<Name CPss21 269>`
??m_xCheckKey       SYMBOL "m_xCheckKey", `?<Name CPss21 269>`
??m_xDataStore      SYMBOL "m_xDataStore", `?<Name CPss21 269>`
??m_xDeviceConfigSearch SYMBOL "m_xDeviceConfigSearch", `?<Name CPss21 269>`
??m_xDeviceConfiguration SYMBOL "m_xDeviceConfiguration", `?<Name CPss21 269>`
??m_xDeviceState    SYMBOL "m_xDeviceState", `?<Name CPss21 269>`
??m_xDiscreteOutputDataBase SYMBOL "m_xDiscreteOutputDataBase", `?<Name CPss21 269>`
??m_xEmergencyAlarmWindowNotifyerControl SYMBOL "m_xEmergencyAlarmWindowNotifyerControl", `?<Name CPss21 269>`
??m_xEventUniteLogicAndOne SYMBOL "m_xEventUniteLogicAndOne", `?<Name CPss21 269>`
??m_xExternalKey    SYMBOL "m_xExternalKey", `?<Name CPss21 269>`
??m_xLightBoard     SYMBOL "m_xLightBoard", `?<Name CPss21 269>`
??m_xMainCycleTimer SYMBOL "m_xMainCycleTimer", `?<Name CPss21 269>`
??m_xModbusRtuLinkControl SYMBOL "m_xModbusRtuLinkControl", `?<Name CPss21 269>`
??m_xModbusRtuOne   SYMBOL "m_xModbusRtuOne", `?<Name CPss21 269>`
??m_xModbusSettings SYMBOL "m_xModbusSettings", `?<Name CPss21 269>`
??m_xPreventiveAlarmWindowNotifyerControl SYMBOL "m_xPreventiveAlarmWindowNotifyerControl", `?<Name CPss21 269>`
??m_xReceiptKey     SYMBOL "m_xReceiptKey", `?<Name CPss21 269>`
??m_xResetKey       SYMBOL "m_xResetKey", `?<Name CPss21 269>`
??m_xStatusLedNotifyerControl SYMBOL "m_xStatusLedNotifyerControl", `?<Name CPss21 269>`
??m_xUart1          SYMBOL "m_xUart1", `?<Name CPss21 269>`

        EXTERN ??AlarmSet
        EXTERN ??AlarmSet_1
        EXTERN ??AlarmSet_2
        EXTERN ??AlarmSet_3
        EXTERN ??CAlarmWindow
        EXTERN ??CBuzzerNotifyerControl
        EXTERN ??CDataStore
        EXTERN ??CEmergencyAlarmWindowNotifyerControl
        EXTERN ??CEventUniteLogicAnd
        EXTERN ??CLightBoard
        EXTERN ??CModbusRTU
        EXTERN ??CModbusRtuLinkControl
        EXTERN ??CMultiFunctionKey
        EXTERN ??CPreventiveAlarmWindowNotifyerControl
        EXTERN ??CStatusLedNotifyerControl
        EXTERN ??CTimer
        EXTERN ??CUart
        EXTERN ??Check
        EXTERN ??CrcOfBlocksCrcCreate
        EXTERN ??Disable
        EXTERN ??Enable
        EXTERN ??Exchange
        EXTERN ??Fsm
        EXTERN ??Fsm_1
        EXTERN ??Fsm_2
        EXTERN ??Fsm_3
        EXTERN ??GetBlockLength
        EXTERN ??Init_1
        EXTERN ??Init_2
        EXTERN ??Init_3
        EXTERN ??Init_4
        EXTERN ??Init_5
        EXTERN ??IsHappened
        EXTERN ??IsOverflow
        EXTERN ??KeyEventHappened
        EXTERN ??Read
        EXTERN ??Reset
        EXTERN ??Set
        EXTERN ??Set_1
        EXTERN ??SlaveSet
        EXTERN ??Write
        EXTERN ??delay_ms
        EXTERN ??iCrcSummOneByteCompare
        EXTERN ??m_pxUart1
        EXTERN `??new CEmergencyAlarmHighLevelDfa`
        EXTERN `??new CEmergencyAlarmLowLevelDfa`
        EXTERN `??new CIndicationAlarmHighLevelDfa`
        EXTERN `??new CIndicationAlarmLowLevelDfa`
        EXTERN `??new CModuleMrXXDriver`
        EXTERN `??new CMvsn21Driver`
        EXTERN `??new CNormalAlarmDfa`
        EXTERN `??new CPreventiveAlarmHighLevelDfa`
        EXTERN `??new CPreventiveAlarmLowLevelDfa`
        EXTERN `?~CAlarmWindow`
        EXTERN `?~CBuzzerNotifyerControl`
        EXTERN `?~CDataStore`
        EXTERN `?~CEmergencyAlarmWindowNotifyerControl`
        EXTERN `?~CEventUniteLogicAnd`
        EXTERN `?~CLightBoard`
        EXTERN `?~CModbusRTU`
        EXTERN `?~CModbusRtuLinkControl`
        EXTERN `?~CMultiFunctionKey`
        EXTERN `?~CPreventiveAlarmWindowNotifyerControl`
        EXTERN `?~CStatusLedNotifyerControl`
        EXTERN `?~CTimer`
        EXTERN `?~CUart`
        EXTERN __near_vec_construct
        EXTERN __near_vec_destroy
        EXTERN __record_needed_destruction
        EXTERN memcpy
        EXTERN memset

// D:\Projects\CautoProjects\PSS48\PSS48\src\Pss21.cpp
//    1 //-----------------------------------------------------------------------------------------------------
//    2 //  Sourse      : FileName.cpp
//    3 //  Created     : 01.06.2022
//    4 //  Author      : Alexandr Volvenkin
//    5 //  email       : aav-36@mail.ru
//    6 //  GitHub      : https://github.com/AlexandrVolvenkin
//    7 //-----------------------------------------------------------------------------------------------------
//    8 #include "Pss21.h"

        ASEGN ABSOLUTE:DATA:ROOT,09dH
// union <unnamed> volatile __io _A_UCSR1C
_A_UCSR1C:
        DS8 1

        ASEGN ABSOLUTE:DATA:ROOT,09cH
// union <unnamed> volatile __io _A_UDR1
_A_UDR1:
        DS8 1

        ASEGN ABSOLUTE:DATA:ROOT,09bH
// union <unnamed> volatile __io _A_UCSR1A
_A_UCSR1A:
        DS8 1

        ASEGN ABSOLUTE:DATA:ROOT,09aH
// union <unnamed> volatile __io _A_UCSR1B
_A_UCSR1B:
        DS8 1

        ASEGN ABSOLUTE:DATA:ROOT,099H
// union <unnamed> volatile __io _A_UBRR1L
_A_UBRR1L:
        DS8 1

        ASEGN ABSOLUTE:DATA:ROOT,098H
// union <unnamed> volatile __io _A_UBRR1H
_A_UBRR1H:
        DS8 1

        ASEGN ABSOLUTE:DATA:ROOT,095H
// union <unnamed> volatile __io _A_UCSR0C
_A_UCSR0C:
        DS8 1

        ASEGN ABSOLUTE:DATA:ROOT,090H
// union <unnamed> volatile __io _A_UBRR0H
_A_UBRR0H:
        DS8 1

        ASEGN ABSOLUTE:DATA:ROOT,08cH
// union <unnamed> volatile __io _A_TCCR3C
_A_TCCR3C:
        DS8 1

        ASEGN ABSOLUTE:DATA:ROOT,08bH
// union <unnamed> volatile __io _A_TCCR3A
_A_TCCR3A:
        DS8 1

        ASEGN ABSOLUTE:DATA:ROOT,08aH
// union <unnamed> volatile __io _A_TCCR3B
_A_TCCR3B:
        DS8 1

        ASEGN ABSOLUTE:DATA:ROOT,088H
// union <unnamed> volatile __io _A_TCNT3
_A_TCNT3:
        DS8 2

        ASEGN ABSOLUTE:DATA:ROOT,086H
// union <unnamed> volatile __io _A_OCR3A
_A_OCR3A:
        DS8 2

        ASEGN ABSOLUTE:DATA:ROOT,084H
// union <unnamed> volatile __io _A_OCR3B
_A_OCR3B:
        DS8 2

        ASEGN ABSOLUTE:DATA:ROOT,082H
// union <unnamed> volatile __io _A_OCR3C
_A_OCR3C:
        DS8 2

        ASEGN ABSOLUTE:DATA:ROOT,080H
// union <unnamed> volatile __io _A_ICR3
_A_ICR3:
        DS8 2

        ASEGN ABSOLUTE:DATA:ROOT,07dH
// union <unnamed> volatile __io _A_ETIMSK
_A_ETIMSK:
        DS8 1

        ASEGN ABSOLUTE:DATA:ROOT,07cH
// union <unnamed> volatile __io _A_ETIFR
_A_ETIFR:
        DS8 1

        ASEGN ABSOLUTE:DATA:ROOT,07aH
// union <unnamed> volatile __io _A_TCCR1C
_A_TCCR1C:
        DS8 1

        ASEGN ABSOLUTE:DATA:ROOT,078H
// union <unnamed> volatile __io _A_OCR1C
_A_OCR1C:
        DS8 2

        ASEGN ABSOLUTE:DATA:ROOT,074H
// union <unnamed> volatile __io _A_TWCR
_A_TWCR:
        DS8 1

        ASEGN ABSOLUTE:DATA:ROOT,073H
// union <unnamed> volatile __io _A_TWDR
_A_TWDR:
        DS8 1

        ASEGN ABSOLUTE:DATA:ROOT,072H
// union <unnamed> volatile __io _A_TWAR
_A_TWAR:
        DS8 1

        ASEGN ABSOLUTE:DATA:ROOT,071H
// union <unnamed> volatile __io _A_TWSR
_A_TWSR:
        DS8 1

        ASEGN ABSOLUTE:DATA:ROOT,070H
// union <unnamed> volatile __io _A_TWBR
_A_TWBR:
        DS8 1

        ASEGN ABSOLUTE:DATA:ROOT,06fH
// union <unnamed> volatile __io _A_OSCCAL
_A_OSCCAL:
        DS8 1

        ASEGN ABSOLUTE:DATA:ROOT,06dH
// union <unnamed> volatile __io _A_XMCRA
_A_XMCRA:
        DS8 1

        ASEGN ABSOLUTE:DATA:ROOT,06cH
// union <unnamed> volatile __io _A_XMCRB
_A_XMCRB:
        DS8 1

        ASEGN ABSOLUTE:DATA:ROOT,06aH
// union <unnamed> volatile __io _A_EICRA
_A_EICRA:
        DS8 1

        ASEGN ABSOLUTE:DATA:ROOT,068H
// union <unnamed> volatile __io _A_SPMCSR
_A_SPMCSR:
        DS8 1

        ASEGN ABSOLUTE:DATA:ROOT,065H
// union <unnamed> volatile __io _A_PORTG
_A_PORTG:
        DS8 1

        ASEGN ABSOLUTE:DATA:ROOT,064H
// union <unnamed> volatile __io _A_DDRG
_A_DDRG:
        DS8 1

        ASEGN ABSOLUTE:DATA:ROOT,063H
// union <unnamed> volatile __io _A_PING
_A_PING:
        DS8 1

        ASEGN ABSOLUTE:DATA:ROOT,062H
// union <unnamed> volatile __io _A_PORTF
_A_PORTF:
        DS8 1

        ASEGN ABSOLUTE:DATA:ROOT,061H
// union <unnamed> volatile __io _A_DDRF
_A_DDRF:
        DS8 1

        ASEGN ABSOLUTE:DATA:ROOT,05fH
// union <unnamed> volatile __io _A_SREG
_A_SREG:
        DS8 1

        ASEGN ABSOLUTE:DATA:ROOT,05dH
// union <unnamed> volatile __io _A_SP
_A_SP:
        DS8 2

        ASEGN ABSOLUTE:DATA:ROOT,05cH
// union <unnamed> volatile __io _A_XDIV
_A_XDIV:
        DS8 1

        ASEGN ABSOLUTE:DATA:ROOT,05bH
// union <unnamed> volatile __io _A_RAMPZ
_A_RAMPZ:
        DS8 1

        ASEGN ABSOLUTE:DATA:ROOT,05aH
// union <unnamed> volatile __io _A_EICRB
_A_EICRB:
        DS8 1

        ASEGN ABSOLUTE:DATA:ROOT,059H
// union <unnamed> volatile __io _A_EIMSK
_A_EIMSK:
        DS8 1

        ASEGN ABSOLUTE:DATA:ROOT,058H
// union <unnamed> volatile __io _A_EIFR
_A_EIFR:
        DS8 1

        ASEGN ABSOLUTE:DATA:ROOT,057H
// union <unnamed> volatile __io _A_TIMSK
_A_TIMSK:
        DS8 1

        ASEGN ABSOLUTE:DATA:ROOT,056H
// union <unnamed> volatile __io _A_TIFR
_A_TIFR:
        DS8 1

        ASEGN ABSOLUTE:DATA:ROOT,055H
// union <unnamed> volatile __io _A_MCUCR
_A_MCUCR:
        DS8 1

        ASEGN ABSOLUTE:DATA:ROOT,054H
// union <unnamed> volatile __io _A_MCUCSR
_A_MCUCSR:
        DS8 1

        ASEGN ABSOLUTE:DATA:ROOT,053H
// union <unnamed> volatile __io _A_TCCR0
_A_TCCR0:
        DS8 1

        ASEGN ABSOLUTE:DATA:ROOT,052H
// union <unnamed> volatile __io _A_TCNT0
_A_TCNT0:
        DS8 1

        ASEGN ABSOLUTE:DATA:ROOT,051H
// union <unnamed> volatile __io _A_OCR0
_A_OCR0:
        DS8 1

        ASEGN ABSOLUTE:DATA:ROOT,050H
// union <unnamed> volatile __io _A_ASSR
_A_ASSR:
        DS8 1

        ASEGN ABSOLUTE:DATA:ROOT,04fH
// union <unnamed> volatile __io _A_TCCR1A
_A_TCCR1A:
        DS8 1

        ASEGN ABSOLUTE:DATA:ROOT,04eH
// union <unnamed> volatile __io _A_TCCR1B
_A_TCCR1B:
        DS8 1

        ASEGN ABSOLUTE:DATA:ROOT,04cH
// union <unnamed> volatile __io _A_TCNT1
_A_TCNT1:
        DS8 2

        ASEGN ABSOLUTE:DATA:ROOT,04aH
// union <unnamed> volatile __io _A_OCR1A
_A_OCR1A:
        DS8 2

        ASEGN ABSOLUTE:DATA:ROOT,048H
// union <unnamed> volatile __io _A_OCR1B
_A_OCR1B:
        DS8 2

        ASEGN ABSOLUTE:DATA:ROOT,046H
// union <unnamed> volatile __io _A_ICR1
_A_ICR1:
        DS8 2

        ASEGN ABSOLUTE:DATA:ROOT,045H
// union <unnamed> volatile __io _A_TCCR2
_A_TCCR2:
        DS8 1

        ASEGN ABSOLUTE:DATA:ROOT,044H
// union <unnamed> volatile __io _A_TCNT2
_A_TCNT2:
        DS8 1

        ASEGN ABSOLUTE:DATA:ROOT,043H
// union <unnamed> volatile __io _A_OCR2
_A_OCR2:
        DS8 1

        ASEGN ABSOLUTE:DATA:ROOT,042H
// union <unnamed> volatile __io _A_OCDR
_A_OCDR:
        DS8 1

        ASEGN ABSOLUTE:DATA:ROOT,041H
// union <unnamed> volatile __io _A_WDTCR
_A_WDTCR:
        DS8 1

        ASEGN ABSOLUTE:DATA:ROOT,040H
// union <unnamed> volatile __io _A_SFIOR
_A_SFIOR:
        DS8 1

        ASEGN ABSOLUTE:DATA:ROOT,03eH
// union <unnamed> volatile __io _A_EEAR
_A_EEAR:
        DS8 2

        ASEGN ABSOLUTE:DATA:ROOT,03dH
// union <unnamed> volatile __io _A_EEDR
_A_EEDR:
        DS8 1

        ASEGN ABSOLUTE:DATA:ROOT,03cH
// union <unnamed> volatile __io _A_EECR
_A_EECR:
        DS8 1

        ASEGN ABSOLUTE:DATA:ROOT,03bH
// union <unnamed> volatile __io _A_PORTA
_A_PORTA:
        DS8 1

        ASEGN ABSOLUTE:DATA:ROOT,03aH
// union <unnamed> volatile __io _A_DDRA
_A_DDRA:
        DS8 1

        ASEGN ABSOLUTE:DATA:ROOT,039H
// union <unnamed> volatile __io _A_PINA
_A_PINA:
        DS8 1

        ASEGN ABSOLUTE:DATA:ROOT,038H
// union <unnamed> volatile __io _A_PORTB
_A_PORTB:
        DS8 1

        ASEGN ABSOLUTE:DATA:ROOT,037H
// union <unnamed> volatile __io _A_DDRB
_A_DDRB:
        DS8 1

        ASEGN ABSOLUTE:DATA:ROOT,036H
// union <unnamed> volatile __io _A_PINB
_A_PINB:
        DS8 1

        ASEGN ABSOLUTE:DATA:ROOT,035H
// union <unnamed> volatile __io _A_PORTC
_A_PORTC:
        DS8 1

        ASEGN ABSOLUTE:DATA:ROOT,034H
// union <unnamed> volatile __io _A_DDRC
_A_DDRC:
        DS8 1

        ASEGN ABSOLUTE:DATA:ROOT,033H
// union <unnamed> volatile __io _A_PINC
_A_PINC:
        DS8 1

        ASEGN ABSOLUTE:DATA:ROOT,032H
// union <unnamed> volatile __io _A_PORTD
_A_PORTD:
        DS8 1

        ASEGN ABSOLUTE:DATA:ROOT,031H
// union <unnamed> volatile __io _A_DDRD
_A_DDRD:
        DS8 1

        ASEGN ABSOLUTE:DATA:ROOT,030H
// union <unnamed> volatile __io _A_PIND
_A_PIND:
        DS8 1

        ASEGN ABSOLUTE:DATA:ROOT,02fH
// union <unnamed> volatile __io _A_SPDR
_A_SPDR:
        DS8 1

        ASEGN ABSOLUTE:DATA:ROOT,02eH
// union <unnamed> volatile __io _A_SPSR
_A_SPSR:
        DS8 1

        ASEGN ABSOLUTE:DATA:ROOT,02dH
// union <unnamed> volatile __io _A_SPCR
_A_SPCR:
        DS8 1

        ASEGN ABSOLUTE:DATA:ROOT,02cH
// union <unnamed> volatile __io _A_UDR0
_A_UDR0:
        DS8 1

        ASEGN ABSOLUTE:DATA:ROOT,02bH
// union <unnamed> volatile __io _A_UCSR0A
_A_UCSR0A:
        DS8 1

        ASEGN ABSOLUTE:DATA:ROOT,02aH
// union <unnamed> volatile __io _A_UCSR0B
_A_UCSR0B:
        DS8 1

        ASEGN ABSOLUTE:DATA:ROOT,029H
// union <unnamed> volatile __io _A_UBRR0L
_A_UBRR0L:
        DS8 1

        ASEGN ABSOLUTE:DATA:ROOT,028H
// union <unnamed> volatile __io _A_ACSR
_A_ACSR:
        DS8 1

        ASEGN ABSOLUTE:DATA:ROOT,027H
// union <unnamed> volatile __io _A_ADMUX
_A_ADMUX:
        DS8 1

        ASEGN ABSOLUTE:DATA:ROOT,026H
// union <unnamed> volatile __io _A_ADCSRA
_A_ADCSRA:
        DS8 1

        ASEGN ABSOLUTE:DATA:ROOT,024H
// union <unnamed> volatile __io _A_ADC
_A_ADC:
        DS8 2

        ASEGN ABSOLUTE:DATA:ROOT,023H
// union <unnamed> volatile __io _A_PORTE
_A_PORTE:
        DS8 1

        ASEGN ABSOLUTE:DATA:ROOT,022H
// union <unnamed> volatile __io _A_DDRE
_A_DDRE:
        DS8 1

        ASEGN ABSOLUTE:DATA:ROOT,021H
// union <unnamed> volatile __io _A_PINE
_A_PINE:
        DS8 1

        ASEGN ABSOLUTE:DATA:ROOT,020H
// union <unnamed> volatile __io _A_PINF
_A_PINF:
        DS8 1
//    9 #include "Platform.h"
//   10 #include "InputDevice.h"
//   11 #include "Mvsn21.h"
//   12 #include "ModuleMrXX.h"
//   13 #include "Crc.h"
//   14 #include "ModbusRTU.h"
//   15 #include "DataBase.h"
//   16 #include "DataTypes.h"
//   17 #include "Alarm.h"
//   18 #include "NotifyerControl.h"
//   19 #include "Buzzer.h"
//   20 #include "Event.h"
//   21 #include "Dfa.h"
//   22 
//   23 
//   24 //uint8_t CPss21::m_aucRtuCoilsArray[];
//   25 //uint8_t CPss21::m_aucRtuDiscreteInputsArray[];
//   26 uint16_t CPss21::m_aucRtuHoldingRegistersArray[];
//   27 uint16_t CPss21::m_aucRtuInputRegistersArray[];
//   28 uint8_t CPss21::m_aucRtuDiscreteDataArray[];
//   29 uint8_t CPss21::m_auiReceiveMessageBuff[];
//   30 //uint8_t CPss21::m_auiTransmitMessageBuff[];
//   31 uint8_t CPss21::m_auiIntermediateBuff[];
//   32 uint8_t CPss21::m_auiSpiRxBuffer[];
//   33 uint8_t CPss21::m_auiSpiTxBuffer[];
//   34 
//   35 uint8_t CPss21::m_uiFsmState;
//   36 uint8_t CPss21::m_uiType;
//   37 //CDriver* CPss21::m_pxDriver;
//   38 //CDevice* CPss21::m_apxDevices[];
//   39 CDriver* CPss21::m_apxDrivers[];
//   40 

        RSEG CODE:CODE:NOROOT(1)
// static __intrinsic __version_3 void __sti__routine()
??__sti__routine:
//   41 CUart CPss21::m_xUart1(&UBRR1H, &UBRR1L, &UCSR1A, &UCSR1B, &UCSR1C, &UDR1, &DDRC, DDC7, &PORTC, PC7);
        LDI     R16, 7
        ST      -Y, R16
        LDI     R16, LOW(53)
        LDI     R17, (53) >> 8
        RCALL   ?Subroutine74
??CrossCallReturnLabel_125:
        LDI     R16, 7
        ST      -Y, R16
        LDI     R16, LOW(52)
        RCALL   ?Subroutine74
??CrossCallReturnLabel_126:
        LDI     R16, LOW(156)
        RCALL   ?Subroutine74
??CrossCallReturnLabel_127:
        LDI     R16, LOW(157)
        RCALL   ?Subroutine74
??CrossCallReturnLabel_128:
        LDI     R16, LOW(154)
        RCALL   ?Subroutine74
??CrossCallReturnLabel_129:
        LDI     R22, LOW(155)
        LDI     R23, (53) >> 8
        LDI     R20, LOW(153)
        LDI     R21, (53) >> 8
        LDI     R18, LOW(152)
        LDI     R19, (53) >> 8
        LDI     R16, LOW(??m_xUart1)
        LDI     R17, (??m_xUart1) >> 8
        CALL    ??CUart
        LDI     R16, LOW(?_0)
        LDI     R17, (?_0) >> 8
        RCALL   ?Subroutine72
//   42 CModbusRTU CPss21::m_xModbusRtuOne;
??CrossCallReturnLabel_110:
        RCALL   ??Subroutine90_0
??CrossCallReturnLabel_192:
        LDI     R16, LOW(??m_xModbusRtuOne)
        LDI     R17, (??m_xModbusRtuOne) >> 8
        CALL    ??CModbusRTU
        LDI     R16, LOW((?_0 + 6))
        LDI     R17, HIGH((?_0 + 6))
        RCALL   ?Subroutine72
//   43 
//   44 //CDataBase CPss21::m_xDataBase;
//   45 //CDataBase* CPss21::m_pxDataBase;
//   46 CDataStore CPss21::m_xDataStore;
??CrossCallReturnLabel_111:
        LDI     R16, LOW(??m_xDataStore)
        LDI     R17, (??m_xDataStore) >> 8
        CALL    ??CDataStore
        LDI     R16, LOW((?_0 + 12))
        LDI     R17, HIGH((?_0 + 12))
        RCALL   ?Subroutine72
//   47 
//   48 CMultiFunctionKey CPss21::m_xReceiptKey(CPlatform::KeyOneState);
??CrossCallReturnLabel_112:
        LDI     R18, LOW(??KeyOneState/2)
        LDI     R19, (??KeyOneState/2) >> 8
        LDI     R16, LOW((??m_xDeviceConfigSearch + 59))
        LDI     R17, HIGH((??m_xDeviceConfigSearch + 59))
        RCALL   ?Subroutine12
??CrossCallReturnLabel_5:
        LDI     R16, LOW((?_0 + 18))
        LDI     R17, HIGH((?_0 + 18))
        RCALL   ?Subroutine72
//   49 CMultiFunctionKey CPss21::m_xResetKey(CPlatform::KeyTwoState);
??CrossCallReturnLabel_113:
        LDI     R18, LOW(??KeyTwoState/2)
        LDI     R19, (??KeyTwoState/2) >> 8
        LDI     R16, LOW((??m_xDeviceConfigSearch + 74))
        LDI     R17, HIGH((??m_xDeviceConfigSearch + 74))
        RCALL   ?Subroutine12
??CrossCallReturnLabel_4:
        LDI     R16, LOW((?_0 + 24))
        LDI     R17, HIGH((?_0 + 24))
        RCALL   ?Subroutine72
//   50 CMultiFunctionKey CPss21::m_xCheckKey(CPlatform::KeyThreeState);
??CrossCallReturnLabel_114:
        LDI     R18, LOW(??KeyThreeState/2)
        LDI     R19, (??KeyThreeState/2) >> 8
        LDI     R16, LOW((??m_xDeviceConfigSearch + 89))
        LDI     R17, HIGH((??m_xDeviceConfigSearch + 89))
        RCALL   ?Subroutine12
??CrossCallReturnLabel_3:
        LDI     R16, LOW((?_0 + 30))
        LDI     R17, HIGH((?_0 + 30))
        RCALL   ?Subroutine72
//   51 CMultiFunctionKey CPss21::m_xExternalKey(CPlatform::ExternalKeyState);
??CrossCallReturnLabel_115:
        LDI     R18, LOW(??ExternalKeyState/2)
        LDI     R19, (??ExternalKeyState/2) >> 8
        LDI     R16, LOW((??m_xDeviceConfigSearch + 104))
        LDI     R17, HIGH((??m_xDeviceConfigSearch + 104))
        RCALL   ?Subroutine12
??CrossCallReturnLabel_2:
        LDI     R16, LOW((?_0 + 36))
        LDI     R17, HIGH((?_0 + 36))
        RCALL   ?Subroutine72
//   52 
//   53 uint8_t CPss21::m_uiPanelReceipt;
//   54 uint8_t CPss21::m_uiPanelReset;
//   55 uint8_t CPss21::m_uiExternalReceipt;
//   56 uint8_t CPss21::m_uiExternalReset;
//   57 uint8_t CPss21::m_uiModbusReceipt;
//   58 uint8_t CPss21::m_uiModbusReset;
//   59 uint8_t CPss21::m_uiDiscreteSignalsReceipt;
//   60 uint8_t CPss21::m_uiDiscreteSignalsReset;
//   61 uint8_t CPss21::m_uiErrorCode;
//   62 uint8_t CPss21::m_uiModuleIndex;
//   63 CEventUniteLogicAnd CPss21::m_xEventUniteLogicAndOne(500);
??CrossCallReturnLabel_116:
        LDI     R18, 244
        LDI     R19, 1
        LDI     R16, LOW((??m_xDeviceConfigSearch + 119))
        LDI     R17, HIGH((??m_xDeviceConfigSearch + 119))
        CALL    ??CEventUniteLogicAnd
        LDI     R16, LOW((?_0 + 42))
        LDI     R17, HIGH((?_0 + 42))
        RCALL   ?Subroutine72
//   64 CTimer CPss21::m_xMainCycleTimer(MAIN_CYCLE_PERIOD_TIME);
??CrossCallReturnLabel_117:
        LDI     R18, 100
        LDI     R19, 0
        RCALL   ?Subroutine69
??CrossCallReturnLabel_98:
        CALL    ??CTimer
        LDI     R16, LOW((?_0 + 48))
        LDI     R17, HIGH((?_0 + 48))
        RCALL   ?Subroutine72
//   65 //CTimer CPss21::m_xPeripheryTimer(PERIPHERY_SCAN_TIME);
//   66 
//   67 CPreventiveAlarmWindowNotifyerControl CPss21::m_xPreventiveAlarmWindowNotifyerControl;
??CrossCallReturnLabel_118:
        LDI     R16, LOW((??m_xDeviceConfigSearch + 139))
        LDI     R17, HIGH((??m_xDeviceConfigSearch + 139))
        CALL    ??CPreventiveAlarmWindowNotifyerControl
        LDI     R16, LOW((?_0 + 54))
        LDI     R17, HIGH((?_0 + 54))
        RCALL   ?Subroutine72
//   68 CEmergencyAlarmWindowNotifyerControl CPss21::m_xEmergencyAlarmWindowNotifyerControl;
??CrossCallReturnLabel_119:
        LDI     R16, LOW((??m_xDeviceConfigSearch + 151))
        LDI     R17, HIGH((??m_xDeviceConfigSearch + 151))
        CALL    ??CEmergencyAlarmWindowNotifyerControl
        LDI     R16, LOW((?_0 + 60))
        LDI     R17, HIGH((?_0 + 60))
        RCALL   ?Subroutine72
//   69 CStatusLedNotifyerControl CPss21::m_xStatusLedNotifyerControl;
??CrossCallReturnLabel_120:
        LDI     R16, LOW((??m_xDeviceConfigSearch + 163))
        LDI     R17, HIGH((??m_xDeviceConfigSearch + 163))
        CALL    ??CStatusLedNotifyerControl
        LDI     R16, LOW((?_0 + 66))
        LDI     R17, HIGH((?_0 + 66))
        RCALL   ?Subroutine72
//   70 CBuzzerNotifyerControl CPss21::m_xBuzzerNotifyerControl;
??CrossCallReturnLabel_121:
        LDI     R16, LOW((??m_xDeviceConfigSearch + 175))
        LDI     R17, HIGH((??m_xDeviceConfigSearch + 175))
        CALL    ??CBuzzerNotifyerControl
        LDI     R16, LOW((?_0 + 72))
        LDI     R17, HIGH((?_0 + 72))
        RCALL   ?Subroutine72
//   71 CModbusRtuLinkControl CPss21::m_xModbusRtuLinkControl;
??CrossCallReturnLabel_122:
        LDI     R16, LOW((??m_xDeviceConfigSearch + 29))
        LDI     R17, HIGH((??m_xDeviceConfigSearch + 29))
        CALL    ??CModbusRtuLinkControl
        LDI     R16, LOW((?_0 + 78))
        LDI     R17, HIGH((?_0 + 78))
        RCALL   ?Subroutine72
//   72 
//   73 uint8_t CPss21::m_uiCommonAlarmType;
//   74 uint8_t CPss21::m_uiCommonAlarmTypePrevious;
//   75 CLightBoard CPss21::m_xLightBoard;
??CrossCallReturnLabel_123:
        RCALL   ?Subroutine16
??CrossCallReturnLabel_175:
        CALL    ??CLightBoard
        LDI     R16, LOW((?_0 + 84))
        LDI     R17, HIGH((?_0 + 84))
        RCALL   ?Subroutine72
//   76 TConfigDataPackOne CPss21::m_xDeviceConfigSearch;
//   77 TDevConfig CPss21::m_xDeviceConfiguration;
//   78 TDeviceState CPss21::m_xDeviceState;
//   79 TMBusSetting CPss21::m_xModbusSettings;
//   80 CAlarmDfa *CPss21::m_apxAlarmDfa[];
//   81 TDiscreteOutputControl CPss21::m_axDiscreteOutputControl[];
//   82 TOutputData CPss21::m_xDiscreteOutputDataBase;
//   83 CAlarmWindow CPss21::m_axAlarmWindowControl[];
??CrossCallReturnLabel_124:
        LDI     R22, LOW(??CAlarmWindow/2)
        LDI     R23, (??CAlarmWindow/2) >> 8
        RCALL   ?Subroutine23
??CrossCallReturnLabel_12:
        CALL    __near_vec_construct
        LDI     R16, LOW((?_0 + 90))
        LDI     R17, HIGH((?_0 + 90))
        REQUIRE ?Subroutine72
        REQUIRE _A_UBRR1H
        REQUIRE _A_UBRR1L
        REQUIRE _A_UCSR1A
        REQUIRE _A_UCSR1B
        REQUIRE _A_UCSR1C
        REQUIRE _A_UDR1
        REQUIRE _A_DDRC
        REQUIRE _A_PORTC
        ;               // Fall through to label ?Subroutine72

        RSEG CODE:CODE:NOROOT(1)
?Subroutine72:
        JMP     __record_needed_destruction

        RSEG CODE:CODE:NOROOT(1)
?Subroutine12:
        JMP     ??CMultiFunctionKey

        RSEG CODE:CODE:NOROOT(1)
`?<Unnamed 0>`:
        RCALL   ?Subroutine19
??CrossCallReturnLabel_178:
        JMP     `?~CUart`

        RSEG CODE:CODE:NOROOT(1)
`?<Unnamed 1>`:
        RCALL   ?Subroutine19
??CrossCallReturnLabel_179:
        JMP     `?~CModbusRTU`

        RSEG CODE:CODE:NOROOT(1)
`?<Unnamed 2>`:
        RCALL   ?Subroutine19
??CrossCallReturnLabel_180:
        JMP     `?~CDataStore`

        RSEG CODE:CODE:NOROOT(1)
`?<Unnamed 3>`:
        RCALL   ?Subroutine19
??CrossCallReturnLabel_181:
        JMP     `?~CMultiFunctionKey`

        RSEG CODE:CODE:NOROOT(1)
`?<Unnamed 4>`:
        RCALL   ?Subroutine19
??CrossCallReturnLabel_182:
        JMP     `?~CEventUniteLogicAnd`

        RSEG CODE:CODE:NOROOT(1)
`?<Unnamed 5>`:
        RCALL   ?Subroutine19
??CrossCallReturnLabel_183:
        JMP     `?~CTimer`

        RSEG CODE:CODE:NOROOT(1)
`?<Unnamed 6>`:
        RCALL   ?Subroutine19
??CrossCallReturnLabel_184:
        JMP     `?~CPreventiveAlarmWindowNotifyerControl`

        RSEG CODE:CODE:NOROOT(1)
`?<Unnamed 7>`:
        RCALL   ?Subroutine19
??CrossCallReturnLabel_185:
        JMP     `?~CEmergencyAlarmWindowNotifyerControl`

        RSEG NEAR_Z:DATA:ROOT(0)
        REQUIRE `?<Segment init: NEAR_Z>`
??m_xModbusSettings:
        DS8 7
??m_aucRtuHoldingRegistersArray:
        DS8 16
??m_axDiscreteOutputControl:
        DS8 16
??m_xDeviceState:
        DS8 8
??m_aucRtuInputRegistersArray:
        DS8 16
??m_xDiscreteOutputDataBase:
        DS8 24

        RSEG NEAR_Z:DATA:ROOT(0)
        REQUIRE `?<Segment init: NEAR_Z>`
??m_aucRtuDiscreteDataArray:
        DS8 120

        RSEG NEAR_Z:DATA:ROOT(0)
        REQUIRE `?<Segment init: NEAR_Z>`
??m_auiReceiveMessageBuff:
        DS8 256

        RSEG NEAR_Z:DATA:ROOT(0)
        REQUIRE `?<Segment init: NEAR_Z>`
??m_auiIntermediateBuff:
        DS8 256

        RSEG NEAR_Z:DATA:ROOT(0)
        REQUIRE `?<Segment init: NEAR_Z>`
??m_auiSpiRxBuffer:
        DS8 64

        RSEG NEAR_Z:DATA:ROOT(0)
        REQUIRE `?<Segment init: NEAR_Z>`
??m_auiSpiTxBuffer:
        DS8 64

        RSEG NEAR_Z:DATA:ROOT(0)
        REQUIRE `?<Segment init: NEAR_Z>`
??m_xDeviceConfigSearch:
        DS8 9
??m_xDeviceConfiguration:
        DS8 20
??m_xModbusRtuLinkControl:
        DS8 11
??m_apxDrivers:
        DS8 6
??m_uiFsmState:
        DS8 1
??m_uiPanelReceipt:
        DS8 1
??m_uiPanelReset:
        DS8 1
??m_uiExternalReceipt:
        DS8 1
??m_uiExternalReset:
        DS8 1
??m_uiModbusReceipt:
        DS8 1
??m_uiModbusReset:
        DS8 1
??m_uiDiscreteSignalsReceipt:
        DS8 1
??m_uiDiscreteSignalsReset:
        DS8 1
??m_uiErrorCode:
        DS8 1
??m_uiModuleIndex:
        DS8 1
??m_uiCommonAlarmType:
        DS8 1
??m_uiCommonAlarmTypePrevious:
        DS8 1
??m_xReceiptKey:
        DS8 15
??m_xResetKey:
        DS8 15
??m_xCheckKey:
        DS8 15
??m_xExternalKey:
        DS8 15
??m_xEventUniteLogicAndOne:
        DS8 14
??m_xMainCycleTimer:
        DS8 6
??m_xPreventiveAlarmWindowNotifyerControl:
        DS8 12
??m_xEmergencyAlarmWindowNotifyerControl:
        DS8 12
??m_xStatusLedNotifyerControl:
        DS8 12
??m_xBuzzerNotifyerControl:
        DS8 12

        RSEG NEAR_Z:DATA:ROOT(0)
        REQUIRE `?<Segment init: NEAR_Z>`
??m_uiType:
        DS8 1

        RSEG NEAR_Z:DATA:ROOT(0)
        REQUIRE `?<Segment init: NEAR_Z>`
??m_xUart1:
        DS8 47

        RSEG NEAR_Z:DATA:ROOT(0)
        REQUIRE `?<Segment init: NEAR_Z>`
?_1:
        DS8 2

        RSEG NEAR_Z:DATA:ROOT(0)
        REQUIRE `?<Segment init: NEAR_Z>`
??m_xModbusRtuOne:
        DS8 49

        RSEG NEAR_Z:DATA:ROOT(0)
        REQUIRE `?<Segment init: NEAR_Z>`
?_3:
        DS8 2

        RSEG NEAR_Z:DATA:ROOT(0)
        REQUIRE `?<Segment init: NEAR_Z>`
??m_xDataStore:
        DS8 137

        RSEG NEAR_Z:DATA:ROOT(0)
        REQUIRE `?<Segment init: NEAR_Z>`
?_5:
        DS8 2

        RSEG NEAR_Z:DATA:ROOT(0)
        REQUIRE `?<Segment init: NEAR_Z>`
?_7:
        DS8 2

        RSEG NEAR_Z:DATA:ROOT(0)
        REQUIRE `?<Segment init: NEAR_Z>`
?_9:
        DS8 2

        RSEG NEAR_Z:DATA:ROOT(0)
        REQUIRE `?<Segment init: NEAR_Z>`
?_11:
        DS8 2

        RSEG NEAR_Z:DATA:ROOT(0)
        REQUIRE `?<Segment init: NEAR_Z>`
?_13:
        DS8 2

        RSEG NEAR_Z:DATA:ROOT(0)
        REQUIRE `?<Segment init: NEAR_Z>`
?_15:
        DS8 2

        RSEG NEAR_Z:DATA:ROOT(0)
        REQUIRE `?<Segment init: NEAR_Z>`
?_17:
        DS8 2

        RSEG NEAR_Z:DATA:ROOT(0)
        REQUIRE `?<Segment init: NEAR_Z>`
?_19:
        DS8 2

        RSEG NEAR_Z:DATA:ROOT(0)
        REQUIRE `?<Segment init: NEAR_Z>`
?_21:
        DS8 2

        RSEG NEAR_Z:DATA:ROOT(0)
        REQUIRE `?<Segment init: NEAR_Z>`
?_23:
        DS8 2

        RSEG NEAR_Z:DATA:ROOT(0)
        REQUIRE `?<Segment init: NEAR_Z>`
?_25:
        DS8 2

        RSEG NEAR_Z:DATA:ROOT(0)
        REQUIRE `?<Segment init: NEAR_Z>`
?_27:
        DS8 2

        RSEG NEAR_Z:DATA:ROOT(0)
        REQUIRE `?<Segment init: NEAR_Z>`
??m_xLightBoard:
        DS8 70

        RSEG NEAR_Z:DATA:ROOT(0)
        REQUIRE `?<Segment init: NEAR_Z>`
?_29:
        DS8 2

        RSEG NEAR_Z:DATA:ROOT(0)
        REQUIRE `?<Segment init: NEAR_Z>`
??m_apxAlarmDfa:
        DS8 192

        RSEG NEAR_I:DATA:ROOT(0)
        REQUIRE `?<Segment init: NEAR_I>`
?_0:
        DS8 6
        REQUIRE `?<Initializer for >`
        DS8 6
        REQUIRE `?<Initializer for >_1`
        DS8 6
        REQUIRE `?<Initializer for >_2`
        DS8 6
        REQUIRE `?<Initializer for >_3`
        DS8 6
        REQUIRE `?<Initializer for >_4`
        DS8 6
        REQUIRE `?<Initializer for >_5`
        DS8 6
        REQUIRE `?<Initializer for >_6`
        DS8 6
        REQUIRE `?<Initializer for >_7`
        DS8 6
        REQUIRE `?<Initializer for >_8`
        DS8 6
        REQUIRE `?<Initializer for >_9`
        DS8 6
        REQUIRE `?<Initializer for >_10`
        DS8 6
        REQUIRE `?<Initializer for >_11`
        DS8 6
        REQUIRE `?<Initializer for >_12`
        DS8 6
        REQUIRE `?<Initializer for >_13`
        DS8 6
        REQUIRE `?<Initializer for >_14`
        DS8 6
        REQUIRE `?<Initializer for >_15`

        RSEG NEAR_Z:DATA:ROOT(0)
        REQUIRE `?<Segment init: NEAR_Z>`
??m_axAlarmWindowControl:
        DS8 288

        RSEG NEAR_Z:DATA:ROOT(0)
        REQUIRE `?<Segment init: NEAR_Z>`
?_31:
        DS8 2

        RSEG NEAR_F:CODE:ROOT(0)
        DC8 0, 0, 0, 0

        RSEG NEAR_F:CODE:ROOT(0)
        DC8 0, 0, 0, 0, 0, 0, 0, 0, 0, 0, 0, 0, 0, 0, 0, 0
        DC8 0, 0, 0, 0, 0, 0, 0, 0, 0, 0, 0, 0, 0, 0, 0, 0
//   84 

        RSEG NEAR_F:CODE:ROOT(0)
//   85 __flash uint8_t CPss21::m_auiErrorLedOn[] =
??m_auiErrorLedOn:
        DC8 1, 1, 1, 1, 1, 1, 1, 1, 1, 0, 0, 0, 0, 0, 0, 1, 1, 0, 0, 0, 0, 0, 0
        DC8 1, 1, 0, 0, 0, 0, 0, 0, 1, 1, 0, 0, 0, 0, 0, 0, 1, 1, 1, 1, 1, 1, 1
        DC8 1, 1

        RSEG CODE:CODE:NOROOT(1)
?Subroutine19:
        LDI     R18, 2
        REQUIRE ?Subroutine76
        ;               // Fall through to label ?Subroutine76

        RSEG CODE:CODE:NOROOT(1)
?Subroutine76:
        LDI     R19, 0
        RET

        RSEG CODE:CODE:NOROOT(1)
`?<Unnamed 8>`:
        RCALL   ?Subroutine19
??CrossCallReturnLabel_186:
        JMP     `?~CStatusLedNotifyerControl`

        RSEG CODE:CODE:NOROOT(1)
`?<Unnamed 9>`:
        RCALL   ?Subroutine19
??CrossCallReturnLabel_187:
        JMP     `?~CBuzzerNotifyerControl`

        RSEG CODE:CODE:NOROOT(1)
`?<Unnamed 10>`:
        RCALL   ?Subroutine19
??CrossCallReturnLabel_188:
        JMP     `?~CModbusRtuLinkControl`

        RSEG CODE:CODE:NOROOT(1)
`?<Unnamed 11>`:
        RCALL   ?Subroutine19
??CrossCallReturnLabel_189:
        JMP     `?~CLightBoard`

        RSEG CODE:CODE:NOROOT(1)
`?<Unnamed 12>`:
        LDI     R22, LOW(`?<Unnamed 13>`/2)
        LDI     R23, (`?<Unnamed 13>`/2) >> 8
        RCALL   ?Subroutine23
??CrossCallReturnLabel_13:
        JMP     __near_vec_destroy

        RSEG CODE:CODE:NOROOT(1)
?Subroutine23:
        LDI     R20, 6
        LDI     R21, 0
        LDI     R18, 48
        LDI     R19, 0
        LDI     R16, LOW(??m_axAlarmWindowControl)
        LDI     R17, (??m_axAlarmWindowControl) >> 8
        RET

        RSEG CODE:CODE:NOROOT(1)
`?<Unnamed 13>`:
        RCALL   ?Subroutine19
??CrossCallReturnLabel_190:
        JMP     `?~CAlarmWindow`
//   86 {
//   87     1, 1, 1, 1,    1, 1, 1, 1,
//   88     1, 0, 0, 0,    0, 0, 0, 1,
//   89     1, 0, 0, 0,    0, 0, 0, 1,
//   90     1, 0, 0, 0,    0, 0, 0, 1,
//   91     1, 0, 0, 0,    0, 0, 0, 1,
//   92     1, 1, 1, 1,    1, 1, 1, 1,
//   93 };
//   94 
//   95 ////-----------------------------------------------------------------------------------------------------
//   96 //CPss21::CPss21(uint8_t uiType, CDriver* pxDriver)// :
//   97 ////    m_uiType(uiType),
//   98 ////    m_pxDriver(pxDriver)
//   99 //{
//  100 //
//  101 //}
//  102 //
//  103 ////-----------------------------------------------------------------------------------------------------
//  104 //CPss21::~CPss21()
//  105 //{
//  106 //
//  107 //}
//  108 
//  109 //-----------------------------------------------------------------------------------------------------

        RSEG CODE:CODE:NOROOT(1)
//  110 void CPss21::ModbusInit(void)
??ModbusInit:
//  111 {
        ST      -Y, R27
        ST      -Y, R26
//  112     CPlatform::m_pxUart1 = &m_xUart1;
        LDI     R16, LOW(??m_xUart1)
        LDI     R17, (??m_xUart1) >> 8
        LDI     R30, LOW(??m_pxUart1)
        LDI     R31, (??m_pxUart1) >> 8
        ST      Z, R16
        STD     Z+1, R17
//  113     m_xModbusRtuOne.Init(CPlatform::m_pxUart1,
//  114                          static_cast<uint32_t>((F_CPU / ((CPss21::m_xModbusSettings.BaudRate) + 1)) / 16UL),
//  115                          'N',
//  116                          8,
//  117                          1,
//  118                          CPss21::m_auiReceiveMessageBuff,
//  119                          CPss21::m_auiReceiveMessageBuff,//CPss21::m_auiTransmitMessageBuff,
//  120                          CPss21::m_aucRtuDiscreteDataArray,//CPss21::m_aucRtuCoilsArray,
//  121                          CPss21::m_aucRtuDiscreteDataArray,//CPss21::m_aucRtuDiscreteInputsArray,
//  122                          CPss21::m_aucRtuHoldingRegistersArray,
//  123                          CPss21::m_aucRtuInputRegistersArray,
//  124                          DISCRETE_DATA_ARRAY_LENGTH,
//  125                          DISCRETE_DATA_ARRAY_LENGTH,
//  126                          HOLDING_REGISTERS_ARRAY_LENGTH,
//  127                          INPUT_REGISTERS_ARRAY_LENGTH);
        LDI     R16, 8
        LDI     R17, 0
        RCALL   ?Subroutine2
??CrossCallReturnLabel_132:
        LDI     R16, 120
        RCALL   ?Subroutine2
??CrossCallReturnLabel_133:
        LDI     R16, LOW((??m_xModbusSettings + 47))
        LDI     R17, HIGH((??m_xModbusSettings + 47))
        RCALL   ?Subroutine74
??CrossCallReturnLabel_130:
        LDI     R16, LOW((??m_xModbusSettings + 7))
        LDI     R17, HIGH((??m_xModbusSettings + 7))
        RCALL   ?Subroutine74
??CrossCallReturnLabel_131:
        LDI     R16, LOW(??m_aucRtuDiscreteDataArray)
        LDI     R17, (??m_aucRtuDiscreteDataArray) >> 8
        RCALL   ?Subroutine2
??CrossCallReturnLabel_134:
        LDI     R16, LOW(??m_auiReceiveMessageBuff)
        LDI     R17, (??m_auiReceiveMessageBuff) >> 8
        RCALL   ?Subroutine2
??CrossCallReturnLabel_135:
        LDI     R16, 1
        ST      -Y, R16
        LDI     R16, 8
        ST      -Y, R16
        LDI     R16, 78
        ST      -Y, R16
        LDS     R20, (??m_xModbusSettings + 1)
        LDI     R21, 0
        SUBI    R20, 255
        SBCI    R21, 255
        MOV     R22, R21
        LSL     R22
        SBC     R22, R22
        MOV     R23, R22
        LDI     R16, 0
        LDI     R17, 128
        LDI     R18, 112
        LDI     R19, 0
        CALL    ?UL_DIVMOD_L03
        LDI     R20, 4
        CALL    ?UL_SHR_L03
        MOVW    R21:R20, R17:R16
        MOVW    R23:R22, R19:R18
        LDI     R18, LOW(??m_xUart1)
        LDI     R19, (??m_xUart1) >> 8
        LDI     R16, LOW(??m_xModbusRtuOne)
        LDI     R17, (??m_xModbusRtuOne) >> 8
        CALL    ??Init_1
//  128     m_xModbusRtuOne.SlaveSet(CPss21::m_xModbusSettings.NetAddress);
        LDS     R18, ??m_xModbusSettings
        LDI     R30, LOW(??m_xModbusRtuOne)
        LDI     R31, (??m_xModbusRtuOne) >> 8
        LDD     R16, Z+13
        LDD     R17, Z+14
        CALL    ??SlaveSet
//  129     m_xModbusRtuOne.SetFsmState(CModbus::START_REQUEST);
        LDI     R26, LOW((??m_xModbusRtuOne + 13))
        LDI     R27, HIGH((??m_xModbusRtuOne + 13))
        LD      R30, X+
        LD      R31, X
        LDI     R16, 2
        ST      Z, R16
//  130 }
        REQUIRE ?Subroutine73
        ;               // Fall through to label ?Subroutine73

        RSEG CODE:CODE:NOROOT(1)
?Subroutine73:
        LD      R26, Y+
        LD      R27, Y+
        RET

        RSEG CODE:CODE:NOROOT(1)
?Subroutine74:
        ST      -Y, R17
        ST      -Y, R16
        RET

        RSEG CODE:CODE:NOROOT(1)
?Subroutine2:
        ST      -Y, R17
        ST      -Y, R16
        RJMP    ?Subroutine74
//  131 
//  132 //-----------------------------------------------------------------------------------------------------

        RSEG CODE:CODE:NOROOT(1)
//  133 void CPss21::ModbusDefaultInit(void)
??ModbusDefaultInit:
//  134 {
//  135     CPss21::m_xModbusSettings.NetAddress = 1;
        RCALL   ?Subroutine27
??CrossCallReturnLabel_16:
        LDI     R16, 1
        ST      Z, R16
//  136     // 9600 baud.
//  137     CPss21::m_xModbusSettings.BaudRate = 47;
        LDI     R16, 47
        STD     Z+1, R16
//  138     // дБЮ ЯРНО АХРЮ.
//  139     CPss21::m_xModbusSettings.LinkParam = 0x08;
        LDI     R16, 8
        STD     Z+2, R16
//  140 
//  141     ModbusInit();
        RJMP    ??ModbusInit
//  142 }
//  143 
//  144 //-----------------------------------------------------------------------------------------------------

        RSEG CODE:CODE:NOROOT(1)
//  145 void CPss21::Init(void)
??Init:
//  146 {
//  147     m_xLightBoard.Init(m_axAlarmWindowControl);
        LDI     R18, LOW(??m_axAlarmWindowControl)
        LDI     R19, (??m_axAlarmWindowControl) >> 8
        RCALL   ?Subroutine16
??CrossCallReturnLabel_176:
        CALL    ??Init_2
//  148     m_uiCommonAlarmType = NORMAL;
        RCALL   ?Subroutine30
??CrossCallReturnLabel_22:
        LDI     R16, 0
        STD     Z+57, R16
//  149     m_uiCommonAlarmTypePrevious = NORMAL;
        STD     Z+58, R16
//  150     SetErrorCode(0);
        STD     Z+55, R16
//  151 }
        RET
//  152 
//  153 //-----------------------------------------------------------------------------------------------------

        RSEG CODE:CODE:NOROOT(1)
//  154 void CPss21::AddressBusInit(void)
??AddressBusInit:
//  155 {
//  156     CPlatform::SpiSlaveSelectAddress0SetPinOutput();
        SBI     0x11, 0x07
//  157     CPlatform::SpiSlaveSelectAddress1SetPinOutput();
        SBI     0x11, 0x06
//  158     CPlatform::SpiSlaveSelectAddress2SetPinOutput();
        SBI     0x11, 0x05
//  159     CPlatform::SpiSlaveSelectAddress3SetPinOutput();
        SBI     0x11, 0x04
//  160     CPlatform::SpiSlaveSelectEnableSetPinOutput();
        SBI     0x11, 0x01
//  161     CPlatform::SpiSlaveSelectAddress0On();
        SBI     0x12, 0x07
//  162     CPlatform::SpiSlaveSelectAddress1On();
        SBI     0x12, 0x06
//  163     CPlatform::SpiSlaveSelectAddress2On();
        SBI     0x12, 0x05
//  164     CPlatform::SpiSlaveSelectAddress3On();
        SBI     0x12, 0x04
//  165     CPlatform::SpiSlaveSelectEnableOff();
        CBI     0x12, 0x01
//  166 };
        RET
        REQUIRE _A_DDRD
        REQUIRE _A_PORTD
//  167 
//  168 //-----------------------------------------------------------------------------------------------------

        RSEG CODE:CODE:NOROOT(1)
//  169 void CPss21::ConnectDevice(uint8_t uiAddress)
??ConnectDevice:
//  170 {
//  171     uiAddress &= 0x0F;
//  172 
//  173     if (uiAddress &  BIT(0))
        BST     R16, 0
        BRTC    ??ConnectDevice_1
//  174     {
//  175         CPlatform::SpiSlaveSelectAddress0Off();
        CBI     0x12, 0x07
//  176     }
        RJMP    ??ConnectDevice_2
//  177     else
//  178     {
//  179         CPlatform::SpiSlaveSelectAddress0On();
??ConnectDevice_1:
        SBI     0x12, 0x07
//  180     }
//  181     if (uiAddress &  BIT(1))
??ConnectDevice_2:
        BST     R16, 1
        BRTC    ??ConnectDevice_3
//  182     {
//  183         CPlatform::SpiSlaveSelectAddress1Off();
        CBI     0x12, 0x06
//  184     }
        RJMP    ??ConnectDevice_4
//  185     else
//  186     {
//  187         CPlatform::SpiSlaveSelectAddress1On();
??ConnectDevice_3:
        SBI     0x12, 0x06
//  188     }
//  189     if (uiAddress &  BIT(2))
??ConnectDevice_4:
        BST     R16, 2
        BRTC    ??ConnectDevice_5
//  190     {
//  191         CPlatform::SpiSlaveSelectAddress2Off();
        CBI     0x12, 0x05
//  192     }
        RJMP    ??ConnectDevice_6
//  193     else
//  194     {
//  195         CPlatform::SpiSlaveSelectAddress2On();
??ConnectDevice_5:
        SBI     0x12, 0x05
//  196     }
//  197     if (uiAddress &  BIT(3))
??ConnectDevice_6:
        BST     R16, 3
        BRTC    ??ConnectDevice_7
//  198     {
//  199         CPlatform::SpiSlaveSelectAddress3Off();
        CBI     0x12, 0x04
//  200     }
        RJMP    ??ConnectDevice_8
//  201     else
//  202     {
//  203         CPlatform::SpiSlaveSelectAddress3On();
??ConnectDevice_7:
        SBI     0x12, 0x04
//  204     }
//  205 
//  206     CPlatform::SpiSlaveSelectEnableOn();
??ConnectDevice_8:
        SBI     0x12, 0x01
//  207     CSpi::Enable();
        JMP     ??Enable
        REQUIRE _A_PORTD
//  208 };
//  209 
//  210 //-----------------------------------------------------------------------------------------------------

        RSEG CODE:CODE:NOROOT(1)
//  211 void CPss21::DisconnectDevice(void)
??DisconnectDevice:
//  212 {
//  213     CSpi::Disable();
        CALL    ??Disable
//  214     CPlatform::SpiSlaveSelectEnableOff();
        CBI     0x12, 0x01
//  215     CPlatform::SpiSlaveSelectAddress0Off();
        CBI     0x12, 0x07
//  216     CPlatform::SpiSlaveSelectAddress1Off();
        CBI     0x12, 0x06
//  217     CPlatform::SpiSlaveSelectAddress2Off();
        CBI     0x12, 0x05
//  218     CPlatform::SpiSlaveSelectAddress3Off();
        CBI     0x12, 0x04
//  219 };
        RET
        REQUIRE _A_PORTD
//  220 
//  221 //-----------------------------------------------------------------------------------------------------

        RSEG CODE:CODE:NOROOT(1)
//  222 void CPss21::SearchModules(void)
??SearchModules:
//  223 {
        CALL    ?PROLOGUE3_L09
//  224     delay_ms(500);
        LDI     R16, 244
        LDI     R17, 1
        CALL    ??delay_ms
//  225     CPlatform::WatchdogReset();
        WDR
//  226 
//  227     memset(reinterpret_cast<uint8_t*>(&m_xDeviceConfigSearch),
//  228            0,
//  229            sizeof(struct TConfigDataPackOne));
        LDI     R20, 9
        RCALL   ?Subroutine4
??CrossCallReturnLabel_193:
        LDI     R16, LOW(??m_xDeviceConfigSearch)
        LDI     R17, (??m_xDeviceConfigSearch) >> 8
        RCALL   ?Subroutine32
//  230 
//  231     // НОПНЯХЛ ХМРЕПТЕИЯ SPI. ЙЮЙХЕ ЛНДСКХ ОПХЯСРЯРБСЧР?
//  232     for (uint8_t i = 0; i < SPI_MAX_BUS_ADDRESS; i++)
??CrossCallReturnLabel_34:
        LDI     R25, 0
        LDI     R24, 16
//  233     {
//  234         // ЕЯКХ ЛНДСКЭ МЕ НРБЕРХК MODULE_REQUEST_QUANTITY ПЮГ,
//  235         // РН ЕЦН МЕР ХКХ НМ МЕХЯОПЮБЕМ.
//  236         for (uint8_t j = 0; j < MODULE_REQUEST_QUANTITY; j++)
??SearchModules_1:
        LDI     R26, 5
//  237         {
//  238             m_auiSpiTxBuffer[0] = GET_MODULE_TYPE_COMMAND;
??SearchModules_2:
        LDI     R16, 145
        STS     ??m_auiSpiTxBuffer, R16
//  239             ConnectDevice(i);
        MOV     R16, R25
        RCALL   ?Subroutine29
//  240             delay_us(500);
//  241             CSpi::Exchange(m_auiSpiRxBuffer,
//  242                            m_auiSpiTxBuffer,
//  243                            GET_MODULE_TYPE_REQUEST_LENGTH);
??CrossCallReturnLabel_20:
        LDI     R20, 4
        RCALL   ?Subroutine20
//  244             DisconnectDevice();
//  245 
//  246             // ЛНДСКЭ НРБЕВЮЕР?
//  247             if (m_auiSpiRxBuffer[SPI_COMMAND_BYTE_OFFSET] ==
//  248                     GET_MODULE_TYPE_COMMAND)
??CrossCallReturnLabel_9:
        LDS     R16, (??m_auiSpiRxBuffer + 1)
        CPI     R16, 145
        BRNE    ??SearchModules_3
//  249             {
//  250                 // НАЛЕМ ДЮММШЛХ ОПНЬ╦К АЕГ НЬХАНЙ?
//  251                 if (iCrcSummOneByteCompare(&m_auiSpiRxBuffer[SPI_COMMAND_BYTE_OFFSET], 2))
        RCALL   ?Subroutine19
??CrossCallReturnLabel_191:
        LDI     R16, LOW((??m_auiSpiRxBuffer + 1))
        LDI     R17, HIGH((??m_auiSpiRxBuffer + 1))
        CALL    ??iCrcSummOneByteCompare
        OR      R16, R17
        BREQ    ??SearchModules_3
//  252                 {
//  253                     // ЯНУПЮМХЛ РХО ЛНДСКЪ Б ЛЮЯЯХБЕ ДКЪ СОНПЪДНВХБЮМХЪ ЯКЕДНБЮМХЪ ЛНДСКЕИ ОПХ ОНХЯЙЕ МЮ SPI.
//  254                     m_xDeviceConfigSearch.axModulesContext[m_xDeviceConfigSearch.uiModulesQuantity].uiType =
//  255                         m_auiSpiRxBuffer[MODULE_TYPE_OFFSET];
        LDS     R16, (??m_auiSpiRxBuffer + 2)
        LDS     R17, ??m_xDeviceConfigSearch
        LDI     R18, 2
        MUL     R17, R18
        RCALL   ?Subroutine62
??CrossCallReturnLabel_82:
        STD     Z+1, R16
//  256                     // ЯНУПЮМХЛ ЮДПЕЯ ЛНДСКЪ Б ЛЮЯЯХБЕ ДКЪ СОНПЪДНВХБЮМХЪ ЯКЕДНБЮМХЪ ЛНДСКЕИ ОПХ ОНХЯЙЕ МЮ SPI.
//  257                     m_xDeviceConfigSearch.axModulesContext[m_xDeviceConfigSearch.uiModulesQuantity].uiAddress = i;
        LDS     R16, ??m_xDeviceConfigSearch
        MUL     R16, R18
        RCALL   ?Subroutine62
??CrossCallReturnLabel_83:
        STD     Z+2, R25
//  258                     // ЛНДСКЭ ОПХЯСРЯРБСЕР. СБЕКХВХЛ ГМЮВЕМХЕ ОЕПЕЛЕММНИ -
//  259                     // ТЮЙРХВЕЯЙНЕ ЙНКХВЕЯРБН ЛНДСКЕИ Б ЯХЯРЕЛЕ.
//  260                     (m_xDeviceConfigSearch.uiModulesQuantity)++;
        RCALL   ?Subroutine30
??CrossCallReturnLabel_23:
        LD      R16, Z
        INC     R16
        ST      Z, R16
//  261 
//  262                     if (m_xDeviceConfigSearch.uiModulesQuantity >=
//  263                             INTERNAL_MODULE_QUANTITY)
        CPI     R16, 3
        BRCS    ??SearchModules_4
//  264                     {
//  265                         return;
        RJMP    ??SearchModules_5
//  266                     }
//  267                     // ОЕПЕИД╦Л Й НОПНЯС ЯКЕДСЧЫЕЦН ЮДПЕЯЮ.
//  268                     break;
//  269                 }
//  270             }
//  271 
//  272             CPlatform::WatchdogReset();
??SearchModules_3:
        WDR
//  273         }
//  274     }
        DEC     R26
        BRNE    ??SearchModules_2
??SearchModules_4:
        INC     R25
        DEC     R24
        BRNE    ??SearchModules_1
//  275 };
??SearchModules_5:
        LDI     R30, 3
        JMP     ?EPILOGUE_B3_L09
//  276 
//  277 //-----------------------------------------------------------------------------------------------------

        RSEG CODE:CODE:NOROOT(1)
//  278 void CPss21::InitAllocationContext(TMemoryAllocationConext &xMemoryAllocationConext)
??InitAllocationContext:
//  279 {
//  280     // оНДЦНРНБХЛ Й НРОПЮБЙЕ РЕЙСЫХЕ ЮДПЕЯЮ НАЗЕЙРНБ ЯХЯРЕЛШ ХЯОНКЭГСЕЛШУ ДПЮИБЕПЮЛХ СЯРПНИЯРБ.
//  281 
//  282     xMemoryAllocationConext.puiRxBuffer = m_auiSpiRxBuffer;
        LDI     R18, LOW(??m_auiSpiRxBuffer)
        LDI     R19, (??m_auiSpiRxBuffer) >> 8
        MOVW    R31:R30, R17:R16
        STD     Z+1, R18
        STD     Z+2, R19
//  283     xMemoryAllocationConext.puiTxBuffer = m_auiSpiTxBuffer;
        LDI     R18, LOW(??m_auiSpiTxBuffer)
        LDI     R19, (??m_auiSpiTxBuffer) >> 8
        STD     Z+3, R18
        STD     Z+4, R19
//  284     xMemoryAllocationConext.puiErrorCode = &m_uiErrorCode;
        LDI     R18, LOW((??m_xDeviceConfigSearch + 55))
        LDI     R19, HIGH((??m_xDeviceConfigSearch + 55))
        STD     Z+5, R18
        STD     Z+6, R19
//  285 
//  286     // нАМСКХЛ НАЫХИ НАЗ╦Л БШДЕКЕММНИ ОЮЛЪРХ.
//  287     xMemoryAllocationConext.uiUsedDiscreteInputs = 0;
        LDI     R18, 0
        STD     Z+9, R18
//  288     // оНДЙКЧВХЛ АСТЕП ДКЪ УПЮМЕМХЪ ЯНЯРНЪМХИ ДХЯЙПЕРМШУ БУНДНБ.
//  289     xMemoryAllocationConext.puiDiscreteInputs =
//  290         &m_aucRtuDiscreteDataArray[DISCRETE_INPUTS_BIT_ARRAY_OFFSET];
        LDI     R18, LOW((??m_aucRtuDiscreteDataArray + 16))
        LDI     R19, HIGH((??m_aucRtuDiscreteDataArray + 16))
        STD     Z+7, R18
        STD     Z+8, R19
//  291 
//  292     // нАМСКХЛ НАЫХИ НАЗ╦Л БШДЕКЕММНИ ОЮЛЪРХ.
//  293     xMemoryAllocationConext.uiUsedDiscreteOutputState = 0;
        LDI     R18, 0
        STD     Z+12, R18
//  294     // оНДЙКЧВХЛ АСТЕП ДКЪ УПЮМЕМХЪ ЯНЯРНЪМХИ ДХЯЙПЕРМШУ БШУНДНБ.
//  295     xMemoryAllocationConext.puiDiscreteOutputState =
//  296         &m_aucRtuDiscreteDataArray[DISCRETE_OUTPUT_BIT_ARRAY_OFFSET];
        LDI     R18, LOW((??m_aucRtuDiscreteDataArray + 112))
        LDI     R19, HIGH((??m_aucRtuDiscreteDataArray + 112))
        STD     Z+10, R18
        STD     Z+11, R19
//  297 
//  298     // нАМСКХЛ НАЫХИ НАЗ╦Л БШДЕКЕММНИ ОЮЛЪРХ.
//  299     xMemoryAllocationConext.uiUsedDiscreteOutputs = 0;
        LDI     R18, 0
        STD     Z+15, R18
//  300     // оНДЙКЧВХЛ АСТЕП ДКЪ СОПЮБКЕМХЪ ДХЯЙПЕРМШЛХ БШУНДНБ.
//  301     xMemoryAllocationConext.pxDiscreteOutputControl = m_axDiscreteOutputControl;
        LDI     R18, LOW((??m_xModbusSettings + 23))
        LDI     R19, HIGH((??m_xModbusSettings + 23))
        STD     Z+13, R18
        STD     Z+14, R19
//  302 
//  303     // нАМСКХЛ НАЫХИ НАЗ╦Л БШДЕКЕММНИ ОЮЛЪРХ.
//  304     xMemoryAllocationConext.uiUsedDiscreteOutputDataBase = 0;
        LDI     R18, 0
        STD     Z+18, R18
//  305     // оНДЙКЧВХЛ АСТЕП Я АЮГНИ ДЮММШУ ЛНДСКЕИ ДХЯЙПЕРМШУ БШУНДНБ.
//  306     xMemoryAllocationConext.pxDiscreteOutputDataBase = &m_xDiscreteOutputDataBase;
        LDI     R18, LOW((??m_xModbusSettings + 63))
        LDI     R19, HIGH((??m_xModbusSettings + 63))
        STD     Z+16, R18
        STD     Z+17, R19
//  307 };
        RET
//  308 
//  309 //-----------------------------------------------------------------------------------------------------

        RSEG CODE:CODE:NOROOT(1)
//  310 void CPss21::CreateDevices(void)
??CreateDevices:
//  311 {
        CALL    ?PROLOGUE5_L09
        REQUIRE ?Register_R4_is_cg_reg
        SBIW    R29:R28, 19
//  312     TMemoryAllocationConext xMemoryAllocationConext;
//  313     InitAllocationContext(xMemoryAllocationConext);
        MOVW    R17:R16, R29:R28
        RCALL   ??InitAllocationContext
//  314 
//  315     for (uint8_t i = 0;
        CLR     R4
        LDI     R24, LOW(??m_xDeviceConfigSearch)
        LDI     R25, (??m_xDeviceConfigSearch) >> 8
        RJMP    ??CreateDevices_1
//  316             i < (m_xDeviceConfigSearch.uiModulesQuantity);
//  317             i++)
//  318     {
//  319         CPlatform::WatchdogReset();
//  320 
//  321         uint8_t uiType = m_xDeviceConfigSearch.axModulesContext[i].uiType;
//  322         switch (uiType)
//  323         {
//  324         case MODULE_TYPE_MVSN:
//  325 //        case MODULE_TYPE_MVDI:
//  326 //        case MODULE_TYPE_MVDS9:
//  327 //            m_apxDevices[i] = new CMvsn21;
//  328 //            m_apxDevices[i] -> m_pxDriver = new CMvsn21Driver(uiType);
//  329             m_apxDrivers[i] = new CMvsn21Driver(uiType);
//  330             xMemoryAllocationConext.uiAddress = m_xDeviceConfigSearch.axModulesContext[i].uiAddress;
//  331 //            m_apxDevices[i] -> m_pxDriver -> Allocate(xMemoryAllocationConext);
//  332             m_apxDrivers[i] -> Allocate(xMemoryAllocationConext);
//  333             m_xDeviceConfigSearch.uiDiscreteInputQuantity += 1;
//  334             break;
//  335 
//  336         case MODULE_TYPE_MVDO5:
//  337             break;
//  338 
//  339         case MODULE_TYPE_MR53:
//  340         case MODULE_TYPE_MR54:
//  341 //            m_apxDevices[i] = new CModuleMrXX;
//  342 //            m_apxDevices[i] -> m_pxDriver = new CModuleMrXXDriver(uiType);
//  343             m_apxDrivers[i] = new CModuleMrXXDriver(uiType);
??CreateDevices_2:
        CALL    `??new CModuleMrXXDriver`
        RCALL   ?Subroutine33
//  344             xMemoryAllocationConext.uiAddress = m_xDeviceConfigSearch.axModulesContext[i].uiAddress;
//  345 //            m_apxDevices[i] -> m_pxDriver -> Allocate(xMemoryAllocationConext);
//  346             m_apxDrivers[i] -> Allocate(xMemoryAllocationConext);
//  347             m_xDeviceConfigSearch.uiDiscreteOutputQuantity += 1;
??CrossCallReturnLabel_35:
        LDD     R16, Z+7
        INC     R16
        STD     Z+7, R16
//  348             break;
??CreateDevices_3:
        INC     R4
??CreateDevices_1:
        LDS     R16, ??m_xDeviceConfigSearch
        CP      R4, R16
        BRCC    ??CreateDevices_4
        WDR
        LDI     R16, 2
        MUL     R4, R16
        MOVW    R27:R26, R25:R24
        ADD     R26, R0
        ADC     R27, R1
        MOVW    R31:R30, R27:R26
        LDD     R16, Z+1
        MOV     R17, R16
        DEC     R17
        BREQ    ??CreateDevices_5
        SUBI    R17, 2
        BREQ    ??CreateDevices_2
        DEC     R17
        BREQ    ??CreateDevices_2
        RJMP    ??CreateDevices_3
??CreateDevices_5:
        LDI     R16, 1
        CALL    `??new CMvsn21Driver`
        RCALL   ?Subroutine33
??CrossCallReturnLabel_36:
        LDD     R16, Z+8
        INC     R16
        STD     Z+8, R16
        RJMP    ??CreateDevices_3
//  349 
//  350         case MODULE_TYPE_MVI:
//  351             break;
//  352 
//  353         default:
//  354             break;
//  355         }
//  356     }
//  357 
//  358     if(m_xDeviceConfiguration.FixConfig)
??CreateDevices_4:
        MOVW    R31:R30, R25:R24
        LDD     R16, Z+12
        SBRS    R16, 0
        RJMP    ??CreateDevices_6
//  359     {
//  360         // оПЕДШДСЫЮЪ ЯНУПЮМ╦ММЮЪ Х РЕЙСЫЮЪ ЙНМТХЦСПЮЖХХ МЕ ЯНБОЮДЮЧР?
//  361         if((m_xDeviceConfiguration.ICount != m_xDeviceConfigSearch.uiDiscreteInputQuantity) ||
//  362                 (m_xDeviceConfiguration.OCount != m_xDeviceConfigSearch.uiDiscreteOutputQuantity))
        LDD     R16, Z+9
        LDD     R17, Z+8
        CP      R16, R17
        BRNE    ??CreateDevices_7
        LDD     R16, Z+10
        LDD     R17, Z+7
        CP      R16, R17
        BREQ    ??CreateDevices_6
//  363         {
//  364             SetErrorCode(CFG_ERROR);
??CreateDevices_7:
        LDI     R16, 3
        STD     Z+55, R16
//  365         }
//  366     }
//  367 };
??CreateDevices_6:
        ADIW    R29:R28, 19
        LDI     R30, 5
        JMP     ?EPILOGUE_B5_L09

        RSEG CODE:CODE:NOROOT(1)
?Subroutine33:
        MOV     R20, R16
        MOVW    R31:R30, R27:R26
        STD     Z+40, R16
        STD     Z+41, R17
        LDD     R16, Z+2
        ST      Y, R16
        MOVW    R19:R18, R29:R28
        MOV     R16, R20
        MOV     R30, R20
        MOV     R31, R17
        LDD     R20, Z+7
        LDD     R31, Z+8
        MOV     R30, R20
        LPM     R20, Z+
        LPM     R31, Z
        MOV     R30, R20
        ICALL
        MOVW    R31:R30, R25:R24
        RET
//  368 
//  369 //-----------------------------------------------------------------------------------------------------

        RSEG CODE:CODE:NOROOT(1)
//  370 void CPss21::DestroyDevices(uint8_t uiLength)
??DestroyDevices:
//  371 {
//  372     for (uint16_t i = 0; i < uiLength; i++)
        LDI     R30, 0
        LDI     R31, 0
        LDI     R17, 0
        RJMP    ??DestroyDevices_1
??DestroyDevices_2:
        ADIW    R31:R30, 1
??DestroyDevices_1:
        CP      R30, R16
        CPC     R31, R17
        BRCS    ??DestroyDevices_2
//  373     {
//  374 //        delete m_apxDevices[i];
//  375 //        delete m_apxDrivers[i];
//  376     }
//  377 };
        RET
//  378 
//  379 //-----------------------------------------------------------------------------------------------------

        RSEG CODE:CODE:NOROOT(1)
//  380 uint16_t CPss21::ReportType(uint8_t *puiDestination, uint16_t uiLength)
??ReportType:
//  381 {
//  382     memset(m_auiSpiTxBuffer, 0, 6);
        LDI     R20, 6
        RCALL   ?Subroutine4
??CrossCallReturnLabel_194:
        LDI     R16, LOW(??m_auiSpiTxBuffer)
        LDI     R17, (??m_auiSpiTxBuffer) >> 8
        RCALL   ?Subroutine32
//  383     uint8_t uiLengthLocal = 0;
//  384     m_auiSpiTxBuffer[uiLengthLocal++] = GET_MODULE_TYPE_COMMAND;
??CrossCallReturnLabel_33:
        LDI     R30, LOW(??m_auiSpiTxBuffer)
        LDI     R31, (??m_auiSpiTxBuffer) >> 8
        LDI     R16, 145
        ST      Z, R16
//  385     m_auiSpiTxBuffer[uiLengthLocal++] = 0;
        LDI     R16, 0
        STD     Z+1, R16
//  386     m_auiSpiTxBuffer[uiLengthLocal++] = 0;
        STD     Z+2, R16
//  387     m_auiSpiTxBuffer[uiLengthLocal++] = 0;
        STD     Z+3, R16
//  388     m_auiSpiTxBuffer[uiLengthLocal++] = 0;
        STD     Z+4, R16
//  389 
//  390     ConnectDevice(0);
        RCALL   ?Subroutine29
//  391     delay_us(500);
//  392     CSpi::Exchange(m_auiSpiRxBuffer,
//  393                    m_auiSpiTxBuffer,
//  394                    uiLengthLocal);
??CrossCallReturnLabel_21:
        LDI     R20, 5
        RCALL   ?Subroutine20
//  395     DisconnectDevice();
//  396 
//  397     return 1;
??CrossCallReturnLabel_8:
        LDI     R16, 1
        LDI     R17, 0
        RET
//  398 }

        RSEG CODE:CODE:NOROOT(1)
?Subroutine32:
        JMP     memset

        RSEG CODE:CODE:NOROOT(1)
?Subroutine29:
        RCALL   ??ConnectDevice
        LDI     R16, 106
        LDI     R17, 3
        SUBI    R16, 1
        SBCI    R17, 0
        BRNE    $-4
        RJMP    $+2
        NOP
        RET

        RSEG CODE:CODE:NOROOT(1)
?Subroutine20:
        LDI     R21, 0
        LDI     R18, LOW(??m_auiSpiTxBuffer)
        LDI     R19, (??m_auiSpiTxBuffer) >> 8
        LDI     R16, LOW(??m_auiSpiRxBuffer)
        LDI     R17, (??m_auiSpiRxBuffer) >> 8
        CALL    ??Exchange
        RJMP    ??DisconnectDevice

        RSEG CODE:CODE:NOROOT(1)
?Subroutine4:
        LDI     R21, 0
        REQUIRE ??Subroutine90_0
        ;               // Fall through to label ??Subroutine90_0

        RSEG CODE:CODE:NOROOT(1)
??Subroutine90_0:
        LDI     R18, 0
        RJMP    ?Subroutine76
//  399 
//  400 //-----------------------------------------------------------------------------------------------------

        RSEG CODE:CODE:NOROOT(1)
//  401 void CPss21::SetBytesFromBits(uint8_t *uiDestination,
??SetBytesFromBits:
//  402                               uint8_t *uiSourse,
//  403                               uint16_t uiLength)
//  404 {
        RCALL   ?Subroutine40
??CrossCallReturnLabel_51:
        MOVW    R23:R22, R17:R16
        MOVW    R3:R2, R21:R20
//  405     int16_t shift = 0;
        LDI     R26, 0
        LDI     R27, 0
//  406 
//  407     for (int16_t i = 0; i < uiLength; i++)
        RCALL   ?Subroutine41
??CrossCallReturnLabel_54:
        RJMP    ??SetBytesFromBits_1
//  408     {
//  409         uiDestination[i] = uiSourse[(i) / 8] & (1 << shift) ? 1 : 0;
??SetBytesFromBits_2:
        LDI     R16, 0
??SetBytesFromBits_3:
        MOVW    R31:R30, R23:R22
        ADD     R30, R24
        ADC     R31, R25
        ST      Z, R16
//  410         /* gcc doesn't like: shift = (++shift) % 8; */
//  411         shift++;
//  412         shift %= 8;
        ADIW    R27:R26, 1
        LDI     R20, 8
        LDI     R21, 0
        MOVW    R17:R16, R27:R26
        CALL    ?SS_DIVMOD_L02
        LDI     R20, 3
        RCALL   ?Subroutine64
??CrossCallReturnLabel_205:
        SUB     R26, R16
        SBC     R27, R17
        ADIW    R25:R24, 1
??SetBytesFromBits_1:
        CP      R24, R2
        CPC     R25, R3
        BRCC    ??SetBytesFromBits_4
        LDI     R20, 8
        LDI     R21, 0
        MOVW    R17:R16, R25:R24
        CALL    ?SS_DIVMOD_L02
        MOVW    R31:R30, R19:R18
        RCALL   ?Subroutine71
//  413     }
??CrossCallReturnLabel_102:
        LD      R21, Z
        MOV     R20, R26
        RCALL   ??Subroutine92_0
??CrossCallReturnLabel_202:
        BREQ    ??SetBytesFromBits_2
        LDI     R16, 1
        RJMP    ??SetBytesFromBits_3
//  414 }
??SetBytesFromBits_4:
        REQUIRE ?Subroutine84
        ;               // Fall through to label ?Subroutine84

        RSEG CODE:CODE:NOROOT(1)
?Subroutine84:
        LDI     R30, 4
        JMP     ?EPILOGUE_B4_L09

        RSEG CODE:CODE:NOROOT(1)
??SendToDevicesModbusReset:
        RCALL   ?Subroutine42
??CrossCallReturnLabel_139:
        RJMP    ??CrossCallReturnLabel_29
??SendToDevicesModbusReset_1:
        RCALL   ?Subroutine35
??CrossCallReturnLabel_42:
        ADIW    R27:R26, 4
        RCALL   ?Subroutine31
??CrossCallReturnLabel_29:
        RCALL   ?Subroutine34
??CrossCallReturnLabel_37:
        BRCS    ??SendToDevicesModbusReset_1
        RJMP    ?Subroutine77

        RSEG CODE:CODE:NOROOT(1)
??SendToDevicesModbusReceipt:
        RCALL   ?Subroutine42
??CrossCallReturnLabel_140:
        RJMP    ??CrossCallReturnLabel_30
??SendToDevicesModbusReceipt_1:
        RCALL   ?Subroutine35
??CrossCallReturnLabel_43:
        ADIW    R27:R26, 3
        RCALL   ?Subroutine31
??CrossCallReturnLabel_30:
        RCALL   ?Subroutine34
??CrossCallReturnLabel_38:
        BRCS    ??SendToDevicesModbusReceipt_1
        RJMP    ?Subroutine77

        RSEG CODE:CODE:NOROOT(1)
?Subroutine35:
        LDI     R17, 2
        MUL     R16, R17
        RCALL   ?Subroutine62
??CrossCallReturnLabel_84:
        LDD     R26, Z+40
        LDD     R27, Z+41
        RET

        RSEG CODE:CODE:NOROOT(1)
?Subroutine62:
        MOVW    R31:R30, R1:R0
        SUBI    R30, LOW((-(??m_xDeviceConfigSearch) & 0xFFFF))
        SBCI    R31, (-(??m_xDeviceConfigSearch) & 0xFFFF) >> 8
        RET

        RSEG CODE:CODE:NOROOT(1)
?Subroutine31:
        LDI     R17, 1
        ST      X, R17
        INC     R16
        RET
//  415 
//  416 //-----------------------------------------------------------------------------------------------------

        RSEG CODE:CODE:NOROOT(1)
//  417 void CPss21::ModbusDeviceControl(uint8_t* puiData, uint16_t uiLength, uint16_t uiAddress)
??ModbusDeviceControl:
//  418 {
        MOVW    R23:R22, R21:R20
//  419     // йНЛЮМДЮ - "йБХРХПНБЮМХЕ"?
//  420     if (uiAddress == MODBUS_RECEIPT_ADDRESS)
        OR      R20, R23
        BRNE    ??ModbusDeviceControl_2
//  421     {
//  422         if (*puiData)
        MOVW    R31:R30, R17:R16
        LD      R16, Z
        TST     R16
        BREQ    ??ModbusDeviceControl_3
//  423         {
//  424             CPss21::SetModbusReceipt(1);
        RCALL   ?Subroutine28
??CrossCallReturnLabel_143:
        STD     Z+51, R16
//  425             SetDiscreteSignalsReceipt(1);
        STD     Z+53, R16
//  426             SendToDevicesModbusReceipt();
        RJMP    ??SendToDevicesModbusReceipt
//  427         }
//  428     }
//  429     // йНЛЮМДЮ - "яАПНЯ"?
//  430     else if (uiAddress == MODBUS_RESET_ADDRESS)
??ModbusDeviceControl_2:
        CPI     R22, 1
        LDI     R20, 0
        CPC     R21, R20
        BRNE    ??ModbusDeviceControl_4
//  431     {
//  432         if (*puiData)
        MOVW    R31:R30, R17:R16
        LD      R16, Z
        TST     R16
        BREQ    ??ModbusDeviceControl_3
//  433         {
//  434             CPss21::SetModbusReset(1);
        RCALL   ?Subroutine28
??CrossCallReturnLabel_144:
        STD     Z+52, R16
//  435             SetDiscreteSignalsReset(1);
        STD     Z+54, R16
//  436             SendToDevicesModbusReset();
        RJMP    ??SendToDevicesModbusReset
//  437         }
//  438     }
//  439     // хГЛЕМЕМХЕ ЯНЯРНЪМХЪ НЙНМ ЯХЦМЮКХГЮЖХХ?
//  440     else if ((uiAddress >= ALARM_WINDOWS_BIT_ARRAY_OFFSET) &&
//  441              (uiAddress < (ALARM_WINDOWS_BIT_ARRAY_OFFSET +
//  442                            ALARM_WINDOWS_ARRAY_LENGTH)))
??ModbusDeviceControl_4:
        MOV     R30, R22
        MOV     R31, R21
        SUBI    R30, 64
        SBCI    R31, 0
        SBIW    R31:R30, 48
        BRCC    ??ModbusDeviceControl_3
//  443     {
//  444         SetBytesFromBits(&m_aucRtuDiscreteDataArray[uiAddress],
//  445                          puiData,
//  446                          uiLength);
        MOVW    R21:R20, R19:R18
        MOVW    R19:R18, R17:R16
        LDI     R16, LOW(??m_aucRtuDiscreteDataArray)
        LDI     R17, (??m_aucRtuDiscreteDataArray) >> 8
        ADD     R16, R22
        ADC     R17, R23
        RCALL   ??SetBytesFromBits
//  447         // яННАЫХЛ ЮБРНЛЮРС Н ЯНЯРНЪБЬЕЛЯЪ ЯЕЮМЯЕ ЯБЪГХ.
//  448         m_xModbusRtuLinkControl.SetFsmEvent(CModbusRtuLinkControl::LINK_SESSION_HAPPENED_FSM_EVENT);
        LDI     R16, 1
        STS     (??m_xDeviceConfigSearch + 33), R16
//  449     }
//  450 }
??ModbusDeviceControl_3:
        RET
//  451 
//  452 //-----------------------------------------------------------------------------------------------------

        RSEG CODE:CODE:NOROOT(1)
//  453 void CPss21::ModbusDeviceControl(uint8_t uiData, uint16_t uiAddress)
??ModbusDeviceControl_1:
//  454 {
        SBIW    R29:R28, 1
        ST      Y, R16
//  455     ModbusDeviceControl(&uiData, 1, uiAddress);
        MOVW    R21:R20, R19:R18
        LDI     R18, 1
        LDI     R19, 0
        MOVW    R17:R16, R29:R28
        RCALL   ??ModbusDeviceControl
//  456 }
        ADIW    R29:R28, 1
        RET
//  457 
//  458 //-----------------------------------------------------------------------------------------------------

        RSEG CODE:CODE:NOROOT(1)
//  459 bool CPss21::ModbusRtuLinkControlIsOn(void)
??ModbusRtuLinkControlIsOn:
//  460 {
//  461     if (m_xDeviceConfiguration.MBTimeout != 0)
        LDS     R16, (??m_xDeviceConfigSearch + 14)
        TST     R16
        BREQ    ??ModbusRtuLinkControlIsOn_1
//  462     {
//  463         return true;
        RJMP    ?Subroutine79
//  464     }
//  465     else
//  466     {
//  467         return false;
??ModbusRtuLinkControlIsOn_1:
        REQUIRE ?Subroutine78
        ;               // Fall through to label ?Subroutine78
//  468     }
//  469 }

        RSEG CODE:CODE:NOROOT(1)
?Subroutine78:
        LDI     R16, 0
        RET
//  470 
//  471 //-----------------------------------------------------------------------------------------------------

        RSEG CODE:CODE:NOROOT(1)
//  472 uint16_t CPss21::GetTimeoutModbusRtuLinkControl(void)
??GetTimeoutModbusRtuLinkControl:
//  473 {
//  474     return (m_xDeviceConfiguration.MBTimeout * 1000);
        LDS     R16, (??m_xDeviceConfigSearch + 14)
        LDI     R17, 0
        LDI     R20, 232
        LDI     R21, 3
        REQUIRE ?Subroutine85
        ;               // Fall through to label ?Subroutine85
//  475 }

        RSEG CODE:CODE:NOROOT(1)
?Subroutine85:
        JMP     ?S_EC_MUL_L02
//  476 
//  477 //-----------------------------------------------------------------------------------------------------

        RSEG CODE:CODE:NOROOT(1)
//  478 bool CPss21::ModbusRtuLinkControlInProgress(void)
??ModbusRtuLinkControlInProgress:
//  479 {
//  480     if (m_xDeviceState.ModbusRtuLinkControlInProgress)
        LDS     R16, (??m_xModbusSettings + 39)
        SBRC    R16, 0
//  481     {
//  482         return true;
        RJMP    ?Subroutine79
//  483     }
//  484     else
//  485     {
//  486         return false;
??ModbusRtuLinkControlInProgress_1:
        RJMP    ?Subroutine78
//  487     }
//  488 }
//  489 
//  490 //-----------------------------------------------------------------------------------------------------

        RSEG CODE:CODE:NOROOT(1)
//  491 void CPss21::SetModeModbusRtuLinkControlInProgress(bool bData)
??SetModeModbusRtuLinkControlInProgress:
//  492 {
//  493     m_xDeviceState.ModbusRtuLinkControlInProgress = bData;
        RCALL   ?Subroutine27
??CrossCallReturnLabel_17:
        BST     R16, 0
        LDD     R16, Z+39
        BLD     R16, 0
        STD     Z+39, R16
//  494     // яНУПЮМХЛ РЕЙСЫСЧ ЙНМТХЦСПЮЖХЧ.
//  495     CDataBase::Write(reinterpret_cast<uint8_t*>(&m_xDeviceState),
//  496                      CDataBase::GetBlockLength(TDataBase::DEVICE_STATE),
//  497                      TDataBase::DEVICE_STATE);
        LDI     R16, 10
        CALL    ??GetBlockLength
        LDI     R20, 10
        MOV     R18, R16
        LDI     R19, 0
        LDI     R16, LOW((??m_xModbusSettings + 39))
        LDI     R17, HIGH((??m_xModbusSettings + 39))
        CALL    ??Write
//  498     // аЮГЮ ДЮММШУ ОНДРБЕПФДЕМЮ ОНКЭГНБЮРЕКЕЛ ОПХ ГЮОХЯХ АКНЙЮ ВЕПЕГ ОПНЦПЮЛЛЮРНП.
//  499     // яНГДЮДХЛ Crc БЯЕУ АКНЙНБ.
//  500     CPss21::m_xDataStore.CrcOfBlocksCrcCreate();
        LDI     R16, LOW(??m_xDataStore)
        LDI     R17, (??m_xDataStore) >> 8
        JMP     ??CrcOfBlocksCrcCreate
//  501 }
//  502 
//  503 //-----------------------------------------------------------------------------------------------------

        RSEG CODE:CODE:NOROOT(1)
//  504 void CPss21::SendToDevicesReceipt(void)
??SendToDevicesReceipt:
//  505 {
        RCALL   ?Subroutine42
//  506     for (uint8_t i = 0;
??CrossCallReturnLabel_141:
        RJMP    ??SendToDevicesReceipt_1
//  507             i < (m_xDeviceConfigSearch.uiModulesQuantity);
//  508             i++)
//  509     {
//  510         m_apxDrivers[i] -> SetReceipt(1);
??SendToDevicesReceipt_2:
        LDI     R17, 2
        MUL     R16, R17
        LDI     R26, LOW(??m_xDeviceConfigSearch)
        LDI     R27, (??m_xDeviceConfigSearch) >> 8
        ADD     R26, R0
        ADC     R27, R1
        ADIW    R27:R26, 40
        LD      R30, X+
        LD      R31, X
        LDI     R17, 1
        STD     Z+1, R17
//  511     }
        INC     R16
??SendToDevicesReceipt_1:
        RCALL   ?Subroutine34
??CrossCallReturnLabel_39:
        BRCS    ??SendToDevicesReceipt_2
//  512 
//  513     // яННАЫХЛ ЮБРНЛЮРС Н ЯНЯРНЪБЬЕЛЯЪ ЙБХРХПНБЮМХХ.
//  514     m_xModbusRtuLinkControl.SetFsmEvent(CModbusRtuLinkControl::RECEIPT_HAPPENED_FSM_EVENT);
        LDI     R16, 2
        STS     (??m_xDeviceConfigSearch + 33), R16
//  515 }
        REQUIRE ?Subroutine77
        ;               // Fall through to label ?Subroutine77

        RSEG CODE:CODE:NOROOT(1)
?Subroutine77:
        MOVW    R27:R26, R19:R18
        RET

        RSEG CODE:CODE:NOROOT(1)
?Subroutine42:
        MOVW    R19:R18, R27:R26
        RJMP    ?Subroutine78

        RSEG CODE:CODE:NOROOT(1)
?Subroutine34:
        LDS     R17, ??m_xDeviceConfigSearch
        CP      R16, R17
        RET
//  516 
//  517 //-----------------------------------------------------------------------------------------------------

        RSEG CODE:CODE:NOROOT(1)
//  518 void CPss21::SendToDevicesReset(void)
??SendToDevicesReset:
//  519 {
        RCALL   ?Subroutine42
//  520     for (uint8_t i = 0;
??CrossCallReturnLabel_142:
        RJMP    ??CrossCallReturnLabel_31
//  521             i < (m_xDeviceConfigSearch.uiModulesQuantity);
//  522             i++)
//  523     {
//  524         m_apxDrivers[i] -> SetReset(1);
??SendToDevicesReset_1:
        RCALL   ?Subroutine35
//  525     }
??CrossCallReturnLabel_44:
        ADIW    R27:R26, 2
        RCALL   ?Subroutine31
??CrossCallReturnLabel_31:
        RCALL   ?Subroutine34
??CrossCallReturnLabel_40:
        BRCS    ??SendToDevicesReset_1
//  526 }
        RJMP    ?Subroutine77
//  527 
//  528 //-----------------------------------------------------------------------------------------------------
//  529 void CPss21::SendToDevicesModbusReceipt(void)
//  530 {
//  531     for (uint8_t i = 0;
//  532             i < (m_xDeviceConfigSearch.uiModulesQuantity);
//  533             i++)
//  534     {
//  535         m_apxDrivers[i] -> SetModbusReceipt(1);
//  536     }
//  537 }
//  538 
//  539 //-----------------------------------------------------------------------------------------------------
//  540 void CPss21::SendToDevicesModbusReset(void)
//  541 {
//  542     for (uint8_t i = 0;
//  543             i < (m_xDeviceConfigSearch.uiModulesQuantity);
//  544             i++)
//  545     {
//  546         m_apxDrivers[i] -> SetModbusReset(1);
//  547     }
//  548 }
//  549 
//  550 //-----------------------------------------------------------------------------------------------------

        RSEG CODE:CODE:NOROOT(1)
//  551 void CPss21::KeyStateProcessing(void)
??KeyStateProcessing:
//  552 {
        ST      -Y, R24
//  553 //    m_xReceiptKey.Fsm();
//  554 //    m_xResetKey.Fsm();
//  555 //    m_xCheckKey.Fsm();
//  556 //    m_xExternalKey.Fsm();
//  557 
//  558     if (m_xReceiptKey.KeyEventHappened(CMultiFunctionKey::KEY_EVENT_PRESSED_PUSH))
        LDI     R18, 2
        RCALL   ?Subroutine11
??CrossCallReturnLabel_89:
        TST     R16
        BREQ    ??CrossCallReturnLabel_234
//  559     {
//  560         SetPanelReceipt(1);
        RCALL   ?Subroutine28
??CrossCallReturnLabel_145:
        STD     Z+47, R16
//  561         SetDiscreteSignalsReceipt(1);
        RCALL   ?Subroutine45
//  562         SendToDevicesReceipt();
//  563         m_xBuzzerNotifyerControl.AlarmSet(BEEP_SIGNAL);
//  564     }
??CrossCallReturnLabel_149:
        RCALL   ??Subroutine97_0
//  565 
//  566     if (m_xResetKey.KeyEventHappened(CMultiFunctionKey::KEY_EVENT_PRESSED_PUSH))
??CrossCallReturnLabel_234:
        LDI     R18, 2
        LDI     R16, LOW((??m_xDeviceConfigSearch + 74))
        LDI     R17, HIGH((??m_xDeviceConfigSearch + 74))
        RCALL   ?Subroutine65
??CrossCallReturnLabel_91:
        TST     R16
        BREQ    ??CrossCallReturnLabel_233
//  567     {
//  568         SetPanelReset(1);
        RCALL   ?Subroutine28
??CrossCallReturnLabel_146:
        STD     Z+48, R16
//  569         SetDiscreteSignalsReset(1);
        RCALL   ?Subroutine46
//  570         SendToDevicesReset();
//  571         m_xBuzzerNotifyerControl.AlarmSet(BEEP_SIGNAL);
//  572     }
??CrossCallReturnLabel_151:
        RCALL   ??Subroutine97_0
//  573 
//  574     if (m_xCheckKey.KeyEventHappened(CMultiFunctionKey::KEY_EVENT_PRESSED_PUSH))
??CrossCallReturnLabel_233:
        LDI     R18, 2
        RCALL   ?Subroutine13
??CrossCallReturnLabel_6:
        TST     R16
        BREQ    ??CrossCallReturnLabel_232
//  575     {
//  576         // бЙКЧВХЛ ПЕФХЛ РЕЯРХПНБЮМХЪ.
//  577         SetFsmState(TEST_START);
        RCALL   ?Subroutine43
//  578         m_xBuzzerNotifyerControl.AlarmSet(BEEP_SIGNAL);
??CrossCallReturnLabel_200:
        LDI     R18, 7
        RCALL   ??Subroutine97_0
//  579     }
//  580 
//  581     if (m_xExternalKey.KeyEventHappened(CMultiFunctionKey::KEY_EVENT_PRESSED_RECEIPT))
??CrossCallReturnLabel_232:
        LDI     R18, 2
        RCALL   ?Subroutine8
??CrossCallReturnLabel_156:
        BREQ    ??CrossCallReturnLabel_231
//  582     {
//  583         SetExternalReceipt(1);
        RCALL   ?Subroutine28
??CrossCallReturnLabel_147:
        STD     Z+49, R16
//  584         SetDiscreteSignalsReceipt(1);
        RCALL   ?Subroutine45
//  585         SendToDevicesReceipt();
//  586         m_xBuzzerNotifyerControl.AlarmSet(BEEP_SIGNAL);
//  587     }
??CrossCallReturnLabel_150:
        RCALL   ??Subroutine97_0
//  588 
//  589     if (m_xExternalKey.KeyEventHappened(CMultiFunctionKey::KEY_EVENT_PRESSED_RESET))
??CrossCallReturnLabel_231:
        LDI     R18, 3
        RCALL   ?Subroutine8
??CrossCallReturnLabel_157:
        BREQ    ??CrossCallReturnLabel_230
//  590     {
//  591         SetExternalReset(1);
        RCALL   ?Subroutine28
??CrossCallReturnLabel_148:
        STD     Z+50, R16
//  592         SetDiscreteSignalsReset(1);
        RCALL   ?Subroutine46
//  593         SendToDevicesReset();
//  594         m_xBuzzerNotifyerControl.AlarmSet(BEEP_SIGNAL);
//  595     }
??CrossCallReturnLabel_152:
        RCALL   ??Subroutine97_0
//  596 
//  597     if (m_xExternalKey.KeyEventHappened(CMultiFunctionKey::KEY_EVENT_PRESSED_CHECK))
??CrossCallReturnLabel_230:
        LDI     R18, 4
        RCALL   ?Subroutine8
??CrossCallReturnLabel_158:
        BREQ    ??CrossCallReturnLabel_229
//  598     {
//  599         // бЙКЧВХЛ ПЕФХЛ РЕЯРХПНБЮМХЪ.
//  600         SetFsmState(TEST_START);
        RCALL   ?Subroutine43
//  601         m_xBuzzerNotifyerControl.AlarmSet(BEEP_SIGNAL);
??CrossCallReturnLabel_201:
        LDI     R18, 7
        RCALL   ??Subroutine97_0
//  602     }
//  603 
//  604     // йМНОЙХ "йБХРХПНБЮМХЕ" Х "йНМРПНКЭ" МЮФЮРШ ДНКЭЬЕ 7 ЯЕЙСМД?
//  605     if (m_xEventUniteLogicAndOne.IsHappened((m_xReceiptKey.KeyEventHappened(CMultiFunctionKey::KEY_EVENT_PRESSED_SET_DEFAULT)),
//  606                                             (m_xCheckKey.KeyEventHappened(CMultiFunctionKey::KEY_EVENT_PRESSED_SET_DEFAULT))))
??CrossCallReturnLabel_229:
        LDI     R18, 5
        RCALL   ?Subroutine13
??CrossCallReturnLabel_7:
        MOV     R24, R16
        LDI     R18, 5
        RCALL   ?Subroutine11
??CrossCallReturnLabel_90:
        MOV     R18, R16
        MOV     R19, R24
        LDI     R16, LOW((??m_xDeviceConfigSearch + 119))
        LDI     R17, HIGH((??m_xDeviceConfigSearch + 119))
        CALL    ??IsHappened
        TST     R16
        BREQ    ??CrossCallReturnLabel_228
//  607     {
//  608         // сЯРЮМЮБКХБЮЕЛ МЮЯРПНИЙХ Modbus ОН СЛНКВЮМХЧ МЮ РЕЙСЫСЧ ЯЕЯЯХЧ.
//  609         CPss21::ModbusDefaultInit();
        RCALL   ??ModbusDefaultInit
//  610         m_xBuzzerNotifyerControl.AlarmSet(BEEP_SIGNAL);
        LDI     R18, 7
        RCALL   ??Subroutine97_0
//  611     }
//  612 }
??CrossCallReturnLabel_228:
        REQUIRE ?Subroutine80
        ;               // Fall through to label ?Subroutine80

        RSEG CODE:CODE:NOROOT(1)
?Subroutine80:
        LD      R24, Y+
        RET

        RSEG CODE:CODE:NOROOT(1)
?Subroutine46:
        STD     Z+54, R16
        RCALL   ??SendToDevicesReset
        REQUIRE ?Subroutine81
        ;               // Fall through to label ?Subroutine81

        RSEG CODE:CODE:NOROOT(1)
?Subroutine81:
        LDI     R18, 7
        RET

        RSEG CODE:CODE:NOROOT(1)
?Subroutine45:
        STD     Z+53, R16
        RCALL   ??SendToDevicesReceipt
        RJMP    ?Subroutine81

        RSEG CODE:CODE:NOROOT(1)
?Subroutine43:
        LDI     R16, 6
        REQUIRE ??Subroutine91_0
        ;               // Fall through to label ??Subroutine91_0

        RSEG CODE:CODE:NOROOT(1)
??Subroutine91_0:
        STS     (??m_xDeviceConfigSearch + 46), R16
        RET

        RSEG CODE:CODE:NOROOT(1)
?Subroutine28:
        LDI     R30, LOW(??m_xDeviceConfigSearch)
        LDI     R31, (??m_xDeviceConfigSearch) >> 8
        REQUIRE ?Subroutine79
        ;               // Fall through to label ?Subroutine79

        RSEG CODE:CODE:NOROOT(1)
?Subroutine79:
        LDI     R16, 1
        RET

        RSEG CODE:CODE:NOROOT(1)
?Subroutine13:
        LDI     R16, LOW((??m_xDeviceConfigSearch + 89))
        LDI     R17, HIGH((??m_xDeviceConfigSearch + 89))
        RJMP    ?Subroutine65

        RSEG CODE:CODE:NOROOT(1)
?Subroutine11:
        LDI     R16, LOW((??m_xDeviceConfigSearch + 59))
        LDI     R17, HIGH((??m_xDeviceConfigSearch + 59))
        REQUIRE ?Subroutine65
        ;               // Fall through to label ?Subroutine65

        RSEG CODE:CODE:NOROOT(1)
?Subroutine65:
        JMP     ??KeyEventHappened

        RSEG CODE:CODE:NOROOT(1)
?Subroutine8:
        LDI     R16, LOW((??m_xDeviceConfigSearch + 104))
        LDI     R17, HIGH((??m_xDeviceConfigSearch + 104))
        RCALL   ?Subroutine65
??CrossCallReturnLabel_88:
        REQUIRE ?Subroutine82
        ;               // Fall through to label ?Subroutine82

        RSEG CODE:CODE:NOROOT(1)
?Subroutine82:
        TST     R16
        RET
//  613 
//  614 //-----------------------------------------------------------------------------------------------------

        RSEG CODE:CODE:NOROOT(1)
//  615 void CPss21::ReceiptResetGlobalFlagsClear(void)
??ReceiptResetGlobalFlagsClear:
//  616 {
//  617     SetPanelReceipt(0);
        RCALL   ?Subroutine30
??CrossCallReturnLabel_24:
        LDI     R16, 0
        STD     Z+47, R16
//  618     SetExternalReceipt(0);
        STD     Z+49, R16
//  619     SetModbusReceipt(0);
        STD     Z+51, R16
//  620     SetPanelReset(0);
        STD     Z+48, R16
//  621     SetExternalReset(0);
        STD     Z+50, R16
//  622     SetModbusReset(0);
        STD     Z+52, R16
//  623 }
        RET
//  624 
//  625 //-----------------------------------------------------------------------------------------------------

        RSEG CODE:CODE:NOROOT(1)
//  626 uint8_t CPss21::ModulesInteraction(uint8_t uiModuleIndex)
??ModulesInteraction:
//  627 {
        ST      -Y, R27
        ST      -Y, R26
//  628     if (uiModuleIndex < (m_xDeviceConfigSearch.uiModulesQuantity))
        RCALL   ?Subroutine34
??CrossCallReturnLabel_41:
        BRCC    ??ModulesInteraction_1
        LDI     R17, 2
        MUL     R16, R17
        RCALL   ?Subroutine30
??CrossCallReturnLabel_25:
        ADD     R30, R0
        ADC     R31, R1
        LDD     R26, Z+40
        LDD     R27, Z+41
        MOVW    R17:R16, R27:R26
        ADIW    R27:R26, 7
        LD      R30, X+
        LD      R31, X
        RCALL   ?Subroutine39
//  629     {
//  630         m_apxDrivers[uiModuleIndex] -> DataExchange();
//  631         return 0;
??CrossCallReturnLabel_50:
        LDI     R16, 0
        RJMP    ??ModulesInteraction_2
//  632     }
//  633     else
//  634     {
//  635         return 1;
??ModulesInteraction_1:
        LDI     R16, 1
//  636     }
??ModulesInteraction_2:
        RJMP    ?Subroutine73
//  637 };

        RSEG CODE:CODE:NOROOT(1)
?Subroutine30:
        LDI     R30, LOW(??m_xDeviceConfigSearch)
        LDI     R31, (??m_xDeviceConfigSearch) >> 8
        RET
//  638 
//  639 //-----------------------------------------------------------------------------------------------------

        RSEG CODE:CODE:NOROOT(1)
//  640 void CPss21::ConfigurationInit(void)
??ConfigurationInit:
//  641 {
        RCALL   ?Subroutine40
//  642     uint8_t* puiTempBuffer = m_auiIntermediateBuff;
??CrossCallReturnLabel_52:
        LDI     R26, LOW(??m_auiIntermediateBuff)
        LDI     R27, (??m_auiIntermediateBuff) >> 8
//  643     uint8_t* puiAlarmDfaInit = m_auiReceiveMessageBuff;
//  644 
//  645     memset(puiAlarmDfaInit, 0, DISCRETE_SIGNALS_NUMBER);
        LDI     R20, 96
        RCALL   ?Subroutine4
??CrossCallReturnLabel_195:
        LDI     R16, LOW(??m_auiReceiveMessageBuff)
        LDI     R17, (??m_auiReceiveMessageBuff) >> 8
        RCALL   ?Subroutine32
//  646 
//  647     // сЯРЮМНБХЛ ЙНМТХЦСПЮЖХЧ СЯРПНИЯРБЮ.
//  648     // яВХРЮЕЛ БН БПЕЛЕММШИ АСТЕП АКНЙ ад - "йНМТХЦСПЮЖХЪ СЯРПНИЯРБЮ".
//  649     CDataBase::Read(puiTempBuffer, TDataBase::DEV_CONFIG);
??CrossCallReturnLabel_32:
        LDI     R18, 0
        RCALL   ?Subroutine36
//  650     memcpy(reinterpret_cast<uint8_t*>(&m_xDeviceConfiguration),
//  651            puiTempBuffer,
//  652            sizeof(struct TDevConfig));
??CrossCallReturnLabel_166:
        LDI     R20, 20
        LDI     R21, 0
        MOVW    R19:R18, R27:R26
        LDI     R16, LOW((??m_xDeviceConfigSearch + 9))
        LDI     R17, HIGH((??m_xDeviceConfigSearch + 9))
        RCALL   ?Subroutine48
//  653 
//  654     // сЯРЮМНБХЛ ОЮПЮЛЕРПШ ХМРЕПТЕИЯЮ ModBus.
//  655     // яВХРЮЕЛ БН БПЕЛЕММШИ АСТЕП АКНЙ ад - "оЮПЮЛЕРПШ ХМРЕПТЕИЯЮ ModBus".
//  656     CDataBase::Read(puiTempBuffer, TDataBase::MODBUS_SET);
??CrossCallReturnLabel_61:
        LDI     R18, 1
        RCALL   ?Subroutine36
//  657     memcpy(reinterpret_cast<uint8_t*>(&m_xModbusSettings),
//  658            puiTempBuffer,
//  659            sizeof(struct TMBusSetting));
??CrossCallReturnLabel_165:
        LDI     R20, 7
        LDI     R21, 0
        MOVW    R19:R18, R27:R26
        LDI     R16, LOW(??m_xModbusSettings)
        LDI     R17, (??m_xModbusSettings) >> 8
        RCALL   ?Subroutine48
//  660 
//  661     // яВХРЮЕЛ БН БПЕЛЕММШИ АСТЕП АКНЙ ад - "ад ЛНДСКЕИ БШБНДЮ".
//  662     CDataBase::Read(puiTempBuffer, TDataBase::OUT_BASE);
??CrossCallReturnLabel_60:
        LDI     R18, 5
        RCALL   ?Subroutine36
//  663     memcpy(reinterpret_cast<uint8_t*>(&m_xDiscreteOutputDataBase),
//  664            puiTempBuffer,
//  665            sizeof(struct TOutputData));
??CrossCallReturnLabel_164:
        LDI     R20, 24
        LDI     R21, 0
        MOVW    R19:R18, R27:R26
        LDI     R16, LOW((??m_xModbusSettings + 63))
        LDI     R17, HIGH((??m_xModbusSettings + 63))
        RCALL   ?Subroutine48
//  666 
//  667     // сЯРЮМНБХЛ СПНБЕМЭ ДХЯЙПЕРМНЦН ЯХЦМЮКЮ ХМРЕПОПЕРХПСЕЛШИ ЙЮЙ ЮЙРХБМШИ.
//  668     // яВХРЮЕЛ БН БПЕЛЕММШИ АСТЕП АКНЙ ад - "сПНБЕМЭ ДХЯЙПЕРМНЦН ЯХЦМЮКЮ ХМРЕПОПЕРХПСЕЛШИ ЙЮЙ ЮЙРХБМШИ".
//  669     CDataBase::Read(puiTempBuffer, TDataBase::ACTIVITY_LEVEL);
??CrossCallReturnLabel_59:
        LDI     R18, 2
        RCALL   ?Subroutine36
//  670     for (uint8_t i = 0;
??CrossCallReturnLabel_163:
        LDI     R18, 0
//  671             i < DISCRETE_INPUTS_NUMBER;
//  672         )
//  673 //    for (uint8_t i = 0;
//  674 //            i < DISCRETE_SIGNALS_NUMBER;
//  675 //        )
//  676     {
//  677         uint8_t uiData = *puiTempBuffer;
??ConfigurationInit_1:
        LD      R22, X+
//  678         for (uint8_t j = 0;
        LDI     R21, 0
        LDI     R19, 8
//  679                 j < 8;
//  680                 j++)
//  681         {
//  682             // сЯРЮМНБХЛ СПНБЕМЭ РЕЙСЫЕЦН ДХЯЙПЕРМНЦН ЯХЦМЮКЮ ХМРЕПОПЕРХПСЕЛШИ ЙЮЙ ЮЙРХБМШИ.
//  683             if (((uiData >> j) & 0x01))
??ConfigurationInit_2:
        LDI     R17, 0
        LDI     R30, LOW(??m_auiReceiveMessageBuff)
        LDI     R31, (??m_auiReceiveMessageBuff) >> 8
        ADD     R30, R18
        ADC     R31, R17
        MOV     R16, R22
        MOV     R20, R21
        CALL    ?SS_SHR_L02
        ANDI    R16, 0x01
        BREQ    ??ConfigurationInit_3
//  684             {
//  685                 puiAlarmDfaInit[i] = 0x80;
        LDI     R16, 128
        RJMP    ??ConfigurationInit_4
//  686             }
//  687             else
//  688             {
//  689                 puiAlarmDfaInit[i] = 0;
??ConfigurationInit_3:
        LDI     R16, 0
??ConfigurationInit_4:
        ST      Z, R16
//  690             }
//  691             i++;
        INC     R18
//  692         }
        INC     R21
        DEC     R19
        BRNE    ??ConfigurationInit_2
//  693         puiTempBuffer++;
//  694     }
        CPI     R18, 48
        BRCS    ??ConfigurationInit_1
//  695 
//  696     puiTempBuffer = m_auiIntermediateBuff;
//  697     // оПХБЪФЕЛ НЙМЮ ЯХЦМЮКХГЮЖХХ Й ДХЯЙПЕРМШЛ ЯХЦМЮКЮЛ.
//  698     // яВХРЮЕЛ БН БПЕЛЕММШИ АСТЕП АКНЙ ад - "хМДЕЙЯ НЙМЮ ЯХЦМЮКХГЮЖХХ ЙНРНПНЕ ОПХБЪГЮМН Й РЕЙСЫЕЛС ДХЯЙПЕРМНЛС ЯХЦМЮКС".
//  699     CDataBase::Read(puiTempBuffer, TDataBase::ALARM_WINDOW_INDEX);
        RCALL   ?Subroutine44
//  700     for (uint8_t i = 0;
??CrossCallReturnLabel_167:
        LDI     R18, 0
        LDI     R16, 96
//  701             i < DISCRETE_SIGNALS_NUMBER;
//  702             i++)
//  703     {
//  704         // оПХБЪФЕЛ НЙМН ЯХЦМЮКХГЮЖХХ Й РЕЙСЫЕЛС ДХЯЙПЕРМНЛС ЯХЦМЮКС.
//  705         puiAlarmDfaInit[i] |= (puiTempBuffer[i] & ~(0x80));
??ConfigurationInit_5:
        MOV     R30, R18
        LDI     R31, 0
        SUBI    R30, LOW((-(??m_auiIntermediateBuff) & 0xFFFF))
        SBCI    R31, (-(??m_auiIntermediateBuff) & 0xFFFF) >> 8
        LD      R17, Z
        ANDI    R17, 0x7F
        MOV     R30, R18
        LDI     R31, 0
        SUBI    R30, LOW((-(??m_auiReceiveMessageBuff) & 0xFFFF))
        SBCI    R31, (-(??m_auiReceiveMessageBuff) & 0xFFFF) >> 8
        LD      R19, Z
        OR      R19, R17
        ST      Z, R19
//  706     }
        INC     R18
        DEC     R16
        BRNE    ??ConfigurationInit_5
//  707 
//  708     // яВХРЮЕЛ БН БПЕЛЕММШИ АСТЕП АКНЙ ад - "рХО ЯХЦМЮКХГЮЖХХ ОПХБЪГЮММШИ Й НЙМС".
//  709     CDataBase::Read(puiTempBuffer, TDataBase::ALARM_TYPE);
        LDI     R18, 4
        RCALL   ?Subroutine49
??CrossCallReturnLabel_62:
        LDI     R16, 96
        LDI     R21, 0
//  710     for (uint8_t i = 0;
//  711             i < DISCRETE_SIGNALS_NUMBER;
//  712             i++)
//  713     {
//  714         CPss21::m_aucRtuHoldingRegistersArray[i] = ((static_cast<uint16_t>(puiTempBuffer[i] & ~(0x80)) << 8) | i);
??ConfigurationInit_6:
        MOVW    R31:R30, R21:R20
        SUBI    R30, LOW((-(??m_auiIntermediateBuff) & 0xFFFF))
        SBCI    R31, (-(??m_auiIntermediateBuff) & 0xFFFF) >> 8
        LD      R18, Z
        ANDI    R18, 0x7F
        LDI     R17, 2
        MUL     R20, R17
        MOVW    R31:R30, R1:R0
        SUBI    R30, LOW((-(??m_xModbusSettings) & 0xFFFF))
        SBCI    R31, (-(??m_xModbusSettings) & 0xFFFF) >> 8
        STD     Z+7, R20
        STD     Z+8, R18
//  715         uint8_t uiWindowIndex = (puiAlarmDfaInit[i] & ~(0x80));
        LDI     R30, LOW(??m_auiReceiveMessageBuff)
        LDI     R31, (??m_auiReceiveMessageBuff) >> 8
        ADD     R30, R20
        ADC     R31, R21
        LD      R17, Z
        MOV     R18, R17
        ANDI    R18, 0x7F
//  716         if (uiWindowIndex < ALARM_WINDOWS_NUMBER)
        CPI     R18, 48
        ANDI    R17, 0x80
        BRCC    ??ConfigurationInit_7
//  717         {
//  718             // нВХЯРХЛ ХМДЕЙЯ ОПХБЪГЮММНЦН НЙМЮ, АНКЭЬЕ МЕ МСФЕМ.
//  719             // нЯРЮБХЛ СПНБЕМЭ ДХЯЙПЕРМНЦН ЯХЦМЮКЮ ХМРЕПОПЕРХПСЕЛШИ ЙЮЙ ЮЙРХБМШИ.
//  720             puiAlarmDfaInit[i] &= 0x80;
//  721             // сЯРЮМНБХЛ РХО ЯХЦМЮКХГЮЖХХ ОН ОПХБЪГЮММНЛС НЙМС.
//  722             puiAlarmDfaInit[i] |= puiTempBuffer[uiWindowIndex];
        LDI     R27, 0
        SUBI    R18, LOW((-(??m_auiIntermediateBuff) & 0xFFFF))
        MOV     R26, R18
        SBCI    R27, (-(??m_auiIntermediateBuff) & 0xFFFF) >> 8
        LD      R18, X
        OR      R17, R18
//  723         }
//  724         else
//  725         {
//  726             // нВХЯРХЛ ХМДЕЙЯ ОПХБЪГЮММНЦН НЙМЮ, АНКЭЬЕ МЕ МСФЕМ.
//  727             // нЯРЮБХЛ СПНБЕМЭ ДХЯЙПЕРМНЦН ЯХЦМЮКЮ ХМРЕПОПЕРХПСЕЛШИ ЙЮЙ ЮЙРХБМШИ.
//  728             puiAlarmDfaInit[i] &= 0x80;
??ConfigurationInit_7:
        ST      Z, R17
//  729         }
//  730     }
        INC     R20
        DEC     R16
        BRNE    ??ConfigurationInit_6
//  731 
//  732     for (uint8_t i = 0;
        LDI     R24, 0
        LDI     R25, 96
//  733             i < DISCRETE_SIGNALS_NUMBER;
//  734             i++)
//  735     {
//  736         // йЮЙНИ РХО ЯХЦМЮКХГЮЖХХ ЯБЪГЮМ Я ДХЯЙПЕРМШЛ ЯХЦМЮКНЛ?
//  737         switch (puiAlarmDfaInit[i] & 0x03)
??ConfigurationInit_8:
        LDI     R16, 2
        MUL     R24, R16
        LDI     R26, LOW(??m_apxAlarmDfa)
        LDI     R27, (??m_apxAlarmDfa) >> 8
        ADD     R26, R0
        ADC     R27, R1
        LDI     R17, 0
        LDI     R30, LOW(??m_auiReceiveMessageBuff)
        LDI     R31, (??m_auiReceiveMessageBuff) >> 8
        ADD     R30, R24
        ADC     R31, R17
        LD      R16, Z
        ANDI    R16, 0x03
        BREQ    ??ConfigurationInit_9
        DEC     R16
        BREQ    ??ConfigurationInit_10
        DEC     R16
        BREQ    ??ConfigurationInit_11
        DEC     R16
        BREQ    ??ConfigurationInit_12
        RJMP    ??ConfigurationInit_9
//  738         {
//  739         case NORMAL:
//  740             m_apxAlarmDfa[i] = new CNormalAlarmDfa;
//  741             break;
//  742 
//  743         case INDICATION:
//  744             // сПНБЕМЭ ДХЯЙПЕРМНЦН ЯХЦМЮКЮ ХМРЕПОПЕРХПСЕЛШИ ЙЮЙ ЮЙРХБМШИ - БШЯНЙХИ?
//  745             if (puiAlarmDfaInit[i] & 0x80)
??ConfigurationInit_10:
        LD      R16, Z
        SBRS    R16, 7
        RJMP    ??ConfigurationInit_13
//  746             {
//  747                 m_apxAlarmDfa[i] = new CIndicationAlarmHighLevelDfa;
        CALL    `??new CIndicationAlarmHighLevelDfa`
        RJMP    ??ConfigurationInit_14
//  748             }
//  749             else
//  750             {
//  751                 m_apxAlarmDfa[i] = new CIndicationAlarmLowLevelDfa;
??ConfigurationInit_13:
        CALL    `??new CIndicationAlarmLowLevelDfa`
        RJMP    ??ConfigurationInit_14
//  752             }
//  753             break;
//  754 
//  755         case PREVENTIVE:
//  756             // сПНБЕМЭ ДХЯЙПЕРМНЦН ЯХЦМЮКЮ ХМРЕПОПЕРХПСЕЛШИ ЙЮЙ ЮЙРХБМШИ - БШЯНЙХИ?
//  757             if (puiAlarmDfaInit[i] & 0x80)
??ConfigurationInit_11:
        LD      R16, Z
        SBRS    R16, 7
        RJMP    ??ConfigurationInit_15
//  758             {
//  759                 m_apxAlarmDfa[i] = new CPreventiveAlarmHighLevelDfa;
        CALL    `??new CPreventiveAlarmHighLevelDfa`
        RJMP    ??ConfigurationInit_14
//  760             }
//  761             else
//  762             {
//  763                 m_apxAlarmDfa[i] = new CPreventiveAlarmLowLevelDfa;
??ConfigurationInit_15:
        CALL    `??new CPreventiveAlarmLowLevelDfa`
        RJMP    ??ConfigurationInit_14
//  764             }
//  765             break;
//  766 
//  767         case EMERGENCY:
//  768             // сПНБЕМЭ ДХЯЙПЕРМНЦН ЯХЦМЮКЮ ХМРЕПОПЕРХПСЕЛШИ ЙЮЙ ЮЙРХБМШИ - БШЯНЙХИ?
//  769             if (puiAlarmDfaInit[i] & 0x80)
??ConfigurationInit_12:
        LD      R16, Z
        SBRS    R16, 7
        RJMP    ??ConfigurationInit_16
//  770             {
//  771                 m_apxAlarmDfa[i] = new CEmergencyAlarmHighLevelDfa;
        CALL    `??new CEmergencyAlarmHighLevelDfa`
        RJMP    ??ConfigurationInit_14
//  772             }
//  773             else
//  774             {
//  775                 m_apxAlarmDfa[i] = new CEmergencyAlarmLowLevelDfa;
??ConfigurationInit_16:
        CALL    `??new CEmergencyAlarmLowLevelDfa`
        RJMP    ??ConfigurationInit_14
//  776             }
//  777             break;
//  778 
//  779         case IND_PREVENTIVE:
//  780             m_apxAlarmDfa[i] = new CNormalAlarmDfa;
//  781             break;
//  782 
//  783         case IND_EMERGENCY:
//  784             m_apxAlarmDfa[i] = new CNormalAlarmDfa;
//  785             break;
//  786 
//  787         default:
//  788             m_apxAlarmDfa[i] = new CNormalAlarmDfa;
??ConfigurationInit_9:
        CALL    `??new CNormalAlarmDfa`
??ConfigurationInit_14:
        ST      X+, R16
        ST      X, R17
//  789             break;
//  790         }
//  791     }
        INC     R24
        DEC     R25
        BRNE    ??ConfigurationInit_8
//  792 
//  793     // оПХБЪФЕЛ НЙМЮ ЯХЦМЮКХГЮЖХХ Й ЯНГДЮММШЛ НАЗЕЙРЮЛ ЯХЦМЮКХГЮЖХИ ДХЯЙПЕРМШУ ЯХЦМЮКНБ.
//  794     // яВХРЮЕЛ БН БПЕЛЕММШИ АСТЕП АКНЙ ад - "хМДЕЙЯ НЙМЮ ЯХЦМЮКХГЮЖХХ ЙНРНПНЕ ОПХБЪГЮМН Й РЕЙСЫЕЛС ДХЯЙПЕРМНЛС ЯХЦМЮКС".
//  795     CDataBase::Read(puiTempBuffer, TDataBase::ALARM_WINDOW_INDEX);
        RCALL   ?Subroutine44
//  796     for (uint8_t i = 0;
??CrossCallReturnLabel_168:
        LDI     R20, 0
        LDI     R18, 96
//  797             i < DISCRETE_SIGNALS_NUMBER;
//  798             i++)
//  799     {
//  800         // оПХБЪФЕЛ НЙМН ЯХЦМЮКХГЮЖХХ Й РЕЙСЫЕЛС ДХЯЙПЕРМНЛС ЯХЦМЮКС.
//  801         if (puiTempBuffer[i] < ALARM_WINDOWS_NUMBER)
??ConfigurationInit_17:
        RCALL   ?Subroutine26
??CrossCallReturnLabel_159:
        LDD     R17, Z+1
        RCALL   ?Subroutine38
??CrossCallReturnLabel_47:
        CPI     R19, 48
        MOVW    R31:R30, R17:R16
        BRCC    ??ConfigurationInit_18
//  802         {
//  803             m_apxAlarmDfa[i] ->
//  804             SetAlarmWindowIndex(puiTempBuffer[i]);
        STD     Z+3, R19
//  805         }
        RJMP    ??ConfigurationInit_19
//  806         else
//  807         {
//  808             m_apxAlarmDfa[i] ->
//  809             SetAlarmWindowIndex(0);
??ConfigurationInit_18:
        LDI     R16, 0
        STD     Z+3, R16
//  810         }
//  811     }
??ConfigurationInit_19:
        INC     R20
        DEC     R18
        BRNE    ??ConfigurationInit_17
//  812 
//  813     // яВХРЮЕЛ БН БПЕЛЕММШИ АСТЕП АКНЙ ад - "бШУНДМШЕ ПЕКЕ, ЯНОНЯРЮБКЕММШЕ ТХГХВЕЯЙХЛ БУНДЮЛ".
//  814     CDataBase::Read(puiTempBuffer, TDataBase::RELAY);
        LDI     R18, 6
        RCALL   ?Subroutine49
//  815     // оНКСВХЛ ЯБЪГЮММШЕ БШУНДШ МЮ лп.
//  816     for (uint8_t i = 0;
??CrossCallReturnLabel_63:
        LDI     R18, 96
//  817             i < DISCRETE_SIGNALS_NUMBER;
//  818             i++)
//  819     {
//  820         *(m_apxAlarmDfa[i] -> GetLinkedDiscreteOutputsPointer()) = puiTempBuffer[i];
??ConfigurationInit_20:
        RCALL   ?Subroutine38
??CrossCallReturnLabel_48:
        RCALL   ?Subroutine26
??CrossCallReturnLabel_160:
        LDD     R31, Z+1
        MOV     R30, R16
        STD     Z+4, R19
        INC     R20
        DEC     R18
        BRNE    ??ConfigurationInit_20
//  821 //        m_apxAlarmDfa[i] -> SetLinkedDiscreteOutputs(puiTempBuffer[i]);
//  822     };
//  823 
//  824     // оНКСВХЛ ХМДЕЙЯШ ХЯРНВМХЙНБ ЯНЯРНЪМХЪ ДХЯЙПЕРМШУ ЯХЦМЮКНБ - ДХЯЙПЕРМШЕ БУНДШ ЛНДСКЕИ.
//  825     for (uint8_t i = 0;
        LDI     R17, 0
        LDI     R16, 48
        LDI     R18, 2
//  826             i < DISCRETE_INPUTS_NUMBER;
//  827             i++)
//  828     {
//  829         m_apxAlarmDfa[i] -> SetDiscreteStateIndex(i);
??ConfigurationInit_21:
        MUL     R17, R18
        RCALL   ?Subroutine63
??CrossCallReturnLabel_85:
        LD      R26, Z
        LDD     R27, Z+1
        ADIW    R27:R26, 5
        ST      X, R17
//  830     };
        INC     R17
        DEC     R16
        BRNE    ??ConfigurationInit_21
//  831     // оНКСВХЛ ХМДЕЙЯШ ХЯРНВМХЙНБ ЯНЯРНЪМХЪ ДХЯЙПЕРМШУ ЯХЦМЮКНБ - ЯНЯРНЪМХЕ ЪВЕЕЙ(coils Modbus).
//  832     for (uint8_t i = 0;
        LDI     R17, 0
        LDI     R16, 48
        LDI     R19, 2
//  833             i < ALARM_WINDOWS_NUMBER;
//  834             i++)
//  835     {
//  836         m_apxAlarmDfa[DISCRETE_INPUTS_NUMBER + i] -> SetDiscreteStateIndex(DISCRETE_INPUTS_NUMBER + i);;
??ConfigurationInit_22:
        MOV     R18, R17
        SUBI    R18, 208
        MUL     R17, R19
        MOVW    R31:R30, R1:R0
        SUBI    R30, LOW((-(??m_apxAlarmDfa + 96) & 0xFFFF))
        SBCI    R31, HIGH((-(??m_apxAlarmDfa + 96) & 0xFFFF))
        LD      R26, Z
        LDD     R27, Z+1
        ADIW    R27:R26, 5
        ST      X, R18
//  837     };
        INC     R17
        DEC     R16
        BRNE    ??ConfigurationInit_22
//  838 
//  839     // бНЯЯРЮМНБХЛ  ЯНЯРНЪМХЕ СЯРПНИЯРБЮ.
//  840     // яВХРЮЕЛ БН БПЕЛЕММШИ АСТЕП АКНЙ ад - "яНЯРНЪМХЕ СЯРПНИЯРБЮ УПЮМХЛНЕ Б EEPROM".
//  841     CDataBase::Read(puiTempBuffer, TDataBase::DEVICE_STATE);
        LDI     R18, 10
        RCALL   ?Subroutine66
//  842     memcpy(reinterpret_cast<uint8_t*>(&m_xDeviceState),
//  843            puiTempBuffer,
//  844            sizeof(struct TDeviceState));
??CrossCallReturnLabel_170:
        LDI     R20, 8
        LDI     R21, 0
        LDI     R18, LOW(??m_auiIntermediateBuff)
        LDI     R19, (??m_auiIntermediateBuff) >> 8
        LDI     R16, LOW((??m_xModbusSettings + 39))
        LDI     R17, HIGH((??m_xModbusSettings + 39))
        RCALL   ?Subroutine48
//  845 }
??CrossCallReturnLabel_58:
        RJMP    ?Subroutine84

        RSEG CODE:CODE:NOROOT(1)
?Subroutine49:
        RCALL   ?Subroutine66
??CrossCallReturnLabel_169:
        LDI     R20, 0
        RET

        RSEG CODE:CODE:NOROOT(1)
?Subroutine48:
        JMP     memcpy

        RSEG CODE:CODE:NOROOT(1)
?Subroutine44:
        LDI     R18, 3
        REQUIRE ?Subroutine66
        ;               // Fall through to label ?Subroutine66

        RSEG CODE:CODE:NOROOT(1)
?Subroutine66:
        LDI     R16, LOW(??m_auiIntermediateBuff)
        LDI     R17, (??m_auiIntermediateBuff) >> 8
        REQUIRE ?Subroutine86
        ;               // Fall through to label ?Subroutine86

        RSEG CODE:CODE:NOROOT(1)
?Subroutine86:
        JMP     ??Read

        RSEG CODE:CODE:NOROOT(1)
?Subroutine40:
        JMP     ?PROLOGUE4_L09

        RSEG CODE:CODE:NOROOT(1)
?Subroutine38:
        LDI     R31, 0
        MOV     R30, R20
        SUBI    R30, LOW((-(??m_auiIntermediateBuff) & 0xFFFF))
        SBCI    R31, (-(??m_auiIntermediateBuff) & 0xFFFF) >> 8
        LD      R19, Z
        RET

        RSEG CODE:CODE:NOROOT(1)
?Subroutine36:
        MOVW    R17:R16, R27:R26
        RJMP    ?Subroutine86

        RSEG CODE:CODE:NOROOT(1)
?Subroutine26:
        LDI     R16, 2
        MUL     R20, R16
        RCALL   ?Subroutine63
??CrossCallReturnLabel_87:
        REQUIRE ?Subroutine83
        ;               // Fall through to label ?Subroutine83

        RSEG CODE:CODE:NOROOT(1)
?Subroutine83:
        LD      R16, Z
        RET

        RSEG CODE:CODE:NOROOT(1)
?Subroutine63:
        MOVW    R31:R30, R1:R0
        SUBI    R30, LOW((-(??m_apxAlarmDfa) & 0xFFFF))
        SBCI    R31, (-(??m_apxAlarmDfa) & 0xFFFF) >> 8
        RET
//  846 
//  847 //-----------------------------------------------------------------------------------------------------

        RSEG CODE:CODE:NOROOT(1)
//  848 void CPss21::DiscreteOutputControlClear(void)
??DiscreteOutputControlClear:
//  849 {
        MOVW    R21:R20, R25:R24
//  850     // оПХБЕДЕМХЕ АСТЕПНБ СОПЮБКЕМХЪ ЛНДСКЪЛХ ДХЯЙПЕРМШУ БШУНДНБ(ПЕКЕ) Б ХЯУНДМНЕ ЯНЯРНЪМХЕ.
//  851     for (int j = 0;
//  852             j < DISCRETE_OUTPUT_MODULE_MAX_NUMBER;
//  853             j++)
//  854     {
//  855         // ЖХЙК БШАНПЮ ПЕКЕ.
//  856         for (int k = 0;
        RCALL   ?Subroutine41
??CrossCallReturnLabel_55:
        LDI     R16, 8
        LDI     R17, 0
//  857                 k < MR_DISCRETE_OUTPUT_NUMBER;
//  858                 k++)
//  859         {
//  860             // яАПНЯХЛ ТКЮЦ - МНБНЕ МЮПСЬЕМХЕ.
//  861             m_axDiscreteOutputControl[(j * MR_DISCRETE_OUTPUT_NUMBER) + k].uiNewActivation = 0;
??DiscreteOutputControlClear_1:
        MOVW    R19:R18, R25:R24
        LSL     R18
        ROL     R19
        RCALL   ?Subroutine27
??CrossCallReturnLabel_18:
        ADD     R30, R18
        ADC     R31, R19
        STD     Z+23, R17
//  862             // яАПНЯХЛ ТКЮЦ - РПЕАНБЮМХЕ БЙКЧВЕМХЪ ПЕКЕ.
//  863             m_axDiscreteOutputControl[(j * MR_DISCRETE_OUTPUT_NUMBER) + k].uiRelayActivationRequest = 0;
        STD     Z+24, R17
//  864         }
        ADIW    R25:R24, 1
        DEC     R16
        BRNE    ??DiscreteOutputControlClear_1
//  865     }
//  866 }
        MOVW    R25:R24, R21:R20
        RET

        RSEG CODE:CODE:NOROOT(1)
?Subroutine41:
        LDI     R24, 0
        LDI     R25, 0
        RET

        RSEG CODE:CODE:NOROOT(1)
?Subroutine27:
        LDI     R30, LOW(??m_xModbusSettings)
        LDI     R31, (??m_xModbusSettings) >> 8
        RET
//  867 
//  868 //-----------------------------------------------------------------------------------------------------

        RSEG CODE:CODE:NOROOT(1)
//  869 void CPss21::DiscreteOutputsSet(uint8_t *puiLinkedDiscreteOutputs, uint8_t uiNewViolation)
??DiscreteOutputsSet:
//  870 {
        RCALL   ?Subroutine40
??CrossCallReturnLabel_53:
        MOVW    R23:R22, R17:R16
//  871     // дХЯЙПЕРМШИ ЯХЦМЮК АШК ЮЙРХБЕМ МЮ ОПЕДШДСЫЕЛ ЬЮЦЕ?
//  872     if (!uiNewViolation)
        TST     R18
        LDI     R26, 0
        LDI     R27, 0
        LDI     R19, 1
        BRNE    ??DiscreteOutputsSet_1
//  873     {
//  874         // мЕ МНБНЕ МЮПСЬЕМХЕ.
//  875         // СЯРЮМНБХЛ ТКЮЦХ - РПЕАНБЮМХЪ БЙКЧВЕМХЪ, ДКЪ ГЮОПНЦПЮЛЛХПНБЮММШУ ПЕКЕ,
//  876         // Б АСТЕПЕ БШУНДНБ РПЕАНБЮМХИ БЙКЧВЕМХЪ ПЕКЕ - АКНЙХПНБЙЮ.
//  877         // ЖХЙК БШАНПЮ ЛНДСКЪ.
//  878         for (int j = 0;
//  879                 j < DISCRETE_OUTPUT_MODULE_MAX_NUMBER;
//  880                 j++)
//  881         {
//  882             // ЖХЙК БШАНПЮ ПЕКЕ.
//  883             for (int k = 0;
??DiscreteOutputsSet_2:
        RCALL   ?Subroutine41
??CrossCallReturnLabel_56:
        LDI     R18, 8
//  884                     k < MR_DISCRETE_OUTPUT_NUMBER;
//  885                     k++)
//  886             {
//  887                 // рЕЙСЫХИ - (j, k) ДХЯЙПЕРМШИ БШУНД(ПЕКЕ) ОПХБЪГЮМ?
//  888                 if (puiLinkedDiscreteOutputs[j] & (0x01 << k))
??DiscreteOutputsSet_3:
        RCALL   ?Subroutine25
??CrossCallReturnLabel_203:
        BREQ    ??DiscreteOutputsSet_4
//  889                 {
//  890                     // СЯРЮМНБХЛ ТКЮЦ - РПЕАНБЮМХЕ БЙКЧВЕМХЪ ПЕКЕ.
//  891                     m_axDiscreteOutputControl[(j * MR_DISCRETE_OUTPUT_NUMBER) + k].uiRelayActivationRequest = 1;
        RCALL   ?Subroutine37
//  892                 }
//  893             }
??CrossCallReturnLabel_45:
        MOVW    R31:R30, R17:R16
        SUBI    R30, LOW((-(??m_xModbusSettings) & 0xFFFF))
        SBCI    R31, (-(??m_xModbusSettings) & 0xFFFF) >> 8
        LDI     R16, 1
        STD     Z+24, R16
??DiscreteOutputsSet_4:
        ADIW    R25:R24, 1
        DEC     R18
        BRNE    ??DiscreteOutputsSet_3
//  894         }
        ADIW    R27:R26, 1
        DEC     R19
        BREQ    ??DiscreteOutputsSet_5
        RJMP    ??DiscreteOutputsSet_2
//  895     }
//  896     else
//  897     {
//  898         // МНБНЕ МЮПСЬЕМХЕ.
//  899         // СЯРЮМНБХЛ ТКЮЦХ - МНБНЕ МЮПСЬЕМХЕ, ДКЪ ГЮОПНЦПЮЛЛХПНБЮММШУ ПЕКЕ
//  900         // Б АСТЕПЕ БШУНДНБ СОПЮБКЕМХЪ ПЕКЕ - МНБНЕ МЮПСЬЕМХЕ.
//  901         // СЯРЮМНБХЛ ТКЮЦХ - РПЕАНБЮМХЪ БЙКЧВЕМХЪ, ДКЪ ГЮОПНЦПЮЛЛХПНБЮММШУ ПЕКЕ,
//  902         // Б АСТЕПЕ БШУНДНБ РПЕАНБЮМХИ БЙКЧВЕМХЪ ПЕКЕ - АКНЙХПНБЙЮ.
//  903         // ЖХЙК БШАНПЮ ЛНДСКЪ.
//  904         for (int j = 0;
//  905                 j < DISCRETE_OUTPUT_MODULE_MAX_NUMBER;
//  906                 j++)
//  907         {
//  908             // ЖХЙК БШАНПЮ ПЕКЕ.
//  909             for (int k = 0;
??DiscreteOutputsSet_1:
        RCALL   ?Subroutine41
??CrossCallReturnLabel_57:
        LDI     R18, 8
//  910                     k < MR_DISCRETE_OUTPUT_NUMBER;
//  911                     k++)
//  912             {
//  913                 // рЕЙСЫХИ - (j, k) ДХЯЙПЕРМШИ БШУНД(ПЕКЕ) ОПХБЪГЮМ?
//  914                 if (puiLinkedDiscreteOutputs[j] & (0x01 << k))
??DiscreteOutputsSet_6:
        RCALL   ?Subroutine25
??CrossCallReturnLabel_204:
        BREQ    ??DiscreteOutputsSet_7
//  915                 {
//  916                     // СЯРЮМНБХЛ ТКЮЦ - МНБНЕ МЮПСЬЕМХЕ.
//  917                     m_axDiscreteOutputControl[(j * MR_DISCRETE_OUTPUT_NUMBER) + k].uiNewActivation = 1;
        RCALL   ?Subroutine37
??CrossCallReturnLabel_46:
        RCALL   ?Subroutine27
??CrossCallReturnLabel_19:
        RCALL   ?Subroutine71
??CrossCallReturnLabel_103:
        LDI     R16, 1
        STD     Z+23, R16
//  918                     // СЯРЮМНБХЛ ТКЮЦ - РПЕАНБЮМХЕ БЙКЧВЕМХЪ ПЕКЕ.
//  919                     m_axDiscreteOutputControl[(j * MR_DISCRETE_OUTPUT_NUMBER) + k].uiRelayActivationRequest = 1;
        STD     Z+24, R16
//  920                 }
//  921             }
??DiscreteOutputsSet_7:
        ADIW    R25:R24, 1
        DEC     R18
        BRNE    ??DiscreteOutputsSet_6
//  922         }
        ADIW    R27:R26, 1
        DEC     R19
        BRNE    ??DiscreteOutputsSet_1
//  923     }
//  924 }
??DiscreteOutputsSet_5:
        RJMP    ?Subroutine84

        RSEG CODE:CODE:NOROOT(1)
?Subroutine37:
        LDI     R20, 3
        MOVW    R17:R16, R27:R26
        RCALL   ?Subroutine64
??CrossCallReturnLabel_206:
        ADD     R16, R24
        ADC     R17, R25
        LSL     R16
        ROL     R17
        RET

        RSEG CODE:CODE:NOROOT(1)
?Subroutine64:
        JMP     ?S_SHL_L02

        RSEG CODE:CODE:NOROOT(1)
?Subroutine25:
        MOVW    R31:R30, R23:R22
        ADD     R30, R26
        ADC     R31, R27
        LD      R21, Z
        MOV     R20, R24
        REQUIRE ??Subroutine92_0
        ;               // Fall through to label ??Subroutine92_0

        RSEG CODE:CODE:NOROOT(1)
??Subroutine92_0:
        LDI     R16, 1
        LDI     R17, 0
        RCALL   ?Subroutine64
??CrossCallReturnLabel_207:
        AND     R21, R16
        RET
//  925 
//  926 //-----------------------------------------------------------------------------------------------------

        RSEG CODE:CODE:NOROOT(1)
//  927 void CPss21::AlarmsProcessing(void)
??AlarmsProcessing:
//  928 {
        ST      -Y, R25
        ST      -Y, R24
//  929     // нАПЮАНРЮЕЛ БЯЕ ДХЯЙПЕРМШЕ ЯХЦМЮКШ.
//  930     for (uint8_t i = 0;
        LDI     R25, 0
        LDI     R24, 96
//  931             i < DISCRETE_SIGNALS_NUMBER;
//  932             i++)
//  933     {
//  934         m_apxAlarmDfa[i] -> Fsm();
??AlarmsProcessing_1:
        LDI     R16, 2
        MUL     R25, R16
        RCALL   ?Subroutine63
//  935     }
??CrossCallReturnLabel_86:
        LD      R18, Z
        LDD     R19, Z+1
        MOVW    R17:R16, R19:R18
        MOVW    R31:R30, R19:R18
        LDD     R18, Z+1
        LDD     R31, Z+2
        MOV     R30, R18
        RCALL   ?Subroutine39
??CrossCallReturnLabel_49:
        INC     R25
        DEC     R24
        BRNE    ??AlarmsProcessing_1
//  936 }
        LD      R24, Y+
        LD      R25, Y+
        RET

        RSEG CODE:CODE:NOROOT(1)
?Subroutine39:
        ADIW    R31:R30, 2
        LPM     R18, Z+
        LPM     R31, Z
        MOV     R30, R18
        IJMP
//  937 
//  938 //-----------------------------------------------------------------------------------------------------

        RSEG CODE:CODE:NOROOT(1)
//  939 uint8_t CPss21::GetDiscreteInputState(uint8_t uiIndex)
??GetDiscreteInputState:
//  940 {
//  941     if (uiIndex < DISCRETE_INPUTS_NUMBER)
        LDI     R17, 0
        LDI     R30, LOW(??m_aucRtuDiscreteDataArray)
        LDI     R31, (??m_aucRtuDiscreteDataArray) >> 8
        RCALL   ?Subroutine71
??CrossCallReturnLabel_104:
        CPI     R16, 48
        BRCC    ??GetDiscreteInputState_1
//  942     {
//  943         // оНКСВХЛ ЮДПЕЯЮ ХЯРНВМХЙНБ ЯНЯРНЪМХЪ ДХЯЙПЕРМШУ ЯХЦМЮКНБ - ДХЯЙПЕРМШЕ БУНДШ ЛНДСКЕИ.
//  944         return m_aucRtuDiscreteDataArray[DISCRETE_INPUTS_BIT_ARRAY_OFFSET + uiIndex];
        LDD     R16, Z+16
        RET
//  945     }
//  946     else
//  947     {
//  948         // оНКСВХЛ ЮДПЕЯЮ ХЯРНВМХЙНБ ЯНЯРНЪМХЪ ДХЯЙПЕРМШУ ЯХЦМЮКНБ - ЯНЯРНЪМХЕ ЪВЕЕЙ(coils Modbus).
//  949         return m_aucRtuDiscreteDataArray[ALARM_WINDOWS_BIT_ARRAY_OFFSET + uiIndex];
??GetDiscreteInputState_1:
        SUBI    R30, 192
        SBCI    R31, 255
        RJMP    ?Subroutine83
//  950     }
//  951 }
//  952 
//  953 //-----------------------------------------------------------------------------------------------------

        RSEG CODE:CODE:NOROOT(1)
//  954 void CPss21::AlarmTypeSet(uint8_t uiAlarmType)
??AlarmTypeSet:
//  955 {
        ST      -Y, R24
        MOV     R24, R16
//  956     m_xPreventiveAlarmWindowNotifyerControl.AlarmSet(uiAlarmType);
        MOV     R18, R16
        RCALL   ?Subroutine58
//  957     m_xEmergencyAlarmWindowNotifyerControl.AlarmSet(uiAlarmType);
??CrossCallReturnLabel_76:
        MOV     R18, R24
        RCALL   ?Subroutine59
//  958     m_xStatusLedNotifyerControl.AlarmSet(uiAlarmType);
??CrossCallReturnLabel_78:
        MOV     R18, R24
        RCALL   ?Subroutine60
//  959     m_xBuzzerNotifyerControl.AlarmSet(uiAlarmType);
??CrossCallReturnLabel_80:
        MOV     R18, R24
        RCALL   ??Subroutine97_0
//  960 }
??CrossCallReturnLabel_227:
        RJMP    ?Subroutine80
//  961 
//  962 //-----------------------------------------------------------------------------------------------------

        RSEG CODE:CODE:NOROOT(1)
//  963 void CPss21::AlarmTypeChange(void)
??AlarmTypeChange:
//  964 {
//  965     if (m_uiCommonAlarmType != m_uiCommonAlarmTypePrevious)
        RCALL   ?Subroutine30
??CrossCallReturnLabel_26:
        LDD     R16, Z+57
        LDD     R17, Z+58
        CP      R16, R17
        BREQ    ??CrossCallReturnLabel_210
//  966     {
//  967         m_uiCommonAlarmTypePrevious = m_uiCommonAlarmType;
        STD     Z+58, R16
//  968         AlarmTypeSet(m_uiCommonAlarmType);
        RCALL   ??Subroutine93_0
//  969     }
//  970 }
??CrossCallReturnLabel_210:
        RET
//  971 
//  972 //-----------------------------------------------------------------------------------------------------

        RSEG CODE:CODE:NOROOT(1)
//  973 void CPss21::AlarmTypeReceipt(void)
??AlarmTypeReceipt:
//  974 {
//  975     m_uiCommonAlarmType = INDICATION;
        LDI     R16, 1
        REQUIRE ?Subroutine87
        ;               // Fall through to label ?Subroutine87
//  976     m_uiCommonAlarmTypePrevious = INDICATION;
//  977     AlarmTypeSet(INDICATION);
//  978 }

        RSEG CODE:CODE:NOROOT(1)
?Subroutine87:
        RCALL   ?Subroutine51
??CrossCallReturnLabel_171:
        REQUIRE ??Subroutine93_0
        ;               // Fall through to label ??Subroutine93_0

        RSEG CODE:CODE:NOROOT(1)
??Subroutine93_0:
        RJMP    ??AlarmTypeSet
//  979 
//  980 //-----------------------------------------------------------------------------------------------------

        RSEG CODE:CODE:NOROOT(1)
//  981 void CPss21::AlarmTypeReset(void)
??AlarmTypeReset:
//  982 {
//  983     m_uiCommonAlarmType = NORMAL;
        LDI     R16, 0
        RJMP    ?Subroutine87
//  984     m_uiCommonAlarmTypePrevious = NORMAL;
//  985     AlarmTypeSet(NORMAL);
//  986 }

        RSEG CODE:CODE:NOROOT(1)
?Subroutine51:
        STS     (??m_xDeviceConfigSearch + 57), R16
        STS     (??m_xDeviceConfigSearch + 58), R16
        RET
//  987 
//  988 //-----------------------------------------------------------------------------------------------------

        RSEG CODE:CODE:NOROOT(1)
//  989 void CPss21::NotifyersControlProcessing(void)
??NotifyersControlProcessing:
//  990 {
//  991     m_xPreventiveAlarmWindowNotifyerControl.Fsm();
        LDI     R16, LOW((??m_xDeviceConfigSearch + 139))
        LDI     R17, HIGH((??m_xDeviceConfigSearch + 139))
        RCALL   ?Subroutine88
//  992     m_xEmergencyAlarmWindowNotifyerControl.Fsm();
??CrossCallReturnLabel_174:
        LDI     R16, LOW((??m_xDeviceConfigSearch + 151))
        LDI     R17, HIGH((??m_xDeviceConfigSearch + 151))
        RCALL   ?Subroutine88
//  993     m_xStatusLedNotifyerControl.Fsm();
??CrossCallReturnLabel_173:
        LDI     R16, LOW((??m_xDeviceConfigSearch + 163))
        LDI     R17, HIGH((??m_xDeviceConfigSearch + 163))
        RCALL   ?Subroutine88
//  994     m_xBuzzerNotifyerControl.Fsm();
??CrossCallReturnLabel_172:
        LDI     R16, LOW((??m_xDeviceConfigSearch + 175))
        LDI     R17, HIGH((??m_xDeviceConfigSearch + 175))
        REQUIRE ?Subroutine88
        ;               // Fall through to label ?Subroutine88
//  995 }

        RSEG CODE:CODE:NOROOT(1)
?Subroutine88:
        JMP     ??Fsm
//  996 
//  997 //-----------------------------------------------------------------------------------------------------

        RSEG CODE:CODE:NOROOT(1)
//  998 void CPss21::SetAlarmWindowType(uint8_t uiAlarmWindowIndex, uint8_t uiAlarmType)
??SetAlarmWindowType:
//  999 {
        MOV     R18, R17
// 1000     GetAlarmWindowControlPointer(uiAlarmWindowIndex) -> SetAlarmType(uiAlarmType);
        LDI     R17, 0
        LDI     R20, 6
        RCALL   ?Subroutine24
??CrossCallReturnLabel_14:
        STD     Z+2, R18
// 1001 }
        RET
// 1002 
// 1003 //-----------------------------------------------------------------------------------------------------

        RSEG CODE:CODE:NOROOT(1)
// 1004 void CPss21::SaveContextNotifyerControl(void)
??SaveContextNotifyerControl:
// 1005 {
// 1006 //    // яНУПЮМХЛ РЕЙСЫЕЕ ЯНЯРНЪМХЕ ЮБРНЛЮРНБ СОПЮБКЕМХЪ ХГБЕЫЮРЕКЪЛХ.
// 1007 //    m_xPreventiveAlarmWindowNotifyerControl.SetSavedFsmState(m_xPreventiveAlarmWindowNotifyerControl.GetFsmState());
// 1008 //    m_xEmergencyAlarmWindowNotifyerControl.SetSavedFsmState(m_xEmergencyAlarmWindowNotifyerControl.GetFsmState());
// 1009 //    m_xStatusLedNotifyerControl.SetSavedFsmState(m_xStatusLedNotifyerControl.GetFsmState());
// 1010 //    m_xBuzzerNotifyerControl.SetSavedFsmState(m_xBuzzerNotifyerControl.GetFsmState());
// 1011 
// 1012     // яНУПЮМХЛ РЕЙСЫЕЕ ЯНЯРНЪМХЕ ХГБЕЫЮРЕКЕИ - НЙНМ ЯХЦМЮКХГЮЖХХ.
// 1013     for (uint8_t i = 0;
        RCALL   ??Subroutine94_0
// 1014             i < ALARM_WINDOWS_NUMBER;
// 1015             i++)
// 1016     {
// 1017         m_axAlarmWindowControl[i].SetSavedAlarmType(m_axAlarmWindowControl[i].GetAlarmType());
??CrossCallReturnLabel_215:
        RCALL   ?Subroutine61
??CrossCallReturnLabel_105:
        LDD     R16, Z+2
        STD     Z+3, R16
// 1018         m_axAlarmWindowControl[i].SetSavedActivityState(m_axAlarmWindowControl[i].GetActivityState());
        LD      R16, Z
        STD     Z+1, R16
// 1019     };
        RCALL   ??Subroutine95_0
??CrossCallReturnLabel_220:
        BRNE    ??CrossCallReturnLabel_215
// 1020 }
        RET
// 1021 
// 1022 //-----------------------------------------------------------------------------------------------------

        RSEG CODE:CODE:NOROOT(1)
// 1023 void CPss21::RestoreContextNotifyerControl(void)
??RestoreContextNotifyerControl:
// 1024 {
// 1025 //    // бНЯЯРЮМНБХЛ ОПЕДШДСЫЕЕ ЯНЯРНЪМХЕ ЮБРНЛЮРНБ СОПЮБКЕМХЪ ХГБЕЫЮРЕКЪЛХ.
// 1026 //    m_xPreventiveAlarmWindowNotifyerControl.SetFsmState(m_xPreventiveAlarmWindowNotifyerControl.GetSavedFsmState());
// 1027 //    m_xEmergencyAlarmWindowNotifyerControl.SetFsmState(m_xEmergencyAlarmWindowNotifyerControl.GetSavedFsmState());
// 1028 //    m_xStatusLedNotifyerControl.SetFsmState(m_xStatusLedNotifyerControl.GetSavedFsmState());
// 1029 //    m_xBuzzerNotifyerControl.SetFsmState(m_xBuzzerNotifyerControl.GetSavedFsmState());
// 1030     AlarmTypeSet(GetCommonAlarmType());
        LDS     R16, (??m_xDeviceConfigSearch + 57)
        RCALL   ??Subroutine93_0
// 1031 
// 1032     // бНЯЯРЮМНБХЛ ОПЕДШДСЫЕЕ ЯНЯРНЪМХЕ ХГБЕЫЮРЕКЕИ - НЙНМ ЯХЦМЮКХГЮЖХХ.
// 1033     for (uint8_t i = 0;
??CrossCallReturnLabel_209:
        RCALL   ??Subroutine94_0
// 1034             i < ALARM_WINDOWS_NUMBER;
// 1035             i++)
// 1036     {
// 1037         m_axAlarmWindowControl[i].SetAlarmType(m_axAlarmWindowControl[i].GetSavedAlarmType());
??CrossCallReturnLabel_216:
        RCALL   ?Subroutine61
??CrossCallReturnLabel_106:
        LDD     R16, Z+3
        STD     Z+2, R16
// 1038         m_axAlarmWindowControl[i].SetActivityState(m_axAlarmWindowControl[i].GetSavedActivityState());
        LDD     R16, Z+1
        RCALL   ?Subroutine47
// 1039     };
??CrossCallReturnLabel_218:
        BRNE    ??CrossCallReturnLabel_216
// 1040 }
        RET
// 1041 
// 1042 //-----------------------------------------------------------------------------------------------------

        RSEG CODE:CODE:NOROOT(1)
// 1043 void CPss21::DiscreteSignalsProcessing(void)
??DiscreteSignalsProcessing:
// 1044 {
// 1045     DiscreteOutputControlClear();
        RCALL   ??DiscreteOutputControlClear
// 1046     AlarmsProcessing();
        RCALL   ??AlarmsProcessing
// 1047     SetDiscreteSignalsReceipt(0);
        LDI     R16, 0
        STS     (??m_xDeviceConfigSearch + 53), R16
// 1048     SetDiscreteSignalsReset(0);
        STS     (??m_xDeviceConfigSearch + 54), R16
// 1049 }
        RET
// 1050 
// 1051 //-----------------------------------------------------------------------------------------------------

        RSEG CODE:CODE:NOROOT(1)
// 1052 void CPss21::ActiveAlarmWindowOn(uint8_t uiAlarmType)
??ActiveAlarmWindowOn:
// 1053 {
        RCALL   ?Subroutine1
// 1054     for (uint8_t i = 0;
// 1055             i < ALARM_WINDOWS_NUMBER;
// 1056             i++)
// 1057     {
// 1058         // рХО ЯХЦМЮКХГЮЖХХ НЙМЮ Х РХО ЯХЦМЮКХГЮЖХХ ХГБЕЫЮРЕКЪ ЯНБОЮДЮЧР?
// 1059         if (m_axAlarmWindowControl[i].GetAlarmType() == uiAlarmType)
??CrossCallReturnLabel_211:
        RCALL   ?Subroutine21
??CrossCallReturnLabel_10:
        BRNE    ??ActiveAlarmWindowOn_1
// 1060         {
// 1061             // юЙРЛБХГХПСЕЛ НЙМН ЯХЦМЮКХГЮЖХХ, ДКЪ НРНАПЮФЕМХЪ ХГБЕЫЮРЕКЕЛ.
// 1062             m_axAlarmWindowControl[i].SetActivityState(1);
        LDI     R16, 1
        ST      Z, R16
// 1063         }
// 1064     };
??ActiveAlarmWindowOn_1:
        RCALL   ??Subroutine95_0
??CrossCallReturnLabel_221:
        BRNE    ??CrossCallReturnLabel_211
// 1065 
// 1066     m_xLightBoard.Set();
        RJMP    ?Subroutine89
// 1067 }

        RSEG CODE:CODE:NOROOT(1)
?Subroutine1:
        MOV     R22, R16
        REQUIRE ??Subroutine94_0
        ;               // Fall through to label ??Subroutine94_0

        RSEG CODE:CODE:NOROOT(1)
??Subroutine94_0:
        LDI     R18, 0
        LDI     R19, 48
        LDI     R20, 6
        RET
// 1068 
// 1069 //-----------------------------------------------------------------------------------------------------

        RSEG CODE:CODE:NOROOT(1)
// 1070 void CPss21::ActiveAlarmWindowOff(uint8_t uiAlarmType)
??ActiveAlarmWindowOff:
// 1071 {
        RCALL   ?Subroutine1
// 1072     for (uint8_t i = 0;
// 1073             i < ALARM_WINDOWS_NUMBER;
// 1074             i++)
// 1075     {
// 1076         // рХО ЯХЦМЮКХГЮЖХХ НЙМЮ Х РХО ЯХЦМЮКХГЮЖХХ ХГБЕЫЮРЕКЪ ЯНБОЮДЮЧР?
// 1077         if (m_axAlarmWindowControl[i].GetAlarmType() == uiAlarmType)
??CrossCallReturnLabel_212:
        RCALL   ?Subroutine21
??CrossCallReturnLabel_11:
        BREQ    ??ActiveAlarmWindowOff_1
// 1078         {
// 1079             // дЕЮЙРЛБХПСЕЛ НЙМН ЯХЦМЮКХГЮЖХХ, ДКЪ ОПЕЙПЮЫЕМХЪ НРНАПЮФЕМХЪ ХГБЕЫЮРЕКЕЛ.
// 1080             m_axAlarmWindowControl[i].SetActivityState(0);
// 1081         }
// 1082         else if (m_axAlarmWindowControl[i].GetAlarmType() == NORMAL)
        TST     R16
        BRNE    ??ActiveAlarmWindowOff_2
// 1083         {
// 1084             // дЕЮЙРЛБХПСЕЛ НЙМН ЯХЦМЮКХГЮЖХХ, ДКЪ ОПЕЙПЮЫЕМХЪ НРНАПЮФЕМХЪ ХГБЕЫЮРЕКЕЛ.
// 1085             m_axAlarmWindowControl[i].SetActivityState(0);
??ActiveAlarmWindowOff_1:
        ST      Z, R21
// 1086         }
// 1087     };
??ActiveAlarmWindowOff_2:
        RCALL   ??Subroutine95_0
??CrossCallReturnLabel_222:
        BRNE    ??CrossCallReturnLabel_212
// 1088 
// 1089     m_xLightBoard.Set();
        RJMP    ?Subroutine89
// 1090 }

        RSEG CODE:CODE:NOROOT(1)
?Subroutine21:
        RCALL   ?Subroutine61
??CrossCallReturnLabel_109:
        LDD     R16, Z+2
        CP      R16, R22
        RET

        RSEG CODE:CODE:NOROOT(1)
?Subroutine16:
        LDI     R16, LOW(??m_xLightBoard)
        LDI     R17, (??m_xLightBoard) >> 8
        RET
// 1091 
// 1092 //-----------------------------------------------------------------------------------------------------

        RSEG CODE:CODE:NOROOT(1)
// 1093 void CPss21::AllAlarmWindowOn(uint8_t uiAlarmType)
??AllAlarmWindowOn:
// 1094 {
        RCALL   ?Subroutine1
// 1095 //    CAlarmWindow axAlarmWindowControl[ALARM_WINDOWS_NUMBER];
// 1096 
// 1097     for (uint8_t i = 0;
// 1098             i < ALARM_WINDOWS_NUMBER;
// 1099             i++)
// 1100     {
// 1101         // юЙРЛБХГХПСЕЛ НЙМН ЯХЦМЮКХГЮЖХХ, ДКЪ НРНАПЮФЕМХЪ ХГБЕЫЮРЕКЕЛ.
// 1102         m_axAlarmWindowControl[i].SetAlarmType(uiAlarmType);
??CrossCallReturnLabel_213:
        RCALL   ?Subroutine61
??CrossCallReturnLabel_107:
        STD     Z+2, R22
// 1103         // юЙРЛБХГХПСЕЛ НЙМН ЯХЦМЮКХГЮЖХХ, ДКЪ НРНАПЮФЕМХЪ ХГБЕЫЮРЕКЕЛ.
// 1104         m_axAlarmWindowControl[i].SetActivityState(1);
        LDI     R16, 1
        RCALL   ?Subroutine47
// 1105     };
??CrossCallReturnLabel_219:
        BRNE    ??CrossCallReturnLabel_213
// 1106 
// 1107     m_xLightBoard.Set();
        REQUIRE ?Subroutine89
        ;               // Fall through to label ?Subroutine89
// 1108 }

        RSEG CODE:CODE:NOROOT(1)
?Subroutine89:
        RCALL   ?Subroutine16
??CrossCallReturnLabel_177:
        JMP     ??Set

        RSEG CODE:CODE:NOROOT(1)
?Subroutine61:
        MOV     R16, R18
        LDI     R17, 0
        RCALL   ?Subroutine70
??CrossCallReturnLabel_162:
        LDI     R30, LOW(??m_axAlarmWindowControl)
        LDI     R31, (??m_axAlarmWindowControl) >> 8
        REQUIRE ?Subroutine71
        ;               // Fall through to label ?Subroutine71

        RSEG CODE:CODE:NOROOT(1)
?Subroutine71:
        ADD     R30, R16
        ADC     R31, R17
        RET
// 1109 
// 1110 //-----------------------------------------------------------------------------------------------------

        RSEG CODE:CODE:NOROOT(1)
// 1111 void CPss21::ErrorWindowOn(uint8_t uiErrorType)
??ErrorWindowOn:
// 1112 {
        RCALL   ?Subroutine1
// 1113     // юЙРЛБХПСЕЛ НЙМЮ ЯХЦМЮКХГЮЖХХ - НЬХАЙЮ.
// 1114     for (uint8_t i = 0;
// 1115             i < ALARM_WINDOWS_NUMBER;
// 1116             i++)
// 1117     {
// 1118         m_axAlarmWindowControl[i].SetActivityState(m_auiErrorLedOn[i]);
??CrossCallReturnLabel_214:
        MOV     R30, R18
        LDI     R31, 0
        SUBI    R30, LOW((-(??m_auiErrorLedOn) & 0xFFFF))
        SBCI    R31, (-(??m_auiErrorLedOn) & 0xFFFF) >> 8
        LPM     R23, Z
        MOV     R16, R18
        LDI     R17, 0
        RCALL   ?Subroutine24
??CrossCallReturnLabel_15:
        ST      Z, R23
// 1119     };
        RCALL   ??Subroutine95_0
??CrossCallReturnLabel_223:
        BRNE    ??CrossCallReturnLabel_214
// 1120 
// 1121     if ((uiErrorType != 0) ||
// 1122             (uiErrorType < ALARM_WINDOWS_NUMBER))
// 1123     {
// 1124         m_axAlarmWindowControl[uiErrorType - 1].SetActivityState(0);
        MOV     R16, R22
        LDI     R17, 0
        CALL    ?S_EC_MUL_L02
        MOVW    R31:R30, R17:R16
        SUBI    R30, LOW((-(??m_axAlarmWindowControl - 6) & 0xFFFF))
        SBCI    R31, HIGH((-(??m_axAlarmWindowControl - 6) & 0xFFFF))
        ST      Z, R21
// 1125     }
// 1126 
// 1127     m_xLightBoard.Set();
        RJMP    ?Subroutine89
// 1128 }

        RSEG CODE:CODE:NOROOT(1)
?Subroutine47:
        ST      Z, R16
        REQUIRE ??Subroutine95_0
        ;               // Fall through to label ??Subroutine95_0

        RSEG CODE:CODE:NOROOT(1)
??Subroutine95_0:
        INC     R18
        DEC     R19
        RET

        RSEG CODE:CODE:NOROOT(1)
?Subroutine24:
        RCALL   ?Subroutine70
??CrossCallReturnLabel_161:
        MOVW    R31:R30, R17:R16
        SUBI    R30, LOW((-(??m_axAlarmWindowControl) & 0xFFFF))
        SBCI    R31, (-(??m_axAlarmWindowControl) & 0xFFFF) >> 8
        RET

        RSEG CODE:CODE:NOROOT(1)
?Subroutine70:
        LDI     R21, 0
        RJMP    ?Subroutine85
// 1129 
// 1130 //-----------------------------------------------------------------------------------------------------

        RSEG CODE:CODE:NOROOT(1)
// 1131 void CPss21::AllAlarmWindowOff(void)
??AllAlarmWindowOff:
// 1132 {
// 1133     for (uint8_t i = 0;
        RCALL   ??Subroutine94_0
// 1134             i < ALARM_WINDOWS_NUMBER;
// 1135             i++)
// 1136     {
// 1137         // дЕЮЙРЛБХПСЕЛ НЙМН ЯХЦМЮКХГЮЖХХ, ДКЪ ОПЕЙПЮЫЕМХЪ НРНАПЮФЕМХЪ ХГБЕЫЮРЕКЕЛ.
// 1138         m_axAlarmWindowControl[i].SetAlarmType(NORMAL);
??CrossCallReturnLabel_217:
        RCALL   ?Subroutine61
??CrossCallReturnLabel_108:
        STD     Z+2, R21
// 1139         // дЕЮЙРЛБХПСЕЛ НЙМН ЯХЦМЮКХГЮЖХХ, ДКЪ ОПЕЙПЮЫЕМХЪ НРНАПЮФЕМХЪ ХГБЕЫЮРЕКЕЛ.
// 1140         m_axAlarmWindowControl[i].SetActivityState(0);
        ST      Z, R21
// 1141     };
        RCALL   ??Subroutine95_0
??CrossCallReturnLabel_224:
        BRNE    ??CrossCallReturnLabel_217
// 1142 
// 1143     m_xLightBoard.Set();
        RJMP    ?Subroutine89
// 1144 }
// 1145 
// 1146 //-----------------------------------------------------------------------------------------------------

        RSEG CODE:CODE:NOROOT(1)
// 1147 void CPss21::TestMainCycle(void)
??TestMainCycle:
// 1148 {
// 1149     CPss21::m_xModbusRtuOne.Fsm();
        RCALL   ?Subroutine6
// 1150 
// 1151     CPss21::KeyStateProcessing();
// 1152 
// 1153     NotifyersControlProcessing();
// 1154 
// 1155     CPss21::ReceiptResetGlobalFlagsClear();
??CrossCallReturnLabel_0:
        REQUIRE ?Subroutine75
        ;               // Fall through to label ?Subroutine75
// 1156 
// 1157     CPlatform::WatchdogReset();
// 1158 }

        RSEG CODE:CODE:NOROOT(1)
?Subroutine75:
        RCALL   ?Subroutine53
??CrossCallReturnLabel_138:
        REQUIRE ??Subroutine96_0
        ;               // Fall through to label ??Subroutine96_0

        RSEG CODE:CODE:NOROOT(1)
??Subroutine96_0:
        WDR
        RET
// 1159 
// 1160 //-----------------------------------------------------------------------------------------------------

        RSEG CODE:CODE:NOROOT(1)
// 1161 void CPss21::ErrorMainCycle(void)
??ErrorMainCycle:
// 1162 {
// 1163     CPss21::m_xModbusRtuOne.Fsm();
        RCALL   ?Subroutine54
// 1164 
// 1165     CPss21::KeyStateProcessing();
// 1166 
// 1167     // еЯРЭ ЙНЛЮМДЮ - "ЙБХРХПНБЮРЭ"?
// 1168     if ((GetPanelReceipt()) ||
// 1169             (GetExternalReceipt()) ||
// 1170             (GetModbusReceipt()))
??CrossCallReturnLabel_65:
        RCALL   ?Subroutine30
??CrossCallReturnLabel_27:
        LDD     R16, Z+47
        TST     R16
        BRNE    ??ErrorMainCycle_1
        LDD     R16, Z+49
        TST     R16
        BRNE    ??ErrorMainCycle_1
        LDD     R16, Z+51
        TST     R16
        BREQ    ??CrossCallReturnLabel_226
// 1171     {
// 1172 //        m_xPreventiveAlarmWindowNotifyerControl.AlarmSet(INDICATION);
// 1173 //        m_xEmergencyAlarmWindowNotifyerControl.AlarmSet(INDICATION);
// 1174         m_xStatusLedNotifyerControl.AlarmSet(NORMAL);
??ErrorMainCycle_1:
        LDI     R18, 0
        RCALL   ?Subroutine60
// 1175         m_xBuzzerNotifyerControl.AlarmSet(NORMAL);
??CrossCallReturnLabel_81:
        LDI     R18, 0
        RCALL   ??Subroutine97_0
// 1176     }
// 1177 
// 1178     NotifyersControlProcessing();
??CrossCallReturnLabel_226:
        RCALL   ?Subroutine67
// 1179 
// 1180     CPss21::ReceiptResetGlobalFlagsClear();
??CrossCallReturnLabel_94:
        RJMP    ?Subroutine75
// 1181 
// 1182     CPlatform::WatchdogReset();
// 1183 }

        RSEG CODE:CODE:NOROOT(1)
?Subroutine60:
        LDI     R16, LOW((??m_xDeviceConfigSearch + 163))
        LDI     R17, HIGH((??m_xDeviceConfigSearch + 163))
        JMP     ??AlarmSet_3

        RSEG CODE:CODE:NOROOT(1)
?Subroutine14:
        LDS     R16, (??m_xDeviceConfigSearch + 55)
        RCALL   ??ErrorWindowOn
        LDI     R16, 0
        STS     (??m_xDeviceConfigSearch + 55), R16
        LDI     R18, 1
        RCALL   ?Subroutine58
??CrossCallReturnLabel_75:
        LDI     R18, 1
        RCALL   ?Subroutine59
??CrossCallReturnLabel_77:
        LDI     R18, 6
        RCALL   ?Subroutine60
??CrossCallReturnLabel_79:
        LDI     R18, 6
        REQUIRE ??Subroutine97_0
        ;               // Fall through to label ??Subroutine97_0

        RSEG CODE:CODE:NOROOT(1)
??Subroutine97_0:
        LDI     R16, LOW((??m_xDeviceConfigSearch + 175))
        LDI     R17, HIGH((??m_xDeviceConfigSearch + 175))
        JMP     ??AlarmSet

        RSEG CODE:CODE:NOROOT(1)
?Subroutine59:
        LDI     R16, LOW((??m_xDeviceConfigSearch + 151))
        LDI     R17, HIGH((??m_xDeviceConfigSearch + 151))
        JMP     ??AlarmSet_2

        RSEG CODE:CODE:NOROOT(1)
?Subroutine58:
        LDI     R16, LOW((??m_xDeviceConfigSearch + 139))
        LDI     R17, HIGH((??m_xDeviceConfigSearch + 139))
        JMP     ??AlarmSet_1
// 1184 
// 1185 //-----------------------------------------------------------------------------------------------------

        RSEG CODE:CODE:NOROOT(1)
// 1186 void CPss21::LinkControlErrorMainCycle(void)
??LinkControlErrorMainCycle:
// 1187 {
// 1188     CPss21::m_xModbusRtuOne.Fsm();
        RCALL   ?Subroutine5
// 1189     CPss21::m_xModbusRtuLinkControl.Fsm();
// 1190 
// 1191     CPss21::KeyStateProcessing();
// 1192 
// 1193     NotifyersControlProcessing();
// 1194 
// 1195     CPss21::ReceiptResetGlobalFlagsClear();
??CrossCallReturnLabel_92:
        RCALL   ?Subroutine53
// 1196 
// 1197     CPss21::m_xDataStore.Fsm();
??CrossCallReturnLabel_137:
        RCALL   ?Subroutine56
// 1198 
// 1199     CPlatform::WatchdogReset();
??CrossCallReturnLabel_68:
        RJMP    ??Subroutine96_0
// 1200 }

        RSEG CODE:CODE:NOROOT(1)
?Subroutine53:
        RJMP    ??ReceiptResetGlobalFlagsClear
// 1201 
// 1202 //-----------------------------------------------------------------------------------------------------

        RSEG CODE:CODE:NOROOT(1)
// 1203 void CPss21::MainFsm(void)
??MainFsm:
// 1204 {
        LDS     R16, (??m_xDeviceConfigSearch + 46)
        LDI     R30, LOW(`?<Jumptable for MainFsm>_0`)
        LDI     R31, (`?<Jumptable for MainFsm>_0`) >> 16
        OUT     0x3B, R31
        LDI     R31, HIGH(`?<Jumptable for MainFsm>_0`)
        JMP     ?CV_SWITCH_L06
// 1205     switch (GetFsmState())
// 1206     {
// 1207     case START:
// 1208         CPlatform::WatchdogEnable();
??MainFsm_1:
        WDR
        IN      R16, 0x21
        ORI     R16, 0x18
        OUT     0x21, R16
        IN      R16, 0x21
        ORI     R16, 0x07
        OUT     0x21, R16
// 1209         CPlatform::Init();
        CALL    ??Init_3
// 1210         CPss21::Init();
        RCALL   ??Init
// 1211         CBuzzer::Init();
        CALL    ??Init_4
// 1212         if (!(CDataBase::Check()))
        CALL    ??Check
        TST     R16
        BREQ    ??MainFsm_2
// 1213         {
// 1214             SetFsmState(ERROR_START);
// 1215         }
// 1216         else
// 1217         {
// 1218             CPss21::ConfigurationInit();
        RCALL   ??ConfigurationInit
// 1219             CPss21::ModbusInit();
        RCALL   ??ModbusInit
// 1220             CSpi::Init();
        CALL    ??Init_5
// 1221             CPss21::AddressBusInit();
        RCALL   ??AddressBusInit
// 1222             CPss21::SearchModules();
        RCALL   ??SearchModules
// 1223             CPss21::CreateDevices();
        RCALL   ??CreateDevices
// 1224             m_xBuzzerNotifyerControl.AlarmSet(BEEP_SIGNAL);
        LDI     R18, 7
        RCALL   ??Subroutine97_0
// 1225             SetFsmState(MAIN_CYCLE_START_WAITING);
??CrossCallReturnLabel_225:
        RJMP    ??CrossCallReturnLabel_136
// 1226         }
// 1227         break;
// 1228 
// 1229     case RESTART:
// 1230         break;
// 1231 
// 1232     case MAIN_CYCLE_START_WAITING:
// 1233         CPss21::m_xModbusRtuOne.Fsm();
??MainFsm_3:
        RCALL   ?Subroutine6
// 1234 
// 1235         CPss21::KeyStateProcessing();
// 1236 
// 1237         NotifyersControlProcessing();
// 1238 
// 1239         CPss21::m_xDataStore.Fsm();
??CrossCallReturnLabel_1:
        RCALL   ?Subroutine56
// 1240 
// 1241         if (CPss21::m_xMainCycleTimer.IsOverflow())
??CrossCallReturnLabel_69:
        RCALL   ?Subroutine15
??CrossCallReturnLabel_153:
        BRNE    $+2+2
        RJMP    ??CrossCallReturnLabel_67
// 1242         {
// 1243             CPss21::m_xMainCycleTimer.Reset();
        RCALL   ?Subroutine69
??CrossCallReturnLabel_99:
        CALL    ??Reset
// 1244             CPlatform::WatchdogReset();
        WDR
// 1245             SetModuleIndex(0);
        LDI     R16, 0
        STS     (??m_xDeviceConfigSearch + 56), R16
// 1246             SetFsmState(MAIN_CYCLE_MODULES_INTERACTION);
        LDI     R16, 3
        RJMP    ??MainFsm_4
// 1247         }
// 1248 
// 1249         break;
// 1250 
// 1251     case MAIN_CYCLE_MODULES_INTERACTION:
// 1252         CPss21::m_xModbusRtuOne.Fsm();
??MainFsm_5:
        RCALL   ?Subroutine5
// 1253         CPss21::m_xModbusRtuLinkControl.Fsm();
// 1254 
// 1255         CPss21::KeyStateProcessing();
// 1256 
// 1257         NotifyersControlProcessing();
// 1258 
// 1259         CPss21::m_xDataStore.Fsm();
??CrossCallReturnLabel_93:
        RCALL   ?Subroutine56
// 1260 
// 1261         if (CPss21::ModulesInteraction(GetModuleIndex()))
??CrossCallReturnLabel_70:
        LDS     R16, (??m_xDeviceConfigSearch + 56)
        RCALL   ??ModulesInteraction
        TST     R16
        BREQ    ??MainFsm_6
// 1262         {
// 1263             SetFsmState(MAIN_CYCLE_DISCRETE_SIGNALS_PROCESSING);
        LDI     R16, 4
        RCALL   ??Subroutine91_0
// 1264         }
??CrossCallReturnLabel_196:
        RJMP    ??MainFsm_7
// 1265         else
// 1266         {
// 1267             SetModuleIndex(GetModuleIndex() + 1);
??MainFsm_6:
        RCALL   ?Subroutine30
??CrossCallReturnLabel_28:
        LDD     R16, Z+56
        INC     R16
        STD     Z+56, R16
// 1268         }
// 1269 
// 1270         switch (GetErrorCode())
??MainFsm_7:
        LDS     R16, (??m_xDeviceConfigSearch + 55)
        DEC     R16
        SUBI    R16, 4
        BRCS    ??MainFsm_2
        BREQ    ??MainFsm_8
        RET
// 1271         {
// 1272         case IMD_ERROR:
// 1273         case OMD_ERROR:
// 1274         case CFG_ERROR:
// 1275         case DB_ERROR:
// 1276             SetFsmState(ERROR_START);
??MainFsm_2:
        LDI     R16, 8
??MainFsm_4:
        RJMP    ??Subroutine91_0
// 1277             break;
// 1278 
// 1279         case MBS_ERROR:
// 1280             SetFsmState(LINK_CONTROL_ERROR_START);
??MainFsm_8:
        LDI     R16, 10
        RJMP    ??MainFsm_4
// 1281             break;
// 1282 
// 1283         default:
// 1284             break;
// 1285         }
// 1286         break;
// 1287 
// 1288     case MAIN_CYCLE_DISCRETE_SIGNALS_PROCESSING:
// 1289         CPss21::DiscreteSignalsProcessing();
??MainFsm_9:
        RCALL   ??DiscreteSignalsProcessing
// 1290         SetFsmState(MAIN_CYCLE_END);
        LDI     R16, 5
        RJMP    ??MainFsm_4
// 1291         break;
// 1292 
// 1293     case MAIN_CYCLE_END:
// 1294         CPss21::ReceiptResetGlobalFlagsClear();
??MainFsm_10:
        RCALL   ?Subroutine53
// 1295         SetFsmState(MAIN_CYCLE_START_WAITING);
??CrossCallReturnLabel_136:
        LDI     R16, 2
        RJMP    ??MainFsm_4
// 1296         break;
// 1297 
// 1298 //-----------------------------------------------------------------------------------------------------
// 1299     case TEST_START:
// 1300         SaveContextNotifyerControl();
??MainFsm_11:
        RCALL   ??SaveContextNotifyerControl
// 1301         AlarmTypeSet(PREVENTIVE);
        LDI     R16, 2
        RCALL   ??Subroutine93_0
// 1302         CPss21::AllAlarmWindowOn(PREVENTIVE);
??CrossCallReturnLabel_208:
        LDI     R16, 2
        RCALL   ??AllAlarmWindowOn
// 1303         CPss21::m_xMainCycleTimer.Set(TEST_ON_TIME());
        LDI     R18, 136
        LDI     R19, 19
        RCALL   ?Subroutine57
// 1304         SetFsmState(TEST_ON);
??CrossCallReturnLabel_73:
        LDI     R16, 7
        RJMP    ??MainFsm_12
// 1305 
// 1306         CPlatform::WatchdogReset();
// 1307         break;
// 1308 
// 1309     case TEST_ON:
// 1310         if (CPss21::m_xMainCycleTimer.IsOverflow())
??MainFsm_13:
        RCALL   ?Subroutine15
??CrossCallReturnLabel_154:
        BREQ    ??CrossCallReturnLabel_197
// 1311         {
// 1312             CPss21::AllAlarmWindowOff();
        RCALL   ?Subroutine10
// 1313             RestoreContextNotifyerControl();
// 1314             CPss21::m_xMainCycleTimer.Set(MAIN_CYCLE_PERIOD_TIME);
// 1315             SetFsmState(MAIN_CYCLE_START_WAITING);
??CrossCallReturnLabel_71:
        LDI     R16, 2
        RCALL   ??Subroutine91_0
// 1316         }
// 1317 
// 1318         TestMainCycle();
??CrossCallReturnLabel_197:
        RJMP    ??TestMainCycle
// 1319         break;
// 1320 
// 1321 //-----------------------------------------------------------------------------------------------------
// 1322     case ERROR_START:
// 1323         // сЯРЮМЮБКХБЮЕЛ МЮЯРПНИЙХ Modbus ОН СЛНКВЮМХЧ МЮ РЕЙСЫСЧ ЯЕЯЯХЧ.
// 1324         ModbusDefaultInit();
??MainFsm_14:
        RCALL   ??ModbusDefaultInit
// 1325         ErrorWindowOn(GetErrorCode());
        RCALL   ?Subroutine14
// 1326         SetErrorCode(0);
// 1327 
// 1328         m_xPreventiveAlarmWindowNotifyerControl.AlarmSet(INDICATION);
// 1329         m_xEmergencyAlarmWindowNotifyerControl.AlarmSet(INDICATION);
// 1330         m_xStatusLedNotifyerControl.AlarmSet(ERROR);
// 1331         m_xBuzzerNotifyerControl.AlarmSet(ERROR);
// 1332 
// 1333         SetFsmState(ERROR_ON);
??CrossCallReturnLabel_236:
        LDI     R16, 9
??MainFsm_12:
        RCALL   ??Subroutine91_0
// 1334 
// 1335         CPlatform::WatchdogReset();
??CrossCallReturnLabel_198:
        RJMP    ??Subroutine96_0
// 1336         break;
// 1337 
// 1338     case ERROR_ON:
// 1339         ErrorMainCycle();
??MainFsm_15:
        RJMP    ??ErrorMainCycle
// 1340         break;
// 1341 
// 1342 //-----------------------------------------------------------------------------------------------------
// 1343     case LINK_CONTROL_ERROR_START:
// 1344         SaveContextNotifyerControl();
??MainFsm_16:
        RCALL   ??SaveContextNotifyerControl
// 1345         ErrorWindowOn(GetErrorCode());
        RCALL   ?Subroutine14
// 1346         SetErrorCode(0);
// 1347 
// 1348         m_xPreventiveAlarmWindowNotifyerControl.AlarmSet(INDICATION);
// 1349         m_xEmergencyAlarmWindowNotifyerControl.AlarmSet(INDICATION);
// 1350         m_xStatusLedNotifyerControl.AlarmSet(ERROR);
// 1351         m_xBuzzerNotifyerControl.AlarmSet(ERROR);
// 1352 
// 1353         CPlatform::WatchdogReset();
??CrossCallReturnLabel_235:
        WDR
// 1354         SetFsmState(LINK_CONTROL_ERROR_ON);
        LDI     R16, 11
        RJMP    ??MainFsm_4
// 1355         break;
// 1356 
// 1357     case LINK_CONTROL_ERROR_ON:
// 1358         LinkControlErrorMainCycle();
??MainFsm_17:
        RJMP    ??LinkControlErrorMainCycle
// 1359         break;
// 1360 
// 1361     case LINK_CONTROL_ERROR_OFF:
// 1362         CPss21::AllAlarmWindowOff();
??MainFsm_18:
        RCALL   ?Subroutine10
// 1363         RestoreContextNotifyerControl();
// 1364         CPss21::m_xMainCycleTimer.Set(MAIN_CYCLE_PERIOD_TIME);
// 1365 
// 1366         CPlatform::WatchdogReset();
??CrossCallReturnLabel_72:
        WDR
// 1367         SetFsmState(MAIN_CYCLE_START_WAITING);
        RJMP    ??CrossCallReturnLabel_136
// 1368         break;
// 1369 
// 1370 //-----------------------------------------------------------------------------------------------------
// 1371     case PROGRAMMING_START:
// 1372         // оНЯКЕ ОПХ╦ЛЮ ОНЯКЕДМЕЦН АКНЙЮ АЮГШ ДЮММШУ ОПНХГНИД╦Р ОЕПЕГЮЦПСГЙЮ
// 1373         // ВЕПЕГ "PROGRAMMING_TIME + WDTO_2S", ВРНАШ ОПХЛЕМХРЭ ХГЛЕМЕМХЪ ЙНМТХЦСПЮЖХХ.
// 1374         CPss21::m_xMainCycleTimer.Set(PROGRAMMING_TIME);
??MainFsm_19:
        LDI     R18, 232
        LDI     R19, 3
        RCALL   ?Subroutine57
// 1375         SetFsmState(PROGRAMMING_ON);
??CrossCallReturnLabel_74:
        LDI     R16, 14
        RJMP    ??MainFsm_12
// 1376 
// 1377         CPlatform::WatchdogReset();
// 1378         break;
// 1379 
// 1380     case PROGRAMMING_ON:
// 1381         CPss21::m_xModbusRtuOne.Fsm();
??MainFsm_20:
        RCALL   ?Subroutine7
// 1382 
// 1383         CPss21::m_xDataStore.Fsm();
// 1384 
// 1385         if (CPss21::m_xMainCycleTimer.IsOverflow())
??CrossCallReturnLabel_66:
        RCALL   ?Subroutine15
??CrossCallReturnLabel_155:
        BREQ    ??CrossCallReturnLabel_198
// 1386         {
// 1387             SetFsmState(REBOOT);
        LDI     R16, 15
        RCALL   ??Subroutine91_0
// 1388         }
// 1389 
// 1390         CPlatform::WatchdogReset();
??CrossCallReturnLabel_199:
        RJMP    ??CrossCallReturnLabel_198
// 1391         break;
// 1392 
// 1393     case REBOOT:
// 1394         // вЕПЕГ "WDTO_2S" - ОЕПЕГЮЦПСГЙЮ, ВРНАШ ОПХЛЕМХРЭ ХГЛЕМЕМХЪ ЙНМТХЦСПЮЖХХ.
// 1395         CPss21::m_xModbusRtuOne.Fsm();
??MainFsm_21:
        RCALL   ?Subroutine7
// 1396 
// 1397         CPss21::m_xDataStore.Fsm();
// 1398         break;
// 1399 
// 1400 //-----------------------------------------------------------------------------------------------------
// 1401     default:
// 1402         break;
// 1403     }
// 1404 }
??CrossCallReturnLabel_67:
        RET
        REQUIRE _A_WDTCR

        RSEG CODE:CODE:NOROOT(1)
?Subroutine15:
        RCALL   ?Subroutine69
??CrossCallReturnLabel_100:
        CALL    ??IsOverflow
        RJMP    ?Subroutine82

        RSEG CODE:CODE:NOROOT(1)
?Subroutine69:
        LDI     R16, LOW((??m_xDeviceConfigSearch + 133))
        LDI     R17, HIGH((??m_xDeviceConfigSearch + 133))
        RET

        RSEG CODE:CODE:NOROOT(1)
?Subroutine10:
        RCALL   ??AllAlarmWindowOff
        RCALL   ??RestoreContextNotifyerControl
        LDI     R18, 100
        LDI     R19, 0
        REQUIRE ?Subroutine57
        ;               // Fall through to label ?Subroutine57

        RSEG CODE:CODE:NOROOT(1)
?Subroutine57:
        RCALL   ?Subroutine69
??CrossCallReturnLabel_101:
        JMP     ??Set_1

        RSEG CODE:CODE:NOROOT(1)
?Subroutine7:
        RCALL   ?Subroutine68
??CrossCallReturnLabel_95:
        REQUIRE ?Subroutine56
        ;               // Fall through to label ?Subroutine56

        RSEG CODE:CODE:NOROOT(1)
?Subroutine56:
        LDI     R16, LOW(??m_xDataStore)
        LDI     R17, (??m_xDataStore) >> 8
        JMP     ??Fsm_3

        RSEG CODE:CODE:NOROOT(1)
?Subroutine6:
        RCALL   ?Subroutine54
??CrossCallReturnLabel_64:
        RJMP    ?Subroutine67

        RSEG CODE:CODE:NOROOT(1)
?Subroutine54:
        RCALL   ?Subroutine68
??CrossCallReturnLabel_97:
        RJMP    ??KeyStateProcessing

        RSEG CODE:CODE:NOROOT(1)
?Subroutine5:
        RCALL   ?Subroutine68
??CrossCallReturnLabel_96:
        LDI     R16, LOW((??m_xDeviceConfigSearch + 29))
        LDI     R17, HIGH((??m_xDeviceConfigSearch + 29))
        CALL    ??Fsm_2
        RCALL   ??KeyStateProcessing
        REQUIRE ?Subroutine67
        ;               // Fall through to label ?Subroutine67

        RSEG CODE:CODE:NOROOT(1)
?Subroutine67:
        RJMP    ??NotifyersControlProcessing

        RSEG CODE:CODE:NOROOT(1)
?Subroutine68:
        LDI     R16, LOW(??m_xModbusRtuOne)
        LDI     R17, (??m_xModbusRtuOne) >> 8
        JMP     ??Fsm_1

        RSEG CODE:CODE:NOROOT(1)
// __version_3 uint8_t CPlatform::KeyOneState()
??KeyOneState:
        LDI     R16, 0
        SBIC    0x13, 0x02
        LDI     R16, 1
??KeyOneState_1:
        LDI     R17, 1
        EOR     R16, R17
        RET
        REQUIRE _A_PINC

        RSEG CODE:CODE:NOROOT(1)
// __version_3 uint8_t CPlatform::KeyTwoState()
??KeyTwoState:
        LDI     R16, 0
        SBIC    0x13, 0x01
        LDI     R16, 1
??KeyTwoState_1:
        LDI     R17, 1
        EOR     R16, R17
        RET
        REQUIRE _A_PINC

        RSEG CODE:CODE:NOROOT(1)
// __version_3 uint8_t CPlatform::KeyThreeState()
??KeyThreeState:
        LDI     R16, 0
        SBIC    0x13, 0x00
        LDI     R16, 1
??KeyThreeState_1:
        LDI     R17, 1
        EOR     R16, R17
        RET
        REQUIRE _A_PINC

        RSEG CODE:CODE:NOROOT(1)
// __version_3 uint8_t CPlatform::ExternalKeyState()
??ExternalKeyState:
        LDS     R17, _A_PING
        ANDI    R17, 0x01
        MOV     R16, R17
        LDI     R17, 1
        EOR     R16, R17
        RET
        REQUIRE _A_PING

        ASEGN ABSOLUTE:DATA:NOROOT,01cH
__?EECR:

        ASEGN ABSOLUTE:DATA:NOROOT,01dH
__?EEDR:

        ASEGN ABSOLUTE:DATA:NOROOT,01eH
__?EEARL:

        ASEGN ABSOLUTE:DATA:NOROOT,01fH
__?EEARH:

        RSEG INITTAB:CODE:NOROOT(0)
`?<Segment init: NEAR_Z>`:
        DC16    SFE(NEAR_Z) - SFB(NEAR_Z)
        DC16    SFB(NEAR_Z)
        DP      0
        REQUIRE ?need_segment_init

        RSEG NEAR_ID:CODE:ROOT(0)
`?<Initializer for >`:
        DC16 ?_1, ??m_xUart1, `?<Unnamed 0>`/2
`?<Initializer for >_1`:
        DC16 ?_3, ??m_xModbusRtuOne, `?<Unnamed 1>`/2
`?<Initializer for >_2`:
        DC16 ?_5, ??m_xDataStore, `?<Unnamed 2>`/2
`?<Initializer for >_3`:
        DC16 ?_7, ??m_xReceiptKey, `?<Unnamed 3>`/2
`?<Initializer for >_4`:
        DC16 ?_9, ??m_xResetKey, `?<Unnamed 3>`/2
`?<Initializer for >_5`:
        DC16 ?_11, ??m_xCheckKey, `?<Unnamed 3>`/2
`?<Initializer for >_6`:
        DC16 ?_13, ??m_xExternalKey, `?<Unnamed 3>`/2
`?<Initializer for >_7`:
        DC16 ?_15, ??m_xEventUniteLogicAndOne, `?<Unnamed 4>`/2
`?<Initializer for >_8`:
        DC16 ?_17, ??m_xMainCycleTimer, `?<Unnamed 5>`/2
`?<Initializer for >_9`:
        DC16 ?_19, ??m_xPreventiveAlarmWindowNotifyerControl, `?<Unnamed 6>`/2
`?<Initializer for >_10`:
        DC16 ?_21, ??m_xEmergencyAlarmWindowNotifyerControl, `?<Unnamed 7>`/2
`?<Initializer for >_11`:
        DC16 ?_23, ??m_xStatusLedNotifyerControl, `?<Unnamed 8>`/2
`?<Initializer for >_12`:
        DC16 ?_25, ??m_xBuzzerNotifyerControl, `?<Unnamed 9>`/2
`?<Initializer for >_13`:
        DC16 ?_27, ??m_xModbusRtuLinkControl, `?<Unnamed 10>`/2
`?<Initializer for >_14`:
        DC16 ?_29, ??m_xLightBoard, `?<Unnamed 11>`/2
`?<Initializer for >_15`:
        DC16 ?_31, 0H, `?<Unnamed 12>`/2

        RSEG INITTAB:CODE:NOROOT(0)
`?<Segment init: NEAR_I>`:
        DC16    SFE(NEAR_I) - SFB(NEAR_I)
        DC16    SFB(NEAR_I)
        DP      SFB(NEAR_ID)
        REQUIRE ?need_segment_init

        RSEG DIFUNCT:CODE:ROOT(0)
        REQUIRE ?call_ctors
        DW      ??__sti__routine/2

        RSEG SWITCH:CODE:NOROOT(1)
`?<Jumptable for MainFsm>_0`:
        DB      0
        DB      0
        DW      (??CrossCallReturnLabel_67) /2
        DW      16
        DW      (??MainFsm_1) /2
        DW      (??CrossCallReturnLabel_67) /2
        DW      (??MainFsm_3) /2
        DW      (??MainFsm_5) /2
        DW      (??MainFsm_9) /2
        DW      (??MainFsm_10) /2
        DW      (??MainFsm_11) /2
        DW      (??MainFsm_13) /2
        DW      (??MainFsm_14) /2
        DW      (??MainFsm_15) /2
        DW      (??MainFsm_16) /2
        DW      (??MainFsm_17) /2
        DW      (??MainFsm_18) /2
        DW      (??MainFsm_19) /2
        DW      (??MainFsm_20) /2
        DW      (??MainFsm_21) /2

        END
// 1405 
// 
//   105 bytes in segment ABSOLUTE
// 3 344 bytes in segment CODE
//     2 bytes in segment DIFUNCT
//    14 bytes in segment INITTAB
//    84 bytes in segment NEAR_F
//    96 bytes in segment NEAR_I
//    96 bytes in segment NEAR_ID
// 1 850 bytes in segment NEAR_Z
//    38 bytes in segment SWITCH
// 
// 3 514 bytes of CODE memory (+  64 bytes shared)
// 1 946 bytes of DATA memory (+ 105 bytes shared)
//
//Errors: none
//Warnings: none
