###############################################################################
#
# IAR C/C++ Compiler V7.10.6.1378 for Atmel AVR           30/Nov/2022  11:59:14
# Copyright 1996-2018 IAR Systems AB.
#
#    Source file  =  D:\Projects\CautoProjects\PSS48\PSS48\src\Pss21.cpp
#    Command line =  
#        -f C:\Users\ghost\AppData\Local\Temp\EW9A3E.tmp
#        (--string_literals_in_flash
#        D:\Projects\CautoProjects\PSS48\PSS48\src\Pss21.cpp --cpu=m128a -ms -o
#        D:\Projects\CautoProjects\PSS48\PSS48\Debug\Obj -lC
#        D:\Projects\CautoProjects\PSS48\PSS48\Debug\List -lB
#        D:\Projects\CautoProjects\PSS48\PSS48\Debug\List -y
#        --initializers_in_flash --root_variables --debug
#        -DENABLE_BIT_DEFINITIONS -e -I
#        D:\Projects\CautoProjects\PSS48\PSS48\include\ -I
#        D:\Projects\CautoProjects\PSS48\PSS48\Modbus\ --eeprom_size 4096
#        --dlib --dlib_config "C:\Program Files (x86)\IAR Systems\Embedded
#        Workbench 8.0\avr\LIB\DLIB\dlAVR-3s-ec_mul-n.h" -Ohz --eec++)
#    Locale       =  Russian_RUS.1251
#    List file    =  D:\Projects\CautoProjects\PSS48\PSS48\Debug\List\Pss21.lst
#    Object file  =  D:\Projects\CautoProjects\PSS48\PSS48\Debug\Obj\Pss21.r90
#
###############################################################################

D:\Projects\CautoProjects\PSS48\PSS48\src\Pss21.cpp
      1          //-----------------------------------------------------------------------------------------------------
      2          //  Source      : FileName.cpp
      3          //  Created     : 01.06.2022
      4          //  Author      : Alexandr Volvenkin
      5          //  email       : aav-36@mail.ru
      6          //  GitHub      : https://github.com/AlexandrVolvenkin
      7          //-----------------------------------------------------------------------------------------------------
      8          #include "Pss21.h"

   \                                 In  segment ABSOLUTE, at 0x9d, root
   \   union <unnamed> volatile __io _A_UCSR1C
   \                     _A_UCSR1C:
   \   00000000                      DS8 1

   \                                 In  segment ABSOLUTE, at 0x9c, root
   \   union <unnamed> volatile __io _A_UDR1
   \                     _A_UDR1:
   \   00000000                      DS8 1

   \                                 In  segment ABSOLUTE, at 0x9b, root
   \   union <unnamed> volatile __io _A_UCSR1A
   \                     _A_UCSR1A:
   \   00000000                      DS8 1

   \                                 In  segment ABSOLUTE, at 0x9a, root
   \   union <unnamed> volatile __io _A_UCSR1B
   \                     _A_UCSR1B:
   \   00000000                      DS8 1

   \                                 In  segment ABSOLUTE, at 0x99, root
   \   union <unnamed> volatile __io _A_UBRR1L
   \                     _A_UBRR1L:
   \   00000000                      DS8 1

   \                                 In  segment ABSOLUTE, at 0x98, root
   \   union <unnamed> volatile __io _A_UBRR1H
   \                     _A_UBRR1H:
   \   00000000                      DS8 1

   \                                 In  segment ABSOLUTE, at 0x95, root
   \   union <unnamed> volatile __io _A_UCSR0C
   \                     _A_UCSR0C:
   \   00000000                      DS8 1

   \                                 In  segment ABSOLUTE, at 0x90, root
   \   union <unnamed> volatile __io _A_UBRR0H
   \                     _A_UBRR0H:
   \   00000000                      DS8 1

   \                                 In  segment ABSOLUTE, at 0x8c, root
   \   union <unnamed> volatile __io _A_TCCR3C
   \                     _A_TCCR3C:
   \   00000000                      DS8 1

   \                                 In  segment ABSOLUTE, at 0x8b, root
   \   union <unnamed> volatile __io _A_TCCR3A
   \                     _A_TCCR3A:
   \   00000000                      DS8 1

   \                                 In  segment ABSOLUTE, at 0x8a, root
   \   union <unnamed> volatile __io _A_TCCR3B
   \                     _A_TCCR3B:
   \   00000000                      DS8 1

   \                                 In  segment ABSOLUTE, at 0x88, root
   \   union <unnamed> volatile __io _A_TCNT3
   \                     _A_TCNT3:
   \   00000000                      DS8 2

   \                                 In  segment ABSOLUTE, at 0x86, root
   \   union <unnamed> volatile __io _A_OCR3A
   \                     _A_OCR3A:
   \   00000000                      DS8 2

   \                                 In  segment ABSOLUTE, at 0x84, root
   \   union <unnamed> volatile __io _A_OCR3B
   \                     _A_OCR3B:
   \   00000000                      DS8 2

   \                                 In  segment ABSOLUTE, at 0x82, root
   \   union <unnamed> volatile __io _A_OCR3C
   \                     _A_OCR3C:
   \   00000000                      DS8 2

   \                                 In  segment ABSOLUTE, at 0x80, root
   \   union <unnamed> volatile __io _A_ICR3
   \                     _A_ICR3:
   \   00000000                      DS8 2

   \                                 In  segment ABSOLUTE, at 0x7d, root
   \   union <unnamed> volatile __io _A_ETIMSK
   \                     _A_ETIMSK:
   \   00000000                      DS8 1

   \                                 In  segment ABSOLUTE, at 0x7c, root
   \   union <unnamed> volatile __io _A_ETIFR
   \                     _A_ETIFR:
   \   00000000                      DS8 1

   \                                 In  segment ABSOLUTE, at 0x7a, root
   \   union <unnamed> volatile __io _A_TCCR1C
   \                     _A_TCCR1C:
   \   00000000                      DS8 1

   \                                 In  segment ABSOLUTE, at 0x78, root
   \   union <unnamed> volatile __io _A_OCR1C
   \                     _A_OCR1C:
   \   00000000                      DS8 2

   \                                 In  segment ABSOLUTE, at 0x74, root
   \   union <unnamed> volatile __io _A_TWCR
   \                     _A_TWCR:
   \   00000000                      DS8 1

   \                                 In  segment ABSOLUTE, at 0x73, root
   \   union <unnamed> volatile __io _A_TWDR
   \                     _A_TWDR:
   \   00000000                      DS8 1

   \                                 In  segment ABSOLUTE, at 0x72, root
   \   union <unnamed> volatile __io _A_TWAR
   \                     _A_TWAR:
   \   00000000                      DS8 1

   \                                 In  segment ABSOLUTE, at 0x71, root
   \   union <unnamed> volatile __io _A_TWSR
   \                     _A_TWSR:
   \   00000000                      DS8 1

   \                                 In  segment ABSOLUTE, at 0x70, root
   \   union <unnamed> volatile __io _A_TWBR
   \                     _A_TWBR:
   \   00000000                      DS8 1

   \                                 In  segment ABSOLUTE, at 0x6f, root
   \   union <unnamed> volatile __io _A_OSCCAL
   \                     _A_OSCCAL:
   \   00000000                      DS8 1

   \                                 In  segment ABSOLUTE, at 0x6d, root
   \   union <unnamed> volatile __io _A_XMCRA
   \                     _A_XMCRA:
   \   00000000                      DS8 1

   \                                 In  segment ABSOLUTE, at 0x6c, root
   \   union <unnamed> volatile __io _A_XMCRB
   \                     _A_XMCRB:
   \   00000000                      DS8 1

   \                                 In  segment ABSOLUTE, at 0x6a, root
   \   union <unnamed> volatile __io _A_EICRA
   \                     _A_EICRA:
   \   00000000                      DS8 1

   \                                 In  segment ABSOLUTE, at 0x68, root
   \   union <unnamed> volatile __io _A_SPMCSR
   \                     _A_SPMCSR:
   \   00000000                      DS8 1

   \                                 In  segment ABSOLUTE, at 0x65, root
   \   union <unnamed> volatile __io _A_PORTG
   \                     _A_PORTG:
   \   00000000                      DS8 1

   \                                 In  segment ABSOLUTE, at 0x64, root
   \   union <unnamed> volatile __io _A_DDRG
   \                     _A_DDRG:
   \   00000000                      DS8 1

   \                                 In  segment ABSOLUTE, at 0x63, root
   \   union <unnamed> volatile __io _A_PING
   \                     _A_PING:
   \   00000000                      DS8 1

   \                                 In  segment ABSOLUTE, at 0x62, root
   \   union <unnamed> volatile __io _A_PORTF
   \                     _A_PORTF:
   \   00000000                      DS8 1

   \                                 In  segment ABSOLUTE, at 0x61, root
   \   union <unnamed> volatile __io _A_DDRF
   \                     _A_DDRF:
   \   00000000                      DS8 1

   \                                 In  segment ABSOLUTE, at 0x5f, root
   \   union <unnamed> volatile __io _A_SREG
   \                     _A_SREG:
   \   00000000                      DS8 1

   \                                 In  segment ABSOLUTE, at 0x5d, root
   \   union <unnamed> volatile __io _A_SP
   \                     _A_SP:
   \   00000000                      DS8 2

   \                                 In  segment ABSOLUTE, at 0x5c, root
   \   union <unnamed> volatile __io _A_XDIV
   \                     _A_XDIV:
   \   00000000                      DS8 1

   \                                 In  segment ABSOLUTE, at 0x5b, root
   \   union <unnamed> volatile __io _A_RAMPZ
   \                     _A_RAMPZ:
   \   00000000                      DS8 1

   \                                 In  segment ABSOLUTE, at 0x5a, root
   \   union <unnamed> volatile __io _A_EICRB
   \                     _A_EICRB:
   \   00000000                      DS8 1

   \                                 In  segment ABSOLUTE, at 0x59, root
   \   union <unnamed> volatile __io _A_EIMSK
   \                     _A_EIMSK:
   \   00000000                      DS8 1

   \                                 In  segment ABSOLUTE, at 0x58, root
   \   union <unnamed> volatile __io _A_EIFR
   \                     _A_EIFR:
   \   00000000                      DS8 1

   \                                 In  segment ABSOLUTE, at 0x57, root
   \   union <unnamed> volatile __io _A_TIMSK
   \                     _A_TIMSK:
   \   00000000                      DS8 1

   \                                 In  segment ABSOLUTE, at 0x56, root
   \   union <unnamed> volatile __io _A_TIFR
   \                     _A_TIFR:
   \   00000000                      DS8 1

   \                                 In  segment ABSOLUTE, at 0x55, root
   \   union <unnamed> volatile __io _A_MCUCR
   \                     _A_MCUCR:
   \   00000000                      DS8 1

   \                                 In  segment ABSOLUTE, at 0x54, root
   \   union <unnamed> volatile __io _A_MCUCSR
   \                     _A_MCUCSR:
   \   00000000                      DS8 1

   \                                 In  segment ABSOLUTE, at 0x53, root
   \   union <unnamed> volatile __io _A_TCCR0
   \                     _A_TCCR0:
   \   00000000                      DS8 1

   \                                 In  segment ABSOLUTE, at 0x52, root
   \   union <unnamed> volatile __io _A_TCNT0
   \                     _A_TCNT0:
   \   00000000                      DS8 1

   \                                 In  segment ABSOLUTE, at 0x51, root
   \   union <unnamed> volatile __io _A_OCR0
   \                     _A_OCR0:
   \   00000000                      DS8 1

   \                                 In  segment ABSOLUTE, at 0x50, root
   \   union <unnamed> volatile __io _A_ASSR
   \                     _A_ASSR:
   \   00000000                      DS8 1

   \                                 In  segment ABSOLUTE, at 0x4f, root
   \   union <unnamed> volatile __io _A_TCCR1A
   \                     _A_TCCR1A:
   \   00000000                      DS8 1

   \                                 In  segment ABSOLUTE, at 0x4e, root
   \   union <unnamed> volatile __io _A_TCCR1B
   \                     _A_TCCR1B:
   \   00000000                      DS8 1

   \                                 In  segment ABSOLUTE, at 0x4c, root
   \   union <unnamed> volatile __io _A_TCNT1
   \                     _A_TCNT1:
   \   00000000                      DS8 2

   \                                 In  segment ABSOLUTE, at 0x4a, root
   \   union <unnamed> volatile __io _A_OCR1A
   \                     _A_OCR1A:
   \   00000000                      DS8 2

   \                                 In  segment ABSOLUTE, at 0x48, root
   \   union <unnamed> volatile __io _A_OCR1B
   \                     _A_OCR1B:
   \   00000000                      DS8 2

   \                                 In  segment ABSOLUTE, at 0x46, root
   \   union <unnamed> volatile __io _A_ICR1
   \                     _A_ICR1:
   \   00000000                      DS8 2

   \                                 In  segment ABSOLUTE, at 0x45, root
   \   union <unnamed> volatile __io _A_TCCR2
   \                     _A_TCCR2:
   \   00000000                      DS8 1

   \                                 In  segment ABSOLUTE, at 0x44, root
   \   union <unnamed> volatile __io _A_TCNT2
   \                     _A_TCNT2:
   \   00000000                      DS8 1

   \                                 In  segment ABSOLUTE, at 0x43, root
   \   union <unnamed> volatile __io _A_OCR2
   \                     _A_OCR2:
   \   00000000                      DS8 1

   \                                 In  segment ABSOLUTE, at 0x42, root
   \   union <unnamed> volatile __io _A_OCDR
   \                     _A_OCDR:
   \   00000000                      DS8 1

   \                                 In  segment ABSOLUTE, at 0x41, root
   \   union <unnamed> volatile __io _A_WDTCR
   \                     _A_WDTCR:
   \   00000000                      DS8 1

   \                                 In  segment ABSOLUTE, at 0x40, root
   \   union <unnamed> volatile __io _A_SFIOR
   \                     _A_SFIOR:
   \   00000000                      DS8 1

   \                                 In  segment ABSOLUTE, at 0x3e, root
   \   union <unnamed> volatile __io _A_EEAR
   \                     _A_EEAR:
   \   00000000                      DS8 2

   \                                 In  segment ABSOLUTE, at 0x3d, root
   \   union <unnamed> volatile __io _A_EEDR
   \                     _A_EEDR:
   \   00000000                      DS8 1

   \                                 In  segment ABSOLUTE, at 0x3c, root
   \   union <unnamed> volatile __io _A_EECR
   \                     _A_EECR:
   \   00000000                      DS8 1

   \                                 In  segment ABSOLUTE, at 0x3b, root
   \   union <unnamed> volatile __io _A_PORTA
   \                     _A_PORTA:
   \   00000000                      DS8 1

   \                                 In  segment ABSOLUTE, at 0x3a, root
   \   union <unnamed> volatile __io _A_DDRA
   \                     _A_DDRA:
   \   00000000                      DS8 1

   \                                 In  segment ABSOLUTE, at 0x39, root
   \   union <unnamed> volatile __io _A_PINA
   \                     _A_PINA:
   \   00000000                      DS8 1

   \                                 In  segment ABSOLUTE, at 0x38, root
   \   union <unnamed> volatile __io _A_PORTB
   \                     _A_PORTB:
   \   00000000                      DS8 1

   \                                 In  segment ABSOLUTE, at 0x37, root
   \   union <unnamed> volatile __io _A_DDRB
   \                     _A_DDRB:
   \   00000000                      DS8 1

   \                                 In  segment ABSOLUTE, at 0x36, root
   \   union <unnamed> volatile __io _A_PINB
   \                     _A_PINB:
   \   00000000                      DS8 1

   \                                 In  segment ABSOLUTE, at 0x35, root
   \   union <unnamed> volatile __io _A_PORTC
   \                     _A_PORTC:
   \   00000000                      DS8 1

   \                                 In  segment ABSOLUTE, at 0x34, root
   \   union <unnamed> volatile __io _A_DDRC
   \                     _A_DDRC:
   \   00000000                      DS8 1

   \                                 In  segment ABSOLUTE, at 0x33, root
   \   union <unnamed> volatile __io _A_PINC
   \                     _A_PINC:
   \   00000000                      DS8 1

   \                                 In  segment ABSOLUTE, at 0x32, root
   \   union <unnamed> volatile __io _A_PORTD
   \                     _A_PORTD:
   \   00000000                      DS8 1

   \                                 In  segment ABSOLUTE, at 0x31, root
   \   union <unnamed> volatile __io _A_DDRD
   \                     _A_DDRD:
   \   00000000                      DS8 1

   \                                 In  segment ABSOLUTE, at 0x30, root
   \   union <unnamed> volatile __io _A_PIND
   \                     _A_PIND:
   \   00000000                      DS8 1

   \                                 In  segment ABSOLUTE, at 0x2f, root
   \   union <unnamed> volatile __io _A_SPDR
   \                     _A_SPDR:
   \   00000000                      DS8 1

   \                                 In  segment ABSOLUTE, at 0x2e, root
   \   union <unnamed> volatile __io _A_SPSR
   \                     _A_SPSR:
   \   00000000                      DS8 1

   \                                 In  segment ABSOLUTE, at 0x2d, root
   \   union <unnamed> volatile __io _A_SPCR
   \                     _A_SPCR:
   \   00000000                      DS8 1

   \                                 In  segment ABSOLUTE, at 0x2c, root
   \   union <unnamed> volatile __io _A_UDR0
   \                     _A_UDR0:
   \   00000000                      DS8 1

   \                                 In  segment ABSOLUTE, at 0x2b, root
   \   union <unnamed> volatile __io _A_UCSR0A
   \                     _A_UCSR0A:
   \   00000000                      DS8 1

   \                                 In  segment ABSOLUTE, at 0x2a, root
   \   union <unnamed> volatile __io _A_UCSR0B
   \                     _A_UCSR0B:
   \   00000000                      DS8 1

   \                                 In  segment ABSOLUTE, at 0x29, root
   \   union <unnamed> volatile __io _A_UBRR0L
   \                     _A_UBRR0L:
   \   00000000                      DS8 1

   \                                 In  segment ABSOLUTE, at 0x28, root
   \   union <unnamed> volatile __io _A_ACSR
   \                     _A_ACSR:
   \   00000000                      DS8 1

   \                                 In  segment ABSOLUTE, at 0x27, root
   \   union <unnamed> volatile __io _A_ADMUX
   \                     _A_ADMUX:
   \   00000000                      DS8 1

   \                                 In  segment ABSOLUTE, at 0x26, root
   \   union <unnamed> volatile __io _A_ADCSRA
   \                     _A_ADCSRA:
   \   00000000                      DS8 1

   \                                 In  segment ABSOLUTE, at 0x24, root
   \   union <unnamed> volatile __io _A_ADC
   \                     _A_ADC:
   \   00000000                      DS8 2

   \                                 In  segment ABSOLUTE, at 0x23, root
   \   union <unnamed> volatile __io _A_PORTE
   \                     _A_PORTE:
   \   00000000                      DS8 1

   \                                 In  segment ABSOLUTE, at 0x22, root
   \   union <unnamed> volatile __io _A_DDRE
   \                     _A_DDRE:
   \   00000000                      DS8 1

   \                                 In  segment ABSOLUTE, at 0x21, root
   \   union <unnamed> volatile __io _A_PINE
   \                     _A_PINE:
   \   00000000                      DS8 1

   \                                 In  segment ABSOLUTE, at 0x20, root
   \   union <unnamed> volatile __io _A_PINF
   \                     _A_PINF:
   \   00000000                      DS8 1

      static __flash TDataBase CFlash::xMainDataBase;
                               ^
"D:\Projects\CautoProjects\PSS48\PSS48\include\Platform.h",366  Warning[Pe427]: 
          qualified name is not allowed in member declaration

      static __flash TDataBaseBlockPositionData CFlash::axDataBaseBlocksPositionData[];
                                                ^
"D:\Projects\CautoProjects\PSS48\PSS48\include\Platform.h",367  Warning[Pe427]: 
          qualified name is not allowed in member declaration

   \                                 In  segment CODE, align 2, keep-with-next
   \   __version_3 uint8_t CPlatform::KeyOneState()
   \                     ??KeyOneState:
   \   00000000   E000               LDI     R16, 0
   \   00000002   999A               SBIC    0x13, 0x02
   \   00000004   E001               LDI     R16, 1
   \                     ??KeyOneState_1:
   \   00000006   E011               LDI     R17, 1
   \   00000008   2701               EOR     R16, R17
   \   0000000A   9508               RET
   \   0000000C                      REQUIRE _A_PINC

   \                                 In  segment CODE, align 2, keep-with-next
   \   __version_3 uint8_t CPlatform::KeyTwoState()
   \                     ??KeyTwoState:
   \   00000000   E000               LDI     R16, 0
   \   00000002   9999               SBIC    0x13, 0x01
   \   00000004   E001               LDI     R16, 1
   \                     ??KeyTwoState_1:
   \   00000006   E011               LDI     R17, 1
   \   00000008   2701               EOR     R16, R17
   \   0000000A   9508               RET
   \   0000000C                      REQUIRE _A_PINC

   \                                 In  segment CODE, align 2, keep-with-next
   \   __version_3 uint8_t CPlatform::KeyThreeState()
   \                     ??KeyThreeState:
   \   00000000   E000               LDI     R16, 0
   \   00000002   9998               SBIC    0x13, 0x00
   \   00000004   E001               LDI     R16, 1
   \                     ??KeyThreeState_1:
   \   00000006   E011               LDI     R17, 1
   \   00000008   2701               EOR     R16, R17
   \   0000000A   9508               RET
   \   0000000C                      REQUIRE _A_PINC

   \                                 In  segment CODE, align 2, keep-with-next
   \   __version_3 uint8_t CPlatform::ExternalKeyState()
   \                     ??ExternalKeyState:
   \   00000000   9110....           LDS     R17, _A_PING
   \   00000004   7011               ANDI    R17, 0x01
   \   00000006   2F01               MOV     R16, R17
   \   00000008   E011               LDI     R17, 1
   \   0000000A   2701               EOR     R16, R17
   \   0000000C   9508               RET
   \   0000000E                      REQUIRE _A_PING
      9          #include "Platform.h"
     10          #include "InputDevice.h"
     11          #include "Mvsn21.h"
     12          #include "ModuleMrXX.h"
     13          #include "Crc.h"
     14          #include "ModbusRTU.h"
     15          #include "DataBase.h"
     16          #include "DataTypes.h"
     17          #include "Alarm.h"
     18          #include "NotifyerControl.h"
     19          #include "Buzzer.h"
     20          #include "Event.h"
     21          #include "Dfa.h"
     22          
     23          
     24          //uint8_t CPss21::m_aucRtuCoilsArray[];
     25          //uint8_t CPss21::m_aucRtuDiscreteInputsArray[];
     26          uint16_t CPss21::m_aucRtuHoldingRegistersArray[];
     27          uint16_t CPss21::m_aucRtuInputRegistersArray[];
     28          uint8_t CPss21::m_aucRtuDiscreteDataArray[];
     29          uint8_t CPss21::m_auiReceiveMessageBuff[];
     30          //uint8_t CPss21::m_auiTransmitMessageBuff[];
     31          uint8_t CPss21::m_auiIntermediateBuff[];
     32          uint8_t CPss21::m_auiSpiRxBuffer[];
     33          uint8_t CPss21::m_auiSpiTxBuffer[];
     34          
     35          uint8_t CPss21::m_uiFsmState;
     36          uint8_t CPss21::m_uiType;
     37          //CDriver* CPss21::m_pxDriver;
     38          //CDevice* CPss21::m_apxDevices[];
     39          CDriver* CPss21::m_apxDrivers[];
     40          

   \                                 In  segment CODE, align 2, keep-with-next
   \   static __intrinsic __version_3 void __sti__routine()
   \                     ??__sti__routine:
     41          CUart CPss21::m_xUart1(&UBRR1H, &UBRR1L, &UCSR1A, &UCSR1B, &UCSR1C, &UDR1, &DDRC, DDC7, &PORTC, PC7);
   \   00000000   E007               LDI     R16, 7
   \   00000002   930A               ST      -Y, R16
   \   00000004   E305               LDI     R16, LOW(53)
   \   00000006   E010               LDI     R17, (53) >> 8
   \   00000008   ....               RCALL   ?Subroutine75
   \                     ??CrossCallReturnLabel_89:
   \   0000000A   E007               LDI     R16, 7
   \   0000000C   930A               ST      -Y, R16
   \   0000000E   E304               LDI     R16, LOW(52)
   \   00000010   ....               RCALL   ?Subroutine75
   \                     ??CrossCallReturnLabel_90:
   \   00000012   E90C               LDI     R16, LOW(156)
   \   00000014   ....               RCALL   ?Subroutine75
   \                     ??CrossCallReturnLabel_91:
   \   00000016   E90D               LDI     R16, LOW(157)
   \   00000018   ....               RCALL   ?Subroutine75
   \                     ??CrossCallReturnLabel_92:
   \   0000001A   E90A               LDI     R16, LOW(154)
   \   0000001C   ....               RCALL   ?Subroutine75
   \                     ??CrossCallReturnLabel_93:
   \   0000001E   E96B               LDI     R22, LOW(155)
   \   00000020   E070               LDI     R23, (53) >> 8
   \   00000022   E949               LDI     R20, LOW(153)
   \   00000024   E050               LDI     R21, (53) >> 8
   \   00000026   E928               LDI     R18, LOW(152)
   \   00000028   E030               LDI     R19, (53) >> 8
   \   0000002A   ....               LDI     R16, LOW(??m_xUart1)
   \   0000002C   ....               LDI     R17, (??m_xUart1) >> 8
   \   0000002E   ........           CALL    ??CUart
   \   00000032   ....               LDI     R16, LOW(?_0)
   \   00000034   ....               LDI     R17, (?_0) >> 8
   \   00000036   ....               RCALL   ?Subroutine72
     42          CModbusRTU CPss21::m_xModbusRtuOne;
   \                     ??CrossCallReturnLabel_76:
   \   00000038   ....               RCALL   ??Subroutine93_0
   \                     ??CrossCallReturnLabel_152:
   \   0000003A   ....               LDI     R16, LOW(??m_xModbusRtuOne)
   \   0000003C   ....               LDI     R17, (??m_xModbusRtuOne) >> 8
   \   0000003E   ........           CALL    ??CModbusRTU
   \   00000042   ....               LDI     R16, LOW((?_0 + 6))
   \   00000044   ....               LDI     R17, HIGH((?_0 + 6))
   \   00000046   ....               RCALL   ?Subroutine72
     43          
     44          //CDataBase CPss21::m_xDataBase;
     45          //CDataBase* CPss21::m_pxDataBase;
     46          //CDataStore CPss21::m_xDataStore;
     47          
     48          CMultiFunctionKey CPss21::m_xReceiptKey(CPlatform::KeyOneState);
   \                     ??CrossCallReturnLabel_77:
   \   00000048   ....               LDI     R18, LOW(??KeyOneState/2)
   \   0000004A   ....               LDI     R19, (??KeyOneState/2) >> 8
   \   0000004C   ....               LDI     R16, LOW((??m_xDeviceConfigSearch + 61))
   \   0000004E   ....               LDI     R17, HIGH((??m_xDeviceConfigSearch + 61))
   \   00000050   ....               RCALL   ?Subroutine12
   \                     ??CrossCallReturnLabel_5:
   \   00000052   ....               LDI     R16, LOW((?_0 + 12))
   \   00000054   ....               LDI     R17, HIGH((?_0 + 12))
   \   00000056   ....               RCALL   ?Subroutine72
     49          CMultiFunctionKey CPss21::m_xResetKey(CPlatform::KeyTwoState);
   \                     ??CrossCallReturnLabel_78:
   \   00000058   ....               LDI     R18, LOW(??KeyTwoState/2)
   \   0000005A   ....               LDI     R19, (??KeyTwoState/2) >> 8
   \   0000005C   ....               LDI     R16, LOW((??m_xDeviceConfigSearch + 76))
   \   0000005E   ....               LDI     R17, HIGH((??m_xDeviceConfigSearch + 76))
   \   00000060   ....               RCALL   ?Subroutine12
   \                     ??CrossCallReturnLabel_4:
   \   00000062   ....               LDI     R16, LOW((?_0 + 18))
   \   00000064   ....               LDI     R17, HIGH((?_0 + 18))
   \   00000066   ....               RCALL   ?Subroutine72
     50          CMultiFunctionKey CPss21::m_xCheckKey(CPlatform::KeyThreeState);
   \                     ??CrossCallReturnLabel_79:
   \   00000068   ....               LDI     R18, LOW(??KeyThreeState/2)
   \   0000006A   ....               LDI     R19, (??KeyThreeState/2) >> 8
   \   0000006C   ....               LDI     R16, LOW((??m_xDeviceConfigSearch + 91))
   \   0000006E   ....               LDI     R17, HIGH((??m_xDeviceConfigSearch + 91))
   \   00000070   ....               RCALL   ?Subroutine12
   \                     ??CrossCallReturnLabel_3:
   \   00000072   ....               LDI     R16, LOW((?_0 + 24))
   \   00000074   ....               LDI     R17, HIGH((?_0 + 24))
   \   00000076   ....               RCALL   ?Subroutine72
     51          CMultiFunctionKey CPss21::m_xExternalKey(CPlatform::ExternalKeyState);
   \                     ??CrossCallReturnLabel_80:
   \   00000078   ....               LDI     R18, LOW(??ExternalKeyState/2)
   \   0000007A   ....               LDI     R19, (??ExternalKeyState/2) >> 8
   \   0000007C   ....               LDI     R16, LOW((??m_xDeviceConfigSearch + 106))
   \   0000007E   ....               LDI     R17, HIGH((??m_xDeviceConfigSearch + 106))
   \   00000080   ....               RCALL   ?Subroutine12
   \                     ??CrossCallReturnLabel_2:
   \   00000082   ....               LDI     R16, LOW((?_0 + 30))
   \   00000084   ....               LDI     R17, HIGH((?_0 + 30))
   \   00000086   ....               RCALL   ?Subroutine72
     52          
     53          uint8_t CPss21::m_uiPanelReceipt;
     54          uint8_t CPss21::m_uiPanelReset;
     55          uint8_t CPss21::m_uiExternalReceipt;
     56          uint8_t CPss21::m_uiExternalReset;
     57          uint8_t CPss21::m_uiModbusReceipt;
     58          uint8_t CPss21::m_uiModbusReset;
     59          uint8_t CPss21::m_uiDiscreteSignalsReceipt;
     60          uint8_t CPss21::m_uiDiscreteSignalsReset;
     61          uint8_t CPss21::m_uiErrorCode;
     62          uint8_t CPss21::m_uiModuleIndex;
     63          CEventUniteLogicAnd CPss21::m_xEventUniteLogicAndOne(500);
   \                     ??CrossCallReturnLabel_81:
   \   00000088   EF24               LDI     R18, 244
   \   0000008A   E031               LDI     R19, 1
   \   0000008C   ....               LDI     R16, LOW((??m_xDeviceConfigSearch + 121))
   \   0000008E   ....               LDI     R17, HIGH((??m_xDeviceConfigSearch + 121))
   \   00000090   ........           CALL    ??CEventUniteLogicAnd
   \   00000094   ....               LDI     R16, LOW((?_0 + 36))
   \   00000096   ....               LDI     R17, HIGH((?_0 + 36))
   \   00000098   ....               RCALL   ?Subroutine72
     64          CTimer CPss21::m_xMainCycleTimer(MAIN_CYCLE_PERIOD_TIME);
   \                     ??CrossCallReturnLabel_82:
   \   0000009A   E624               LDI     R18, 100
   \   0000009C   E030               LDI     R19, 0
   \   0000009E   ....               RCALL   ?Subroutine61
   \                     ??CrossCallReturnLabel_228:
   \   000000A0   ........           CALL    ??CTimer
   \   000000A4   ....               LDI     R16, LOW((?_0 + 42))
   \   000000A6   ....               LDI     R17, HIGH((?_0 + 42))
   \   000000A8   ....               RCALL   ?Subroutine72
     65          //CTimer CPss21::m_xPeripheryTimer(PERIPHERY_SCAN_TIME);
     66          
     67          CPreventiveAlarmWindowNotifyerControl CPss21::m_xPreventiveAlarmWindowNotifyerControl;
   \                     ??CrossCallReturnLabel_83:
   \   000000AA   ....               LDI     R16, LOW((??m_xDeviceConfigSearch + 141))
   \   000000AC   ....               LDI     R17, HIGH((??m_xDeviceConfigSearch + 141))
   \   000000AE   ........           CALL    ??CPreventiveAlarmWindowNotifyerControl
   \   000000B2   ....               LDI     R16, LOW((?_0 + 48))
   \   000000B4   ....               LDI     R17, HIGH((?_0 + 48))
   \   000000B6   ....               RCALL   ?Subroutine72
     68          CEmergencyAlarmWindowNotifyerControl CPss21::m_xEmergencyAlarmWindowNotifyerControl;
   \                     ??CrossCallReturnLabel_84:
   \   000000B8   ....               LDI     R16, LOW((??m_xDeviceConfigSearch + 153))
   \   000000BA   ....               LDI     R17, HIGH((??m_xDeviceConfigSearch + 153))
   \   000000BC   ........           CALL    ??CEmergencyAlarmWindowNotifyerControl
   \   000000C0   ....               LDI     R16, LOW((?_0 + 54))
   \   000000C2   ....               LDI     R17, HIGH((?_0 + 54))
   \   000000C4   ....               RCALL   ?Subroutine72
     69          CStatusLedNotifyerControl CPss21::m_xStatusLedNotifyerControl;
   \                     ??CrossCallReturnLabel_85:
   \   000000C6   ....               LDI     R16, LOW((??m_xDeviceConfigSearch + 165))
   \   000000C8   ....               LDI     R17, HIGH((??m_xDeviceConfigSearch + 165))
   \   000000CA   ........           CALL    ??CStatusLedNotifyerControl
   \   000000CE   ....               LDI     R16, LOW((?_0 + 60))
   \   000000D0   ....               LDI     R17, HIGH((?_0 + 60))
   \   000000D2   ....               RCALL   ?Subroutine72
     70          CBuzzerNotifyerControl CPss21::m_xBuzzerNotifyerControl;
   \                     ??CrossCallReturnLabel_86:
   \   000000D4   ....               LDI     R16, LOW((??m_xDeviceConfigSearch + 177))
   \   000000D6   ....               LDI     R17, HIGH((??m_xDeviceConfigSearch + 177))
   \   000000D8   ........           CALL    ??CBuzzerNotifyerControl
   \   000000DC   ....               LDI     R16, LOW((?_0 + 66))
   \   000000DE   ....               LDI     R17, HIGH((?_0 + 66))
   \   000000E0   ....               RCALL   ?Subroutine72
     71          CModbusRtuLinkControl CPss21::m_xModbusRtuLinkControl;
   \                     ??CrossCallReturnLabel_87:
   \   000000E2   ....               LDI     R16, LOW((??m_xDeviceConfigSearch + 9))
   \   000000E4   ....               LDI     R17, HIGH((??m_xDeviceConfigSearch + 9))
   \   000000E6   ........           CALL    ??CModbusRtuLinkControl
   \   000000EA   ....               LDI     R16, LOW((?_0 + 72))
   \   000000EC   ....               LDI     R17, HIGH((?_0 + 72))
   \   000000EE   ....               RCALL   ?Subroutine72
     72          
     73          uint8_t CPss21::m_uiCommonAlarmType;
     74          uint8_t CPss21::m_uiCommonAlarmTypePrevious;
     75          //CLightBoard CPss21::m_xLightBoard;
     76          TConfigDataPackOne CPss21::m_xDeviceConfigSearch;
     77          TDevConfig CPss21::m_xDeviceConfiguration;
     78          TDeviceState CPss21::m_xDeviceState;
     79          TMBusSetting CPss21::m_xModbusSettings;
     80          CAlarmDfa *CPss21::m_apxAlarmDfa[];
     81          
     82          CErrorAlarmDfa *CPss21::m_apxErrorAlarmDfa[];
     83          uint8_t CPss21::m_auiErrorAlarmDataArray[];
     84          
     85          TDiscreteOutputControl CPss21::m_axDiscreteOutputControl[];
     86          TOutputData CPss21::m_xDiscreteOutputDataBase;
     87          CAlarmWindow CPss21::m_axAlarmWindowControl[];
   \                     ??CrossCallReturnLabel_88:
   \   000000F0   ....               LDI     R22, LOW(??CAlarmWindow/2)
   \   000000F2   ....               LDI     R23, (??CAlarmWindow/2) >> 8
   \   000000F4   ....               RCALL   ?Subroutine16
   \                     ??CrossCallReturnLabel_137:
   \   000000F6   ........           CALL    __near_vec_construct
   \   000000FA   ....               LDI     R16, LOW((?_0 + 78))
   \   000000FC   ....               LDI     R17, HIGH((?_0 + 78))
   \   000000FE                      REQUIRE ?Subroutine72
   \   000000FE                      REQUIRE _A_UBRR1H
   \   000000FE                      REQUIRE _A_UBRR1L
   \   000000FE                      REQUIRE _A_UCSR1A
   \   000000FE                      REQUIRE _A_UCSR1B
   \   000000FE                      REQUIRE _A_UCSR1C
   \   000000FE                      REQUIRE _A_UDR1
   \   000000FE                      REQUIRE _A_DDRC
   \   000000FE                      REQUIRE _A_PORTC
   \   000000FE                      ;               // Fall through to label ?Subroutine72

   \                                 In  segment CODE, align 2, keep-with-next
   \                     `?<Unnamed 0>`:
   \   00000000   ....               RCALL   ?Subroutine18
   \                     ??CrossCallReturnLabel_140:
   \   00000002   ........           JMP     `?~CUart`

   \                                 In  segment CODE, align 2, keep-with-next
   \                     `?<Unnamed 1>`:
   \   00000000   ....               RCALL   ?Subroutine18
   \                     ??CrossCallReturnLabel_141:
   \   00000002   ........           JMP     `?~CModbusRTU`

   \                                 In  segment CODE, align 2, keep-with-next
   \                     ?Subroutine12:
   \   00000000   ........           JMP     ??CMultiFunctionKey

   \                                 In  segment CODE, align 2, keep-with-next
   \                     `?<Unnamed 2>`:
   \   00000000   ....               RCALL   ?Subroutine18
   \                     ??CrossCallReturnLabel_142:
   \   00000002   ........           JMP     `?~CMultiFunctionKey`

   \                                 In  segment CODE, align 2, keep-with-next
   \                     `?<Unnamed 3>`:
   \   00000000   ....               RCALL   ?Subroutine18
   \                     ??CrossCallReturnLabel_143:
   \   00000002   ........           JMP     `?~CEventUniteLogicAnd`

   \                                 In  segment CODE, align 2, keep-with-next
   \                     `?<Unnamed 4>`:
   \   00000000   ....               RCALL   ?Subroutine18
   \                     ??CrossCallReturnLabel_144:
   \   00000002   ........           JMP     `?~CTimer`

   \                                 In  segment CODE, align 2, keep-with-next
   \                     `?<Unnamed 5>`:
   \   00000000   ....               RCALL   ?Subroutine18
   \                     ??CrossCallReturnLabel_145:
   \   00000002   ........           JMP     `?~CPreventiveAlarmWindowNotifyerControl`

   \                                 In  segment CODE, align 2, keep-with-next
   \                     `?<Unnamed 6>`:
   \   00000000   ....               RCALL   ?Subroutine18
   \                     ??CrossCallReturnLabel_146:
   \   00000002   ........           JMP     `?~CEmergencyAlarmWindowNotifyerControl`

   \                                 In  segment CODE, align 2, keep-with-next
   \                     `?<Unnamed 7>`:
   \   00000000   ....               RCALL   ?Subroutine18
   \                     ??CrossCallReturnLabel_147:
   \   00000002   ........           JMP     `?~CStatusLedNotifyerControl`

   \                                 In  segment CODE, align 2, keep-with-next
   \                     `?<Unnamed 8>`:
   \   00000000   ....               RCALL   ?Subroutine18
   \                     ??CrossCallReturnLabel_148:
   \   00000002   ........           JMP     `?~CBuzzerNotifyerControl`

   \                                 In  segment CODE, align 2, keep-with-next
   \                     `?<Unnamed 9>`:
   \   00000000   ....               RCALL   ?Subroutine18
   \                     ??CrossCallReturnLabel_149:
   \   00000002   ........           JMP     `?~CModbusRtuLinkControl`

   \                                 In  segment NEAR_Z, align 1, keep-with-next, root
   \   00000000                      REQUIRE `?<Segment init: NEAR_Z>`
   \                     ??m_xDeviceConfiguration:
   \   00000000                      DS8 20
   \                     ??m_xModbusSettings:
   \   00000014                      DS8 7
   \                     ??m_xDeviceState:
   \   0000001B                      DS8 8
   \                     ??m_aucRtuHoldingRegistersArray:
   \   00000023                      DS8 16
   \                     ??m_aucRtuInputRegistersArray:
   \   00000033                      DS8 16

   \                                 In  segment NEAR_Z, align 1, keep-with-next, root
   \   00000000                      REQUIRE `?<Segment init: NEAR_Z>`
   \                     ??m_aucRtuDiscreteDataArray:
   \   00000000                      DS8 120

   \                                 In  segment NEAR_Z, align 1, keep-with-next, root
   \   00000000                      REQUIRE `?<Segment init: NEAR_Z>`
   \                     ??m_auiReceiveMessageBuff:
   \   00000000                      DS8 256

   \                                 In  segment NEAR_Z, align 1, keep-with-next, root
   \   00000000                      REQUIRE `?<Segment init: NEAR_Z>`
   \                     ??m_auiIntermediateBuff:
   \   00000000                      DS8 256

   \                                 In  segment NEAR_Z, align 1, keep-with-next, root
   \   00000000                      REQUIRE `?<Segment init: NEAR_Z>`
   \                     ??m_auiSpiRxBuffer:
   \   00000000                      DS8 64

   \                                 In  segment NEAR_Z, align 1, keep-with-next, root
   \   00000000                      REQUIRE `?<Segment init: NEAR_Z>`
   \                     ??m_auiSpiTxBuffer:
   \   00000000                      DS8 64

   \                                 In  segment NEAR_Z, align 1, keep-with-next, root
   \   00000000                      REQUIRE `?<Segment init: NEAR_Z>`
   \                     ??m_xDeviceConfigSearch:
   \   00000000                      DS8 9
   \                     ??m_xModbusRtuLinkControl:
   \   00000009                      DS8 11
   \                     ??m_apxDrivers:
   \   00000014                      DS8 6
   \                     ??m_apxErrorAlarmDfa:
   \   0000001A                      DS8 4
   \                     ??m_axDiscreteOutputControl:
   \   0000001E                      DS8 16
   \                     ??m_uiFsmState:
   \   0000002E                      DS8 1
   \                     ??m_uiPanelReceipt:
   \   0000002F                      DS8 1
   \                     ??m_uiPanelReset:
   \   00000030                      DS8 1
   \                     ??m_uiExternalReceipt:
   \   00000031                      DS8 1
   \                     ??m_uiExternalReset:
   \   00000032                      DS8 1
   \                     ??m_uiModbusReceipt:
   \   00000033                      DS8 1
   \                     ??m_uiModbusReset:
   \   00000034                      DS8 1
   \                     ??m_uiDiscreteSignalsReceipt:
   \   00000035                      DS8 1
   \                     ??m_uiDiscreteSignalsReset:
   \   00000036                      DS8 1
   \                     ??m_uiErrorCode:
   \   00000037                      DS8 1
   \                     ??m_uiModuleIndex:
   \   00000038                      DS8 1
   \                     ??m_uiCommonAlarmType:
   \   00000039                      DS8 1
   \                     ??m_uiCommonAlarmTypePrevious:
   \   0000003A                      DS8 1
   \                     ??m_auiErrorAlarmDataArray:
   \   0000003B                      DS8 2
   \                     ??m_xReceiptKey:
   \   0000003D                      DS8 15
   \                     ??m_xResetKey:
   \   0000004C                      DS8 15
   \                     ??m_xCheckKey:
   \   0000005B                      DS8 15
   \                     ??m_xExternalKey:
   \   0000006A                      DS8 15
   \                     ??m_xEventUniteLogicAndOne:
   \   00000079                      DS8 14
   \                     ??m_xMainCycleTimer:
   \   00000087                      DS8 6
   \                     ??m_xPreventiveAlarmWindowNotifyerControl:
   \   0000008D                      DS8 12
   \                     ??m_xEmergencyAlarmWindowNotifyerControl:
   \   00000099                      DS8 12
   \                     ??m_xStatusLedNotifyerControl:
   \   000000A5                      DS8 12
   \                     ??m_xBuzzerNotifyerControl:
   \   000000B1                      DS8 12
   \                     ??m_xDiscreteOutputDataBase:
   \   000000BD                      DS8 24

   \                                 In  segment NEAR_Z, align 1, keep-with-next, root
   \   00000000                      REQUIRE `?<Segment init: NEAR_Z>`
   \                     ??m_uiType:
   \   00000000                      DS8 1

   \                                 In  segment NEAR_Z, align 1, keep-with-next, root
   \   00000000                      REQUIRE `?<Segment init: NEAR_Z>`
   \                     ??m_xUart1:
   \   00000000                      DS8 47

   \                                 In  segment NEAR_Z, align 1, keep-with-next, root
   \   00000000                      REQUIRE `?<Segment init: NEAR_Z>`
   \                     ??m_xModbusRtuOne:
   \   00000000                      DS8 49

   \                                 In  segment NEAR_Z, align 1, keep-with-next, root
   \   00000000                      REQUIRE `?<Segment init: NEAR_Z>`
   \                     ??m_apxAlarmDfa:
   \   00000000                      DS8 192

   \                                 In  segment CODE, align 2, keep-with-next
   \                     `?<Unnamed 11>`:
   \   00000000   ....               RCALL   ?Subroutine18
   \                     ??CrossCallReturnLabel_150:
   \   00000002   ........           JMP     `?~CAlarmWindow`

   \                                 In  segment NEAR_I, align 1, keep-with-next, root
   \   00000000                      REQUIRE `?<Segment init: NEAR_I>`
   \                     ?_0:
   \   00000000                      DS8 6
   \   00000006                      REQUIRE `?<Initializer for >`
   \   00000006                      DS8 6
   \   0000000C                      REQUIRE `?<Initializer for >_1`
   \   0000000C                      DS8 6
   \   00000012                      REQUIRE `?<Initializer for >_2`
   \   00000012                      DS8 6
   \   00000018                      REQUIRE `?<Initializer for >_3`
   \   00000018                      DS8 6
   \   0000001E                      REQUIRE `?<Initializer for >_4`
   \   0000001E                      DS8 6
   \   00000024                      REQUIRE `?<Initializer for >_5`
   \   00000024                      DS8 6
   \   0000002A                      REQUIRE `?<Initializer for >_6`
   \   0000002A                      DS8 6
   \   00000030                      REQUIRE `?<Initializer for >_7`
   \   00000030                      DS8 6
   \   00000036                      REQUIRE `?<Initializer for >_8`
   \   00000036                      DS8 6
   \   0000003C                      REQUIRE `?<Initializer for >_9`
   \   0000003C                      DS8 6
   \   00000042                      REQUIRE `?<Initializer for >_10`
   \   00000042                      DS8 6
   \   00000048                      REQUIRE `?<Initializer for >_11`
   \   00000048                      DS8 6
   \   0000004E                      REQUIRE `?<Initializer for >_12`
   \   0000004E                      DS8 6
   \   00000054                      REQUIRE `?<Initializer for >_13`

   \                                 In  segment NEAR_Z, align 1, keep-with-next, root
   \   00000000                      REQUIRE `?<Segment init: NEAR_Z>`
   \                     ??m_axAlarmWindowControl:
   \   00000000                      DS8 288
     88          

   \                                 In  segment NEAR_F, align 1, keep-with-next, root
     89          __flash uint8_t CPss21::m_auiErrorLedOn[] =
   \                     ??m_auiErrorLedOn:
   \   00000000   010101010101       DC8 1, 1, 1, 1, 1, 1, 1, 1, 1, 0, 0, 0, 0, 0, 0, 1, 1, 0, 0, 0, 0, 0, 0
   \              010100010000
   \              000001000001
   \              0000000000  
   \   00000017   010100000000       DC8 1, 1, 0, 0, 0, 0, 0, 0, 1, 1, 0, 0, 0, 0, 0, 0, 1, 1, 1, 1, 1, 1, 1
   \              000001010000
   \              000000000101
   \              0101010101  
   \   0000002E   0101               DC8 1, 1
     90          {
     91              1, 1, 1, 1,    1, 1, 1, 1,
     92              1, 0, 0, 0,    0, 0, 0, 1,
     93              1, 0, 0, 0,    0, 0, 0, 1,
     94              1, 0, 0, 0,    0, 0, 0, 1,
     95              1, 0, 0, 0,    0, 0, 0, 1,
     96              1, 1, 1, 1,    1, 1, 1, 1,
     97          };
     98          
     99          ////-----------------------------------------------------------------------------------------------------
    100          //CPss21::CPss21(uint8_t uiType, CDriver* pxDriver)// :
    101          ////    m_uiType(uiType),
    102          ////    m_pxDriver(pxDriver)
    103          //{
    104          //
    105          //}
    106          //
    107          ////-----------------------------------------------------------------------------------------------------
    108          //CPss21::~CPss21()
    109          //{
    110          //
    111          //}
    112          
    113          //-----------------------------------------------------------------------------------------------------

   \                                 In  segment CODE, align 2, keep-with-next
    114          void CPss21::ModbusInit(void)
   \                     ??ModbusInit:
    115          {
   \   00000000   93BA               ST      -Y, R27
   \   00000002   93AA               ST      -Y, R26
    116              CPlatform::m_pxUart1 = &m_xUart1;
   \   00000004   ....               LDI     R16, LOW(??m_xUart1)
   \   00000006   ....               LDI     R17, (??m_xUart1) >> 8
   \   00000008   ....               LDI     R30, LOW(??m_pxUart1)
   \   0000000A   ....               LDI     R31, (??m_pxUart1) >> 8
   \   0000000C   8300               ST      Z, R16
   \   0000000E   8311               STD     Z+1, R17
    117              m_xModbusRtuOne.Init(CPlatform::m_pxUart1,
    118                                   static_cast<uint32_t>((F_CPU / ((CPss21::m_xModbusSettings.BaudRate) + 1)) / 16UL),
    119                                   'N',
    120                                   8,
    121                                   1,
    122                                   CPss21::m_auiReceiveMessageBuff,
    123                                   CPss21::m_auiReceiveMessageBuff,//reinterpret_cast<uint8_t*>(CPss21::m_aucRtuHoldingRegistersArray),//m_auiTransmitMessageBuff,//
    124                                   CPss21::m_aucRtuDiscreteDataArray,//CPss21::m_aucRtuCoilsArray,
    125                                   CPss21::m_aucRtuDiscreteDataArray,//CPss21::m_aucRtuDiscreteInputsArray,
    126                                   CPss21::m_aucRtuHoldingRegistersArray,
    127                                   CPss21::m_aucRtuInputRegistersArray,
    128                                   DISCRETE_DATA_ARRAY_LENGTH,
    129                                   DISCRETE_DATA_ARRAY_LENGTH,
    130                                   HOLDING_REGISTERS_ARRAY_LENGTH,
    131                                   INPUT_REGISTERS_ARRAY_LENGTH);
   \   00000010   E008               LDI     R16, 8
   \   00000012   E010               LDI     R17, 0
   \   00000014   ....               RCALL   ?Subroutine2
   \                     ??CrossCallReturnLabel_96:
   \   00000016   E708               LDI     R16, 120
   \   00000018   ....               RCALL   ?Subroutine2
   \                     ??CrossCallReturnLabel_97:
   \   0000001A   ....               LDI     R16, LOW((??m_xDeviceConfiguration + 51))
   \   0000001C   ....               LDI     R17, HIGH((??m_xDeviceConfiguration + 51))
   \   0000001E   ....               RCALL   ?Subroutine75
   \                     ??CrossCallReturnLabel_94:
   \   00000020   ....               LDI     R16, LOW((??m_xDeviceConfiguration + 35))
   \   00000022   ....               LDI     R17, HIGH((??m_xDeviceConfiguration + 35))
   \   00000024   ....               RCALL   ?Subroutine75
   \                     ??CrossCallReturnLabel_95:
   \   00000026   ....               LDI     R16, LOW(??m_aucRtuDiscreteDataArray)
   \   00000028   ....               LDI     R17, (??m_aucRtuDiscreteDataArray) >> 8
   \   0000002A   ....               RCALL   ?Subroutine2
   \                     ??CrossCallReturnLabel_98:
   \   0000002C   ....               LDI     R16, LOW(??m_auiReceiveMessageBuff)
   \   0000002E   ....               LDI     R17, (??m_auiReceiveMessageBuff) >> 8
   \   00000030   ....               RCALL   ?Subroutine2
   \                     ??CrossCallReturnLabel_99:
   \   00000032   E001               LDI     R16, 1
   \   00000034   930A               ST      -Y, R16
   \   00000036   E008               LDI     R16, 8
   \   00000038   930A               ST      -Y, R16
   \   0000003A   E40E               LDI     R16, 78
   \   0000003C   930A               ST      -Y, R16
   \   0000003E   9140....           LDS     R20, (??m_xDeviceConfiguration + 21)
   \   00000042   E050               LDI     R21, 0
   \   00000044   5F4F               SUBI    R20, 255
   \   00000046   4F5F               SBCI    R21, 255
   \   00000048   2F65               MOV     R22, R21
   \   0000004A   0F66               LSL     R22
   \   0000004C   0B66               SBC     R22, R22
   \   0000004E   2F76               MOV     R23, R22
   \   00000050   E000               LDI     R16, 0
   \   00000052   E810               LDI     R17, 128
   \   00000054   E720               LDI     R18, 112
   \   00000056   E030               LDI     R19, 0
   \   00000058   ........           CALL    ?UL_DIVMOD_L03
   \   0000005C   E044               LDI     R20, 4
   \   0000005E   ........           CALL    ?UL_SHR_L03
   \   00000062   01A8               MOVW    R21:R20, R17:R16
   \   00000064   01B9               MOVW    R23:R22, R19:R18
   \   00000066   ....               LDI     R18, LOW(??m_xUart1)
   \   00000068   ....               LDI     R19, (??m_xUart1) >> 8
   \   0000006A   ....               LDI     R16, LOW(??m_xModbusRtuOne)
   \   0000006C   ....               LDI     R17, (??m_xModbusRtuOne) >> 8
   \   0000006E   ........           CALL    ??Init_1
    132              m_xModbusRtuOne.SlaveSet(CPss21::m_xModbusSettings.NetAddress);
   \   00000072   9120....           LDS     R18, (??m_xDeviceConfiguration + 20)
   \   00000076   ....               LDI     R30, LOW(??m_xModbusRtuOne)
   \   00000078   ....               LDI     R31, (??m_xModbusRtuOne) >> 8
   \   0000007A   8505               LDD     R16, Z+13
   \   0000007C   8516               LDD     R17, Z+14
   \   0000007E   ........           CALL    ??SlaveSet
    133              m_xModbusRtuOne.SetFsmState(CModbus::START_REQUEST);
   \   00000082   ....               LDI     R26, LOW((??m_xModbusRtuOne + 13))
   \   00000084   ....               LDI     R27, HIGH((??m_xModbusRtuOne + 13))
   \   00000086   ....               RCALL   ??Subroutine94_0
   \                     ??CrossCallReturnLabel_157:
   \   00000088   E002               LDI     R16, 2
   \   0000008A   8300               ST      Z, R16
    134          }
   \   0000008C                      REQUIRE ?Subroutine74
   \   0000008C                      ;               // Fall through to label ?Subroutine74

   \                                 In  segment CODE, align 2, keep-with-next
   \                     ?Subroutine74:
   \   00000000   91A9               LD      R26, Y+
   \   00000002   91B9               LD      R27, Y+
   \   00000004   9508               RET

   \                                 In  segment CODE, align 2, keep-with-next
   \                     ?Subroutine75:
   \   00000000   931A               ST      -Y, R17
   \   00000002   930A               ST      -Y, R16
   \   00000004   9508               RET

   \                                 In  segment CODE, align 2, keep-with-next
   \                     ?Subroutine2:
   \   00000000   931A               ST      -Y, R17
   \   00000002   930A               ST      -Y, R16
   \   00000004   ....               RJMP    ?Subroutine75
    135          
    136          //-----------------------------------------------------------------------------------------------------

   \                                 In  segment CODE, align 2, keep-with-next
    137          void CPss21::ModbusDefaultInit(void)
   \                     ??ModbusDefaultInit:
    138          {
    139              CPss21::m_xModbusSettings.NetAddress = 1;
   \   00000000   ....               LDI     R30, LOW(??m_xDeviceConfiguration)
   \   00000002   ....               LDI     R31, (??m_xDeviceConfiguration) >> 8
   \   00000004   E001               LDI     R16, 1
   \   00000006   8B04               STD     Z+20, R16
    140              // 9600 baud.
    141              CPss21::m_xModbusSettings.BaudRate = 47;
   \   00000008   E20F               LDI     R16, 47
   \   0000000A   8B05               STD     Z+21, R16
    142              // Два стоп бита.
    143              CPss21::m_xModbusSettings.LinkParam = 0x08;
   \   0000000C   E008               LDI     R16, 8
   \   0000000E   8B06               STD     Z+22, R16
    144          
    145              ModbusInit();
   \   00000010   ....               RJMP    ??ModbusInit
    146          }
    147          
    148          //-----------------------------------------------------------------------------------------------------

   \                                 In  segment CODE, align 2, keep-with-next
   \                     ?Subroutine78:
   \   00000000   E030               LDI     R19, 0
   \   00000002   9508               RET

   \                                 In  segment CODE, align 2, keep-with-next
   \                     ?Subroutine73:
   \   00000000   ....               LDI     R16, LOW(??m_axAlarmWindowControl)
   \   00000002   ....               LDI     R17, (??m_axAlarmWindowControl) >> 8
   \   00000004   9508               RET

   \                                 In  segment CODE, align 2, keep-with-next
    149          void CPss21::Init(void)
   \                     ??Init:
    150          {
    151              CLightBoard::Init(m_axAlarmWindowControl);
   \   00000000   ....               RCALL   ?Subroutine73
   \                     ??CrossCallReturnLabel_136:
   \   00000002   ........           CALL    ??Init_2
    152              m_uiCommonAlarmType = NORMAL;
   \   00000006   ....               RCALL   ?Subroutine65
   \                     ??CrossCallReturnLabel_58:
   \   00000008   E000               LDI     R16, 0
   \   0000000A   AF01               STD     Z+57, R16
    153              m_uiCommonAlarmTypePrevious = NORMAL;
   \   0000000C   AF02               STD     Z+58, R16
    154              SetErrorCode(0);
   \   0000000E   AB07               STD     Z+55, R16
    155              // Сбросим все ошибки.
    156              memset(CPss21::m_auiErrorAlarmDataArray, 0, HANDLED_ERROR_NUMBER);
   \   00000010   E042               LDI     R20, 2
   \   00000012   ....               RCALL   ?Subroutine4
   \                     ??CrossCallReturnLabel_153:
   \   00000014   ....               LDI     R16, LOW((??m_xDeviceConfigSearch + 59))
   \   00000016   ....               LDI     R17, HIGH((??m_xDeviceConfigSearch + 59))
   \   00000018                      REQUIRE ?Subroutine85
   \   00000018                      ;               // Fall through to label ?Subroutine85
    157          }

   \                                 In  segment CODE, align 2, keep-with-next
   \                     ?Subroutine85:
   \   00000000   ........           JMP     memset

   \                                 In  segment CODE, align 2, keep-with-next
   \                     ?Subroutine4:
   \   00000000   E050               LDI     R21, 0
   \   00000002                      REQUIRE ??Subroutine93_0
   \   00000002                      ;               // Fall through to label ??Subroutine93_0

   \                                 In  segment CODE, align 2, keep-with-next
   \                     ??Subroutine93_0:
   \   00000000   E020               LDI     R18, 0
   \   00000002   ....               RJMP    ?Subroutine78

   \                                 In  segment CODE, align 2, keep-with-next
   \                     ?Subroutine65:
   \   00000000   ....               LDI     R30, LOW(??m_xDeviceConfigSearch)
   \   00000002   ....               LDI     R31, (??m_xDeviceConfigSearch) >> 8
   \   00000004   9508               RET
    158          
    159          //-----------------------------------------------------------------------------------------------------

   \                                 In  segment CODE, align 2, keep-with-next
    160          void CPss21::AddressBusInit(void)
   \                     ??AddressBusInit:
    161          {
    162              CPlatform::SpiSlaveSelectAddress0SetPinOutput();
   \   00000000   9A8F               SBI     0x11, 0x07
    163              CPlatform::SpiSlaveSelectAddress1SetPinOutput();
   \   00000002   9A8E               SBI     0x11, 0x06
    164              CPlatform::SpiSlaveSelectAddress2SetPinOutput();
   \   00000004   9A8D               SBI     0x11, 0x05
    165              CPlatform::SpiSlaveSelectAddress3SetPinOutput();
   \   00000006   9A8C               SBI     0x11, 0x04
    166              CPlatform::SpiSlaveSelectEnableSetPinOutput();
   \   00000008   9A89               SBI     0x11, 0x01
    167              CPlatform::SpiSlaveSelectAddress0On();
   \   0000000A   9A97               SBI     0x12, 0x07
    168              CPlatform::SpiSlaveSelectAddress1On();
   \   0000000C   9A96               SBI     0x12, 0x06
    169              CPlatform::SpiSlaveSelectAddress2On();
   \   0000000E   9A95               SBI     0x12, 0x05
    170              CPlatform::SpiSlaveSelectAddress3On();
   \   00000010   9A94               SBI     0x12, 0x04
    171              CPlatform::SpiSlaveSelectEnableOff();
   \   00000012   9891               CBI     0x12, 0x01
    172          };
   \   00000014   9508               RET
   \   00000016                      REQUIRE _A_DDRD
   \   00000016                      REQUIRE _A_PORTD
    173          
    174          //-----------------------------------------------------------------------------------------------------

   \                                 In  segment CODE, align 2, keep-with-next
    175          void CPss21::ConnectDevice(uint8_t uiAddress)
   \                     ??ConnectDevice:
    176          {
    177              uiAddress &= 0x0F;
    178          
    179              if (uiAddress &  BIT(0))
   \   00000000   FB00               BST     R16, 0
   \   00000002   F416               BRTC    ??ConnectDevice_1
    180              {
    181                  CPlatform::SpiSlaveSelectAddress0Off();
   \   00000004   9897               CBI     0x12, 0x07
    182              }
   \   00000006   C001               RJMP    ??ConnectDevice_2
    183              else
    184              {
    185                  CPlatform::SpiSlaveSelectAddress0On();
   \                     ??ConnectDevice_1:
   \   00000008   9A97               SBI     0x12, 0x07
    186              }
    187              if (uiAddress &  BIT(1))
   \                     ??ConnectDevice_2:
   \   0000000A   FB01               BST     R16, 1
   \   0000000C   F416               BRTC    ??ConnectDevice_3
    188              {
    189                  CPlatform::SpiSlaveSelectAddress1Off();
   \   0000000E   9896               CBI     0x12, 0x06
    190              }
   \   00000010   C001               RJMP    ??ConnectDevice_4
    191              else
    192              {
    193                  CPlatform::SpiSlaveSelectAddress1On();
   \                     ??ConnectDevice_3:
   \   00000012   9A96               SBI     0x12, 0x06
    194              }
    195              if (uiAddress &  BIT(2))
   \                     ??ConnectDevice_4:
   \   00000014   FB02               BST     R16, 2
   \   00000016   F416               BRTC    ??ConnectDevice_5
    196              {
    197                  CPlatform::SpiSlaveSelectAddress2Off();
   \   00000018   9895               CBI     0x12, 0x05
    198              }
   \   0000001A   C001               RJMP    ??ConnectDevice_6
    199              else
    200              {
    201                  CPlatform::SpiSlaveSelectAddress2On();
   \                     ??ConnectDevice_5:
   \   0000001C   9A95               SBI     0x12, 0x05
    202              }
    203              if (uiAddress &  BIT(3))
   \                     ??ConnectDevice_6:
   \   0000001E   FB03               BST     R16, 3
   \   00000020   F416               BRTC    ??ConnectDevice_7
    204              {
    205                  CPlatform::SpiSlaveSelectAddress3Off();
   \   00000022   9894               CBI     0x12, 0x04
    206              }
   \   00000024   C001               RJMP    ??ConnectDevice_8
    207              else
    208              {
    209                  CPlatform::SpiSlaveSelectAddress3On();
   \                     ??ConnectDevice_7:
   \   00000026   9A94               SBI     0x12, 0x04
    210              }
    211          
    212              CPlatform::SpiSlaveSelectEnableOn();
   \                     ??ConnectDevice_8:
   \   00000028   9A91               SBI     0x12, 0x01
    213              CSpi::Enable();
   \   0000002A   ........           JMP     ??Enable
   \   0000002E                      REQUIRE _A_PORTD
    214          };
    215          
    216          //-----------------------------------------------------------------------------------------------------

   \                                 In  segment CODE, align 2, keep-with-next
    217          void CPss21::DisconnectDevice(void)
   \                     ??DisconnectDevice:
    218          {
    219              CSpi::Disable();
   \   00000000   ........           CALL    ??Disable
    220              CPlatform::SpiSlaveSelectEnableOff();
   \   00000004   9891               CBI     0x12, 0x01
    221              CPlatform::SpiSlaveSelectAddress0Off();
   \   00000006   9897               CBI     0x12, 0x07
    222              CPlatform::SpiSlaveSelectAddress1Off();
   \   00000008   9896               CBI     0x12, 0x06
    223              CPlatform::SpiSlaveSelectAddress2Off();
   \   0000000A   9895               CBI     0x12, 0x05
    224              CPlatform::SpiSlaveSelectAddress3Off();
   \   0000000C   9894               CBI     0x12, 0x04
    225          };
   \   0000000E   9508               RET
   \   00000010                      REQUIRE _A_PORTD
    226          
    227          //-----------------------------------------------------------------------------------------------------

   \                                 In  segment CODE, align 2, keep-with-next
   \                     ?Subroutine18:
   \   00000000   E022               LDI     R18, 2
   \   00000002                      REQUIRE ?Subroutine78
   \   00000002                      ;               // Fall through to label ?Subroutine78

   \                                 In  segment CODE, align 2, keep-with-next
    228          void CPss21::SearchModules(void)
   \                     ??SearchModules:
    229          {
   \   00000000   ........           CALL    ?PROLOGUE5_L09
   \   00000004                      REQUIRE ?Register_R4_is_cg_reg
    230              delay_ms(500);
   \   00000004   EF04               LDI     R16, 244
   \   00000006   E011               LDI     R17, 1
   \   00000008   ........           CALL    ??delay_ms
    231              CPlatform::WatchdogReset();
   \   0000000C   95A8               WDR
    232          
    233              memset(reinterpret_cast<uint8_t*>(&m_xDeviceConfigSearch),
    234                     0,
    235                     sizeof(struct TConfigDataPackOne));
   \   0000000E   E049               LDI     R20, 9
   \   00000010   ....               RCALL   ?Subroutine4
   \                     ??CrossCallReturnLabel_154:
   \   00000012   ....               LDI     R16, LOW(??m_xDeviceConfigSearch)
   \   00000014   ....               LDI     R17, (??m_xDeviceConfigSearch) >> 8
   \   00000016   ....               RCALL   ?Subroutine85
    236          
    237              // опросим интерфейс SPI. какие модули присутствуют?
    238              for (uint8_t i = 0; i < SPI_MAX_BUS_ADDRESS; i++)
   \                     ??CrossCallReturnLabel_122:
   \   00000018   E080               LDI     R24, 0
   \   0000001A   E190               LDI     R25, 16
   \   0000001C   ....               LDI     R26, LOW(??m_xDeviceConfigSearch)
   \   0000001E   ....               LDI     R27, (??m_xDeviceConfigSearch) >> 8
    239              {
    240                  // если модуль не ответил MODULE_REQUEST_QUANTITY раз,
    241                  // то его нет или он неисправен.
    242                  for (uint8_t j = 0; j < MODULE_REQUEST_QUANTITY; j++)
   \                     ??SearchModules_1:
   \   00000020   E005               LDI     R16, 5
   \   00000022   2E40               MOV     R4, R16
    243                  {
    244                      CPlatform::WatchdogReset();
   \                     ??SearchModules_2:
   \   00000024   95A8               WDR
    245                      delay_ms(5);
    246          
    247                      m_auiSpiTxBuffer[0] = GET_MODULE_TYPE_COMMAND;
    248                      ConnectDevice(i);
    249                      delay_us(500);
    250                      CSpi::Exchange(m_auiSpiRxBuffer,
    251                                     m_auiSpiTxBuffer,
    252                                     GET_MODULE_TYPE_REQUEST_LENGTH);
    253                      DisconnectDevice();
    254          
    255                      // модуль отвечает?
    256                      if (m_auiSpiRxBuffer[SPI_COMMAND_BYTE_OFFSET] ==
    257                              GET_MODULE_TYPE_COMMAND)
    258                      {
    259                          // обмен данными прошёл без ошибок?
    260                          if (iCrcSummOneByteCompare(&m_auiSpiRxBuffer[SPI_COMMAND_BYTE_OFFSET], 2))
    261                          {
    262                              // сохраним тип модуля в массиве для упорядочивания следования модулей при поиске на SPI.
    263                              m_xDeviceConfigSearch.axModulesContext[m_xDeviceConfigSearch.uiModulesQuantity].uiType =
    264                                  m_auiSpiRxBuffer[MODULE_TYPE_OFFSET];
    265                              // сохраним адрес модуля в массиве для упорядочивания следования модулей при поиске на SPI.
    266                              m_xDeviceConfigSearch.axModulesContext[m_xDeviceConfigSearch.uiModulesQuantity].uiAddress = i;
    267                              // модуль присутствует. увеличим значение переменной -
    268                              // фактическое количество модулей в системе.
    269                              (m_xDeviceConfigSearch.uiModulesQuantity)++;
    270          
    271                              if (m_xDeviceConfigSearch.uiModulesQuantity >=
    272                                      INTERNAL_MODULE_QUANTITY)
    273                              {
    274                                  return;
    275                              }
    276                              // перейдём к опросу следующего адреса.
    277                              break;
    278                          }
    279                      }
    280                  }
    281              }
   \   00000026   E005               LDI     R16, 5
   \   00000028   E010               LDI     R17, 0
   \   0000002A   ........           CALL    ??delay_ms
   \   0000002E   E901               LDI     R16, 145
   \   00000030   9300....           STS     ??m_auiSpiTxBuffer, R16
   \   00000034   2F08               MOV     R16, R24
   \   00000036   ....               RCALL   ?Subroutine35
   \                     ??CrossCallReturnLabel_25:
   \   00000038   E044               LDI     R20, 4
   \   0000003A   ....               RCALL   ?Subroutine19
   \                     ??CrossCallReturnLabel_9:
   \   0000003C   9100....           LDS     R16, (??m_auiSpiRxBuffer + 1)
   \   00000040   3901               CPI     R16, 145
   \   00000042   F4F1               BRNE    ??SearchModules_3
   \   00000044   ....               RCALL   ?Subroutine18
   \                     ??CrossCallReturnLabel_151:
   \   00000046   ....               LDI     R16, LOW((??m_auiSpiRxBuffer + 1))
   \   00000048   ....               LDI     R17, HIGH((??m_auiSpiRxBuffer + 1))
   \   0000004A   ........           CALL    ??iCrcSummOneByteCompare
   \   0000004E   2B01               OR      R16, R17
   \   00000050   F0B9               BREQ    ??SearchModules_3
   \   00000052   9100....           LDS     R16, (??m_auiSpiRxBuffer + 2)
   \   00000056   9110....           LDS     R17, ??m_xDeviceConfigSearch
   \   0000005A   E022               LDI     R18, 2
   \   0000005C   9F12               MUL     R17, R18
   \   0000005E   01FD               MOVW    R31:R30, R27:R26
   \   00000060   0DE0               ADD     R30, R0
   \   00000062   1DF1               ADC     R31, R1
   \   00000064   8301               STD     Z+1, R16
   \   00000066   9100....           LDS     R16, ??m_xDeviceConfigSearch
   \   0000006A   9F02               MUL     R16, R18
   \   0000006C   01FD               MOVW    R31:R30, R27:R26
   \   0000006E   0DE0               ADD     R30, R0
   \   00000070   1DF1               ADC     R31, R1
   \   00000072   8382               STD     Z+2, R24
   \   00000074   910C               LD      R16, X
   \   00000076   9503               INC     R16
   \   00000078   930C               ST      X, R16
   \   0000007A   3003               CPI     R16, 3
   \   0000007C   F018               BRCS    ??SearchModules_4
   \   0000007E   C018               RJMP    ??SearchModules_5
   \                     ??SearchModules_3:
   \   00000080   944A               DEC     R4
   \   00000082   F681               BRNE    ??SearchModules_2
   \                     ??SearchModules_4:
   \   00000084   9583               INC     R24
   \   00000086   959A               DEC     R25
   \   00000088   F659               BRNE    ??SearchModules_1
    282          
    283              if(m_xDeviceConfiguration.FixConfig)
   \   0000008A   9100....           LDS     R16, (??m_xDeviceConfiguration + 3)
   \   0000008E   FF00               SBRS    R16, 0
   \   00000090   C00F               RJMP    ??SearchModules_5
    284              {
    285                  // Предыдущая сохранённая и текущая конфигурации не совпадают?
    286                  if((m_xDeviceConfiguration.ICount != m_xDeviceConfigSearch.uiDiscreteInputQuantity) ||
    287                          (m_xDeviceConfiguration.OCount != m_xDeviceConfigSearch.uiDiscreteOutputQuantity))
   \   00000092   9100....           LDS     R16, ??m_xDeviceConfiguration
   \   00000096   9110....           LDS     R17, (??m_xDeviceConfigSearch + 8)
   \   0000009A   1701               CP      R16, R17
   \   0000009C   F431               BRNE    ??SearchModules_6
   \   0000009E   9100....           LDS     R16, (??m_xDeviceConfiguration + 1)
   \   000000A2   9110....           LDS     R17, (??m_xDeviceConfigSearch + 7)
   \   000000A6   1701               CP      R16, R17
   \   000000A8   F019               BREQ    ??SearchModules_5
    288                  {
    289                      SetErrorCode(CFG_ERROR);
   \                     ??SearchModules_6:
   \   000000AA   E003               LDI     R16, 3
   \   000000AC   9300....           STS     (??m_xDeviceConfigSearch + 55), R16
    290                  }
    291              }
    292          };
   \                     ??SearchModules_5:
   \   000000B0                      REQUIRE ?Subroutine86
   \   000000B0                      ;               // Fall through to label ?Subroutine86

   \                                 In  segment CODE, align 2, keep-with-next
   \                     ?Subroutine86:
   \   00000000   E0E5               LDI     R30, 5
   \   00000002   ........           JMP     ?EPILOGUE_B5_L09

   \                                 In  segment CODE, align 2, keep-with-next
   \                     ?Subroutine35:
   \   00000000   ....               RCALL   ??ConnectDevice
   \   00000002   E60A               LDI     R16, 106
   \   00000004   E013               LDI     R17, 3
   \   00000006   5001               SUBI    R16, 1
   \   00000008   4010               SBCI    R17, 0
   \   0000000A   F7E9               BRNE    $-4
   \   0000000C   C000               RJMP    $+2
   \   0000000E   0000               NOP
   \   00000010   9508               RET

   \                                 In  segment CODE, align 2, keep-with-next
   \                     ?Subroutine19:
   \   00000000   E050               LDI     R21, 0
   \   00000002   ....               LDI     R18, LOW(??m_auiSpiTxBuffer)
   \   00000004   ....               LDI     R19, (??m_auiSpiTxBuffer) >> 8
   \   00000006   ....               LDI     R16, LOW(??m_auiSpiRxBuffer)
   \   00000008   ....               LDI     R17, (??m_auiSpiRxBuffer) >> 8
   \   0000000A   ........           CALL    ??Exchange
   \   0000000E   ....               RJMP    ??DisconnectDevice
    293          
    294          //-----------------------------------------------------------------------------------------------------

   \                                 In  segment CODE, align 2, keep-with-next
    295          void CPss21::InitAllocationContext(TMemoryAllocationConext &xMemoryAllocationConext)
   \                     ??InitAllocationContext:
    296          {
    297              // Подготовим к отправке текущие адреса объектов системы используемых драйверами устройств.
    298          
    299              xMemoryAllocationConext.puiRxBuffer = m_auiSpiRxBuffer;
   \   00000000   ....               LDI     R18, LOW(??m_auiSpiRxBuffer)
   \   00000002   ....               LDI     R19, (??m_auiSpiRxBuffer) >> 8
   \   00000004   01F8               MOVW    R31:R30, R17:R16
   \   00000006   8321               STD     Z+1, R18
   \   00000008   8332               STD     Z+2, R19
    300              xMemoryAllocationConext.puiTxBuffer = m_auiSpiTxBuffer;
   \   0000000A   ....               LDI     R18, LOW(??m_auiSpiTxBuffer)
   \   0000000C   ....               LDI     R19, (??m_auiSpiTxBuffer) >> 8
   \   0000000E   8323               STD     Z+3, R18
   \   00000010   8334               STD     Z+4, R19
    301              xMemoryAllocationConext.puiErrorCode = &m_uiErrorCode;
   \   00000012   ....               LDI     R18, LOW((??m_xDeviceConfigSearch + 55))
   \   00000014   ....               LDI     R19, HIGH((??m_xDeviceConfigSearch + 55))
   \   00000016   8325               STD     Z+5, R18
   \   00000018   8336               STD     Z+6, R19
    302          
    303              // Обнулим общий объём выделенной памяти.
    304              xMemoryAllocationConext.uiUsedDiscreteInputs = 0;
   \   0000001A   E020               LDI     R18, 0
   \   0000001C   8721               STD     Z+9, R18
    305              // Подключим буфер для хранения состояний дискретных входов.
    306              xMemoryAllocationConext.puiDiscreteInputs =
    307                  &m_aucRtuDiscreteDataArray[DISCRETE_INPUTS_BIT_ARRAY_OFFSET];
   \   0000001E   ....               LDI     R18, LOW((??m_aucRtuDiscreteDataArray + 16))
   \   00000020   ....               LDI     R19, HIGH((??m_aucRtuDiscreteDataArray + 16))
   \   00000022   8327               STD     Z+7, R18
   \   00000024   8730               STD     Z+8, R19
    308          
    309              // Обнулим общий объём выделенной памяти.
    310              xMemoryAllocationConext.uiUsedDiscreteOutputState = 0;
   \   00000026   E020               LDI     R18, 0
   \   00000028   8724               STD     Z+12, R18
    311              // Подключим буфер для хранения состояний дискретных выходов.
    312              xMemoryAllocationConext.puiDiscreteOutputState =
    313                  &m_aucRtuDiscreteDataArray[DISCRETE_OUTPUT_BIT_ARRAY_OFFSET];
   \   0000002A   ....               LDI     R18, LOW((??m_aucRtuDiscreteDataArray + 112))
   \   0000002C   ....               LDI     R19, HIGH((??m_aucRtuDiscreteDataArray + 112))
   \   0000002E   8722               STD     Z+10, R18
   \   00000030   8733               STD     Z+11, R19
    314          
    315              // Обнулим общий объём выделенной памяти.
    316              xMemoryAllocationConext.uiUsedDiscreteOutputs = 0;
   \   00000032   E020               LDI     R18, 0
   \   00000034   8727               STD     Z+15, R18
    317              // Подключим буфер для управления дискретными выходами.
    318              xMemoryAllocationConext.pxDiscreteOutputControl = m_axDiscreteOutputControl;
   \   00000036   ....               LDI     R18, LOW((??m_xDeviceConfigSearch + 30))
   \   00000038   ....               LDI     R19, HIGH((??m_xDeviceConfigSearch + 30))
   \   0000003A   8725               STD     Z+13, R18
   \   0000003C   8736               STD     Z+14, R19
    319          
    320              // Обнулим общий объём выделенной памяти.
    321              xMemoryAllocationConext.uiUsedDiscreteOutputDataBase = 0;
   \   0000003E   E020               LDI     R18, 0
   \   00000040   8B22               STD     Z+18, R18
    322              // Подключим буфер с базой данных модулей дискретных выходов.
    323              xMemoryAllocationConext.pxDiscreteOutputDataBase = &m_xDiscreteOutputDataBase;
   \   00000042   ....               LDI     R18, LOW((??m_xDeviceConfigSearch + 189))
   \   00000044   ....               LDI     R19, HIGH((??m_xDeviceConfigSearch + 189))
   \   00000046   8B20               STD     Z+16, R18
   \   00000048   8B31               STD     Z+17, R19
    324          
    325              // Обнулим общий объём выделенной памяти.
    326              xMemoryAllocationConext.uiUsedErrorAlarmDataArray = 0;
   \   0000004A   E020               LDI     R18, 0
   \   0000004C   8B25               STD     Z+21, R18
    327              // Подключим буфер для хранения состояний ошибок.
    328              xMemoryAllocationConext.puiErrorAlarmDataArray = m_auiErrorAlarmDataArray;
   \   0000004E   ....               LDI     R18, LOW((??m_xDeviceConfigSearch + 59))
   \   00000050   ....               LDI     R19, HIGH((??m_xDeviceConfigSearch + 59))
   \   00000052   8B23               STD     Z+19, R18
   \   00000054   8B34               STD     Z+20, R19
    329          };
   \   00000056   9508               RET
    330          
    331          //-----------------------------------------------------------------------------------------------------

   \                                 In  segment CODE, align 2, keep-with-next
    332          void CPss21::CreateDevices(void)
   \                     ??CreateDevices:
    333          {
   \   00000000   ........           CALL    ?PROLOGUE5_L09
   \   00000004                      REQUIRE ?Register_R4_is_cg_reg
   \   00000004   9766               SBIW    R29:R28, 22
    334              TMemoryAllocationConext xMemoryAllocationConext;
    335              InitAllocationContext(xMemoryAllocationConext);
   \   00000006   018E               MOVW    R17:R16, R29:R28
   \   00000008   ....               RCALL   ??InitAllocationContext
    336          
    337              for (uint8_t i = 0;
   \   0000000A   2444               CLR     R4
   \   0000000C   C00B               RJMP    ??CreateDevices_1
    338                      i < (m_xDeviceConfigSearch.uiModulesQuantity);
    339                      i++)
    340              {
    341                  CPlatform::WatchdogReset();
    342          
    343                  uint8_t uiType = m_xDeviceConfigSearch.axModulesContext[i].uiType;
    344                  switch (uiType)
    345                  {
    346                  case MODULE_TYPE_MVSN:
    347          //        case MODULE_TYPE_MVDI:
    348          //        case MODULE_TYPE_MVDS9:
    349                      if (m_xDeviceConfigSearch.uiDiscreteInputQuantity <
    350                              DISCRETE_INPUT_MODULE_MAX_NUMBER)
    351                      {
    352          //            m_apxDevices[i] = new CMvsn21;
    353          //            m_apxDevices[i] -> m_pxDriver = new CMvsn21Driver(uiType);
    354                          m_apxDrivers[i] = new CMvsn21Driver(uiType);
    355                          xMemoryAllocationConext.uiAddress = m_xDeviceConfigSearch.axModulesContext[i].uiAddress;
    356          //            m_apxDevices[i] -> m_pxDriver -> Allocate(xMemoryAllocationConext);
    357                          m_apxDrivers[i] -> Allocate(xMemoryAllocationConext);
    358                          m_xDeviceConfigSearch.uiDiscreteInputQuantity += 1;
    359                      }
    360                      break;
    361          
    362                  case MODULE_TYPE_MVDO5:
    363                      break;
    364          
    365                  case MODULE_TYPE_MR53:
    366                  case MODULE_TYPE_MR54:
    367                      if (m_xDeviceConfigSearch.uiDiscreteOutputQuantity <
    368                              DISCRETE_OUTPUT_MODULE_MAX_NUMBER)
   \                     ??CreateDevices_2:
   \   0000000E   9110....           LDS     R17, (??m_xDeviceConfigSearch + 7)
   \   00000012   2311               TST     R17
   \   00000014   F431               BRNE    ??CreateDevices_3
    369                      {
    370          //            m_apxDevices[i] = new CModuleMrXX;
    371          //            m_apxDevices[i] -> m_pxDriver = new CModuleMrXXDriver(uiType);
    372                          m_apxDrivers[i] = new CModuleMrXXDriver(uiType);
   \   00000016   ........           CALL    `??new CModuleMrXXDriver`
   \   0000001A   ....               RCALL   ?Subroutine28
    373                          xMemoryAllocationConext.uiAddress = m_xDeviceConfigSearch.axModulesContext[i].uiAddress;
    374          //            m_apxDevices[i] -> m_pxDriver -> Allocate(xMemoryAllocationConext);
    375                          m_apxDrivers[i] -> Allocate(xMemoryAllocationConext);
    376                          m_xDeviceConfigSearch.uiDiscreteOutputQuantity += 1;
    377                      }
   \                     ??CrossCallReturnLabel_17:
   \   0000001C   8107               LDD     R16, Z+7
   \   0000001E   9503               INC     R16
   \   00000020   8307               STD     Z+7, R16
   \                     ??CreateDevices_3:
   \   00000022   9443               INC     R4
   \                     ??CreateDevices_1:
   \   00000024   9100....           LDS     R16, ??m_xDeviceConfigSearch
   \   00000028   1640               CP      R4, R16
   \   0000002A   F4D0               BRCC    ??CreateDevices_4
   \   0000002C   95A8               WDR
   \   0000002E   E002               LDI     R16, 2
   \   00000030   9E40               MUL     R4, R16
   \   00000032   ....               RCALL   ?Subroutine63
   \                     ??CrossCallReturnLabel_54:
   \   00000034   01FD               MOVW    R31:R30, R27:R26
   \   00000036   8101               LDD     R16, Z+1
   \   00000038   2F10               MOV     R17, R16
   \   0000003A   951A               DEC     R17
   \   0000003C   F029               BREQ    ??CreateDevices_5
   \   0000003E   5012               SUBI    R17, 2
   \   00000040   F331               BREQ    ??CreateDevices_2
   \   00000042   951A               DEC     R17
   \   00000044   F321               BREQ    ??CreateDevices_2
   \   00000046   CFED               RJMP    ??CreateDevices_3
   \                     ??CreateDevices_5:
   \   00000048   9100....           LDS     R16, (??m_xDeviceConfigSearch + 8)
   \   0000004C   3002               CPI     R16, 2
   \   0000004E   F748               BRCC    ??CreateDevices_3
   \   00000050   E001               LDI     R16, 1
   \   00000052   ........           CALL    `??new CMvsn21Driver`
   \   00000056   ....               RCALL   ?Subroutine28
    378                      break;
    379          
    380                  case MODULE_TYPE_MVI:
    381                      break;
    382          
    383                  default:
    384                      break;
    385                  }
    386              }
   \                     ??CrossCallReturnLabel_16:
   \   00000058   8500               LDD     R16, Z+8
   \   0000005A   9503               INC     R16
   \   0000005C   8700               STD     Z+8, R16
   \   0000005E   CFE1               RJMP    ??CreateDevices_3
    387          };
   \                     ??CreateDevices_4:
   \   00000060   9666               ADIW    R29:R28, 22
   \   00000062   ....               RJMP    ?Subroutine86

   \                                 In  segment CODE, align 2, keep-with-next
   \                     ?Subroutine28:
   \   00000000   2F40               MOV     R20, R16
   \   00000002   01FD               MOVW    R31:R30, R27:R26
   \   00000004   8B04               STD     Z+20, R16
   \   00000006   8B15               STD     Z+21, R17
   \   00000008   8102               LDD     R16, Z+2
   \   0000000A   8308               ST      Y, R16
   \   0000000C   019E               MOVW    R19:R18, R29:R28
   \   0000000E   2F04               MOV     R16, R20
   \   00000010   2FE4               MOV     R30, R20
   \   00000012   2FF1               MOV     R31, R17
   \   00000014   8541               LDD     R20, Z+9
   \   00000016   85F2               LDD     R31, Z+10
   \   00000018   2FE4               MOV     R30, R20
   \   0000001A   9145               LPM     R20, Z+
   \   0000001C   91F4               LPM     R31, Z
   \   0000001E   2FE4               MOV     R30, R20
   \   00000020   9509               ICALL
   \   00000022   ....               RJMP    ?Subroutine65

   \                                 In  segment CODE, align 2, keep-with-next
   \                     ?Subroutine63:
   \   00000000   ....               LDI     R26, LOW(??m_xDeviceConfigSearch)
   \   00000002   ....               LDI     R27, (??m_xDeviceConfigSearch) >> 8
   \   00000004   0DA0               ADD     R26, R0
   \   00000006   1DB1               ADC     R27, R1
   \   00000008   9508               RET
    388          
    389          //-----------------------------------------------------------------------------------------------------

   \                                 In  segment CODE, align 2, keep-with-next
    390          void CPss21::DestroyDevices(uint8_t uiLength)
   \                     ??DestroyDevices:
    391          {
    392              for (uint16_t i = 0; i < uiLength; i++)
   \   00000000   E0E0               LDI     R30, 0
   \   00000002   E0F0               LDI     R31, 0
   \   00000004   E010               LDI     R17, 0
   \   00000006   C001               RJMP    ??DestroyDevices_1
   \                     ??DestroyDevices_2:
   \   00000008   9631               ADIW    R31:R30, 1
   \                     ??DestroyDevices_1:
   \   0000000A   17E0               CP      R30, R16
   \   0000000C   07F1               CPC     R31, R17
   \   0000000E   F3E0               BRCS    ??DestroyDevices_2
    393              {
    394          //        delete m_apxDevices[i];
    395          //        delete m_apxDrivers[i];
    396              }
    397          };
   \   00000010   9508               RET
    398          
    399          //-----------------------------------------------------------------------------------------------------

   \                                 In  segment CODE, align 2, keep-with-next
    400          uint16_t CPss21::ReportType(uint8_t *puiDestination, uint16_t uiLength)
   \                     ??ReportType:
    401          {
    402              memset(m_auiSpiTxBuffer, 0, 6);
   \   00000000   E046               LDI     R20, 6
   \   00000002   ....               RCALL   ?Subroutine4
   \                     ??CrossCallReturnLabel_155:
   \   00000004   ....               LDI     R16, LOW(??m_auiSpiTxBuffer)
   \   00000006   ....               LDI     R17, (??m_auiSpiTxBuffer) >> 8
   \   00000008   ....               RCALL   ?Subroutine85
    403              uint8_t uiLengthLocal = 0;
    404              m_auiSpiTxBuffer[uiLengthLocal++] = GET_MODULE_TYPE_COMMAND;
   \                     ??CrossCallReturnLabel_121:
   \   0000000A   ....               LDI     R30, LOW(??m_auiSpiTxBuffer)
   \   0000000C   ....               LDI     R31, (??m_auiSpiTxBuffer) >> 8
   \   0000000E   E901               LDI     R16, 145
   \   00000010   8300               ST      Z, R16
    405              m_auiSpiTxBuffer[uiLengthLocal++] = 0;
   \   00000012   E000               LDI     R16, 0
   \   00000014   8301               STD     Z+1, R16
    406              m_auiSpiTxBuffer[uiLengthLocal++] = 0;
   \   00000016   8302               STD     Z+2, R16
    407              m_auiSpiTxBuffer[uiLengthLocal++] = 0;
   \   00000018   8303               STD     Z+3, R16
    408              m_auiSpiTxBuffer[uiLengthLocal++] = 0;
   \   0000001A   8304               STD     Z+4, R16
    409          
    410              ConnectDevice(0);
   \   0000001C   ....               RCALL   ?Subroutine35
    411              delay_us(500);
    412              CSpi::Exchange(m_auiSpiRxBuffer,
    413                             m_auiSpiTxBuffer,
    414                             uiLengthLocal);
   \                     ??CrossCallReturnLabel_26:
   \   0000001E   E045               LDI     R20, 5
   \   00000020   ....               RCALL   ?Subroutine19
    415              DisconnectDevice();
    416          
    417              return 1;
   \                     ??CrossCallReturnLabel_8:
   \   00000022   E001               LDI     R16, 1
   \   00000024   E010               LDI     R17, 0
   \   00000026   9508               RET
    418          }
    419          
    420          //-----------------------------------------------------------------------------------------------------

   \                                 In  segment CODE, align 2, keep-with-next
    421          void CPss21::SetBytesFromBits(uint8_t *uiDestination,
   \                     ??SetBytesFromBits:
    422                                        uint8_t *uiSource,
    423                                        uint16_t uiLength)
    424          {
   \   00000000   ....               RCALL   ?Subroutine40
   \                     ??CrossCallReturnLabel_33:
   \   00000002   01B8               MOVW    R23:R22, R17:R16
   \   00000004   011A               MOVW    R3:R2, R21:R20
    425              int16_t shift = 0;
   \   00000006   E0A0               LDI     R26, 0
   \   00000008   E0B0               LDI     R27, 0
    426          
    427              for (int16_t i = 0; i < uiLength; i++)
   \   0000000A   ....               RCALL   ?Subroutine34
   \                     ??CrossCallReturnLabel_21:
   \   0000000C   C010               RJMP    ??SetBytesFromBits_1
    428              {
    429                  uiDestination[i] = uiSource[(i) / 8] & (1 << shift) ? 1 : 0;
   \                     ??SetBytesFromBits_2:
   \   0000000E   E000               LDI     R16, 0
   \                     ??SetBytesFromBits_3:
   \   00000010   01FB               MOVW    R31:R30, R23:R22
   \   00000012   0FE8               ADD     R30, R24
   \   00000014   1FF9               ADC     R31, R25
   \   00000016   8300               ST      Z, R16
    430                  /* gcc doesn't like: shift = (++shift) % 8; */
    431                  shift++;
    432                  shift %= 8;
   \   00000018   9611               ADIW    R27:R26, 1
   \   0000001A   E048               LDI     R20, 8
   \   0000001C   E050               LDI     R21, 0
   \   0000001E   018D               MOVW    R17:R16, R27:R26
   \   00000020   ........           CALL    ?SS_DIVMOD_L02
   \   00000024   E043               LDI     R20, 3
   \   00000026   ....               RCALL   ?Subroutine66
   \                     ??CrossCallReturnLabel_178:
   \   00000028   1BA0               SUB     R26, R16
   \   0000002A   0BB1               SBC     R27, R17
   \   0000002C   9601               ADIW    R25:R24, 1
   \                     ??SetBytesFromBits_1:
   \   0000002E   1582               CP      R24, R2
   \   00000030   0593               CPC     R25, R3
   \   00000032   F470               BRCC    ??SetBytesFromBits_4
   \   00000034   E048               LDI     R20, 8
   \   00000036   E050               LDI     R21, 0
   \   00000038   018C               MOVW    R17:R16, R25:R24
   \   0000003A   ........           CALL    ?SS_DIVMOD_L02
   \   0000003E   01F9               MOVW    R31:R30, R19:R18
   \   00000040   0FE0               ADD     R30, R16
   \   00000042   1FF1               ADC     R31, R17
   \   00000044   8150               LD      R21, Z
   \   00000046   2F4A               MOV     R20, R26
   \   00000048   ....               RCALL   ??Subroutine97_0
    433              }
   \                     ??CrossCallReturnLabel_175:
   \   0000004A   F309               BREQ    ??SetBytesFromBits_2
   \   0000004C   E001               LDI     R16, 1
   \   0000004E   CFE0               RJMP    ??SetBytesFromBits_3
    434          }
   \                     ??SetBytesFromBits_4:
   \   00000050                      REQUIRE ?Subroutine87
   \   00000050                      ;               // Fall through to label ?Subroutine87

   \                                 In  segment CODE, align 2, keep-with-next
   \                     ?Subroutine87:
   \   00000000   E0E4               LDI     R30, 4
   \   00000002   ........           JMP     ?EPILOGUE_B4_L09

   \                                 In  segment CODE, align 2, keep-with-next
   \                     ?Subroutine40:
   \   00000000   ........           JMP     ?PROLOGUE4_L09

   \                                 In  segment CODE, align 2, keep-with-next
   \                     ?Subroutine34:
   \   00000000   E080               LDI     R24, 0
   \   00000002   E090               LDI     R25, 0
   \   00000004   9508               RET

   \                                 In  segment CODE, align 2, keep-with-next
   \                     ?Subroutine66:
   \   00000000   ........           JMP     ?S_SHL_L02

   \                                 In  segment CODE, align 2, keep-with-next
   \                     ??Subroutine97_0:
   \   00000000   E001               LDI     R16, 1
   \   00000002   E010               LDI     R17, 0
   \   00000004   ....               RCALL   ?Subroutine66
   \                     ??CrossCallReturnLabel_180:
   \   00000006   2350               AND     R21, R16
   \   00000008   9508               RET
    435          
    436          //-----------------------------------------------------------------------------------------------------

   \                                 In  segment CODE, align 2, keep-with-next
    437          void CPss21::ModbusDeviceControl(uint8_t* puiData, uint16_t uiLength, uint16_t uiAddress)
   \                     ??ModbusDeviceControl:
    438          {
   \   00000000   01BA               MOVW    R23:R22, R21:R20
    439              // Команда - "Квитирование"?
    440              if (uiAddress == MODBUS_RECEIPT_ADDRESS)
   \   00000002   2B47               OR      R20, R23
   \   00000004   F441               BRNE    ??ModbusDeviceControl_2
    441              {
    442                  if (*puiData)
   \   00000006   01F8               MOVW    R31:R30, R17:R16
   \   00000008   8100               LD      R16, Z
   \   0000000A   2300               TST     R16
   \   0000000C   F101               BREQ    ??ModbusDeviceControl_3
    443                  {
    444                      CPss21::SetModbusReceipt(1);
   \   0000000E   ....               RCALL   ?Subroutine29
   \                     ??CrossCallReturnLabel_107:
   \   00000010   AB03               STD     Z+51, R16
    445                      SetDiscreteSignalsReceipt(1);
   \   00000012   AB05               STD     Z+53, R16
    446                      SendToDevicesModbusReceipt();
   \   00000014   ....               RJMP    ??SendToDevicesModbusReceipt
    447                  }
    448              }
    449              // Команда - "Сброс"?
    450              else if (uiAddress == MODBUS_RESET_ADDRESS)
   \                     ??ModbusDeviceControl_2:
   \   00000016   3061               CPI     R22, 1
   \   00000018   E040               LDI     R20, 0
   \   0000001A   0754               CPC     R21, R20
   \   0000001C   F441               BRNE    ??ModbusDeviceControl_4
    451              {
    452                  if (*puiData)
   \   0000001E   01F8               MOVW    R31:R30, R17:R16
   \   00000020   8100               LD      R16, Z
   \   00000022   2300               TST     R16
   \   00000024   F0A1               BREQ    ??ModbusDeviceControl_3
    453                  {
    454                      CPss21::SetModbusReset(1);
   \   00000026   ....               RCALL   ?Subroutine29
   \                     ??CrossCallReturnLabel_108:
   \   00000028   AB04               STD     Z+52, R16
    455                      SetDiscreteSignalsReset(1);
   \   0000002A   AB06               STD     Z+54, R16
    456                      SendToDevicesModbusReset();
   \   0000002C   ....               RJMP    ??SendToDevicesModbusReset
    457                  }
    458              }
    459              // Изменение состояния окон сигнализации?
    460              else if ((uiAddress >= ALARM_WINDOWS_BIT_ARRAY_OFFSET) &&
    461                       (uiAddress < (ALARM_WINDOWS_BIT_ARRAY_OFFSET +
    462                                     ALARM_WINDOWS_ARRAY_LENGTH)))
   \                     ??ModbusDeviceControl_4:
   \   0000002E   2FE6               MOV     R30, R22
   \   00000030   2FF5               MOV     R31, R21
   \   00000032   54E0               SUBI    R30, 64
   \   00000034   40F0               SBCI    R31, 0
   \   00000036   97F0               SBIW    R31:R30, 48
   \   00000038   F450               BRCC    ??ModbusDeviceControl_3
    463              {
    464                  SetBytesFromBits(&m_aucRtuDiscreteDataArray[uiAddress],
    465                                   puiData,
    466                                   uiLength);
   \   0000003A   01A9               MOVW    R21:R20, R19:R18
   \   0000003C   0198               MOVW    R19:R18, R17:R16
   \   0000003E   ....               LDI     R16, LOW(??m_aucRtuDiscreteDataArray)
   \   00000040   ....               LDI     R17, (??m_aucRtuDiscreteDataArray) >> 8
   \   00000042   0F06               ADD     R16, R22
   \   00000044   1F17               ADC     R17, R23
   \   00000046   ....               RCALL   ??SetBytesFromBits
    467                  // Сообщим автомату о состоявшемся сеансе связи.
    468                  m_xModbusRtuLinkControl.SetFsmEvent(CModbusRtuLinkControl::LINK_SESSION_HAPPENED_FSM_EVENT);
   \   00000048   E001               LDI     R16, 1
   \   0000004A   9300....           STS     (??m_xDeviceConfigSearch + 13), R16
    469              }
    470          ////    // Изменение состояния окон сигнализации?
    471          //    else if ((uiAddress >= DISCRETE_INPUTS_BIT_ARRAY_OFFSET) &&//debag//
    472          //             (uiAddress < (ALARM_WINDOWS_BIT_ARRAY_OFFSET +
    473          //                           ALARM_WINDOWS_ARRAY_LENGTH)))
    474          //    {
    475          //        SetBytesFromBits(&m_aucRtuDiscreteDataArray[uiAddress],
    476          //                         puiData,
    477          //                         uiLength);
    478          //        // Сообщим автомату о состоявшемся сеансе связи.
    479          //        m_xModbusRtuLinkControl.SetFsmEvent(CModbusRtuLinkControl::LINK_SESSION_HAPPENED_FSM_EVENT);
    480          //    }
    481          }
   \                     ??ModbusDeviceControl_3:
   \   0000004E   9508               RET
    482          
    483          //-----------------------------------------------------------------------------------------------------

   \                                 In  segment CODE, align 2, keep-with-next
    484          void CPss21::ModbusDeviceControl(uint8_t uiData, uint16_t uiAddress)
   \                     ??ModbusDeviceControl_1:
    485          {
   \   00000000   9721               SBIW    R29:R28, 1
   \   00000002   8308               ST      Y, R16
    486              ModbusDeviceControl(&uiData, 1, uiAddress);
   \   00000004   01A9               MOVW    R21:R20, R19:R18
   \   00000006   E021               LDI     R18, 1
   \   00000008   E030               LDI     R19, 0
   \   0000000A   018E               MOVW    R17:R16, R29:R28
   \   0000000C   ....               RCALL   ??ModbusDeviceControl
    487          }
   \   0000000E   9621               ADIW    R29:R28, 1
   \   00000010   9508               RET
    488          
    489          //-----------------------------------------------------------------------------------------------------

   \                                 In  segment CODE, align 2, keep-with-next
    490          bool CPss21::ModbusRtuLinkControlIsOn(void)
   \                     ??ModbusRtuLinkControlIsOn:
    491          {
    492              if (m_xDeviceConfiguration.MBTimeout != 0)
   \   00000000   9100....           LDS     R16, (??m_xDeviceConfiguration + 5)
   \   00000004   2300               TST     R16
   \   00000006   F009               BREQ    ??ModbusRtuLinkControlIsOn_1
    493              {
    494                  return true;
   \   00000008   ....               RJMP    ?Subroutine81
    495              }
    496              else
    497              {
    498                  return false;
   \                     ??ModbusRtuLinkControlIsOn_1:
   \   0000000A                      REQUIRE ?Subroutine80
   \   0000000A                      ;               // Fall through to label ?Subroutine80
    499              }
    500          }

   \                                 In  segment CODE, align 2, keep-with-next
   \                     ?Subroutine80:
   \   00000000   E000               LDI     R16, 0
   \   00000002   9508               RET

   \                                 In  segment CODE, align 2, keep-with-next
   \                     ?Subroutine81:
   \   00000000   E001               LDI     R16, 1
   \   00000002   9508               RET
    501          
    502          //-----------------------------------------------------------------------------------------------------

   \                                 In  segment CODE, align 2, keep-with-next
    503          uint16_t CPss21::GetTimeoutModbusRtuLinkControl(void)
   \                     ??GetTimeoutModbusRtuLinkControl:
    504          {
    505              return (m_xDeviceConfiguration.MBTimeout * 1000);
   \   00000000   9100....           LDS     R16, (??m_xDeviceConfiguration + 5)
   \   00000004   E010               LDI     R17, 0
   \   00000006   EE48               LDI     R20, 232
   \   00000008   E053               LDI     R21, 3
   \   0000000A                      REQUIRE ?Subroutine88
   \   0000000A                      ;               // Fall through to label ?Subroutine88
    506          }

   \                                 In  segment CODE, align 2, keep-with-next
   \                     ?Subroutine88:
   \   00000000   ........           JMP     ?S_EC_MUL_L02
    507          
    508          //-----------------------------------------------------------------------------------------------------

   \                                 In  segment CODE, align 2, keep-with-next
    509          bool CPss21::ModbusRtuLinkControlInProgress(void)
   \                     ??ModbusRtuLinkControlInProgress:
    510          {
    511              if (m_xDeviceState.ModbusRtuLinkControlInProgress)
   \   00000000   9100....           LDS     R16, (??m_xDeviceConfiguration + 27)
   \   00000004   FD00               SBRC    R16, 0
    512              {
    513                  return true;
   \   00000006   ....               RJMP    ?Subroutine81
    514              }
    515              else
    516              {
    517                  return false;
   \                     ??ModbusRtuLinkControlInProgress_1:
   \   00000008   ....               RJMP    ?Subroutine80
    518              }
    519          }
    520          
    521          //-----------------------------------------------------------------------------------------------------

   \                                 In  segment CODE, align 2, keep-with-next
    522          void CPss21::SetModeModbusRtuLinkControlInProgress(bool bData)
   \                     ??SetModeModbusRtuLinkControlInProgress:
    523          {
    524              m_xDeviceState.ModbusRtuLinkControlInProgress = bData;
   \   00000000   ....               LDI     R30, LOW(??m_xDeviceConfiguration)
   \   00000002   ....               LDI     R31, (??m_xDeviceConfiguration) >> 8
   \   00000004   FB00               BST     R16, 0
   \   00000006   8D03               LDD     R16, Z+27
   \   00000008   F900               BLD     R16, 0
   \   0000000A   8F03               STD     Z+27, R16
    525              // Сохраним текущую конфигурацию.
    526              CDataBase::WriteBlock(reinterpret_cast<uint8_t*>(&m_xDeviceState),
    527                                    TDataBase::DEVICE_STATE);
   \   0000000C   E02A               LDI     R18, 10
   \   0000000E   ....               LDI     R16, LOW((??m_xDeviceConfiguration + 27))
   \   00000010   ....               LDI     R17, HIGH((??m_xDeviceConfiguration + 27))
   \   00000012   ........           CALL    ??WriteBlock
    528              // База данных изменена при записи блока.
    529              // Поставим подтверждающую подпись.
    530              CDataBase::SignatureCreate();
   \   00000016   ........           JMP     ??SignatureCreate
    531          }
    532          
    533          //-----------------------------------------------------------------------------------------------------

   \                                 In  segment CODE, align 2, keep-with-next
   \                     ?Subroutine79:
   \   00000000   01D9               MOVW    R27:R26, R19:R18
   \   00000002   9508               RET

   \                                 In  segment CODE, align 2, keep-with-next
    534          void CPss21::SendToDevicesReceipt(void)
   \                     ??SendToDevicesReceipt:
    535          {
   \   00000000   ....               RCALL   ?Subroutine44
    536              for (uint8_t i = 0;
   \                     ??CrossCallReturnLabel_105:
   \   00000002   C004               RJMP    ??SendToDevicesReceipt_1
    537                      i < (m_xDeviceConfigSearch.uiModulesQuantity);
    538                      i++)
    539              {
    540                  m_apxDrivers[i] -> SetReceipt(1);
   \                     ??SendToDevicesReceipt_2:
   \   00000004   ....               RCALL   ?Subroutine26
   \                     ??CrossCallReturnLabel_160:
   \   00000006   E011               LDI     R17, 1
   \   00000008   8311               STD     Z+1, R17
    541              }
   \   0000000A   9503               INC     R16
   \                     ??SendToDevicesReceipt_1:
   \   0000000C   ....               RCALL   ?Subroutine36
   \                     ??CrossCallReturnLabel_117:
   \   0000000E   F3D0               BRCS    ??SendToDevicesReceipt_2
    542          
    543              // Сообщим автомату о состоявшемся квитировании.
    544              m_xModbusRtuLinkControl.SetFsmEvent(CModbusRtuLinkControl::RECEIPT_HAPPENED_FSM_EVENT);
   \   00000010   ....               RJMP    ?Subroutine27
    545          }

   \                                 In  segment CODE, align 2, keep-with-next
   \                     ?Subroutine44:
   \   00000000   019D               MOVW    R19:R18, R27:R26
   \   00000002   ....               RJMP    ?Subroutine80

   \                                 In  segment CODE, align 2, keep-with-next
   \                     ?Subroutine36:
   \   00000000   9110....           LDS     R17, ??m_xDeviceConfigSearch
   \   00000004                      REQUIRE ?Subroutine82
   \   00000004                      ;               // Fall through to label ?Subroutine82

   \                                 In  segment CODE, align 2, keep-with-next
   \                     ?Subroutine82:
   \   00000000   1701               CP      R16, R17
   \   00000002   9508               RET

   \                                 In  segment CODE, align 2, keep-with-next
   \                     ?Subroutine27:
   \   00000000   E002               LDI     R16, 2
   \   00000002   9300....           STS     (??m_xDeviceConfigSearch + 13), R16
   \   00000006   ....               RJMP    ?Subroutine79
    546          
    547          //-----------------------------------------------------------------------------------------------------

   \                                 In  segment CODE, align 2, keep-with-next
    548          void CPss21::SendToDevicesReset(void)
   \                     ??SendToDevicesReset:
    549          {
   \   00000000   ....               RCALL   ?Subroutine44
    550              for (uint8_t i = 0;
   \                     ??CrossCallReturnLabel_106:
   \   00000002   C005               RJMP    ??SendToDevicesReset_1
    551                      i < (m_xDeviceConfigSearch.uiModulesQuantity);
    552                      i++)
    553              {
    554                  m_apxDrivers[i] -> SetReset(1);
   \                     ??SendToDevicesReset_2:
   \   00000004   ....               RCALL   ?Subroutine43
   \                     ??CrossCallReturnLabel_39:
   \   00000006   9612               ADIW    R27:R26, 2
   \   00000008   E011               LDI     R17, 1
   \   0000000A   931C               ST      X, R17
    555              }
   \   0000000C   9503               INC     R16
   \                     ??SendToDevicesReset_1:
   \   0000000E   ....               RCALL   ?Subroutine36
   \                     ??CrossCallReturnLabel_118:
   \   00000010   F3C8               BRCS    ??SendToDevicesReset_2
    556          }
   \   00000012   ....               RJMP    ?Subroutine79
    557          
    558          //-----------------------------------------------------------------------------------------------------

   \                                 In  segment CODE, align 2, keep-with-next
    559          void CPss21::SendToDevicesModbusReceipt(void)
   \                     ??SendToDevicesModbusReceipt:
    560          {
   \   00000000   ....               RCALL   ?Subroutine44
    561              for (uint8_t i = 0;
   \                     ??CrossCallReturnLabel_104:
   \   00000002   C004               RJMP    ??SendToDevicesModbusReceipt_1
    562                      i < (m_xDeviceConfigSearch.uiModulesQuantity);
    563                      i++)
    564              {
    565                  m_apxDrivers[i] -> SetModbusReceipt(1);
   \                     ??SendToDevicesModbusReceipt_2:
   \   00000004   ....               RCALL   ?Subroutine26
   \                     ??CrossCallReturnLabel_159:
   \   00000006   E011               LDI     R17, 1
   \   00000008   8313               STD     Z+3, R17
    566              }
   \   0000000A   9503               INC     R16
   \                     ??SendToDevicesModbusReceipt_1:
   \   0000000C   ....               RCALL   ?Subroutine36
   \                     ??CrossCallReturnLabel_116:
   \   0000000E   F3D0               BRCS    ??SendToDevicesModbusReceipt_2
    567          
    568              // Сообщим автомату о состоявшемся квитировании.
    569              m_xModbusRtuLinkControl.SetFsmEvent(CModbusRtuLinkControl::RECEIPT_HAPPENED_FSM_EVENT);
   \   00000010   ....               RJMP    ?Subroutine27
    570          }
    571          
    572          //-----------------------------------------------------------------------------------------------------

   \                                 In  segment CODE, align 2, keep-with-next
    573          void CPss21::SendToDevicesModbusReset(void)
   \                     ??SendToDevicesModbusReset:
    574          {
   \   00000000   ....               RCALL   ?Subroutine44
    575              for (uint8_t i = 0;
   \                     ??CrossCallReturnLabel_103:
   \   00000002   C005               RJMP    ??SendToDevicesModbusReset_1
    576                      i < (m_xDeviceConfigSearch.uiModulesQuantity);
    577                      i++)
    578              {
    579                  m_apxDrivers[i] -> SetModbusReset(1);
   \                     ??SendToDevicesModbusReset_2:
   \   00000004   ....               RCALL   ?Subroutine43
   \                     ??CrossCallReturnLabel_38:
   \   00000006   9614               ADIW    R27:R26, 4
   \   00000008   E011               LDI     R17, 1
   \   0000000A   931C               ST      X, R17
    580              }
   \   0000000C   9503               INC     R16
   \                     ??SendToDevicesModbusReset_1:
   \   0000000E   ....               RCALL   ?Subroutine36
   \                     ??CrossCallReturnLabel_115:
   \   00000010   F3C8               BRCS    ??SendToDevicesModbusReset_2
    581          }
   \   00000012                      REQUIRE ?Subroutine79
   \   00000012                      ;               // Fall through to label ?Subroutine79
    582          
    583          //-----------------------------------------------------------------------------------------------------

   \                                 In  segment CODE, align 2, keep-with-next
    584          void CPss21::KeyStateProcessing(void)
   \                     ??KeyStateProcessing:
    585          {
   \   00000000   938A               ST      -Y, R24
    586          //    m_xReceiptKey.Fsm();
    587          //    m_xResetKey.Fsm();
    588          //    m_xCheckKey.Fsm();
    589          //    m_xExternalKey.Fsm();
    590          
    591              if (m_xReceiptKey.KeyEventHappened(CMultiFunctionKey::KEY_EVENT_PRESSED_PUSH))
   \   00000002   E022               LDI     R18, 2
   \   00000004   ....               RCALL   ?Subroutine11
   \                     ??CrossCallReturnLabel_71:
   \   00000006   2300               TST     R16
   \   00000008   F019               BREQ    ??CrossCallReturnLabel_173
    592              {
    593                  SetPanelReceipt(1);
   \   0000000A   ....               RCALL   ?Subroutine29
   \                     ??CrossCallReturnLabel_109:
   \   0000000C   A707               STD     Z+47, R16
    594                  SetDiscreteSignalsReceipt(1);
   \   0000000E   ....               RCALL   ?Subroutine15
    595                  SendToDevicesReceipt();
    596                  m_xBuzzerNotifyerControl.AlarmSet(BEEP_SIGNAL);
    597              }
    598          
    599              if (m_xResetKey.KeyEventHappened(CMultiFunctionKey::KEY_EVENT_PRESSED_PUSH))
   \                     ??CrossCallReturnLabel_173:
   \   00000010   E022               LDI     R18, 2
   \   00000012   ....               LDI     R16, LOW((??m_xDeviceConfigSearch + 76))
   \   00000014   ....               LDI     R17, HIGH((??m_xDeviceConfigSearch + 76))
   \   00000016   ....               RCALL   ?Subroutine68
   \                     ??CrossCallReturnLabel_73:
   \   00000018   2300               TST     R16
   \   0000001A   F021               BREQ    ??CrossCallReturnLabel_167
    600              {
    601                  SetPanelReset(1);
   \   0000001C   ....               RCALL   ?Subroutine29
   \                     ??CrossCallReturnLabel_110:
   \   0000001E   AB00               STD     Z+48, R16
    602                  SetDiscreteSignalsReset(1);
   \   00000020   ....               RCALL   ?Subroutine45
    603                  SendToDevicesReset();
    604                  m_xBuzzerNotifyerControl.AlarmSet(BEEP_SIGNAL);
   \                     ??CrossCallReturnLabel_41:
   \   00000022   ....               RCALL   ??Subroutine96_0
    605              }
    606          
    607              if (m_xCheckKey.KeyEventHappened(CMultiFunctionKey::KEY_EVENT_PRESSED_PUSH))
   \                     ??CrossCallReturnLabel_167:
   \   00000024   E022               LDI     R18, 2
   \   00000026   ....               RCALL   ?Subroutine13
   \                     ??CrossCallReturnLabel_6:
   \   00000028   2300               TST     R16
   \   0000002A   F011               BREQ    ??CrossCallReturnLabel_168
    608              {
    609                  // Включим режим тестирования.
    610                  SetFsmState(TEST_START);
   \   0000002C   ....               RCALL   ?Subroutine46
    611                  m_xBuzzerNotifyerControl.AlarmSet(BEEP_SIGNAL);
   \                     ??CrossCallReturnLabel_165:
   \   0000002E   ....               RCALL   ??Subroutine96_0
    612              }
    613          
    614              if (m_xExternalKey.KeyEventHappened(CMultiFunctionKey::KEY_EVENT_PRESSED_RECEIPT))
   \                     ??CrossCallReturnLabel_168:
   \   00000030   E022               LDI     R18, 2
   \   00000032   ....               RCALL   ?Subroutine8
   \                     ??CrossCallReturnLabel_221:
   \   00000034   F019               BREQ    ??CrossCallReturnLabel_174
    615              {
    616                  SetExternalReceipt(1);
   \   00000036   ....               RCALL   ?Subroutine29
   \                     ??CrossCallReturnLabel_111:
   \   00000038   AB01               STD     Z+49, R16
    617                  SetDiscreteSignalsReceipt(1);
   \   0000003A   ....               RCALL   ?Subroutine15
    618                  SendToDevicesReceipt();
    619                  m_xBuzzerNotifyerControl.AlarmSet(BEEP_SIGNAL);
    620              }
    621          
    622              if (m_xExternalKey.KeyEventHappened(CMultiFunctionKey::KEY_EVENT_PRESSED_RESET))
   \                     ??CrossCallReturnLabel_174:
   \   0000003C   E023               LDI     R18, 3
   \   0000003E   ....               RCALL   ?Subroutine8
   \                     ??CrossCallReturnLabel_222:
   \   00000040   F021               BREQ    ??CrossCallReturnLabel_169
    623              {
    624                  SetExternalReset(1);
   \   00000042   ....               RCALL   ?Subroutine29
   \                     ??CrossCallReturnLabel_112:
   \   00000044   AB02               STD     Z+50, R16
    625                  SetDiscreteSignalsReset(1);
   \   00000046   ....               RCALL   ?Subroutine45
    626                  SendToDevicesReset();
    627                  m_xBuzzerNotifyerControl.AlarmSet(BEEP_SIGNAL);
   \                     ??CrossCallReturnLabel_40:
   \   00000048   ....               RCALL   ??Subroutine96_0
    628              }
    629          
    630              if (m_xExternalKey.KeyEventHappened(CMultiFunctionKey::KEY_EVENT_PRESSED_CHECK))
   \                     ??CrossCallReturnLabel_169:
   \   0000004A   E024               LDI     R18, 4
   \   0000004C   ....               RCALL   ?Subroutine8
   \                     ??CrossCallReturnLabel_223:
   \   0000004E   F011               BREQ    ??CrossCallReturnLabel_170
    631              {
    632                  // Включим режим тестирования.
    633                  SetFsmState(TEST_START);
   \   00000050   ....               RCALL   ?Subroutine46
    634                  m_xBuzzerNotifyerControl.AlarmSet(BEEP_SIGNAL);
   \                     ??CrossCallReturnLabel_166:
   \   00000052   ....               RCALL   ??Subroutine96_0
    635              }
    636          
    637              // Кнопки "Квитирование" и "Контроль" нажаты дольше 7 секунд?
    638              if (m_xEventUniteLogicAndOne.IsHappened((m_xReceiptKey.KeyEventHappened(CMultiFunctionKey::KEY_EVENT_PRESSED_SET_DEFAULT)),
    639                                                      (m_xCheckKey.KeyEventHappened(CMultiFunctionKey::KEY_EVENT_PRESSED_SET_DEFAULT))))
   \                     ??CrossCallReturnLabel_170:
   \   00000054   E025               LDI     R18, 5
   \   00000056   ....               RCALL   ?Subroutine13
   \                     ??CrossCallReturnLabel_7:
   \   00000058   2F80               MOV     R24, R16
   \   0000005A   E025               LDI     R18, 5
   \   0000005C   ....               RCALL   ?Subroutine11
   \                     ??CrossCallReturnLabel_72:
   \   0000005E   2F20               MOV     R18, R16
   \   00000060   2F38               MOV     R19, R24
   \   00000062   ....               LDI     R16, LOW((??m_xDeviceConfigSearch + 121))
   \   00000064   ....               LDI     R17, HIGH((??m_xDeviceConfigSearch + 121))
   \   00000066   ........           CALL    ??IsHappened
   \   0000006A   2300               TST     R16
   \   0000006C   F011               BREQ    ??CrossCallReturnLabel_171
    640              {
    641                  // Устанавливаем настройки Modbus по умолчанию на текущую сессию.
    642                  CPss21::ModbusDefaultInit();
   \   0000006E   ....               RCALL   ??ModbusDefaultInit
    643                  m_xBuzzerNotifyerControl.AlarmSet(BEEP_SIGNAL);
   \   00000070   ....               RCALL   ??Subroutine96_0
    644              }
    645          }
   \                     ??CrossCallReturnLabel_171:
   \   00000072                      REQUIRE ?Subroutine83
   \   00000072                      ;               // Fall through to label ?Subroutine83

   \                                 In  segment CODE, align 2, keep-with-next
   \                     ?Subroutine83:
   \   00000000   9189               LD      R24, Y+
   \   00000002   9508               RET

   \                                 In  segment CODE, align 2, keep-with-next
   \                     ?Subroutine45:
   \   00000000   AB06               STD     Z+54, R16
   \   00000002   ....               RJMP    ??SendToDevicesReset

   \                                 In  segment CODE, align 2, keep-with-next
   \                     ?Subroutine15:
   \   00000000   AB05               STD     Z+53, R16
   \   00000002   ....               RCALL   ??SendToDevicesReceipt
   \   00000004                      REQUIRE ??Subroutine96_0
   \   00000004                      ;               // Fall through to label ??Subroutine96_0

   \                                 In  segment CODE, align 2, keep-with-next
   \                     ??Subroutine96_0:
   \   00000000   E027               LDI     R18, 7
   \   00000002   ....               RJMP    ?Subroutine60

   \                                 In  segment CODE, align 2, keep-with-next
   \                     ?Subroutine13:
   \   00000000   ....               LDI     R16, LOW((??m_xDeviceConfigSearch + 91))
   \   00000002   ....               LDI     R17, HIGH((??m_xDeviceConfigSearch + 91))
   \   00000004   ....               RJMP    ?Subroutine68

   \                                 In  segment CODE, align 2, keep-with-next
   \                     ?Subroutine11:
   \   00000000   ....               LDI     R16, LOW((??m_xDeviceConfigSearch + 61))
   \   00000002   ....               LDI     R17, HIGH((??m_xDeviceConfigSearch + 61))
   \   00000004                      REQUIRE ?Subroutine68
   \   00000004                      ;               // Fall through to label ?Subroutine68

   \                                 In  segment CODE, align 2, keep-with-next
   \                     ?Subroutine68:
   \   00000000   ........           JMP     ??KeyEventHappened

   \                                 In  segment CODE, align 2, keep-with-next
   \                     ?Subroutine8:
   \   00000000   ....               LDI     R16, LOW((??m_xDeviceConfigSearch + 106))
   \   00000002   ....               LDI     R17, HIGH((??m_xDeviceConfigSearch + 106))
   \   00000004   ....               RCALL   ?Subroutine68
   \                     ??CrossCallReturnLabel_70:
   \   00000006                      REQUIRE ?Subroutine84
   \   00000006                      ;               // Fall through to label ?Subroutine84

   \                                 In  segment CODE, align 2, keep-with-next
   \                     ?Subroutine84:
   \   00000000   2300               TST     R16
   \   00000002   9508               RET

   \                                 In  segment CODE, align 2, keep-with-next
   \                     ?Subroutine60:
   \   00000000   ....               LDI     R16, LOW((??m_xDeviceConfigSearch + 177))
   \   00000002   ....               LDI     R17, HIGH((??m_xDeviceConfigSearch + 177))
   \   00000004   ........           JMP     ??AlarmSet
    646          
    647          //-----------------------------------------------------------------------------------------------------

   \                                 In  segment CODE, align 2, keep-with-next
    648          void CPss21::ReceiptResetGlobalFlagsClear(void)
   \                     ??ReceiptResetGlobalFlagsClear:
    649          {
    650              SetPanelReceipt(0);
   \   00000000   ....               RCALL   ?Subroutine65
   \                     ??CrossCallReturnLabel_59:
   \   00000002   E000               LDI     R16, 0
   \   00000004   A707               STD     Z+47, R16
    651              SetExternalReceipt(0);
   \   00000006   AB01               STD     Z+49, R16
    652              SetModbusReceipt(0);
   \   00000008   AB03               STD     Z+51, R16
    653              SetPanelReset(0);
   \   0000000A   AB00               STD     Z+48, R16
    654              SetExternalReset(0);
   \   0000000C   AB02               STD     Z+50, R16
    655              SetModbusReset(0);
   \   0000000E   AB04               STD     Z+52, R16
    656          }
   \   00000010   9508               RET
    657          
    658          //-----------------------------------------------------------------------------------------------------

   \                                 In  segment CODE, align 2, keep-with-next
   \                     ??Subroutine94_0:
   \   00000000   91ED               LD      R30, X+
   \   00000002   91FC               LD      R31, X
   \   00000004   9508               RET

   \                                 In  segment CODE, align 2, keep-with-next
    659          uint8_t CPss21::ModulesInteraction(uint8_t uiModuleIndex)
   \                     ??ModulesInteraction:
    660          {
   \   00000000   93BA               ST      -Y, R27
   \   00000002   93AA               ST      -Y, R26
    661              if (uiModuleIndex < (m_xDeviceConfigSearch.uiModulesQuantity))
   \   00000004   ....               RCALL   ?Subroutine36
   \                     ??CrossCallReturnLabel_119:
   \   00000006   F458               BRCC    ??ModulesInteraction_1
   \   00000008   E012               LDI     R17, 2
   \   0000000A   9F01               MUL     R16, R17
   \   0000000C   ....               RCALL   ?Subroutine30
   \                     ??CrossCallReturnLabel_18:
   \   0000000E   89A4               LDD     R26, Z+20
   \   00000010   89B5               LDD     R27, Z+21
   \   00000012   018D               MOVW    R17:R16, R27:R26
   \   00000014   9619               ADIW    R27:R26, 9
   \   00000016   ....               RCALL   ??Subroutine94_0
   \                     ??CrossCallReturnLabel_158:
   \   00000018   ....               RCALL   ?Subroutine64
    662              {
    663                  m_apxDrivers[uiModuleIndex] -> DataExchange();
    664                  return 0;
   \                     ??CrossCallReturnLabel_57:
   \   0000001A   E000               LDI     R16, 0
   \   0000001C   C001               RJMP    ??ModulesInteraction_2
    665              }
    666              else
    667              {
    668                  return 1;
   \                     ??ModulesInteraction_1:
   \   0000001E   E001               LDI     R16, 1
    669              }
   \                     ??ModulesInteraction_2:
   \   00000020   ....               RJMP    ?Subroutine74
    670          };

   \                                 In  segment CODE, align 2, keep-with-next
   \                     ?Subroutine30:
   \   00000000   ....               RCALL   ?Subroutine65
   \                     ??CrossCallReturnLabel_65:
   \   00000002   0DE0               ADD     R30, R0
   \   00000004   1DF1               ADC     R31, R1
   \   00000006   9508               RET

   \                                 In  segment CODE, align 2, keep-with-next
   \                     ?Subroutine64:
   \   00000000   9632               ADIW    R31:R30, 2
   \   00000002   9125               LPM     R18, Z+
   \   00000004   91F4               LPM     R31, Z
   \   00000006   2FE2               MOV     R30, R18
   \   00000008   9409               IJMP
    671          
    672          //-----------------------------------------------------------------------------------------------------

   \                                 In  segment CODE, align 2, keep-with-next
    673          void CPss21::ConfigurationInit(void)
   \                     ??ConfigurationInit:
    674          {
   \   00000000   ....               RCALL   ?Subroutine40
    675              uint8_t* puiTempBuffer = m_auiIntermediateBuff;
   \                     ??CrossCallReturnLabel_34:
   \   00000002   ....               LDI     R26, LOW(??m_auiIntermediateBuff)
   \   00000004   ....               LDI     R27, (??m_auiIntermediateBuff) >> 8
    676              uint8_t* puiAlarmDfaInit = m_auiReceiveMessageBuff;
    677          
    678              memset(puiAlarmDfaInit, 0, DISCRETE_SIGNALS_NUMBER);
   \   00000006   E640               LDI     R20, 96
   \   00000008   ....               RCALL   ?Subroutine4
   \                     ??CrossCallReturnLabel_156:
   \   0000000A   ....               LDI     R16, LOW(??m_auiReceiveMessageBuff)
   \   0000000C   ....               LDI     R17, (??m_auiReceiveMessageBuff) >> 8
   \   0000000E   ....               RCALL   ?Subroutine85
    679          
    680              // Установим конфигурацию устройства.
    681              // Считаем во временный буфер блок БД - "Конфигурация устройства".
    682              CDataBase::ReadBlock(puiTempBuffer, TDataBase::DEV_CONFIG);
   \                     ??CrossCallReturnLabel_120:
   \   00000010   E020               LDI     R18, 0
   \   00000012   ....               RCALL   ?Subroutine41
    683              memcpy(reinterpret_cast<uint8_t*>(&m_xDeviceConfiguration),
    684                     puiTempBuffer,
    685                     sizeof(struct TDevConfig));
   \                     ??CrossCallReturnLabel_126:
   \   00000014   E144               LDI     R20, 20
   \   00000016   E050               LDI     R21, 0
   \   00000018   019D               MOVW    R19:R18, R27:R26
   \   0000001A   ....               LDI     R16, LOW(??m_xDeviceConfiguration)
   \   0000001C   ....               LDI     R17, (??m_xDeviceConfiguration) >> 8
   \   0000001E   ....               RCALL   ?Subroutine48
    686          
    687              // Установим параметры интерфейса ModBus.
    688              // Считаем во временный буфер блок БД - "Параметры интерфейса ModBus".
    689              CDataBase::ReadBlock(puiTempBuffer, TDataBase::MODBUS_SET);
   \                     ??CrossCallReturnLabel_45:
   \   00000020   E021               LDI     R18, 1
   \   00000022   ....               RCALL   ?Subroutine41
    690              memcpy(reinterpret_cast<uint8_t*>(&m_xModbusSettings),
    691                     puiTempBuffer,
    692                     sizeof(struct TMBusSetting));
   \                     ??CrossCallReturnLabel_125:
   \   00000024   E047               LDI     R20, 7
   \   00000026   E050               LDI     R21, 0
   \   00000028   019D               MOVW    R19:R18, R27:R26
   \   0000002A   ....               LDI     R16, LOW((??m_xDeviceConfiguration + 20))
   \   0000002C   ....               LDI     R17, HIGH((??m_xDeviceConfiguration + 20))
   \   0000002E   ....               RCALL   ?Subroutine48
    693          
    694              // Считаем во временный буфер блок БД - "БД модулей вывода".
    695              CDataBase::ReadBlock(puiTempBuffer, TDataBase::OUT_BASE);
   \                     ??CrossCallReturnLabel_44:
   \   00000030   E025               LDI     R18, 5
   \   00000032   ....               RCALL   ?Subroutine41
    696              memcpy(reinterpret_cast<uint8_t*>(&m_xDiscreteOutputDataBase),
    697                     puiTempBuffer,
    698                     sizeof(struct TOutputData));
   \                     ??CrossCallReturnLabel_124:
   \   00000034   E148               LDI     R20, 24
   \   00000036   E050               LDI     R21, 0
   \   00000038   019D               MOVW    R19:R18, R27:R26
   \   0000003A   ....               LDI     R16, LOW((??m_xDeviceConfigSearch + 189))
   \   0000003C   ....               LDI     R17, HIGH((??m_xDeviceConfigSearch + 189))
   \   0000003E   ....               RCALL   ?Subroutine48
    699          
    700              // Установим уровень дискретного сигнала интерпретируемый как активный.
    701              // Считаем во временный буфер блок БД - "Уровень дискретного сигнала интерпретируемый как активный".
    702              CDataBase::ReadBlock(puiTempBuffer, TDataBase::ACTIVITY_LEVEL);
   \                     ??CrossCallReturnLabel_43:
   \   00000040   E022               LDI     R18, 2
   \   00000042   ....               RCALL   ?Subroutine41
    703              for (uint8_t i = 0;
   \                     ??CrossCallReturnLabel_123:
   \   00000044   E020               LDI     R18, 0
    704                      i < DISCRETE_INPUTS_NUMBER;
    705                  )
    706              {
    707                  uint8_t uiData = *puiTempBuffer;
   \                     ??ConfigurationInit_1:
   \   00000046   916D               LD      R22, X+
    708                  for (uint8_t j = 0;
   \   00000048   E050               LDI     R21, 0
   \   0000004A   E038               LDI     R19, 8
    709                          j < 8;
    710                          j++)
    711                  {
    712                      // Установим уровень текущего дискретного сигнала интерпретируемый как активный.
    713                      if (((uiData >> j) & 0x01))
   \                     ??ConfigurationInit_2:
   \   0000004C   E010               LDI     R17, 0
   \   0000004E   ....               LDI     R30, LOW(??m_auiReceiveMessageBuff)
   \   00000050   ....               LDI     R31, (??m_auiReceiveMessageBuff) >> 8
   \   00000052   0FE2               ADD     R30, R18
   \   00000054   1FF1               ADC     R31, R17
   \   00000056   2F06               MOV     R16, R22
   \   00000058   2F45               MOV     R20, R21
   \   0000005A   ........           CALL    ?SS_SHR_L02
   \   0000005E   7001               ANDI    R16, 0x01
   \   00000060   F011               BREQ    ??ConfigurationInit_3
    714                      {
    715                          puiAlarmDfaInit[i] = 0x80;
   \   00000062   E800               LDI     R16, 128
   \   00000064   C001               RJMP    ??ConfigurationInit_4
    716                      }
    717                      else
    718                      {
    719                          puiAlarmDfaInit[i] = 0;
   \                     ??ConfigurationInit_3:
   \   00000066   E000               LDI     R16, 0
   \                     ??ConfigurationInit_4:
   \   00000068   8300               ST      Z, R16
    720                      }
    721                      i++;
   \   0000006A   9523               INC     R18
    722                  }
   \   0000006C   9553               INC     R21
   \   0000006E   953A               DEC     R19
   \   00000070   F769               BRNE    ??ConfigurationInit_2
    723                  puiTempBuffer++;
    724              }
   \   00000072   3320               CPI     R18, 48
   \   00000074   F340               BRCS    ??ConfigurationInit_1
    725          
    726              puiTempBuffer = m_auiIntermediateBuff;
    727              // Привяжем окна сигнализации к дискретным сигналам.
    728              // Считаем во временный буфер блок БД - "Индекс окна сигнализации которое привязано к текущему дискретному сигналу".
    729              CDataBase::ReadBlock(puiTempBuffer, TDataBase::ALARM_WINDOW_INDEX);
   \   00000076   ....               RCALL   ?Subroutine47
    730              for (uint8_t i = 0;
   \                     ??CrossCallReturnLabel_127:
   \   00000078   E020               LDI     R18, 0
   \   0000007A   E600               LDI     R16, 96
    731                      i < DISCRETE_SIGNALS_NUMBER;
    732                      i++)
    733              {
    734                  // Привяжем окно сигнализации к текущему дискретному сигналу.
    735                  puiAlarmDfaInit[i] |= (puiTempBuffer[i] & ~(0x80));
   \                     ??ConfigurationInit_5:
   \   0000007C   2FE2               MOV     R30, R18
   \   0000007E   E0F0               LDI     R31, 0
   \   00000080   ....               SUBI    R30, LOW((-(??m_auiIntermediateBuff) & 0xFFFF))
   \   00000082   ....               SBCI    R31, (-(??m_auiIntermediateBuff) & 0xFFFF) >> 8
   \   00000084   8110               LD      R17, Z
   \   00000086   771F               ANDI    R17, 0x7F
   \   00000088   2FE2               MOV     R30, R18
   \   0000008A   E0F0               LDI     R31, 0
   \   0000008C   ....               SUBI    R30, LOW((-(??m_auiReceiveMessageBuff) & 0xFFFF))
   \   0000008E   ....               SBCI    R31, (-(??m_auiReceiveMessageBuff) & 0xFFFF) >> 8
   \   00000090   8130               LD      R19, Z
   \   00000092   2B31               OR      R19, R17
   \   00000094   8330               ST      Z, R19
    736              }
   \   00000096   9523               INC     R18
   \   00000098   950A               DEC     R16
   \   0000009A   F781               BRNE    ??ConfigurationInit_5
    737          
    738              // Считаем во временный буфер блок БД - "Тип сигнализации привязанный к окну".
    739              CDataBase::ReadBlock(puiTempBuffer, TDataBase::ALARM_TYPE);
   \   0000009C   E024               LDI     R18, 4
   \   0000009E   ....               RCALL   ?Subroutine69
    740              for (uint8_t i = 0;
   \                     ??CrossCallReturnLabel_129:
   \   000000A0   E020               LDI     R18, 0
   \   000000A2   E610               LDI     R17, 96
    741                      i < DISCRETE_SIGNALS_NUMBER;
    742                      i++)
    743              {
    744                  uint8_t uiWindowIndex = (puiAlarmDfaInit[i] & ~(0x80));
   \                     ??ConfigurationInit_6:
   \   000000A4   E030               LDI     R19, 0
   \   000000A6   ....               LDI     R30, LOW(??m_auiReceiveMessageBuff)
   \   000000A8   ....               LDI     R31, (??m_auiReceiveMessageBuff) >> 8
   \   000000AA   0FE2               ADD     R30, R18
   \   000000AC   1FF3               ADC     R31, R19
   \   000000AE   8130               LD      R19, Z
   \   000000B0   2F03               MOV     R16, R19
   \   000000B2   770F               ANDI    R16, 0x7F
    745                  // Для текущего дискретного сигнала запрограммирована сигнализация?
    746                  if (uiWindowIndex < ALARM_WINDOWS_NUMBER)
   \   000000B4   3300               CPI     R16, 48
   \   000000B6   7830               ANDI    R19, 0x80
   \   000000B8   F430               BRCC    ??ConfigurationInit_7
    747                  {
    748                      // Очистим индекс привязанного окна, больше не нужен.
    749                      // Оставим уровень дискретного сигнала интерпретируемый как активный.
    750                      puiAlarmDfaInit[i] &= 0x80;
    751                      // Установим тип сигнализации по привязанному окну.
    752                      puiAlarmDfaInit[i] |= puiTempBuffer[uiWindowIndex];
   \   000000BA   E0B0               LDI     R27, 0
   \   000000BC   ....               SUBI    R16, LOW((-(??m_auiIntermediateBuff) & 0xFFFF))
   \   000000BE   2FA0               MOV     R26, R16
   \   000000C0   ....               SBCI    R27, (-(??m_auiIntermediateBuff) & 0xFFFF) >> 8
   \   000000C2   910C               LD      R16, X
   \   000000C4   2B30               OR      R19, R16
    753                  }
    754                  else
    755                  {
    756                      // Очистим индекс привязанного окна, больше не нужен.
    757                      // Оставим уровень дискретного сигнала интерпретируемый как активный.
    758                      puiAlarmDfaInit[i] &= 0x80;
   \                     ??ConfigurationInit_7:
   \   000000C6   8330               ST      Z, R19
    759                  }
    760              }
   \   000000C8   9523               INC     R18
   \   000000CA   951A               DEC     R17
   \   000000CC   F759               BRNE    ??ConfigurationInit_6
    761          
    762              // Создадим объекты автоматов обработки сигнализаций дискретных сигналов.
    763              for (uint8_t i = 0;
   \   000000CE   E080               LDI     R24, 0
   \   000000D0   E690               LDI     R25, 96
    764                      i < DISCRETE_SIGNALS_NUMBER;
    765                      i++)
    766              {
    767                  // Какой тип сигнализации связан с дискретным сигналом?
    768                  switch (puiAlarmDfaInit[i] & 0x03)
   \                     ??ConfigurationInit_8:
   \   000000D2   E002               LDI     R16, 2
   \   000000D4   9F80               MUL     R24, R16
   \   000000D6   ....               LDI     R26, LOW(??m_apxAlarmDfa)
   \   000000D8   ....               LDI     R27, (??m_apxAlarmDfa) >> 8
   \   000000DA   0DA0               ADD     R26, R0
   \   000000DC   1DB1               ADC     R27, R1
   \   000000DE   E010               LDI     R17, 0
   \   000000E0   ....               LDI     R30, LOW(??m_auiReceiveMessageBuff)
   \   000000E2   ....               LDI     R31, (??m_auiReceiveMessageBuff) >> 8
   \   000000E4   0FE8               ADD     R30, R24
   \   000000E6   1FF1               ADC     R31, R17
   \   000000E8   8100               LD      R16, Z
   \   000000EA   7003               ANDI    R16, 0x03
   \   000000EC   F111               BREQ    ??ConfigurationInit_9
   \   000000EE   950A               DEC     R16
   \   000000F0   F029               BREQ    ??ConfigurationInit_10
   \   000000F2   950A               DEC     R16
   \   000000F4   F061               BREQ    ??ConfigurationInit_11
   \   000000F6   950A               DEC     R16
   \   000000F8   F099               BREQ    ??ConfigurationInit_12
   \   000000FA   C01B               RJMP    ??ConfigurationInit_9
    769                  {
    770                  case NORMAL:
    771                      m_apxAlarmDfa[i] = new CNormalAlarmDfa;
    772                      break;
    773          
    774                  case INDICATION:
    775                      // Уровень дискретного сигнала интерпретируемый как активный - высокий?
    776                      if (puiAlarmDfaInit[i] & 0x80)
   \                     ??ConfigurationInit_10:
   \   000000FC   8100               LD      R16, Z
   \   000000FE   FF07               SBRS    R16, 7
   \   00000100   C003               RJMP    ??ConfigurationInit_13
    777                      {
    778                          m_apxAlarmDfa[i] = new CIndicationAlarmHighLevelDfa;
   \   00000102   ........           CALL    `??new CIndicationAlarmHighLevelDfa`
   \   00000106   C017               RJMP    ??ConfigurationInit_14
    779                      }
    780                      else
    781                      {
    782                          m_apxAlarmDfa[i] = new CIndicationAlarmLowLevelDfa;
   \                     ??ConfigurationInit_13:
   \   00000108   ........           CALL    `??new CIndicationAlarmLowLevelDfa`
   \   0000010C   C014               RJMP    ??ConfigurationInit_14
    783                      }
    784                      break;
    785          
    786                  case PREVENTIVE:
    787                      // Уровень дискретного сигнала интерпретируемый как активный - высокий?
    788                      if (puiAlarmDfaInit[i] & 0x80)
   \                     ??ConfigurationInit_11:
   \   0000010E   8100               LD      R16, Z
   \   00000110   FF07               SBRS    R16, 7
   \   00000112   C003               RJMP    ??ConfigurationInit_15
    789                      {
    790                          m_apxAlarmDfa[i] = new CPreventiveAlarmHighLevelDfa;
   \   00000114   ........           CALL    `??new CPreventiveAlarmHighLevelDfa`
   \   00000118   C00E               RJMP    ??ConfigurationInit_14
    791                      }
    792                      else
    793                      {
    794                          m_apxAlarmDfa[i] = new CPreventiveAlarmLowLevelDfa;
   \                     ??ConfigurationInit_15:
   \   0000011A   ........           CALL    `??new CPreventiveAlarmLowLevelDfa`
   \   0000011E   C00B               RJMP    ??ConfigurationInit_14
    795                      }
    796                      break;
    797          
    798                  case EMERGENCY:
    799                      // Уровень дискретного сигнала интерпретируемый как активный - высокий?
    800                      if (puiAlarmDfaInit[i] & 0x80)
   \                     ??ConfigurationInit_12:
   \   00000120   8100               LD      R16, Z
   \   00000122   FF07               SBRS    R16, 7
   \   00000124   C003               RJMP    ??ConfigurationInit_16
    801                      {
    802                          m_apxAlarmDfa[i] = new CEmergencyAlarmHighLevelDfa;
   \   00000126   ........           CALL    `??new CEmergencyAlarmHighLevelDfa`
   \   0000012A   C005               RJMP    ??ConfigurationInit_14
    803                      }
    804                      else
    805                      {
    806                          m_apxAlarmDfa[i] = new CEmergencyAlarmLowLevelDfa;
   \                     ??ConfigurationInit_16:
   \   0000012C   ........           CALL    `??new CEmergencyAlarmLowLevelDfa`
   \   00000130   C002               RJMP    ??ConfigurationInit_14
    807                      }
    808                      break;
    809          
    810                  case IND_PREVENTIVE:
    811                      m_apxAlarmDfa[i] = new CNormalAlarmDfa;
    812                      break;
    813          
    814                  case IND_EMERGENCY:
    815                      m_apxAlarmDfa[i] = new CNormalAlarmDfa;
    816                      break;
    817          
    818                  default:
    819                      m_apxAlarmDfa[i] = new CNormalAlarmDfa;
   \                     ??ConfigurationInit_9:
   \   00000132   ........           CALL    `??new CNormalAlarmDfa`
   \                     ??ConfigurationInit_14:
   \   00000136   930D               ST      X+, R16
   \   00000138   931C               ST      X, R17
    820                      break;
    821                  }
    822              }
   \   0000013A   9583               INC     R24
   \   0000013C   959A               DEC     R25
   \   0000013E   F649               BRNE    ??ConfigurationInit_8
    823          
    824              // Привяжем окна сигнализации к созданным объектам сигнализаций дискретных сигналов.
    825              // Считаем во временный буфер блок БД - "Индекс окна сигнализации которое привязано к текущему дискретному сигналу".
    826              CDataBase::ReadBlock(puiTempBuffer, TDataBase::ALARM_WINDOW_INDEX);
   \   00000140   ....               RCALL   ?Subroutine47
    827              for (uint8_t i = 0;
   \                     ??CrossCallReturnLabel_128:
   \   00000142   E040               LDI     R20, 0
   \   00000144   E620               LDI     R18, 96
    828                      i < DISCRETE_SIGNALS_NUMBER;
    829                      i++)
    830              {
    831                  // Для текущего дискретного сигнала запрограммирована сигнализация?
    832                  if (puiTempBuffer[i] < ALARM_WINDOWS_NUMBER)
   \                     ??ConfigurationInit_17:
   \   00000146   ....               RCALL   ?Subroutine25
   \                     ??CrossCallReturnLabel_14:
   \   00000148   8111               LDD     R17, Z+1
   \   0000014A   ....               RCALL   ?Subroutine38
   \                     ??CrossCallReturnLabel_29:
   \   0000014C   3330               CPI     R19, 48
   \   0000014E   01F8               MOVW    R31:R30, R17:R16
   \   00000150   F410               BRCC    ??ConfigurationInit_18
    833                  {
    834                      // Привяжем окно сигнализации к текущему дискретному сигналу.
    835                      m_apxAlarmDfa[i] ->
    836                      SetAlarmWindowIndex(puiTempBuffer[i]);
   \   00000152   8333               STD     Z+3, R19
    837                  }
   \   00000154   C002               RJMP    ??ConfigurationInit_19
    838                  else
    839                  {
    840                      m_apxAlarmDfa[i] ->
    841                      SetAlarmWindowIndex(0);
   \                     ??ConfigurationInit_18:
   \   00000156   E000               LDI     R16, 0
   \   00000158   8303               STD     Z+3, R16
    842                  }
    843              }
   \                     ??ConfigurationInit_19:
   \   0000015A   9543               INC     R20
   \   0000015C   952A               DEC     R18
   \   0000015E   F799               BRNE    ??ConfigurationInit_17
    844          
    845              // Считаем во временный буфер блок БД - "Выходные реле, сопоставленные физическим входам".
    846              CDataBase::ReadBlock(puiTempBuffer, TDataBase::RELAY);
   \   00000160   E026               LDI     R18, 6
   \   00000162   ....               RCALL   ?Subroutine69
    847              // Получим связанные выходы на МР.
    848              for (uint8_t i = 0;
   \                     ??CrossCallReturnLabel_130:
   \   00000164   E040               LDI     R20, 0
   \   00000166   E620               LDI     R18, 96
    849                      i < DISCRETE_SIGNALS_NUMBER;
    850                      i++)
    851              {
    852                  *(m_apxAlarmDfa[i] -> GetLinkedDiscreteOutputsPointer()) = puiTempBuffer[i];
   \                     ??ConfigurationInit_20:
   \   00000168   ....               RCALL   ?Subroutine38
   \                     ??CrossCallReturnLabel_30:
   \   0000016A   ....               RCALL   ?Subroutine25
   \                     ??CrossCallReturnLabel_15:
   \   0000016C   81F1               LDD     R31, Z+1
   \   0000016E   2FE0               MOV     R30, R16
   \   00000170   8334               STD     Z+4, R19
   \   00000172   9543               INC     R20
   \   00000174   952A               DEC     R18
   \   00000176   F7C1               BRNE    ??ConfigurationInit_20
    853              };
    854          
    855              // Получим индексы источников состояния дискретных сигналов - дискретные входы модулей.
    856              for (uint8_t i = 0;
   \   00000178   E010               LDI     R17, 0
   \   0000017A   E300               LDI     R16, 48
   \   0000017C   E022               LDI     R18, 2
    857                      i < DISCRETE_INPUTS_NUMBER;
    858                      i++)
    859              {
    860                  m_apxAlarmDfa[i] -> SetDiscreteStateIndex(i);
   \                     ??ConfigurationInit_21:
   \   0000017E   9F12               MUL     R17, R18
   \   00000180   ....               RCALL   ?Subroutine67
   \                     ??CrossCallReturnLabel_67:
   \   00000182   81A0               LD      R26, Z
   \   00000184   81B1               LDD     R27, Z+1
   \   00000186   9615               ADIW    R27:R26, 5
   \   00000188   931C               ST      X, R17
    861              };
   \   0000018A   9513               INC     R17
   \   0000018C   950A               DEC     R16
   \   0000018E   F7B9               BRNE    ??ConfigurationInit_21
    862              // Получим индексы источников состояния дискретных сигналов - состояние ячеек(coils Modbus).
    863              for (uint8_t i = 0;
   \   00000190   E010               LDI     R17, 0
   \   00000192   E300               LDI     R16, 48
   \   00000194   E032               LDI     R19, 2
    864                      i < ALARM_WINDOWS_NUMBER;
    865                      i++)
    866              {
    867                  m_apxAlarmDfa[DISCRETE_INPUTS_NUMBER + i] -> SetDiscreteStateIndex(DISCRETE_INPUTS_NUMBER + i);
   \                     ??ConfigurationInit_22:
   \   00000196   2F21               MOV     R18, R17
   \   00000198   5D20               SUBI    R18, 208
   \   0000019A   9F13               MUL     R17, R19
   \   0000019C   01F0               MOVW    R31:R30, R1:R0
   \   0000019E   ....               SUBI    R30, LOW((-(??m_apxAlarmDfa + 96) & 0xFFFF))
   \   000001A0   ....               SBCI    R31, HIGH((-(??m_apxAlarmDfa + 96) & 0xFFFF))
   \   000001A2   81A0               LD      R26, Z
   \   000001A4   81B1               LDD     R27, Z+1
   \   000001A6   9615               ADIW    R27:R26, 5
   \   000001A8   932C               ST      X, R18
    868          //        m_apxAlarmDfa[DISCRETE_INPUTS_NUMBER + i] -> SetDiscreteStateIndex(i);
    869              };
   \   000001AA   9513               INC     R17
   \   000001AC   950A               DEC     R16
   \   000001AE   F799               BRNE    ??ConfigurationInit_22
    870          
    871              // Восстановим  состояние устройства.
    872              // Считаем во временный буфер блок БД - "Состояние устройства хранимое в EEPROM".
    873              CDataBase::ReadBlock(puiTempBuffer, TDataBase::DEVICE_STATE);
   \   000001B0   E02A               LDI     R18, 10
   \   000001B2   ....               RCALL   ?Subroutine69
    874              memcpy(reinterpret_cast<uint8_t*>(&m_xDeviceState),
    875                     puiTempBuffer,
    876                     sizeof(struct TDeviceState));
   \                     ??CrossCallReturnLabel_131:
   \   000001B4   E048               LDI     R20, 8
   \   000001B6   E050               LDI     R21, 0
   \   000001B8   ....               LDI     R18, LOW(??m_auiIntermediateBuff)
   \   000001BA   ....               LDI     R19, (??m_auiIntermediateBuff) >> 8
   \   000001BC   ....               LDI     R16, LOW((??m_xDeviceConfiguration + 27))
   \   000001BE   ....               LDI     R17, HIGH((??m_xDeviceConfiguration + 27))
   \   000001C0   ....               RCALL   ?Subroutine48
    877          
    878          //    // Создадим автоматы обработки ошибок.
    879          //    uint8_t uiIndex = 0;
    880          //
    881          //    m_apxErrorAlarmDfa[uiIndex] = new CErrorAlarmDfa;
    882          //    // Привяжем окно сигнализации к созданному объекту сигнализации ошибки.
    883          //    m_apxErrorAlarmDfa[uiIndex] -> SetAlarmWindowIndex(IMD_ERROR);
    884          //    // Установим индекс источника состояния ошибки.
    885          //    m_apxErrorAlarmDfa[uiIndex] -> SetDiscreteStateIndex(IMD_ERROR);
    886          //    uiIndex++;
    887          //
    888          //    m_apxErrorAlarmDfa[uiIndex] = new CErrorAlarmDfa;
    889          //    // Привяжем окно сигнализации к созданному объекту сигнализации ошибки.
    890          //    m_apxErrorAlarmDfa[uiIndex] -> SetAlarmWindowIndex(OMD_ERROR);
    891          //    // Установим индекс источника состояния ошибки.
    892          //    m_apxErrorAlarmDfa[uiIndex] -> SetDiscreteStateIndex(OMD_ERROR);
    893          //    uiIndex++;
    894          //
    895          //    m_apxErrorAlarmDfa[uiIndex] = new CErrorAlarmDfa;
    896          //    // Привяжем окно сигнализации к созданному объекту сигнализации ошибки.
    897          //    m_apxErrorAlarmDfa[uiIndex] -> SetAlarmWindowIndex(CFG_ERROR);
    898          //    // Установим индекс источника состояния ошибки.
    899          //    m_apxErrorAlarmDfa[uiIndex] -> SetDiscreteStateIndex(CFG_ERROR);
    900          //    uiIndex++;
    901          //
    902          //    m_apxErrorAlarmDfa[uiIndex] = new CErrorAlarmDfa;
    903          //    // Привяжем окно сигнализации к созданному объекту сигнализации ошибки.
    904          //    m_apxErrorAlarmDfa[uiIndex] -> SetAlarmWindowIndex(DB_ERROR);
    905          //    // Установим индекс источника состояния ошибки.
    906          //    m_apxErrorAlarmDfa[uiIndex] -> SetDiscreteStateIndex(DB_ERROR);
    907          //    uiIndex++;
    908          //
    909          //    m_apxErrorAlarmDfa[uiIndex] = new CErrorAlarmDfa;
    910          //    // Привяжем окно сигнализации к созданному объекту сигнализации ошибки.
    911          //    m_apxErrorAlarmDfa[uiIndex] -> SetAlarmWindowIndex(MBS_ERROR);
    912          //    // Установим индекс источника состояния ошибки.
    913          //    m_apxErrorAlarmDfa[uiIndex] -> SetDiscreteStateIndex(MBS_ERROR);
    914          //    uiIndex++;
    915          
    916              // Создадим автоматы обработки ошибок.
    917              for (uint8_t i = 0;
   \                     ??CrossCallReturnLabel_42:
   \   000001C2   E090               LDI     R25, 0
   \   000001C4   E082               LDI     R24, 2
    918                      i < HANDLED_ERROR_NUMBER;
    919                      i++)
    920              {
    921                  m_apxErrorAlarmDfa[i] = new CErrorAlarmDfa;
   \                     ??ConfigurationInit_23:
   \   000001C6   ........           CALL    `??new CErrorAlarmDfa`
   \   000001CA   E022               LDI     R18, 2
   \   000001CC   9F92               MUL     R25, R18
   \   000001CE   ....               RCALL   ?Subroutine30
   \                     ??CrossCallReturnLabel_19:
   \   000001D0   8F02               STD     Z+26, R16
   \   000001D2   8F13               STD     Z+27, R17
    922                  // Привяжем окно сигнализации к созданному объекту сигнализации ошибки.
    923                  m_apxErrorAlarmDfa[i] -> SetAlarmWindowIndex(i);
   \   000001D4   01D8               MOVW    R27:R26, R17:R16
   \   000001D6   9613               ADIW    R27:R26, 3
   \   000001D8   939C               ST      X, R25
    924                  // Установим индекс источника состояния ошибки.
    925                  m_apxErrorAlarmDfa[i] -> SetDiscreteStateIndex(i);
   \   000001DA   8D02               LDD     R16, Z+26
   \   000001DC   8DF3               LDD     R31, Z+27
   \   000001DE   2FE0               MOV     R30, R16
   \   000001E0   8394               STD     Z+4, R25
    926              };
   \   000001E2   9593               INC     R25
   \   000001E4   958A               DEC     R24
   \   000001E6   F779               BRNE    ??ConfigurationInit_23
    927          }
   \   000001E8   ....               RJMP    ?Subroutine87

   \                                 In  segment CODE, align 2, keep-with-next
   \                     ?Subroutine48:
   \   00000000   ........           JMP     memcpy

   \                                 In  segment CODE, align 2, keep-with-next
   \                     ?Subroutine47:
   \   00000000   E023               LDI     R18, 3
   \   00000002                      REQUIRE ?Subroutine69
   \   00000002                      ;               // Fall through to label ?Subroutine69

   \                                 In  segment CODE, align 2, keep-with-next
   \                     ?Subroutine69:
   \   00000000   ....               LDI     R16, LOW(??m_auiIntermediateBuff)
   \   00000002   ....               LDI     R17, (??m_auiIntermediateBuff) >> 8
   \   00000004                      REQUIRE ?Subroutine89
   \   00000004                      ;               // Fall through to label ?Subroutine89

   \                                 In  segment CODE, align 2, keep-with-next
   \                     ?Subroutine89:
   \   00000000   ........           JMP     ??ReadBlock

   \                                 In  segment CODE, align 2, keep-with-next
   \                     ?Subroutine41:
   \   00000000   018D               MOVW    R17:R16, R27:R26
   \   00000002   ....               RJMP    ?Subroutine89

   \                                 In  segment CODE, align 2, keep-with-next
   \                     ?Subroutine38:
   \   00000000   E0F0               LDI     R31, 0
   \   00000002   2FE4               MOV     R30, R20
   \   00000004   ....               SUBI    R30, LOW((-(??m_auiIntermediateBuff) & 0xFFFF))
   \   00000006   ....               SBCI    R31, (-(??m_auiIntermediateBuff) & 0xFFFF) >> 8
   \   00000008   8130               LD      R19, Z
   \   0000000A   9508               RET

   \                                 In  segment CODE, align 2, keep-with-next
   \                     ?Subroutine25:
   \   00000000   E002               LDI     R16, 2
   \   00000002   9F40               MUL     R20, R16
   \   00000004   ....               RCALL   ?Subroutine67
   \                     ??CrossCallReturnLabel_69:
   \   00000006   8100               LD      R16, Z
   \   00000008   9508               RET

   \                                 In  segment CODE, align 2, keep-with-next
   \                     ?Subroutine67:
   \   00000000   01F0               MOVW    R31:R30, R1:R0
   \   00000002   ....               SUBI    R30, LOW((-(??m_apxAlarmDfa) & 0xFFFF))
   \   00000004   ....               SBCI    R31, (-(??m_apxAlarmDfa) & 0xFFFF) >> 8
   \   00000006   9508               RET
    928          
    929          //-----------------------------------------------------------------------------------------------------

   \                                 In  segment CODE, align 2, keep-with-next
    930          void CPss21::DiscreteOutputControlClear(void)
   \                     ??DiscreteOutputControlClear:
    931          {
   \   00000000   01AC               MOVW    R21:R20, R25:R24
    932              // Приведение буферов управления модулями дискретных выходов(реле) в исходное состояние.
    933              for (int j = 0;
    934                      j < DISCRETE_OUTPUT_MODULE_MAX_NUMBER;
    935                      j++)
    936              {
    937                  // цикл выбора реле.
    938                  for (int k = 0;
   \   00000002   ....               RCALL   ?Subroutine34
   \                     ??CrossCallReturnLabel_22:
   \   00000004   E008               LDI     R16, 8
   \   00000006   E010               LDI     R17, 0
    939                          k < MR_DISCRETE_OUTPUT_NUMBER;
    940                          k++)
    941                  {
    942                      // Сбросим флаг - новое нарушение.
    943                      m_axDiscreteOutputControl[(j * MR_DISCRETE_OUTPUT_NUMBER) + k].uiNewActivation = 0;
   \                     ??DiscreteOutputControlClear_1:
   \   00000008   019C               MOVW    R19:R18, R25:R24
   \   0000000A   0F22               LSL     R18
   \   0000000C   1F33               ROL     R19
   \   0000000E   ....               RCALL   ?Subroutine65
   \                     ??CrossCallReturnLabel_60:
   \   00000010   0FE2               ADD     R30, R18
   \   00000012   1FF3               ADC     R31, R19
   \   00000014   8F16               STD     Z+30, R17
    944                      // Сбросим флаг - требование включения реле.
    945                      m_axDiscreteOutputControl[(j * MR_DISCRETE_OUTPUT_NUMBER) + k].uiRelayActivationRequest = 0;
   \   00000016   8F17               STD     Z+31, R17
    946                  }
   \   00000018   9601               ADIW    R25:R24, 1
   \   0000001A   950A               DEC     R16
   \   0000001C   F7A9               BRNE    ??DiscreteOutputControlClear_1
    947              }
    948          }
   \   0000001E   01CA               MOVW    R25:R24, R21:R20
   \   00000020   9508               RET
    949          
    950          //-----------------------------------------------------------------------------------------------------

   \                                 In  segment CODE, align 2, keep-with-next
    951          void CPss21::DiscreteOutputsSet(uint8_t *puiLinkedDiscreteOutputs, uint8_t uiNewViolation)
   \                     ??DiscreteOutputsSet:
    952          {
   \   00000000   ....               RCALL   ?Subroutine40
   \                     ??CrossCallReturnLabel_35:
   \   00000002   01B8               MOVW    R23:R22, R17:R16
    953              // Дискретный сигнал был активен на предыдущем шаге?
    954              if (!uiNewViolation)
   \   00000004   2322               TST     R18
   \   00000006   E0A0               LDI     R26, 0
   \   00000008   E0B0               LDI     R27, 0
   \   0000000A   E031               LDI     R19, 1
   \   0000000C   F489               BRNE    ??DiscreteOutputsSet_1
    955              {
    956                  // Не новое нарушение.
    957                  // установим флаги - требования включения, для запрограммированных реле,
    958                  // в буфере выходов требований включения реле - блокировка.
    959                  // цикл выбора модуля.
    960                  for (int j = 0;
    961                          j < DISCRETE_OUTPUT_MODULE_MAX_NUMBER;
    962                          j++)
    963                  {
    964                      // цикл выбора реле.
    965                      for (int k = 0;
   \                     ??DiscreteOutputsSet_2:
   \   0000000E   ....               RCALL   ?Subroutine34
   \                     ??CrossCallReturnLabel_23:
   \   00000010   E028               LDI     R18, 8
    966                              k < MR_DISCRETE_OUTPUT_NUMBER;
    967                              k++)
    968                      {
    969                          // Текущий - (j, k) дискретный выход(реле) привязан?
    970                          if (puiLinkedDiscreteOutputs[j] & (0x01 << k))
   \                     ??DiscreteOutputsSet_3:
   \   00000012   ....               RCALL   ?Subroutine24
   \                     ??CrossCallReturnLabel_176:
   \   00000014   F031               BREQ    ??DiscreteOutputsSet_4
    971                          {
    972                              // установим флаг - требование включения реле.
    973                              m_axDiscreteOutputControl[(j * MR_DISCRETE_OUTPUT_NUMBER) + k].uiRelayActivationRequest = 1;
   \   00000016   ....               RCALL   ?Subroutine42
    974                          }
    975                      }
   \                     ??CrossCallReturnLabel_36:
   \   00000018   01F8               MOVW    R31:R30, R17:R16
   \   0000001A   ....               SUBI    R30, LOW((-(??m_xDeviceConfigSearch) & 0xFFFF))
   \   0000001C   ....               SBCI    R31, (-(??m_xDeviceConfigSearch) & 0xFFFF) >> 8
   \   0000001E   E001               LDI     R16, 1
   \   00000020   8F07               STD     Z+31, R16
   \                     ??DiscreteOutputsSet_4:
   \   00000022   9601               ADIW    R25:R24, 1
   \   00000024   952A               DEC     R18
   \   00000026   F7A9               BRNE    ??DiscreteOutputsSet_3
    976                  }
   \   00000028   9611               ADIW    R27:R26, 1
   \   0000002A   953A               DEC     R19
   \   0000002C   F091               BREQ    ??DiscreteOutputsSet_5
   \   0000002E   CFEF               RJMP    ??DiscreteOutputsSet_2
    977              }
    978              else
    979              {
    980                  // новое нарушение.
    981                  // установим флаги - новое нарушение, для запрограммированных реле
    982                  // в буфере выходов управления реле - новое нарушение.
    983                  // установим флаги - требования включения, для запрограммированных реле,
    984                  // в буфере выходов требований включения реле - блокировка.
    985                  // цикл выбора модуля.
    986                  for (int j = 0;
    987                          j < DISCRETE_OUTPUT_MODULE_MAX_NUMBER;
    988                          j++)
    989                  {
    990                      // цикл выбора реле.
    991                      for (int k = 0;
   \                     ??DiscreteOutputsSet_1:
   \   00000030   ....               RCALL   ?Subroutine34
   \                     ??CrossCallReturnLabel_24:
   \   00000032   E028               LDI     R18, 8
    992                              k < MR_DISCRETE_OUTPUT_NUMBER;
    993                              k++)
    994                      {
    995                          // Текущий - (j, k) дискретный выход(реле) привязан?
    996                          if (puiLinkedDiscreteOutputs[j] & (0x01 << k))
   \                     ??DiscreteOutputsSet_6:
   \   00000034   ....               RCALL   ?Subroutine24
   \                     ??CrossCallReturnLabel_177:
   \   00000036   F039               BREQ    ??DiscreteOutputsSet_7
    997                          {
    998                              // установим флаг - новое нарушение.
    999                              m_axDiscreteOutputControl[(j * MR_DISCRETE_OUTPUT_NUMBER) + k].uiNewActivation = 1;
   \   00000038   ....               RCALL   ?Subroutine42
   \                     ??CrossCallReturnLabel_37:
   \   0000003A   ....               RCALL   ?Subroutine65
   \                     ??CrossCallReturnLabel_61:
   \   0000003C   0FE0               ADD     R30, R16
   \   0000003E   1FF1               ADC     R31, R17
   \   00000040   E001               LDI     R16, 1
   \   00000042   8F06               STD     Z+30, R16
   1000                              // установим флаг - требование включения реле.
   1001                              m_axDiscreteOutputControl[(j * MR_DISCRETE_OUTPUT_NUMBER) + k].uiRelayActivationRequest = 1;
   \   00000044   8F07               STD     Z+31, R16
   1002                          }
   1003                      }
   \                     ??DiscreteOutputsSet_7:
   \   00000046   9601               ADIW    R25:R24, 1
   \   00000048   952A               DEC     R18
   \   0000004A   F7A1               BRNE    ??DiscreteOutputsSet_6
   1004                  }
   \   0000004C   9611               ADIW    R27:R26, 1
   \   0000004E   953A               DEC     R19
   \   00000050   F779               BRNE    ??DiscreteOutputsSet_1
   1005              }
   1006          }
   \                     ??DiscreteOutputsSet_5:
   \   00000052   ....               RJMP    ?Subroutine87

   \                                 In  segment CODE, align 2, keep-with-next
   \                     ?Subroutine42:
   \   00000000   E043               LDI     R20, 3
   \   00000002   018D               MOVW    R17:R16, R27:R26
   \   00000004   ....               RCALL   ?Subroutine66
   \                     ??CrossCallReturnLabel_179:
   \   00000006   0F08               ADD     R16, R24
   \   00000008   1F19               ADC     R17, R25
   \   0000000A   0F00               LSL     R16
   \   0000000C   1F11               ROL     R17
   \   0000000E   9508               RET

   \                                 In  segment CODE, align 2, keep-with-next
   \                     ?Subroutine24:
   \   00000000   01FB               MOVW    R31:R30, R23:R22
   \   00000002   0FEA               ADD     R30, R26
   \   00000004   1FFB               ADC     R31, R27
   \   00000006   8150               LD      R21, Z
   \   00000008   2F48               MOV     R20, R24
   \   0000000A                      REQUIRE ??Subroutine97_0
   \   0000000A                      ;               // Fall through to label ??Subroutine97_0
   1007          
   1008          //-----------------------------------------------------------------------------------------------------

   \                                 In  segment CODE, align 2, keep-with-next
   1009          void CPss21::AlarmsProcessing(void)
   \                     ??AlarmsProcessing:
   1010          {
   \   00000000   939A               ST      -Y, R25
   \   00000002   938A               ST      -Y, R24
   1011              // Обработаем все дискретные сигналы.
   1012              for (uint8_t i = 0;
   \   00000004   E090               LDI     R25, 0
   \   00000006   E680               LDI     R24, 96
   1013                      i < DISCRETE_SIGNALS_NUMBER;
   1014                      i++)
   1015              {
   1016                  m_apxAlarmDfa[i] -> Fsm();
   \                     ??AlarmsProcessing_1:
   \   00000008   E002               LDI     R16, 2
   \   0000000A   9F90               MUL     R25, R16
   \   0000000C   ....               RCALL   ?Subroutine67
   1017              }
   \                     ??CrossCallReturnLabel_68:
   \   0000000E   8120               LD      R18, Z
   \   00000010   8131               LDD     R19, Z+1
   \   00000012   ....               RCALL   ?Subroutine37
   \                     ??CrossCallReturnLabel_27:
   \   00000014   F7C9               BRNE    ??AlarmsProcessing_1
   1018          }
   \   00000016                      REQUIRE ?Subroutine76
   \   00000016                      ;               // Fall through to label ?Subroutine76

   \                                 In  segment CODE, align 2, keep-with-next
   \                     ?Subroutine76:
   \   00000000   9189               LD      R24, Y+
   \   00000002   9199               LD      R25, Y+
   \   00000004   9508               RET

   \                                 In  segment CODE, align 2, keep-with-next
   \                     ?Subroutine37:
   \   00000000   0189               MOVW    R17:R16, R19:R18
   \   00000002   01F9               MOVW    R31:R30, R19:R18
   \   00000004   8121               LDD     R18, Z+1
   \   00000006   81F2               LDD     R31, Z+2
   \   00000008   2FE2               MOV     R30, R18
   \   0000000A   ....               RCALL   ?Subroutine64
   \                     ??CrossCallReturnLabel_56:
   \   0000000C   9593               INC     R25
   \   0000000E   958A               DEC     R24
   \   00000010   9508               RET
   1019          
   1020          //-----------------------------------------------------------------------------------------------------

   \                                 In  segment CODE, align 2, keep-with-next
   1021          void CPss21::ErrorAlarmsProcessing(void)
   \                     ??ErrorAlarmsProcessing:
   1022          {
   \   00000000   939A               ST      -Y, R25
   \   00000002   938A               ST      -Y, R24
   1023              // Обработаем все дискретные сигналы.
   1024              for (uint8_t i = 0;
   \   00000004   E090               LDI     R25, 0
   \   00000006   E082               LDI     R24, 2
   \                     ??ErrorAlarmsProcessing_1:
   \   00000008   E002               LDI     R16, 2
   \   0000000A   9F90               MUL     R25, R16
   \   0000000C   ....               RCALL   ?Subroutine30
   1025                      i < HANDLED_ERROR_NUMBER;
   1026                      i++)
   1027              {
   1028                  m_apxErrorAlarmDfa[i] -> Fsm();
   1029              }
   \                     ??CrossCallReturnLabel_20:
   \   0000000E   8D22               LDD     R18, Z+26
   \   00000010   8D33               LDD     R19, Z+27
   \   00000012   ....               RCALL   ?Subroutine37
   \                     ??CrossCallReturnLabel_28:
   \   00000014   F7C9               BRNE    ??ErrorAlarmsProcessing_1
   1030          }
   \   00000016   ....               RJMP    ?Subroutine76
   1031          
   1032          //-----------------------------------------------------------------------------------------------------

   \                                 In  segment CODE, align 2, keep-with-next
   1033          uint8_t CPss21::GetDiscreteInputState(uint8_t uiIndex)
   \                     ??GetDiscreteInputState:
   1034          {
   1035          //    // Не вышли за границы массива дискретных сигналов?
   1036          //    if ((uiIndex >= 0) &&
   1037          //            (uiIndex < (DISCRETE_INPUTS_NUMBER + ALARM_WINDOWS_NUMBER)))
   1038          //    {
   1039          //        // Получим состояние дискретного сигнала - дискретные входы модулей.
   1040          //        return m_aucRtuDiscreteDataArray[DISCRETE_INPUTS_BIT_ARRAY_OFFSET + uiIndex];
   1041          //    }
   1042          //    else
   1043          //    {
   1044          //        // Получим состояние дискретного сигнала - дискретные входы модулей, вход 0.
   1045          //        return m_aucRtuDiscreteDataArray[DISCRETE_INPUTS_BIT_ARRAY_OFFSET];
   1046          //    }
   1047          
   1048                  if (uiIndex < DISCRETE_INPUTS_NUMBER)
   1049                  {
   1050                      // Получим состояние дискретного сигнала - дискретные входы модулей.
   1051                      return m_aucRtuDiscreteDataArray[DISCRETE_INPUTS_BIT_ARRAY_OFFSET + uiIndex];
   1052                  }
   1053                  else
   1054                  {
   1055                      // Получим состояние дискретного сигнала - состояние ячеек(coils Modbus).
   1056                      return m_aucRtuDiscreteDataArray[ALARM_WINDOWS_BIT_ARRAY_OFFSET + (uiIndex - DISCRETE_INPUTS_NUMBER)];
   \   00000000   E0F0               LDI     R31, 0
   \   00000002   2FE0               MOV     R30, R16
   \   00000004   ....               SUBI    R30, LOW((-(??m_aucRtuDiscreteDataArray) & 0xFFFF))
   \   00000006   ....               SBCI    R31, (-(??m_aucRtuDiscreteDataArray) & 0xFFFF) >> 8
   \   00000008   8900               LDD     R16, Z+16
   \   0000000A   9508               RET
   1057                  }
   1058          }
   1059          
   1060          //-----------------------------------------------------------------------------------------------------

   \                                 In  segment CODE, align 2, keep-with-next
   1061          void CPss21::SetErrorAlarmState(uint8_t uiIndex, uint8_t uiData)
   \                     ??SetErrorAlarmState:
   1062          {
   1063              // Установим состояние источника ошибки.
   1064              m_auiErrorAlarmDataArray[uiIndex] = uiData;
   \   00000000   ....               RCALL   ?Subroutine39
   \                     ??CrossCallReturnLabel_31:
   \   00000002   AF13               STD     Z+59, R17
   1065          }
   \   00000004   9508               RET

   \                                 In  segment CODE, align 2, keep-with-next
   \                     ?Subroutine39:
   \   00000000   E0F0               LDI     R31, 0
   \   00000002   2FE0               MOV     R30, R16
   \   00000004   ....               SUBI    R30, LOW((-(??m_xDeviceConfigSearch) & 0xFFFF))
   \   00000006   ....               SBCI    R31, (-(??m_xDeviceConfigSearch) & 0xFFFF) >> 8
   \   00000008   9508               RET
   1066          
   1067          //-----------------------------------------------------------------------------------------------------

   \                                 In  segment CODE, align 2, keep-with-next
   1068          uint8_t CPss21::GetErrorAlarmState(uint8_t uiIndex)
   \                     ??GetErrorAlarmState:
   1069          {
   1070              // Получим состояние источника ошибки.
   1071              return m_auiErrorAlarmDataArray[uiIndex];
   \   00000000   ....               RCALL   ?Subroutine39
   \                     ??CrossCallReturnLabel_32:
   \   00000002   AD03               LDD     R16, Z+59
   \   00000004   9508               RET
   1072          }
   1073          
   1074          //-----------------------------------------------------------------------------------------------------

   \                                 In  segment CODE, align 2, keep-with-next
   1075          void CPss21::AlarmTypeSet(uint8_t uiAlarmType)
   \                     ??AlarmTypeSet:
   1076          {
   \   00000000   938A               ST      -Y, R24
   \   00000002   2F80               MOV     R24, R16
   1077              m_xPreventiveAlarmWindowNotifyerControl.AlarmSet(uiAlarmType);
   \   00000004   2F20               MOV     R18, R16
   \   00000006   ....               RCALL   ?Subroutine57
   1078              m_xEmergencyAlarmWindowNotifyerControl.AlarmSet(uiAlarmType);
   \                     ??CrossCallReturnLabel_207:
   \   00000008   2F28               MOV     R18, R24
   \   0000000A   ....               RCALL   ?Subroutine58
   1079              m_xStatusLedNotifyerControl.AlarmSet(uiAlarmType);
   \                     ??CrossCallReturnLabel_209:
   \   0000000C   2F28               MOV     R18, R24
   \   0000000E   ....               RCALL   ?Subroutine59
   1080              m_xBuzzerNotifyerControl.AlarmSet(uiAlarmType);
   \                     ??CrossCallReturnLabel_211:
   \   00000010   2F28               MOV     R18, R24
   \   00000012   ....               RCALL   ?Subroutine60
   1081          }
   \                     ??CrossCallReturnLabel_216:
   \   00000014   ....               RJMP    ?Subroutine83

   \                                 In  segment CODE, align 2, keep-with-next
   \                     ?Subroutine59:
   \   00000000   ....               LDI     R16, LOW((??m_xDeviceConfigSearch + 165))
   \   00000002   ....               LDI     R17, HIGH((??m_xDeviceConfigSearch + 165))
   \   00000004   ........           JMP     ??AlarmSet_3

   \                                 In  segment CODE, align 2, keep-with-next
   \                     ?Subroutine58:
   \   00000000   ....               LDI     R16, LOW((??m_xDeviceConfigSearch + 153))
   \   00000002   ....               LDI     R17, HIGH((??m_xDeviceConfigSearch + 153))
   \   00000004   ........           JMP     ??AlarmSet_2

   \                                 In  segment CODE, align 2, keep-with-next
   \                     ?Subroutine57:
   \   00000000   ....               LDI     R16, LOW((??m_xDeviceConfigSearch + 141))
   \   00000002   ....               LDI     R17, HIGH((??m_xDeviceConfigSearch + 141))
   \   00000004   ........           JMP     ??AlarmSet_1
   1082          
   1083          //-----------------------------------------------------------------------------------------------------

   \                                 In  segment CODE, align 2, keep-with-next
   1084          void CPss21::AlarmTypeChange(void)
   \                     ??AlarmTypeChange:
   1085          {
   1086              if (m_uiCommonAlarmType != m_uiCommonAlarmTypePrevious)
   \   00000000   ....               RCALL   ?Subroutine31
   \                     ??CrossCallReturnLabel_113:
   \   00000002   F011               BREQ    ??CrossCallReturnLabel_183
   1087              {
   1088                  m_uiCommonAlarmTypePrevious = m_uiCommonAlarmType;
   \   00000004   AF02               STD     Z+58, R16
   1089                  AlarmTypeSet(m_uiCommonAlarmType);
   \   00000006   ....               RCALL   ??Subroutine98_0
   1090              }
   1091          }
   \                     ??CrossCallReturnLabel_183:
   \   00000008   9508               RET

   \                                 In  segment CODE, align 2, keep-with-next
   \                     ?Subroutine31:
   \   00000000   ....               RCALL   ?Subroutine65
   \                     ??CrossCallReturnLabel_66:
   \   00000002   AD01               LDD     R16, Z+57
   \   00000004   AD12               LDD     R17, Z+58
   \   00000006   ....               RJMP    ?Subroutine82

   \                                 In  segment CODE, align 2, keep-with-next
   \                     ??Subroutine98_0:
   \   00000000   ....               RJMP    ??AlarmTypeSet
   1092          
   1093          //-----------------------------------------------------------------------------------------------------

   \                                 In  segment CODE, align 2, keep-with-next
   1094          void CPss21::AlarmTypeErrorChange(void)
   \                     ??AlarmTypeErrorChange:
   1095          {
   1096              if (m_uiCommonAlarmType != m_uiCommonAlarmTypePrevious)
   \   00000000   ....               RCALL   ?Subroutine31
   \                     ??CrossCallReturnLabel_114:
   \   00000002   F011               BREQ    ??CrossCallReturnLabel_215
   1097              {
   1098                  m_uiCommonAlarmTypePrevious = m_uiCommonAlarmType;
   \   00000004   AF02               STD     Z+58, R16
   1099          
   1100                  m_xPreventiveAlarmWindowNotifyerControl.AlarmSet(INDICATION);
   \   00000006   ....               RCALL   ??Subroutine103_0
   1101                  m_xEmergencyAlarmWindowNotifyerControl.AlarmSet(INDICATION);
   1102                  m_xStatusLedNotifyerControl.AlarmSet(ERROR);
   1103                  m_xBuzzerNotifyerControl.AlarmSet(ERROR);
   1104              }
   1105          }
   \                     ??CrossCallReturnLabel_215:
   \   00000008   9508               RET

   \                                 In  segment CODE, align 2, keep-with-next
   \                     ??Subroutine103_0:
   \   00000000   E021               LDI     R18, 1
   \   00000002   ....               RCALL   ?Subroutine57
   \                     ??CrossCallReturnLabel_206:
   \   00000004   E021               LDI     R18, 1
   \   00000006   ....               RCALL   ?Subroutine58
   \                     ??CrossCallReturnLabel_208:
   \   00000008   E026               LDI     R18, 6
   \   0000000A   ....               RCALL   ?Subroutine59
   \                     ??CrossCallReturnLabel_210:
   \   0000000C   E026               LDI     R18, 6
   \   0000000E                      REQUIRE ?Subroutine60
   \   0000000E                      ;               // Fall through to label ?Subroutine60
   1106          
   1107          //-----------------------------------------------------------------------------------------------------

   \                                 In  segment CODE, align 2, keep-with-next
   1108          void CPss21::AlarmTypeReceipt(void)
   \                     ??AlarmTypeReceipt:
   1109          {
   1110              m_uiCommonAlarmType = INDICATION;
   \   00000000   E001               LDI     R16, 1
   \   00000002                      REQUIRE ?Subroutine90
   \   00000002                      ;               // Fall through to label ?Subroutine90
   1111              m_uiCommonAlarmTypePrevious = INDICATION;
   1112              AlarmTypeSet(INDICATION);
   1113          }

   \                                 In  segment CODE, align 2, keep-with-next
   \                     ?Subroutine90:
   \   00000000   ....               RCALL   ?Subroutine52
   \                     ??CrossCallReturnLabel_132:
   \   00000002                      REQUIRE ??Subroutine98_0
   \   00000002                      ;               // Fall through to label ??Subroutine98_0

   \                                 In  segment CODE, align 2, keep-with-next
   \                     ?Subroutine52:
   \   00000000   9300....           STS     (??m_xDeviceConfigSearch + 57), R16
   \   00000004   9300....           STS     (??m_xDeviceConfigSearch + 58), R16
   \   00000008   9508               RET
   1114          
   1115          //-----------------------------------------------------------------------------------------------------

   \                                 In  segment CODE, align 2, keep-with-next
   1116          void CPss21::AlarmTypeReset(void)
   \                     ??AlarmTypeReset:
   1117          {
   1118              m_uiCommonAlarmType = NORMAL;
   \   00000000   E000               LDI     R16, 0
   \   00000002   ....               RJMP    ?Subroutine90
   1119              m_uiCommonAlarmTypePrevious = NORMAL;
   1120              AlarmTypeSet(NORMAL);
   1121          }
   1122          
   1123          //-----------------------------------------------------------------------------------------------------

   \                                 In  segment CODE, align 2, keep-with-next
   1124          void CPss21::NotifyersControlProcessing(void)
   \                     ??NotifyersControlProcessing:
   1125          {
   1126              m_xPreventiveAlarmWindowNotifyerControl.Fsm();
   \   00000000   ....               LDI     R16, LOW((??m_xDeviceConfigSearch + 141))
   \   00000002   ....               LDI     R17, HIGH((??m_xDeviceConfigSearch + 141))
   \   00000004   ....               RCALL   ?Subroutine91
   1127              m_xEmergencyAlarmWindowNotifyerControl.Fsm();
   \                     ??CrossCallReturnLabel_135:
   \   00000006   ....               LDI     R16, LOW((??m_xDeviceConfigSearch + 153))
   \   00000008   ....               LDI     R17, HIGH((??m_xDeviceConfigSearch + 153))
   \   0000000A   ....               RCALL   ?Subroutine91
   1128              m_xStatusLedNotifyerControl.Fsm();
   \                     ??CrossCallReturnLabel_134:
   \   0000000C   ....               LDI     R16, LOW((??m_xDeviceConfigSearch + 165))
   \   0000000E   ....               LDI     R17, HIGH((??m_xDeviceConfigSearch + 165))
   \   00000010   ....               RCALL   ?Subroutine91
   1129              m_xBuzzerNotifyerControl.Fsm();
   \                     ??CrossCallReturnLabel_133:
   \   00000012   ....               LDI     R16, LOW((??m_xDeviceConfigSearch + 177))
   \   00000014   ....               LDI     R17, HIGH((??m_xDeviceConfigSearch + 177))
   \   00000016                      REQUIRE ?Subroutine91
   \   00000016                      ;               // Fall through to label ?Subroutine91
   1130          }

   \                                 In  segment CODE, align 2, keep-with-next
   \                     ?Subroutine91:
   \   00000000   ........           JMP     ??Fsm
   1131          
   1132          //-----------------------------------------------------------------------------------------------------

   \                                 In  segment CODE, align 2, keep-with-next
   1133          void CPss21::SetAlarmWindowType(uint8_t uiAlarmWindowIndex, uint8_t uiAlarmType)
   \                     ??SetAlarmWindowType:
   1134          {
   \   00000000   2F21               MOV     R18, R17
   1135              GetAlarmWindowControlPointer(uiAlarmWindowIndex) -> SetAlarmType(uiAlarmType);
   \   00000002   E010               LDI     R17, 0
   \   00000004   E046               LDI     R20, 6
   \   00000006   ....               RCALL   ?Subroutine71
   \                     ??CrossCallReturnLabel_197:
   \   00000008   01F8               MOVW    R31:R30, R17:R16
   \   0000000A   ....               SUBI    R30, LOW((-(??m_axAlarmWindowControl) & 0xFFFF))
   \   0000000C   ....               SBCI    R31, (-(??m_axAlarmWindowControl) & 0xFFFF) >> 8
   \   0000000E   8322               STD     Z+2, R18
   1136          }
   \   00000010   9508               RET
   1137          
   1138          //-----------------------------------------------------------------------------------------------------

   \                                 In  segment CODE, align 2, keep-with-next
   1139          void CPss21::SaveContextNotifyerControl(void)
   \                     ??SaveContextNotifyerControl:
   1140          {
   1141          //    // Сохраним текущее состояние автоматов управления извещателями.
   1142          //    m_xPreventiveAlarmWindowNotifyerControl.SetSavedFsmState(m_xPreventiveAlarmWindowNotifyerControl.GetFsmState());
   1143          //    m_xEmergencyAlarmWindowNotifyerControl.SetSavedFsmState(m_xEmergencyAlarmWindowNotifyerControl.GetFsmState());
   1144          //    m_xStatusLedNotifyerControl.SetSavedFsmState(m_xStatusLedNotifyerControl.GetFsmState());
   1145          //    m_xBuzzerNotifyerControl.SetSavedFsmState(m_xBuzzerNotifyerControl.GetFsmState());
   1146          
   1147              // Сохраним текущее состояние извещателей - окон сигнализации.
   1148              for (uint8_t i = 0;
   \   00000000   ....               RCALL   ??Subroutine99_0
   1149                      i < ALARM_WINDOWS_NUMBER;
   1150                      i++)
   1151              {
   1152                  m_axAlarmWindowControl[i].SetSavedAlarmType(m_axAlarmWindowControl[i].GetAlarmType());
   \                     ??CrossCallReturnLabel_188:
   \   00000002   ....               RCALL   ?Subroutine62
   \                     ??CrossCallReturnLabel_192:
   \   00000004   8102               LDD     R16, Z+2
   \   00000006   8303               STD     Z+3, R16
   1153                  m_axAlarmWindowControl[i].SetSavedActivityState(m_axAlarmWindowControl[i].GetActivityState());
   \   00000008   8100               LD      R16, Z
   \   0000000A   8301               STD     Z+1, R16
   1154              };
   \   0000000C   ....               RCALL   ??Subroutine101_0
   \                     ??CrossCallReturnLabel_201:
   \   0000000E   F7C9               BRNE    ??CrossCallReturnLabel_188
   1155          }
   \   00000010   9508               RET

   \                                 In  segment CODE, align 2, keep-with-next
   \                     ??Subroutine99_0:
   \   00000000   E020               LDI     R18, 0
   \   00000002   E330               LDI     R19, 48
   \   00000004   E046               LDI     R20, 6
   \   00000006   9508               RET

   \                                 In  segment CODE, align 2, keep-with-next
   \                     ??Subroutine101_0:
   \   00000000   9523               INC     R18
   \   00000002   953A               DEC     R19
   \   00000004   9508               RET
   1156          
   1157          //-----------------------------------------------------------------------------------------------------

   \                                 In  segment CODE, align 2, keep-with-next
   1158          void CPss21::RestoreContextNotifyerControl(void)
   \                     ??RestoreContextNotifyerControl:
   1159          {
   1160          //    // Восстановим предыдущее состояние автоматов управления извещателями.
   1161          //    m_xPreventiveAlarmWindowNotifyerControl.SetFsmState(m_xPreventiveAlarmWindowNotifyerControl.GetSavedFsmState());
   1162          //    m_xEmergencyAlarmWindowNotifyerControl.SetFsmState(m_xEmergencyAlarmWindowNotifyerControl.GetSavedFsmState());
   1163          //    m_xStatusLedNotifyerControl.SetFsmState(m_xStatusLedNotifyerControl.GetSavedFsmState());
   1164          //    m_xBuzzerNotifyerControl.SetFsmState(m_xBuzzerNotifyerControl.GetSavedFsmState());
   1165              AlarmTypeSet(GetCommonAlarmType());
   \   00000000   9100....           LDS     R16, (??m_xDeviceConfigSearch + 57)
   \   00000004   ....               RCALL   ??Subroutine98_0
   1166          
   1167              // Восстановим предыдущее состояние извещателей - окон сигнализации.
   1168              for (uint8_t i = 0;
   \                     ??CrossCallReturnLabel_182:
   \   00000006   ....               RCALL   ??Subroutine99_0
   1169                      i < ALARM_WINDOWS_NUMBER;
   1170                      i++)
   1171              {
   1172                  m_axAlarmWindowControl[i].SetAlarmType(m_axAlarmWindowControl[i].GetSavedAlarmType());
   \                     ??CrossCallReturnLabel_189:
   \   00000008   ....               RCALL   ?Subroutine62
   \                     ??CrossCallReturnLabel_193:
   \   0000000A   8103               LDD     R16, Z+3
   \   0000000C   8302               STD     Z+2, R16
   1173                  m_axAlarmWindowControl[i].SetActivityState(m_axAlarmWindowControl[i].GetSavedActivityState());
   \   0000000E   8101               LDD     R16, Z+1
   \   00000010   ....               RCALL   ?Subroutine50
   1174              };
   \                     ??CrossCallReturnLabel_199:
   \   00000012   F7D1               BRNE    ??CrossCallReturnLabel_189
   1175          }
   \   00000014   9508               RET

   \                                 In  segment CODE, align 2, keep-with-next
   \                     ?Subroutine50:
   \   00000000   8300               ST      Z, R16
   \   00000002                      REQUIRE ??Subroutine101_0
   \   00000002                      ;               // Fall through to label ??Subroutine101_0
   1176          
   1177          //-----------------------------------------------------------------------------------------------------

   \                                 In  segment CODE, align 2, keep-with-next
   1178          void CPss21::DiscreteSignalsProcessing(void)
   \                     ??DiscreteSignalsProcessing:
   1179          {
   1180              DiscreteOutputControlClear();
   \   00000000   ....               RCALL   ??DiscreteOutputControlClear
   1181              AlarmsProcessing();
   \   00000002   ....               RCALL   ??AlarmsProcessing
   1182              ErrorAlarmsProcessing();
   \   00000004   ....               RCALL   ??ErrorAlarmsProcessing
   1183              SetDiscreteSignalsReceipt(0);
   \   00000006   E000               LDI     R16, 0
   \   00000008   9300....           STS     (??m_xDeviceConfigSearch + 53), R16
   1184              SetDiscreteSignalsReset(0);
   \   0000000C   9300....           STS     (??m_xDeviceConfigSearch + 54), R16
   1185          }
   \   00000010   9508               RET
   1186          
   1187          //-----------------------------------------------------------------------------------------------------

   \                                 In  segment CODE, align 2, keep-with-next
   1188          void CPss21::BoardWindowsUpdate(void)
   \                     ??BoardWindowsUpdate:
   1189          {
   1190              CLightBoard::Set(m_axAlarmWindowControl);
   \   00000000   ....               RJMP    ?Subroutine92
   1191          }

   \                                 In  segment CODE, align 2, keep-with-next
   \                     ?Subroutine92:
   \   00000000   ....               RCALL   ?Subroutine73
   \                     ??CrossCallReturnLabel_139:
   \   00000002   ........           JMP     ??Set
   1192          
   1193          //-----------------------------------------------------------------------------------------------------

   \                                 In  segment CODE, align 2, keep-with-next
   1194          void CPss21::ActiveAlarmWindowOn(uint8_t uiAlarmType)
   \                     ??ActiveAlarmWindowOn:
   1195          {
   \   00000000   ....               RCALL   ?Subroutine1
   1196              for (uint8_t i = 0;
   1197                      i < ALARM_WINDOWS_NUMBER;
   1198                      i++)
   1199              {
   1200                  // Тип сигнализации окна и тип сигнализации извещателя совпадают?
   1201                  if (m_axAlarmWindowControl[i].GetAlarmType() == uiAlarmType)
   \                     ??CrossCallReturnLabel_184:
   \   00000002   ....               RCALL   ?Subroutine20
   \                     ??CrossCallReturnLabel_10:
   \   00000004   F411               BRNE    ??ActiveAlarmWindowOn_1
   1202                  {
   1203                      // Актмвизируем окно сигнализации, для отображения извещателем.
   1204                      m_axAlarmWindowControl[i].SetActivityState(1);
   \   00000006   E001               LDI     R16, 1
   \   00000008   8300               ST      Z, R16
   1205                  }
   1206          
   1207          //        CPss21::m_aucRtuHoldingRegistersArray[i] = m_axAlarmWindowControl[i].GetActivityState();
   1208              };
   \                     ??ActiveAlarmWindowOn_1:
   \   0000000A   ....               RCALL   ??Subroutine101_0
   \                     ??CrossCallReturnLabel_202:
   \   0000000C   F7D1               BRNE    ??CrossCallReturnLabel_184
   1209          
   1210              BoardWindowsUpdate();
   \   0000000E   ....               RJMP    ?Subroutine92
   1211          }

   \                                 In  segment CODE, align 2, keep-with-next
   \                     ?Subroutine1:
   \   00000000   2F60               MOV     R22, R16
   \   00000002                      REQUIRE ??Subroutine99_0
   \   00000002                      ;               // Fall through to label ??Subroutine99_0

   \                                 In  segment CODE, align 2, keep-with-next
   \                     ?Subroutine20:
   \   00000000   ....               RCALL   ?Subroutine62
   \                     ??CrossCallReturnLabel_196:
   \   00000002   8102               LDD     R16, Z+2
   \   00000004   1706               CP      R16, R22
   \   00000006   9508               RET

   \                                 In  segment CODE, align 2, keep-with-next
   \                     ?Subroutine62:
   \   00000000   2F02               MOV     R16, R18
   \   00000002                      REQUIRE ??Subroutine100_0
   \   00000002                      ;               // Fall through to label ??Subroutine100_0

   \                                 In  segment CODE, align 2, keep-with-next
   \                     ??Subroutine100_0:
   \   00000000   E010               LDI     R17, 0
   \   00000002   ....               RCALL   ?Subroutine71
   \                     ??CrossCallReturnLabel_198:
   \   00000004   ....               LDI     R30, LOW(??m_axAlarmWindowControl)
   \   00000006   ....               LDI     R31, (??m_axAlarmWindowControl) >> 8
   \   00000008   0FE0               ADD     R30, R16
   \   0000000A   1FF1               ADC     R31, R17
   \   0000000C   9508               RET

   \                                 In  segment CODE, align 2, keep-with-next
   \                     ?Subroutine71:
   \   00000000   E050               LDI     R21, 0
   \   00000002   ....               RJMP    ?Subroutine88
   1212          
   1213          //-----------------------------------------------------------------------------------------------------

   \                                 In  segment CODE, align 2, keep-with-next
   1214          void CPss21::ActiveAlarmWindowOff(uint8_t uiAlarmType)
   \                     ??ActiveAlarmWindowOff:
   1215          {
   \   00000000   ....               RCALL   ?Subroutine1
   1216              for (uint8_t i = 0;
   1217                      i < ALARM_WINDOWS_NUMBER;
   1218                      i++)
   1219              {
   1220                  // Тип сигнализации окна и тип сигнализации извещателя совпадают?
   1221                  if (m_axAlarmWindowControl[i].GetAlarmType() == uiAlarmType)
   \                     ??CrossCallReturnLabel_185:
   \   00000002   ....               RCALL   ?Subroutine20
   \                     ??CrossCallReturnLabel_11:
   \   00000004   F011               BREQ    ??ActiveAlarmWindowOff_1
   1222                  {
   1223                      // Деактмвируем окно сигнализации, для прекращения отображения извещателем.
   1224                      m_axAlarmWindowControl[i].SetActivityState(0);
   1225                  }
   1226                  else if (m_axAlarmWindowControl[i].GetAlarmType() == NORMAL)
   \   00000006   2300               TST     R16
   \   00000008   F409               BRNE    ??ActiveAlarmWindowOff_2
   1227                  {
   1228                      // Деактмвируем окно сигнализации, для прекращения отображения извещателем.
   1229                      m_axAlarmWindowControl[i].SetActivityState(0);
   \                     ??ActiveAlarmWindowOff_1:
   \   0000000A   8350               ST      Z, R21
   1230                  }
   1231          
   1232          //        CPss21::m_aucRtuHoldingRegistersArray[i] = m_axAlarmWindowControl[i].GetActivityState();
   1233              };
   \                     ??ActiveAlarmWindowOff_2:
   \   0000000C   ....               RCALL   ??Subroutine101_0
   \                     ??CrossCallReturnLabel_203:
   \   0000000E   F7C9               BRNE    ??CrossCallReturnLabel_185
   1234          
   1235              BoardWindowsUpdate();
   \   00000010   ....               RJMP    ?Subroutine92
   1236          }
   1237          
   1238          //-----------------------------------------------------------------------------------------------------

   \                                 In  segment CODE, align 2, keep-with-next
   1239          void CPss21::AllAlarmWindowOn(uint8_t uiAlarmType)
   \                     ??AllAlarmWindowOn:
   1240          {
   \   00000000   ....               RCALL   ?Subroutine1
   1241          //    CAlarmWindow axAlarmWindowControl[ALARM_WINDOWS_NUMBER];
   1242          
   1243              for (uint8_t i = 0;
   1244                      i < ALARM_WINDOWS_NUMBER;
   1245                      i++)
   1246              {
   1247                  // Актмвизируем окно сигнализации, для отображения извещателем.
   1248                  m_axAlarmWindowControl[i].SetAlarmType(uiAlarmType);
   \                     ??CrossCallReturnLabel_186:
   \   00000002   ....               RCALL   ?Subroutine62
   \                     ??CrossCallReturnLabel_194:
   \   00000004   8362               STD     Z+2, R22
   1249                  // Актмвизируем окно сигнализации, для отображения извещателем.
   1250                  m_axAlarmWindowControl[i].SetActivityState(1);
   \   00000006   E001               LDI     R16, 1
   \   00000008   ....               RCALL   ?Subroutine50
   1251              };
   \                     ??CrossCallReturnLabel_200:
   \   0000000A   F7D9               BRNE    ??CrossCallReturnLabel_186
   1252          
   1253              BoardWindowsUpdate();
   \   0000000C                      REQUIRE ?Subroutine92
   \   0000000C                      ;               // Fall through to label ?Subroutine92
   1254          }
   1255          
   1256          //-----------------------------------------------------------------------------------------------------

   \                                 In  segment CODE, align 2, keep-with-next
   1257          void CPss21::ErrorWindowOn(uint8_t uiIndex)
   \                     ??ErrorWindowOn:
   1258          {
   \   00000000   ....               RCALL   ?Subroutine1
   1259              // Актмвируем окна сигнализации - ошибка.
   1260              for (uint8_t i = 0;
   1261                      i < ALARM_WINDOWS_NUMBER;
   1262                      i++)
   1263              {
   1264                  if (m_auiErrorLedOn[i])
   \                     ??CrossCallReturnLabel_187:
   \   00000002   2FE2               MOV     R30, R18
   \   00000004   E0F0               LDI     R31, 0
   \   00000006   ....               SUBI    R30, LOW((-(??m_auiErrorLedOn) & 0xFFFF))
   \   00000008   ....               SBCI    R31, (-(??m_auiErrorLedOn) & 0xFFFF) >> 8
   \   0000000A   9104               LPM     R16, Z
   \   0000000C   2300               TST     R16
   \   0000000E   F021               BREQ    ??ErrorWindowOn_1
   1265                  {
   1266                      // Актмвизируем окно сигнализации, для отображения извещателем.
   1267                      m_axAlarmWindowControl[i].SetAlarmType(INDICATION);
   \   00000010   ....               RCALL   ?Subroutine62
   \                     ??CrossCallReturnLabel_195:
   \   00000012   E001               LDI     R16, 1
   \   00000014   8302               STD     Z+2, R16
   1268                      m_axAlarmWindowControl[i].SetActivityState(1);
   \   00000016   8300               ST      Z, R16
   1269                  }
   1270              };
   \                     ??ErrorWindowOn_1:
   \   00000018   ....               RCALL   ??Subroutine101_0
   \                     ??CrossCallReturnLabel_204:
   \   0000001A   F799               BRNE    ??CrossCallReturnLabel_187
   1271          
   1272              if (uiIndex < ALARM_WINDOWS_NUMBER)
   \   0000001C   3360               CPI     R22, 48
   \   0000001E   F410               BRCC    ??CrossCallReturnLabel_12
   1273              {
   1274                  m_axAlarmWindowControl[uiIndex].SetAlarmType(NORMAL);
   \   00000020   2F06               MOV     R16, R22
   \   00000022   ....               RCALL   ?Subroutine21
   1275                  m_axAlarmWindowControl[uiIndex].SetActivityState(0);
   1276              }
   1277          
   1278              BoardWindowsUpdate();
   \                     ??CrossCallReturnLabel_12:
   \   00000024   ....               RJMP    ?Subroutine92
   1279          }

   \                                 In  segment CODE, align 2, keep-with-next
   \                     ?Subroutine21:
   \   00000000   ....               RCALL   ??Subroutine100_0
   \                     ??CrossCallReturnLabel_191:
   \   00000002   8352               STD     Z+2, R21
   \   00000004   8350               ST      Z, R21
   \   00000006   9508               RET
   1280          
   1281          //-----------------------------------------------------------------------------------------------------

   \                                 In  segment CODE, align 2, keep-with-next
   1282          void CPss21::AllAlarmWindowOff(void)
   \                     ??AllAlarmWindowOff:
   1283          {
   1284              for (uint8_t i = 0;
   \   00000000   ....               RCALL   ??Subroutine99_0
   1285                      i < ALARM_WINDOWS_NUMBER;
   1286                      i++)
   1287              {
   1288                  // Деактмвируем окно сигнализации, для прекращения отображения извещателем.
   1289                  m_axAlarmWindowControl[i].SetAlarmType(NORMAL);
   \                     ??CrossCallReturnLabel_190:
   \   00000002   2F02               MOV     R16, R18
   \   00000004   ....               RCALL   ?Subroutine21
   1290                  // Деактмвируем окно сигнализации, для прекращения отображения извещателем.
   1291                  m_axAlarmWindowControl[i].SetActivityState(0);
   1292              };
   \                     ??CrossCallReturnLabel_13:
   \   00000006   ....               RCALL   ??Subroutine101_0
   \                     ??CrossCallReturnLabel_205:
   \   00000008   F7E1               BRNE    ??CrossCallReturnLabel_190
   1293          
   1294              BoardWindowsUpdate();
   \   0000000A   ....               RJMP    ?Subroutine92
   1295          }
   1296          
   1297          //-----------------------------------------------------------------------------------------------------

   \                                 In  segment CODE, align 2, keep-with-next
   1298          void CPss21::TestMainCycle(void)
   \                     ??TestMainCycle:
   1299          {
   1300              CPss21::m_xModbusRtuOne.Fsm();
   \   00000000   ....               RCALL   ?Subroutine7
   1301          
   1302              CPss21::KeyStateProcessing();
   1303          
   1304              NotifyersControlProcessing();
   1305          
   1306              CPss21::ReceiptResetGlobalFlagsClear();
   \                     ??CrossCallReturnLabel_0:
   \   00000002                      REQUIRE ?Subroutine77
   \   00000002                      ;               // Fall through to label ?Subroutine77
   1307          
   1308              CPlatform::WatchdogReset();
   1309          }

   \                                 In  segment CODE, align 2, keep-with-next
   \                     ?Subroutine77:
   \   00000000   ....               RCALL   ?Subroutine54
   \                     ??CrossCallReturnLabel_102:
   \   00000002                      REQUIRE ??Subroutine102_0
   \   00000002                      ;               // Fall through to label ??Subroutine102_0

   \                                 In  segment CODE, align 2, keep-with-next
   \                     ??Subroutine102_0:
   \   00000000   95A8               WDR
   \   00000002   9508               RET

   \                                 In  segment CODE, align 2, keep-with-next
   \                     ?Subroutine54:
   \   00000000   ....               RJMP    ??ReceiptResetGlobalFlagsClear

   \                                 In  segment CODE, align 2, keep-with-next
   \                     ?Subroutine56:
   \   00000000   ....               LDI     R16, LOW(??m_xModbusRtuOne)
   \   00000002   ....               LDI     R17, (??m_xModbusRtuOne) >> 8
   \   00000004   ........           JMP     ??Fsm_1

   \                                 In  segment CODE, align 2, keep-with-next
   \                     ?Subroutine7:
   \   00000000   ....               RCALL   ?Subroutine56
   \                     ??CrossCallReturnLabel_50:
   \   00000002   ....               RJMP    ?Subroutine70

   \                                 In  segment CODE, align 2, keep-with-next
   \                     ?Subroutine70:
   \   00000000   ....               RCALL   ??KeyStateProcessing
   \   00000002   ....               RJMP    ??NotifyersControlProcessing
   1310          
   1311          //-----------------------------------------------------------------------------------------------------

   \                                 In  segment CODE, align 2, keep-with-next
   1312          void CPss21::ErrorMainCycle(void)
   \                     ??ErrorMainCycle:
   1313          {
   1314              CPss21::m_xModbusRtuOne.Fsm();
   \   00000000   ....               RCALL   ?Subroutine56
   1315          
   1316              CPss21::KeyStateProcessing();
   \                     ??CrossCallReturnLabel_51:
   \   00000002   ....               RCALL   ??KeyStateProcessing
   1317          
   1318              // Есть команда - "квитировать"?
   1319              if ((GetPanelReceipt()) ||
   1320                      (GetExternalReceipt()) ||
   1321                      (GetModbusReceipt()))
   \   00000004   ....               RCALL   ?Subroutine65
   \                     ??CrossCallReturnLabel_62:
   \   00000006   A507               LDD     R16, Z+47
   \   00000008   2300               TST     R16
   \   0000000A   F431               BRNE    ??ErrorMainCycle_1
   \   0000000C   A901               LDD     R16, Z+49
   \   0000000E   2300               TST     R16
   \   00000010   F419               BRNE    ??ErrorMainCycle_1
   \   00000012   A903               LDD     R16, Z+51
   \   00000014   2300               TST     R16
   \   00000016   F021               BREQ    ??CrossCallReturnLabel_217
   1322              {
   1323          //        m_xPreventiveAlarmWindowNotifyerControl.AlarmSet(INDICATION);
   1324          //        m_xEmergencyAlarmWindowNotifyerControl.AlarmSet(INDICATION);
   1325                  m_xStatusLedNotifyerControl.AlarmSet(NORMAL);
   \                     ??ErrorMainCycle_1:
   \   00000018   E020               LDI     R18, 0
   \   0000001A   ....               RCALL   ?Subroutine59
   1326                  m_xBuzzerNotifyerControl.AlarmSet(NORMAL);
   \                     ??CrossCallReturnLabel_212:
   \   0000001C   E020               LDI     R18, 0
   \   0000001E   ....               RCALL   ?Subroutine60
   1327              }
   1328          
   1329              NotifyersControlProcessing();
   \                     ??CrossCallReturnLabel_217:
   \   00000020   ....               RCALL   ??NotifyersControlProcessing
   1330          
   1331              CPss21::ReceiptResetGlobalFlagsClear();
   \   00000022   ....               RJMP    ?Subroutine77
   1332          
   1333              CPlatform::WatchdogReset();
   1334          }
   1335          
   1336          //-----------------------------------------------------------------------------------------------------

   \                                 In  segment CODE, align 2, keep-with-next
   1337          void CPss21::LinkControlErrorMainCycle(void)
   \                     ??LinkControlErrorMainCycle:
   1338          {
   1339              CPss21::m_xModbusRtuOne.Fsm();
   \   00000000   ....               RCALL   ?Subroutine5
   1340              CPss21::m_xModbusRtuLinkControl.Fsm();
   1341          
   1342              CPss21::KeyStateProcessing();
   1343          
   1344              NotifyersControlProcessing();
   1345          
   1346              CPss21::ReceiptResetGlobalFlagsClear();
   \                     ??CrossCallReturnLabel_74:
   \   00000002   ....               RCALL   ?Subroutine54
   1347          
   1348              CDataStore::Fsm();
   \                     ??CrossCallReturnLabel_101:
   \   00000004   ....               RCALL   ?Subroutine55
   1349          
   1350              CPlatform::WatchdogReset();
   \                     ??CrossCallReturnLabel_48:
   \   00000006   ....               RJMP    ??Subroutine102_0
   1351          }

   \                                 In  segment CODE, align 2, keep-with-next
   \                     ?Subroutine55:
   \   00000000   ........           JMP     ??Fsm_3

   \                                 In  segment CODE, align 2, keep-with-next
   \                     ?Subroutine5:
   \   00000000   ....               RCALL   ?Subroutine56
   \                     ??CrossCallReturnLabel_49:
   \   00000002   ....               LDI     R16, LOW((??m_xDeviceConfigSearch + 9))
   \   00000004   ....               LDI     R17, HIGH((??m_xDeviceConfigSearch + 9))
   \   00000006   ........           CALL    ??Fsm_2
   \   0000000A                      REQUIRE ?Subroutine70
   \   0000000A                      ;               // Fall through to label ?Subroutine70
   1352          
   1353          //-----------------------------------------------------------------------------------------------------

   \                                 In  segment CODE, align 2, keep-with-next
   1354          void CPss21::MainFsm(void)
   \                     ??MainFsm:
   1355          {
   \   00000000   9100....           LDS     R16, (??m_xDeviceConfigSearch + 46)
   \   00000004   ....               LDI     R30, LOW(`?<Jumptable for MainFsm>_0`)
   \   00000006   ....               LDI     R31, (`?<Jumptable for MainFsm>_0`) >> 16
   \   00000008   BFFB               OUT     0x3B, R31
   \   0000000A   ....               LDI     R31, HIGH(`?<Jumptable for MainFsm>_0`)
   \   0000000C   ........           JMP     ?CV_SWITCH_L06
   1356              switch (GetFsmState())
   1357              {
   1358              case START:
   1359                  CPlatform::WatchdogEnable();
   \                     ??MainFsm_1:
   \   00000010   95A8               WDR
   \   00000012   B501               IN      R16, 0x21
   \   00000014   6108               ORI     R16, 0x18
   \   00000016   BD01               OUT     0x21, R16
   \   00000018   B501               IN      R16, 0x21
   \   0000001A   6007               ORI     R16, 0x07
   \   0000001C   BD01               OUT     0x21, R16
   1360                  CPlatform::Init();
   \   0000001E   ........           CALL    ??Init_3
   1361                  CPss21::Init();
   \   00000022   ....               RCALL   ??Init
   1362                  CBuzzer::Init();
   \   00000024   ........           CALL    ??Init_4
   1363                  if (!(CDataBase::Check()))
   \   00000028   ........           CALL    ??Check
   \   0000002C   2300               TST     R16
   \   0000002E   F169               BREQ    ??MainFsm_2
   1364                  {
   1365                      SetFsmState(ERROR_START);
   1366                  }
   1367                  else
   1368                  {
   1369                      CPss21::ConfigurationInit();
   \   00000030   ....               RCALL   ??ConfigurationInit
   1370                      CPss21::ModbusInit();
   \   00000032   ....               RCALL   ??ModbusInit
   1371                      CSpi::Init();
   \   00000034   ........           CALL    ??Init_5
   1372                      CPss21::AddressBusInit();
   \   00000038   ....               RCALL   ??AddressBusInit
   1373                      CPss21::SearchModules();
   \   0000003A   ....               RCALL   ??SearchModules
   1374                      CPss21::CreateDevices();
   \   0000003C   ....               RCALL   ??CreateDevices
   1375                      m_xBuzzerNotifyerControl.AlarmSet(BEEP_SIGNAL);
   \   0000003E   ....               RCALL   ??Subroutine96_0
   1376                      SetFsmState(MAIN_CYCLE_START_WAITING);
   \                     ??CrossCallReturnLabel_172:
   \   00000040   C02C               RJMP    ??CrossCallReturnLabel_100
   1377                  }
   1378                  break;
   1379          
   1380              case RESTART:
   1381                  break;
   1382          
   1383              case MAIN_CYCLE_START_WAITING:
   1384                  CPss21::m_xModbusRtuOne.Fsm();
   \                     ??MainFsm_3:
   \   00000042   ....               RCALL   ?Subroutine7
   1385          
   1386                  CPss21::KeyStateProcessing();
   1387          
   1388                  NotifyersControlProcessing();
   1389          
   1390                  CDataStore::Fsm();
   \                     ??CrossCallReturnLabel_1:
   \   00000044   ....               RCALL   ?Subroutine9
   1391          
   1392                  if (CPss21::m_xMainCycleTimer.IsOverflow())
   \                     ??CrossCallReturnLabel_218:
   \   00000046   F409               BRNE    $+2+2
   \   00000048   C056               RJMP    ??CrossCallReturnLabel_46
   1393                  {
   1394                      CPss21::m_xMainCycleTimer.Reset();
   \   0000004A   ....               RCALL   ?Subroutine61
   \                     ??CrossCallReturnLabel_229:
   \   0000004C   ........           CALL    ??Reset
   1395                      CPlatform::WatchdogReset();
   \   00000050   95A8               WDR
   1396                      SetModuleIndex(0);
   \   00000052   E000               LDI     R16, 0
   \   00000054   9300....           STS     (??m_xDeviceConfigSearch + 56), R16
   1397                      SetFsmState(MAIN_CYCLE_MODULES_INTERACTION);
   \   00000058   E003               LDI     R16, 3
   \   0000005A   C018               RJMP    ??MainFsm_4
   1398                  }
   1399          
   1400                  break;
   1401          
   1402              case MAIN_CYCLE_MODULES_INTERACTION:
   1403                  CPss21::m_xModbusRtuOne.Fsm();
   \                     ??MainFsm_5:
   \   0000005C   ....               RCALL   ?Subroutine5
   1404                  CPss21::m_xModbusRtuLinkControl.Fsm();
   1405          
   1406                  CPss21::KeyStateProcessing();
   1407          
   1408                  NotifyersControlProcessing();
   1409          
   1410                  CDataStore::Fsm();
   \                     ??CrossCallReturnLabel_75:
   \   0000005E   ....               RCALL   ?Subroutine55
   1411          
   1412                  if (CPss21::ModulesInteraction(GetModuleIndex()))
   \                     ??CrossCallReturnLabel_47:
   \   00000060   9100....           LDS     R16, (??m_xDeviceConfigSearch + 56)
   \   00000064   ....               RCALL   ??ModulesInteraction
   \   00000066   2300               TST     R16
   \   00000068   F019               BREQ    ??MainFsm_6
   1413                  {
   1414                      SetFsmState(MAIN_CYCLE_DISCRETE_SIGNALS_PROCESSING);
   \   0000006A   E004               LDI     R16, 4
   \   0000006C   ....               RCALL   ??Subroutine95_0
   1415                  }
   \                     ??CrossCallReturnLabel_161:
   \   0000006E   C004               RJMP    ??MainFsm_7
   1416                  else
   1417                  {
   1418                      SetModuleIndex(GetModuleIndex() + 1);
   \                     ??MainFsm_6:
   \   00000070   ....               RCALL   ?Subroutine65
   \                     ??CrossCallReturnLabel_63:
   \   00000072   AD00               LDD     R16, Z+56
   \   00000074   9503               INC     R16
   \   00000076   AF00               STD     Z+56, R16
   1419                  }
   1420          
   1421                  switch (GetErrorCode())
   \                     ??MainFsm_7:
   \   00000078   9100....           LDS     R16, (??m_xDeviceConfigSearch + 55)
   \   0000007C   5003               SUBI    R16, 3
   \   0000007E   F029               BREQ    ??MainFsm_2
   \   00000080   950A               DEC     R16
   \   00000082   F019               BREQ    ??MainFsm_2
   \   00000084   950A               DEC     R16
   \   00000086   F019               BREQ    ??MainFsm_8
   \   00000088   9508               RET
   1422                  {
   1423          //        case IMD_ERROR:
   1424          //        case OMD_ERROR:
   1425                  case CFG_ERROR:
   1426                  case DB_ERROR:
   1427                      SetFsmState(ERROR_START);
   \                     ??MainFsm_2:
   \   0000008A   E008               LDI     R16, 8
   \                     ??MainFsm_4:
   \   0000008C   ....               RJMP    ??Subroutine95_0
   1428                      break;
   1429          
   1430                  case MBS_ERROR:
   1431                      SetFsmState(LINK_CONTROL_ERROR_START);
   \                     ??MainFsm_8:
   \   0000008E   E00A               LDI     R16, 10
   \   00000090   CFFD               RJMP    ??MainFsm_4
   1432                      break;
   1433          
   1434                  default:
   1435                      break;
   1436                  }
   1437                  break;
   1438          
   1439              case MAIN_CYCLE_DISCRETE_SIGNALS_PROCESSING:
   1440                  CPss21::DiscreteSignalsProcessing();
   \                     ??MainFsm_9:
   \   00000092   ....               RCALL   ??DiscreteSignalsProcessing
   1441                  SetFsmState(MAIN_CYCLE_END);
   \   00000094   E005               LDI     R16, 5
   \   00000096   CFFA               RJMP    ??MainFsm_4
   1442                  break;
   1443          
   1444              case MAIN_CYCLE_END:
   1445                  CPss21::ReceiptResetGlobalFlagsClear();
   \                     ??MainFsm_10:
   \   00000098   ....               RCALL   ?Subroutine54
   1446                  SetFsmState(MAIN_CYCLE_START_WAITING);
   \                     ??CrossCallReturnLabel_100:
   \   0000009A   E002               LDI     R16, 2
   \   0000009C   CFF7               RJMP    ??MainFsm_4
   1447                  break;
   1448          
   1449          //-----------------------------------------------------------------------------------------------------
   1450              case TEST_START:
   1451                  SaveContextNotifyerControl();
   \                     ??MainFsm_11:
   \   0000009E   ....               RCALL   ??SaveContextNotifyerControl
   1452                  AlarmTypeSet(PREVENTIVE);
   \   000000A0   E002               LDI     R16, 2
   \   000000A2   ....               RCALL   ??Subroutine98_0
   1453                  CPss21::AllAlarmWindowOn(PREVENTIVE);
   \                     ??CrossCallReturnLabel_181:
   \   000000A4   E002               LDI     R16, 2
   \   000000A6   ....               RCALL   ??AllAlarmWindowOn
   1454                  CPss21::m_xMainCycleTimer.Set(TEST_ON_TIME());
   \   000000A8   E828               LDI     R18, 136
   \   000000AA   E133               LDI     R19, 19
   \   000000AC   ....               RCALL   ??Subroutine105_0
   1455                  SetFsmState(TEST_ON);
   \                     ??CrossCallReturnLabel_225:
   \   000000AE   E007               LDI     R16, 7
   \   000000B0   C009               RJMP    ??MainFsm_12
   1456          
   1457                  CPlatform::WatchdogReset();
   1458                  break;
   1459          
   1460              case TEST_ON:
   1461                  if (CPss21::m_xMainCycleTimer.IsOverflow())
   \                     ??MainFsm_13:
   \   000000B2   ....               RCALL   ??Subroutine104_0
   \                     ??CrossCallReturnLabel_220:
   \   000000B4   F019               BREQ    ??CrossCallReturnLabel_162
   1462                  {
   1463                      CPss21::AllAlarmWindowOff();
   \   000000B6   ....               RCALL   ?Subroutine6
   1464                      RestoreContextNotifyerControl();
   1465                      CPss21::m_xMainCycleTimer.Set(MAIN_CYCLE_PERIOD_TIME);
   1466                      SetFsmState(MAIN_CYCLE_START_WAITING);
   \                     ??CrossCallReturnLabel_227:
   \   000000B8   E002               LDI     R16, 2
   \   000000BA   ....               RCALL   ??Subroutine95_0
   1467                  }
   1468          
   1469                  TestMainCycle();
   \                     ??CrossCallReturnLabel_162:
   \   000000BC   ....               RJMP    ??TestMainCycle
   1470                  break;
   1471          
   1472          //-----------------------------------------------------------------------------------------------------
   1473              case ERROR_START:
   1474                  // Устанавливаем настройки Modbus по умолчанию на текущую сессию.
   1475                  ModbusDefaultInit();
   \                     ??MainFsm_14:
   \   000000BE   ....               RCALL   ??ModbusDefaultInit
   1476                  ErrorWindowOn(GetErrorCode() - 1);
   \   000000C0   ....               RCALL   ?Subroutine14
   1477                  SetErrorCode(0);
   1478          
   1479                  m_xPreventiveAlarmWindowNotifyerControl.AlarmSet(INDICATION);
   1480                  m_xEmergencyAlarmWindowNotifyerControl.AlarmSet(INDICATION);
   1481                  m_xStatusLedNotifyerControl.AlarmSet(ERROR);
   1482                  m_xBuzzerNotifyerControl.AlarmSet(ERROR);
   1483          
   1484                  SetFsmState(ERROR_ON);
   \                     ??CrossCallReturnLabel_213:
   \   000000C2   E009               LDI     R16, 9
   \                     ??MainFsm_12:
   \   000000C4   ....               RCALL   ??Subroutine95_0
   1485          
   1486                  CPlatform::WatchdogReset();
   \                     ??CrossCallReturnLabel_163:
   \   000000C6   ....               RJMP    ??Subroutine102_0
   1487                  break;
   1488          
   1489              case ERROR_ON:
   1490                  ErrorMainCycle();
   \                     ??MainFsm_15:
   \   000000C8   ....               RJMP    ??ErrorMainCycle
   1491                  break;
   1492          
   1493          //-----------------------------------------------------------------------------------------------------
   1494              case LINK_CONTROL_ERROR_START:
   1495                  SaveContextNotifyerControl();
   \                     ??MainFsm_16:
   \   000000CA   ....               RCALL   ??SaveContextNotifyerControl
   1496                  ErrorWindowOn(GetErrorCode() - 1);
   \   000000CC   ....               RCALL   ?Subroutine14
   1497                  SetErrorCode(0);
   1498          
   1499                  m_xPreventiveAlarmWindowNotifyerControl.AlarmSet(INDICATION);
   1500                  m_xEmergencyAlarmWindowNotifyerControl.AlarmSet(INDICATION);
   1501                  m_xStatusLedNotifyerControl.AlarmSet(ERROR);
   1502                  m_xBuzzerNotifyerControl.AlarmSet(ERROR);
   1503          
   1504                  CPlatform::WatchdogReset();
   \                     ??CrossCallReturnLabel_214:
   \   000000CE   95A8               WDR
   1505                  SetFsmState(LINK_CONTROL_ERROR_ON);
   \   000000D0   E00B               LDI     R16, 11
   \   000000D2   CFDC               RJMP    ??MainFsm_4
   1506                  break;
   1507          
   1508              case LINK_CONTROL_ERROR_ON:
   1509                  LinkControlErrorMainCycle();
   \                     ??MainFsm_17:
   \   000000D4   ....               RJMP    ??LinkControlErrorMainCycle
   1510                  break;
   1511          
   1512              case LINK_CONTROL_ERROR_OFF:
   1513                  CPss21::AllAlarmWindowOff();
   \                     ??MainFsm_18:
   \   000000D6   ....               RCALL   ?Subroutine6
   1514                  RestoreContextNotifyerControl();
   1515                  CPss21::m_xMainCycleTimer.Set(MAIN_CYCLE_PERIOD_TIME);
   1516          
   1517                  CPlatform::WatchdogReset();
   \                     ??CrossCallReturnLabel_226:
   \   000000D8   95A8               WDR
   1518                  SetFsmState(MAIN_CYCLE_START_WAITING);
   \   000000DA   CFDF               RJMP    ??CrossCallReturnLabel_100
   1519                  break;
   1520          
   1521          //-----------------------------------------------------------------------------------------------------
   1522              case PROGRAMMING_START:
   1523                  // После приёма последнего блока базы данных произойдёт перезагрузка
   1524                  // через "PROGRAMMING_TIME + WDTO_2S", чтобы применить изменения конфигурации.
   1525                  CPss21::m_xMainCycleTimer.Set(PROGRAMMING_TIME);
   \                     ??MainFsm_19:
   \   000000DC   EE28               LDI     R18, 232
   \   000000DE   E033               LDI     R19, 3
   \   000000E0   ....               RCALL   ??Subroutine105_0
   1526                  SetFsmState(PROGRAMMING_ON);
   \                     ??CrossCallReturnLabel_224:
   \   000000E2   E00E               LDI     R16, 14
   \   000000E4   CFEF               RJMP    ??MainFsm_12
   1527          
   1528                  CPlatform::WatchdogReset();
   1529                  break;
   1530          
   1531              case PROGRAMMING_ON:
   1532                  CPss21::m_xModbusRtuOne.Fsm();
   \                     ??MainFsm_20:
   \   000000E6   ....               RCALL   ?Subroutine56
   1533          
   1534                  CDataStore::Fsm();
   \                     ??CrossCallReturnLabel_52:
   \   000000E8   ....               RCALL   ?Subroutine9
   1535          
   1536                  if (CPss21::m_xMainCycleTimer.IsOverflow())
   \                     ??CrossCallReturnLabel_219:
   \   000000EA   F369               BREQ    ??CrossCallReturnLabel_163
   1537                  {
   1538                      SetFsmState(REBOOT);
   \   000000EC   E00F               LDI     R16, 15
   \   000000EE   ....               RCALL   ??Subroutine95_0
   1539                  }
   1540          
   1541                  CPlatform::WatchdogReset();
   \                     ??CrossCallReturnLabel_164:
   \   000000F0   CFEA               RJMP    ??CrossCallReturnLabel_163
   1542                  break;
   1543          
   1544              case REBOOT:
   1545                  // Через "WDTO_2S" - перезагрузка, чтобы применить изменения конфигурации.
   1546                  CPss21::m_xModbusRtuOne.Fsm();
   \                     ??MainFsm_21:
   \   000000F2   ....               RCALL   ?Subroutine56
   1547          
   1548                  CDataStore::Fsm();
   \                     ??CrossCallReturnLabel_53:
   \   000000F4   ....               RCALL   ?Subroutine55
   1549                  break;
   1550          
   1551          //-----------------------------------------------------------------------------------------------------
   1552              default:
   1553                  break;
   1554              }
   1555          }
   \                     ??CrossCallReturnLabel_46:
   \   000000F6   9508               RET
   \   000000F8                      REQUIRE _A_WDTCR

   \                                 In  segment CODE, align 2, keep-with-next
   \                     ?Subroutine14:
   \   00000000   9100....           LDS     R16, (??m_xDeviceConfigSearch + 55)
   \   00000004   950A               DEC     R16
   \   00000006   ....               RCALL   ??ErrorWindowOn
   \   00000008   E000               LDI     R16, 0
   \   0000000A   9300....           STS     (??m_xDeviceConfigSearch + 55), R16
   \   0000000E                      REQUIRE ?Subroutine60
   \   0000000E                      REQUIRE ??Subroutine103_0
   \   0000000E                      ;               // Fall through to label ??Subroutine103_0

   \                                 In  segment CODE, align 2, keep-with-next
   \                     ?Subroutine9:
   \   00000000   ........           CALL    ??Fsm_3
   \   00000004                      REQUIRE ??Subroutine104_0
   \   00000004                      ;               // Fall through to label ??Subroutine104_0

   \                                 In  segment CODE, align 2, keep-with-next
   \                     ??Subroutine104_0:
   \   00000000   ....               RCALL   ?Subroutine61
   \                     ??CrossCallReturnLabel_230:
   \   00000002   ........           CALL    ??IsOverflow
   \   00000006   ....               RJMP    ?Subroutine84

   \                                 In  segment CODE, align 2, keep-with-next
   \                     ?Subroutine61:
   \   00000000   ....               LDI     R16, LOW((??m_xDeviceConfigSearch + 135))
   \   00000002   ....               LDI     R17, HIGH((??m_xDeviceConfigSearch + 135))
   \   00000004   9508               RET

   \                                 In  segment CODE, align 2, keep-with-next
   \                     ?Subroutine6:
   \   00000000   ....               RCALL   ??AllAlarmWindowOff
   \   00000002   ....               RCALL   ??RestoreContextNotifyerControl
   \   00000004   E624               LDI     R18, 100
   \   00000006   E030               LDI     R19, 0
   \   00000008                      REQUIRE ??Subroutine105_0
   \   00000008                      ;               // Fall through to label ??Subroutine105_0

   \                                 In  segment CODE, align 2, keep-with-next
   \                     ??Subroutine105_0:
   \   00000000   ....               RCALL   ?Subroutine61
   \                     ??CrossCallReturnLabel_231:
   \   00000002   ........           JMP     ??Set_1

   \                                 In  segment CODE, align 2, keep-with-next
   \                     ?Subroutine72:
   \   00000000   ........           JMP     __record_needed_destruction

   \                                 In  segment NEAR_ID, align 1, keep-with-next, root
   \                     `?<Initializer for >`:
   \   00000000   ............       DC16 ?_1, ??m_xUart1, `?<Unnamed 0>`/2
   \                     `?<Initializer for >_1`:
   \   00000006   ............       DC16 ?_3, ??m_xModbusRtuOne, `?<Unnamed 1>`/2
   \                     `?<Initializer for >_2`:
   \   0000000C   ............       DC16 ?_5, ??m_xReceiptKey, `?<Unnamed 2>`/2
   \                     `?<Initializer for >_3`:
   \   00000012   ............       DC16 ?_7, ??m_xResetKey, `?<Unnamed 2>`/2
   \                     `?<Initializer for >_4`:
   \   00000018   ............       DC16 ?_9, ??m_xCheckKey, `?<Unnamed 2>`/2
   \                     `?<Initializer for >_5`:
   \   0000001E   ............       DC16 ?_11, ??m_xExternalKey, `?<Unnamed 2>`/2
   \                     `?<Initializer for >_6`:
   \   00000024   ............       DC16 ?_13, ??m_xEventUniteLogicAndOne, `?<Unnamed 3>`/2
   \                     `?<Initializer for >_7`:
   \   0000002A   ............       DC16 ?_15, ??m_xMainCycleTimer, `?<Unnamed 4>`/2
   \                     `?<Initializer for >_8`:
   \   00000030   ............       DC16 ?_17, ??m_xPreventiveAlarmWindowNotifyerControl, `?<Unnamed 5>`/2
   \                     `?<Initializer for >_9`:
   \   00000036   ............       DC16 ?_19, ??m_xEmergencyAlarmWindowNotifyerControl, `?<Unnamed 6>`/2
   \                     `?<Initializer for >_10`:
   \   0000003C   ............       DC16 ?_21, ??m_xStatusLedNotifyerControl, `?<Unnamed 7>`/2
   \                     `?<Initializer for >_11`:
   \   00000042   ............       DC16 ?_23, ??m_xBuzzerNotifyerControl, `?<Unnamed 8>`/2
   \                     `?<Initializer for >_12`:
   \   00000048   ............       DC16 ?_25, ??m_xModbusRtuLinkControl, `?<Unnamed 9>`/2
   \                     `?<Initializer for >_13`:
   \   0000004E   ....0000....       DC16 ?_27, 0H, `?<Unnamed 10>`/2

   \                                 In  segment DIFUNCT, align 1, keep-with-next, root
   \   00000000                      REQUIRE ?call_ctors
   \   00000000   ....               DW      ??__sti__routine/2

   \                                 In  segment SWITCH, align 2, keep-with-next
   \                     `?<Jumptable for MainFsm>_0`:
   \   00000000   00                 DB      0
   \   00000001   00                 DB      0
   \   00000002   ....               DW      (??CrossCallReturnLabel_46) /2
   \   00000004   0010               DW      16
   \   00000006   ....               DW      (??MainFsm_1) /2
   \   00000008   ....               DW      (??CrossCallReturnLabel_46) /2
   \   0000000A   ....               DW      (??MainFsm_3) /2
   \   0000000C   ....               DW      (??MainFsm_5) /2
   \   0000000E   ....               DW      (??MainFsm_9) /2
   \   00000010   ....               DW      (??MainFsm_10) /2
   \   00000012   ....               DW      (??MainFsm_11) /2
   \   00000014   ....               DW      (??MainFsm_13) /2
   \   00000016   ....               DW      (??MainFsm_14) /2
   \   00000018   ....               DW      (??MainFsm_15) /2
   \   0000001A   ....               DW      (??MainFsm_16) /2
   \   0000001C   ....               DW      (??MainFsm_17) /2
   \   0000001E   ....               DW      (??MainFsm_18) /2
   \   00000020   ....               DW      (??MainFsm_19) /2
   \   00000022   ....               DW      (??MainFsm_20) /2
   \   00000024   ....               DW      (??MainFsm_21) /2

   \                                 In  segment CODE, align 2, keep-with-next
   \                     `?<Unnamed 10>`:
   \   00000000   ....               LDI     R22, LOW(`?<Unnamed 11>`/2)
   \   00000002   ....               LDI     R23, (`?<Unnamed 11>`/2) >> 8
   \   00000004   ....               RCALL   ?Subroutine16
   \                     ??CrossCallReturnLabel_138:
   \   00000006   ........           JMP     __near_vec_destroy

   \                                 In  segment CODE, align 2, keep-with-next
   \                     ?Subroutine16:
   \   00000000   E046               LDI     R20, 6
   \   00000002   E050               LDI     R21, 0
   \   00000004   E320               LDI     R18, 48
   \   00000006   E030               LDI     R19, 0
   \   00000008                      REQUIRE ?Subroutine73
   \   00000008                      ;               // Fall through to label ?Subroutine73

   \                                 In  segment CODE, align 2, keep-with-next
   \                     ?Subroutine26:
   \   00000000   E012               LDI     R17, 2
   \   00000002   9F01               MUL     R16, R17
   \   00000004   ....               RCALL   ?Subroutine63
   \                     ??CrossCallReturnLabel_55:
   \   00000006   9654               ADIW    R27:R26, 20
   \   00000008                      REQUIRE ??Subroutine94_0
   \   00000008                      ;               // Fall through to label ??Subroutine94_0

   \                                 In  segment CODE, align 2, keep-with-next
   \                     ?Subroutine43:
   \   00000000   E012               LDI     R17, 2
   \   00000002   9F01               MUL     R16, R17
   \   00000004   01F0               MOVW    R31:R30, R1:R0
   \   00000006   ....               SUBI    R30, LOW((-(??m_xDeviceConfigSearch) & 0xFFFF))
   \   00000008   ....               SBCI    R31, (-(??m_xDeviceConfigSearch) & 0xFFFF) >> 8
   \   0000000A   89A4               LDD     R26, Z+20
   \   0000000C   89B5               LDD     R27, Z+21
   \   0000000E   9508               RET

   \                                 In  segment CODE, align 2, keep-with-next
   \                     ?Subroutine46:
   \   00000000   E006               LDI     R16, 6
   \   00000002                      REQUIRE ??Subroutine95_0
   \   00000002                      ;               // Fall through to label ??Subroutine95_0

   \                                 In  segment CODE, align 2, keep-with-next
   \                     ??Subroutine95_0:
   \   00000000   9300....           STS     (??m_xDeviceConfigSearch + 46), R16
   \   00000004   9508               RET

   \                                 In  segment CODE, align 2, keep-with-next
   \                     ?Subroutine29:
   \   00000000   ....               RCALL   ?Subroutine65
   \                     ??CrossCallReturnLabel_64:
   \   00000002                      REQUIRE ?Subroutine81
   \   00000002                      ;               // Fall through to label ?Subroutine81
   1556          

   Maximum stack usage in bytes:

   CSTACK RSTACK Function
   ------ ------ --------
      0      2   <Unnamed 0>
        0      2   -> CUart::~CUart()
      0      2   <Unnamed 10>
        0      2   -> __near_vec_destroy
      0      2   <Unnamed 11>
        0      2   -> CAlarmWindow::~CAlarmWindow()
      0      2   <Unnamed 1>
        0      2   -> CModbusRTU::~CModbusRTU()
      0      2   <Unnamed 2>
        0      2   -> CMultiFunctionKey::~CMultiFunctionKey()
      0      2   <Unnamed 3>
        0      2   -> CEventUniteLogicAnd::~CEventUniteLogicAnd()
      0      2   <Unnamed 4>
        0      2   -> CTimer::~CTimer()
      0      2   <Unnamed 5>
        0      2   -> CPreventiveAlarmWindowNotifyerControl::~CPreventiveAlarmWindowNotifyerControl()
      0      2   <Unnamed 6>
        0      2   -> CEmergencyAlarmWindowNotifyerControl::~CEmergencyAlarmWindowNotifyerControl()
      0      2   <Unnamed 7>
        0      2   -> CStatusLedNotifyerControl::~CStatusLedNotifyerControl()
      0      2   <Unnamed 8>
        0      2   -> CBuzzerNotifyerControl::~CBuzzerNotifyerControl()
      0      2   <Unnamed 9>
        0      2   -> CModbusRtuLinkControl::~CModbusRtuLinkControl()
      0      2   CPlatform::ExternalKeyState()
      0      2   CPlatform::KeyOneState()
      0      2   CPlatform::KeyThreeState()
      0      2   CPlatform::KeyTwoState()
      0      2   CPss21::ActiveAlarmWindowOff(uint8_t)
        0      2   -> CLightBoard::Set(CAlarmWindow *)
        0      6 ?S_EC_MUL_L02
      0      2   CPss21::ActiveAlarmWindowOn(uint8_t)
        0      2   -> CLightBoard::Set(CAlarmWindow *)
        0      6 ?S_EC_MUL_L02
      0      2   CPss21::AddressBusInit()
      0      2   CPss21::AlarmTypeChange()
        0      2   -> CPss21::AlarmTypeSet(uint8_t)
      0      2   CPss21::AlarmTypeErrorChange()
        0      2   -> CBuzzerNotifyerControl::AlarmSet(uint8_t)
        0      4   -> CEmergencyAlarmWindowNotifyerControl::AlarmSet(uint8_t)
        0      4   -> CPreventiveAlarmWindowNotifyerControl::AlarmSet(uint8_t)
        0      4   -> CStatusLedNotifyerControl::AlarmSet(uint8_t)
      0      2   CPss21::AlarmTypeReceipt()
        0      2   -> CPss21::AlarmTypeSet(uint8_t)
      0      2   CPss21::AlarmTypeReset()
        0      2   -> CPss21::AlarmTypeSet(uint8_t)
      1      2   CPss21::AlarmTypeSet(uint8_t)
        1      2   -> CBuzzerNotifyerControl::AlarmSet(uint8_t)
        1      2   -> CEmergencyAlarmWindowNotifyerControl::AlarmSet(uint8_t)
        1      2   -> CPreventiveAlarmWindowNotifyerControl::AlarmSet(uint8_t)
        1      2   -> CStatusLedNotifyerControl::AlarmSet(uint8_t)
      2      2   CPss21::AlarmsProcessing()
        2      4   -- Indirect call
      0      2   CPss21::AllAlarmWindowOff()
        0      2   -> CLightBoard::Set(CAlarmWindow *)
        0      6 ?S_EC_MUL_L02
      0      2   CPss21::AllAlarmWindowOn(uint8_t)
        0      2   -> CLightBoard::Set(CAlarmWindow *)
        0      4 ?S_EC_MUL_L02
      0      2   CPss21::BoardWindowsUpdate()
        0      2   -> CLightBoard::Set(CAlarmWindow *)
      4      2   CPss21::ConfigurationInit()
        4      2   -> CDataBase::ReadBlock(uint8_t *, uint8_t)
        4      2   -> CEmergencyAlarmHighLevelDfa::new CEmergencyAlarmHighLevelDfa()
        4      2   -> CEmergencyAlarmLowLevelDfa::new CEmergencyAlarmLowLevelDfa()
        4      2   -> CErrorAlarmDfa::new CErrorAlarmDfa()
        4      2   -> CIndicationAlarmHighLevelDfa::new CIndicationAlarmHighLevelDfa()
        4      2   -> CIndicationAlarmLowLevelDfa::new CIndicationAlarmLowLevelDfa()
        4      2   -> CNormalAlarmDfa::new CNormalAlarmDfa()
        4      2   -> CPreventiveAlarmHighLevelDfa::new CPreventiveAlarmHighLevelDfa()
        4      2   -> CPreventiveAlarmLowLevelDfa::new CPreventiveAlarmLowLevelDfa()
        4      2   -> memcpy
        4      2   -> memset
        4      2 ?SS_SHR_L02
      0      2   CPss21::ConnectDevice(uint8_t)
        0      2   -> CSpi::Enable()
     27      2   CPss21::CreateDevices()
       27      4   -- Indirect call
       27      2   -> CModuleMrXXDriver::new CModuleMrXXDriver(uint8_t)
       27      2   -> CMvsn21Driver::new CMvsn21Driver(uint8_t)
       27      2   -> CPss21::InitAllocationContext(TMemoryAllocationConext &)
      0      2   CPss21::DestroyDevices(uint8_t)
      0      2   CPss21::DisconnectDevice()
        0      2   -> CSpi::Disable()
      0      2   CPss21::DiscreteOutputControlClear()
      4      2   CPss21::DiscreteOutputsSet(uint8_t *, uint8_t)
        4      4 ?S_SHL_L02
      0      2   CPss21::DiscreteSignalsProcessing()
        0      2   -> CPss21::AlarmsProcessing()
        0      2   -> CPss21::DiscreteOutputControlClear()
        0      2   -> CPss21::ErrorAlarmsProcessing()
      2      2   CPss21::ErrorAlarmsProcessing()
        2      4   -- Indirect call
      0      2   CPss21::ErrorMainCycle()
        0      2   -> CBuzzerNotifyerControl::AlarmSet(uint8_t)
        0      2   -> CModbusRTU::Fsm()
        0      2   -> CPss21::KeyStateProcessing()
        0      2   -> CPss21::NotifyersControlProcessing()
        0      2   -> CPss21::ReceiptResetGlobalFlagsClear()
        0      2   -> CStatusLedNotifyerControl::AlarmSet(uint8_t)
      0      2   CPss21::ErrorWindowOn(uint8_t)
        0      2   -> CLightBoard::Set(CAlarmWindow *)
        0      4 ?S_EC_MUL_L02
        0      6 ?S_EC_MUL_L02
      0      2   CPss21::GetDiscreteInputState(uint8_t)
      0      2   CPss21::GetErrorAlarmState(uint8_t)
      0      2   CPss21::GetTimeoutModbusRtuLinkControl()
        0      2 ?S_EC_MUL_L02
      0      2   CPss21::Init()
        0      2   -> CLightBoard::Init(CAlarmWindow *)
        0      2   -> memset
      0      2   CPss21::InitAllocationContext(TMemoryAllocationConext &)
      1      2   CPss21::KeyStateProcessing()
        1      2   -> CBuzzerNotifyerControl::AlarmSet(uint8_t)
        1      2   -> CEventUniteLogicAnd::IsHappened(uint8_t, uint8_t)
        1      2   -> CMultiFunctionKey::KeyEventHappened(uint8_t)
        1      4   -> CMultiFunctionKey::KeyEventHappened(uint8_t)
        1      2   -> CPss21::ModbusDefaultInit()
        1      4   -> CPss21::SendToDevicesReceipt()
        1      2   -> CPss21::SendToDevicesReset()
      0      2   CPss21::LinkControlErrorMainCycle()
        0      2   -> CDataStore::Fsm()
        0      4   -> CModbusRTU::Fsm()
        0      4   -> CModbusRtuLinkControl::Fsm()
        0      4   -> CPss21::KeyStateProcessing()
        0      2   -> CPss21::NotifyersControlProcessing()
        0      2   -> CPss21::ReceiptResetGlobalFlagsClear()
      0      2   CPss21::MainFsm()
        0      2   -> CBuzzer::Init()
        0      2   -> CBuzzerNotifyerControl::AlarmSet(uint8_t)
        0      2   -> CDataBase::Check()
        0      2   -> CDataStore::Fsm()
        0      4   -> CDataStore::Fsm()
        0      4   -> CEmergencyAlarmWindowNotifyerControl::AlarmSet(uint8_t)
        0      2   -> CModbusRTU::Fsm()
        0      4   -> CModbusRTU::Fsm()
        0      4   -> CModbusRtuLinkControl::Fsm()
        0      2   -> CPlatform::Init()
        0      4   -> CPreventiveAlarmWindowNotifyerControl::AlarmSet(uint8_t)
        0      2   -> CPss21::AddressBusInit()
        0      2   -> CPss21::AlarmTypeSet(uint8_t)
        0      4   -> CPss21::AllAlarmWindowOff()
        0      2   -> CPss21::AllAlarmWindowOn(uint8_t)
        0      2   -> CPss21::ConfigurationInit()
        0      2   -> CPss21::CreateDevices()
        0      2   -> CPss21::DiscreteSignalsProcessing()
        0      2   -> CPss21::ErrorMainCycle()
        0      4   -> CPss21::ErrorWindowOn(uint8_t)
        0      2   -> CPss21::Init()
        0      4   -> CPss21::KeyStateProcessing()
        0      2   -> CPss21::LinkControlErrorMainCycle()
        0      2   -> CPss21::ModbusDefaultInit()
        0      2   -> CPss21::ModbusInit()
        0      2   -> CPss21::ModulesInteraction(uint8_t)
        0      2   -> CPss21::NotifyersControlProcessing()
        0      2   -> CPss21::ReceiptResetGlobalFlagsClear()
        0      4   -> CPss21::RestoreContextNotifyerControl()
        0      2   -> CPss21::SaveContextNotifyerControl()
        0      2   -> CPss21::SearchModules()
        0      2   -> CPss21::TestMainCycle()
        0      2   -> CSpi::Init()
        0      4   -> CStatusLedNotifyerControl::AlarmSet(uint8_t)
        0      4   -> CTimer::IsOverflow()
        0      2   -> CTimer::Reset()
        0      2   -> CTimer::Set(uint16_t)
        0      2 ?CV_SWITCH_L06
      0      2   CPss21::ModbusDefaultInit()
        0      2   -> CPss21::ModbusInit()
      0      2   CPss21::ModbusDeviceControl(uint8_t *, uint16_t, uint16_t)
        0      2   -> CPss21::SendToDevicesModbusReceipt()
        0      2   -> CPss21::SendToDevicesModbusReset()
        0      2   -> CPss21::SetBytesFromBits(uint8_t *, uint8_t *, uint16_t)
      1      2   CPss21::ModbusDeviceControl(uint8_t, uint16_t)
        1      2   -> CPss21::ModbusDeviceControl(uint8_t *, uint16_t, uint16_t)
     25      2   CPss21::ModbusInit()
        2      2   -> CModbus::SlaveSet(uint8_t)
        2      2   -> CModbusRTU::Init(CUart *, uint32_t, char, uint8_t, uint8_t, uint8_t *, uint8_t *, uint8_t *, uint8_t *, uint16_t *, uint16_t *, uint16_t, uint16_t, uint16_t, uint16_t)
       25      2 ?UL_DIVMOD_L03
       25      2 ?UL_SHR_L03
      0      2   CPss21::ModbusRtuLinkControlInProgress()
      0      2   CPss21::ModbusRtuLinkControlIsOn()
      2      2   CPss21::ModulesInteraction(uint8_t)
        2      2   -- Indirect call
      0      2   CPss21::NotifyersControlProcessing()
        0      2   -> CNotifyerControl::Fsm()
      0      2   CPss21::ReceiptResetGlobalFlagsClear()
      0      2   CPss21::ReportType(uint8_t *, uint16_t)
        0      4   -> CPss21::ConnectDevice(uint8_t)
        0      2   -> CPss21::DisconnectDevice()
        0      4   -> CSpi::Exchange(uint8_t *, uint8_t *, uint16_t)
        0      2   -> memset
      0      2   CPss21::RestoreContextNotifyerControl()
        0      2   -> CPss21::AlarmTypeSet(uint8_t)
        0      4 ?S_EC_MUL_L02
      0      2   CPss21::SaveContextNotifyerControl()
        0      4 ?S_EC_MUL_L02
      5      2   CPss21::SearchModules()
        5      4   -> CPss21::ConnectDevice(uint8_t)
        5      2   -> CPss21::DisconnectDevice()
        5      4   -> CSpi::Exchange(uint8_t *, uint8_t *, uint16_t)
        5      2   -> delay_ms(uint16_t)
        5      2   -> iCrcSummOneByteCompare(unsigned char *, unsigned int)
        5      2   -> memset
      0      2   CPss21::SendToDevicesModbusReceipt()
      0      2   CPss21::SendToDevicesModbusReset()
      0      2   CPss21::SendToDevicesReceipt()
      0      2   CPss21::SendToDevicesReset()
      0      2   CPss21::SetAlarmWindowType(uint8_t, uint8_t)
        0      2 ?S_EC_MUL_L02
      4      2   CPss21::SetBytesFromBits(uint8_t *, uint8_t *, uint16_t)
        4      2 ?SS_DIVMOD_L02
        4      2 ?S_SHL_L02
        4      4 ?S_SHL_L02
      0      2   CPss21::SetErrorAlarmState(uint8_t, uint8_t)
      0      2   CPss21::SetModeModbusRtuLinkControlInProgress(bool)
        0      2   -> CDataBase::SignatureCreate()
        0      2   -> CDataBase::WriteBlock(uint8_t *, uint8_t)
      0      2   CPss21::TestMainCycle()
        0      4   -> CModbusRTU::Fsm()
        0      4   -> CPss21::KeyStateProcessing()
        0      2   -> CPss21::NotifyersControlProcessing()
        0      2   -> CPss21::ReceiptResetGlobalFlagsClear()
     12      2   __sti__routine()
        0      2   -> CBuzzerNotifyerControl::CBuzzerNotifyerControl()
        0      2   -> CEmergencyAlarmWindowNotifyerControl::CEmergencyAlarmWindowNotifyerControl()
        0      2   -> CEventUniteLogicAnd::CEventUniteLogicAnd(uint16_t)
        0      2   -> CModbusRTU::CModbusRTU()
        0      2   -> CModbusRtuLinkControl::CModbusRtuLinkControl()
        0      2   -> CMultiFunctionKey::CMultiFunctionKey(uint8_t (*)())
        0      2   -> CPreventiveAlarmWindowNotifyerControl::CPreventiveAlarmWindowNotifyerControl()
        0      2   -> CStatusLedNotifyerControl::CStatusLedNotifyerControl()
        0      2   -> CTimer::CTimer(uint16_t)
        0      2   -> CUart::CUart(uint8_t volatile *, uint8_t volatile *, uint8_t volatile *, uint8_t volatile *, uint8_t volatile *, uint8_t volatile *, uint8_t volatile *, uint8_t, uint8_t volatile *, uint8_t)
        0      2   -> __near_vec_construct
        0      2   -> __record_needed_destruction


   Segment part sizes:

   Bytes  Function/Label
   -----  --------------
      84  ?<Initializer for >
      38  ?<Jumptable for MainFsm>_0
       6  ?<Unnamed 0>
      10  ?<Unnamed 10>
       6  ?<Unnamed 11>
       6  ?<Unnamed 1>
       6  ?<Unnamed 2>
       6  ?<Unnamed 3>
       6  ?<Unnamed 4>
       6  ?<Unnamed 5>
       6  ?<Unnamed 6>
       6  ?<Unnamed 7>
       6  ?<Unnamed 8>
       6  ?<Unnamed 9>
      14  ??Subroutine100_0
       6  ??Subroutine101_0
       4  ??Subroutine102_0
      14  ??Subroutine103_0
       8  ??Subroutine104_0
       6  ??Subroutine105_0
       4  ??Subroutine93_0
       6  ??Subroutine94_0
       6  ??Subroutine95_0
       4  ??Subroutine96_0
      10  ??Subroutine97_0
       2  ??Subroutine98_0
       8  ??Subroutine99_0
       2  ?Subroutine1
       4  ?Subroutine11
       4  ?Subroutine12
       6  ?Subroutine13
      14  ?Subroutine14
       4  ?Subroutine15
       8  ?Subroutine16
       2  ?Subroutine18
      16  ?Subroutine19
       6  ?Subroutine2
       8  ?Subroutine20
       8  ?Subroutine21
      10  ?Subroutine24
      10  ?Subroutine25
       8  ?Subroutine26
       8  ?Subroutine27
      36  ?Subroutine28
       2  ?Subroutine29
       8  ?Subroutine30
       8  ?Subroutine31
       6  ?Subroutine34
      18  ?Subroutine35
       4  ?Subroutine36
      18  ?Subroutine37
      12  ?Subroutine38
      10  ?Subroutine39
       2  ?Subroutine4
       4  ?Subroutine40
       4  ?Subroutine41
      16  ?Subroutine42
      16  ?Subroutine43
       4  ?Subroutine44
       4  ?Subroutine45
       2  ?Subroutine46
       2  ?Subroutine47
       4  ?Subroutine48
      10  ?Subroutine5
       2  ?Subroutine50
      10  ?Subroutine52
       2  ?Subroutine54
       4  ?Subroutine55
       8  ?Subroutine56
       8  ?Subroutine57
       8  ?Subroutine58
       8  ?Subroutine59
       8  ?Subroutine6
       8  ?Subroutine60
       6  ?Subroutine61
       2  ?Subroutine62
      10  ?Subroutine63
      10  ?Subroutine64
       6  ?Subroutine65
       4  ?Subroutine66
       8  ?Subroutine67
       4  ?Subroutine68
       4  ?Subroutine69
       4  ?Subroutine7
       4  ?Subroutine70
       4  ?Subroutine71
       4  ?Subroutine72
       6  ?Subroutine73
       6  ?Subroutine74
       6  ?Subroutine75
       6  ?Subroutine76
       2  ?Subroutine77
       4  ?Subroutine78
       4  ?Subroutine79
       6  ?Subroutine8
       4  ?Subroutine80
       4  ?Subroutine81
       4  ?Subroutine82
       4  ?Subroutine83
       4  ?Subroutine84
       4  ?Subroutine85
       6  ?Subroutine86
       6  ?Subroutine87
       4  ?Subroutine88
       4  ?Subroutine89
       4  ?Subroutine9
       2  ?Subroutine90
       4  ?Subroutine91
       6  ?Subroutine92
      84  ?_0
      14  CPlatform::ExternalKeyState()
      12  CPlatform::KeyOneState()
      12  CPlatform::KeyThreeState()
      12  CPlatform::KeyTwoState()
      18  CPss21::ActiveAlarmWindowOff(uint8_t)
      16  CPss21::ActiveAlarmWindowOn(uint8_t)
      22  CPss21::AddressBusInit()
      10  CPss21::AlarmTypeChange()
      10  CPss21::AlarmTypeErrorChange()
       2  CPss21::AlarmTypeReceipt()
       4  CPss21::AlarmTypeReset()
      22  CPss21::AlarmTypeSet(uint8_t)
      22  CPss21::AlarmsProcessing()
      12  CPss21::AllAlarmWindowOff()
      12  CPss21::AllAlarmWindowOn(uint8_t)
       2  CPss21::BoardWindowsUpdate()
     490  CPss21::ConfigurationInit()
      46  CPss21::ConnectDevice(uint8_t)
     100  CPss21::CreateDevices()
      18  CPss21::DestroyDevices(uint8_t)
      16  CPss21::DisconnectDevice()
      34  CPss21::DiscreteOutputControlClear()
      84  CPss21::DiscreteOutputsSet(uint8_t *, uint8_t)
      18  CPss21::DiscreteSignalsProcessing()
      24  CPss21::ErrorAlarmsProcessing()
      36  CPss21::ErrorMainCycle()
      38  CPss21::ErrorWindowOn(uint8_t)
      12  CPss21::GetDiscreteInputState(uint8_t)
       6  CPss21::GetErrorAlarmState(uint8_t)
      10  CPss21::GetTimeoutModbusRtuLinkControl()
      24  CPss21::Init()
      88  CPss21::InitAllocationContext(TMemoryAllocationConext &)
     114  CPss21::KeyStateProcessing()
       8  CPss21::LinkControlErrorMainCycle()
     248  CPss21::MainFsm()
      18  CPss21::ModbusDefaultInit()
      80  CPss21::ModbusDeviceControl(uint8_t *, uint16_t, uint16_t)
      18  CPss21::ModbusDeviceControl(uint8_t, uint16_t)
     140  CPss21::ModbusInit()
      10  CPss21::ModbusRtuLinkControlInProgress()
      10  CPss21::ModbusRtuLinkControlIsOn()
      34  CPss21::ModulesInteraction(uint8_t)
      22  CPss21::NotifyersControlProcessing()
      18  CPss21::ReceiptResetGlobalFlagsClear()
      40  CPss21::ReportType(uint8_t *, uint16_t)
      22  CPss21::RestoreContextNotifyerControl()
      18  CPss21::SaveContextNotifyerControl()
     176  CPss21::SearchModules()
      18  CPss21::SendToDevicesModbusReceipt()
      18  CPss21::SendToDevicesModbusReset()
      18  CPss21::SendToDevicesReceipt()
      20  CPss21::SendToDevicesReset()
      18  CPss21::SetAlarmWindowType(uint8_t, uint8_t)
      80  CPss21::SetBytesFromBits(uint8_t *, uint8_t *, uint16_t)
       6  CPss21::SetErrorAlarmState(uint8_t, uint8_t)
      26  CPss21::SetModeModbusRtuLinkControlInProgress(bool)
       2  CPss21::TestMainCycle()
     192  CPss21::m_apxAlarmDfa
     120  CPss21::m_aucRtuDiscreteDataArray
      48  CPss21::m_auiErrorLedOn
     256  CPss21::m_auiIntermediateBuff
     256  CPss21::m_auiReceiveMessageBuff
      64  CPss21::m_auiSpiRxBuffer
      64  CPss21::m_auiSpiTxBuffer
     288  CPss21::m_axAlarmWindowControl
       1  CPss21::m_uiType
     213  CPss21::m_xDeviceConfigSearch
          CPss21::m_xModbusRtuLinkControl
          CPss21::m_apxDrivers
          CPss21::m_apxErrorAlarmDfa
          CPss21::m_axDiscreteOutputControl
          CPss21::m_uiFsmState
          CPss21::m_uiPanelReceipt
          CPss21::m_uiPanelReset
          CPss21::m_uiExternalReceipt
          CPss21::m_uiExternalReset
          CPss21::m_uiModbusReceipt
          CPss21::m_uiModbusReset
          CPss21::m_uiDiscreteSignalsReceipt
          CPss21::m_uiDiscreteSignalsReset
          CPss21::m_uiErrorCode
          CPss21::m_uiModuleIndex
          CPss21::m_uiCommonAlarmType
          CPss21::m_uiCommonAlarmTypePrevious
          CPss21::m_auiErrorAlarmDataArray
          CPss21::m_xReceiptKey
          CPss21::m_xResetKey
          CPss21::m_xCheckKey
          CPss21::m_xExternalKey
          CPss21::m_xEventUniteLogicAndOne
          CPss21::m_xMainCycleTimer
          CPss21::m_xPreventiveAlarmWindowNotifyerControl
          CPss21::m_xEmergencyAlarmWindowNotifyerControl
          CPss21::m_xStatusLedNotifyerControl
          CPss21::m_xBuzzerNotifyerControl
          CPss21::m_xDiscreteOutputDataBase
      67  CPss21::m_xDeviceConfiguration
          CPss21::m_xModbusSettings
          CPss21::m_xDeviceState
          CPss21::m_aucRtuHoldingRegistersArray
          CPss21::m_aucRtuInputRegistersArray
      49  CPss21::m_xModbusRtuOne
      47  CPss21::m_xUart1
       1  _A_ACSR
       2  _A_ADC
       1  _A_ADCSRA
       1  _A_ADMUX
       1  _A_ASSR
       1  _A_DDRA
       1  _A_DDRB
       1  _A_DDRC
       1  _A_DDRD
       1  _A_DDRE
       1  _A_DDRF
       1  _A_DDRG
       2  _A_EEAR
       1  _A_EECR
       1  _A_EEDR
       1  _A_EICRA
       1  _A_EICRB
       1  _A_EIFR
       1  _A_EIMSK
       1  _A_ETIFR
       1  _A_ETIMSK
       2  _A_ICR1
       2  _A_ICR3
       1  _A_MCUCR
       1  _A_MCUCSR
       1  _A_OCDR
       1  _A_OCR0
       2  _A_OCR1A
       2  _A_OCR1B
       2  _A_OCR1C
       1  _A_OCR2
       2  _A_OCR3A
       2  _A_OCR3B
       2  _A_OCR3C
       1  _A_OSCCAL
       1  _A_PINA
       1  _A_PINB
       1  _A_PINC
       1  _A_PIND
       1  _A_PINE
       1  _A_PINF
       1  _A_PING
       1  _A_PORTA
       1  _A_PORTB
       1  _A_PORTC
       1  _A_PORTD
       1  _A_PORTE
       1  _A_PORTF
       1  _A_PORTG
       1  _A_RAMPZ
       1  _A_SFIOR
       2  _A_SP
       1  _A_SPCR
       1  _A_SPDR
       1  _A_SPMCSR
       1  _A_SPSR
       1  _A_SREG
       1  _A_TCCR0
       1  _A_TCCR1A
       1  _A_TCCR1B
       1  _A_TCCR1C
       1  _A_TCCR2
       1  _A_TCCR3A
       1  _A_TCCR3B
       1  _A_TCCR3C
       1  _A_TCNT0
       2  _A_TCNT1
       1  _A_TCNT2
       2  _A_TCNT3
       1  _A_TIFR
       1  _A_TIMSK
       1  _A_TWAR
       1  _A_TWBR
       1  _A_TWCR
       1  _A_TWDR
       1  _A_TWSR
       1  _A_UBRR0H
       1  _A_UBRR0L
       1  _A_UBRR1H
       1  _A_UBRR1L
       1  _A_UCSR0A
       1  _A_UCSR0B
       1  _A_UCSR0C
       1  _A_UCSR1A
       1  _A_UCSR1B
       1  _A_UCSR1C
       1  _A_UDR0
       1  _A_UDR1
       1  _A_WDTCR
       1  _A_XDIV
       1  _A_XMCRA
       1  _A_XMCRB
     254  __sti__routine()
      48  -- Other

 
   105 bytes in segment ABSOLUTE
 3 394 bytes in segment CODE
     2 bytes in segment DIFUNCT
    14 bytes in segment INITTAB
    52 bytes in segment NEAR_F
    84 bytes in segment NEAR_I
    84 bytes in segment NEAR_ID
 1 645 bytes in segment NEAR_Z
    38 bytes in segment SWITCH
 
 3 520 bytes of CODE memory (+  64 bytes shared)
 1 729 bytes of DATA memory (+ 105 bytes shared)

Errors: none
Warnings: 2
