###############################################################################
#
# IAR C/C++ Compiler V7.10.6.1378 for Atmel AVR           29/Jun/2023  11:58:41
# Copyright 1996-2018 IAR Systems AB.
#
#    Source file  =  
#        D:\Projects\CurrentProjects\CautoProjects\PSS48\src\Pss21.cpp
#    Command line =  
#        -f C:\Users\Admin\AppData\Local\Temp\EW97B8.tmp
#        (--string_literals_in_flash
#        D:\Projects\CurrentProjects\CautoProjects\PSS48\src\Pss21.cpp
#        --cpu=m128a -ms -o
#        D:\Projects\CurrentProjects\CautoProjects\PSS48\Debug\Obj -lC
#        D:\Projects\CurrentProjects\CautoProjects\PSS48\Debug\List -lB
#        D:\Projects\CurrentProjects\CautoProjects\PSS48\Debug\List -y
#        --initializers_in_flash --root_variables --debug
#        -DENABLE_BIT_DEFINITIONS -e -I
#        D:\Projects\CurrentProjects\CautoProjects\PSS48\include\ -I
#        D:\Projects\CurrentProjects\CautoProjects\PSS48\Modbus\ --eeprom_size
#        4096 --dlib --dlib_config "C:\Program Files (x86)\IAR Systems\Embedded
#        Workbench 8.0\avr\LIB\DLIB\dlAVR-3s-ec_mul-n.h" -Ohz --eec++)
#    Locale       =  Russian_RUS.1251
#    List file    =  
#        D:\Projects\CurrentProjects\CautoProjects\PSS48\Debug\List\Pss21.lst
#    Object file  =  
#        D:\Projects\CurrentProjects\CautoProjects\PSS48\Debug\Obj\Pss21.r90
#
###############################################################################

D:\Projects\CurrentProjects\CautoProjects\PSS48\src\Pss21.cpp
      1          //-----------------------------------------------------------------------------------------------------
      2          //  Source      : FileName.cpp
      3          //  Created     : 01.06.2022
      4          //  Author      : Alexandr Volvenkin
      5          //  email       : aav-36@mail.ru
      6          //  GitHub      : https://github.com/AlexandrVolvenkin
      7          //-----------------------------------------------------------------------------------------------------
      8          #include "Pss21.h"

   \                                 In  segment ABSOLUTE, at 0x9d, root
   \   union <unnamed> volatile __io _A_UCSR1C
   \                     _A_UCSR1C:
   \   00000000                      DS8 1

   \                                 In  segment ABSOLUTE, at 0x9c, root
   \   union <unnamed> volatile __io _A_UDR1
   \                     _A_UDR1:
   \   00000000                      DS8 1

   \                                 In  segment ABSOLUTE, at 0x9b, root
   \   union <unnamed> volatile __io _A_UCSR1A
   \                     _A_UCSR1A:
   \   00000000                      DS8 1

   \                                 In  segment ABSOLUTE, at 0x9a, root
   \   union <unnamed> volatile __io _A_UCSR1B
   \                     _A_UCSR1B:
   \   00000000                      DS8 1

   \                                 In  segment ABSOLUTE, at 0x99, root
   \   union <unnamed> volatile __io _A_UBRR1L
   \                     _A_UBRR1L:
   \   00000000                      DS8 1

   \                                 In  segment ABSOLUTE, at 0x98, root
   \   union <unnamed> volatile __io _A_UBRR1H
   \                     _A_UBRR1H:
   \   00000000                      DS8 1

   \                                 In  segment ABSOLUTE, at 0x95, root
   \   union <unnamed> volatile __io _A_UCSR0C
   \                     _A_UCSR0C:
   \   00000000                      DS8 1

   \                                 In  segment ABSOLUTE, at 0x90, root
   \   union <unnamed> volatile __io _A_UBRR0H
   \                     _A_UBRR0H:
   \   00000000                      DS8 1

   \                                 In  segment ABSOLUTE, at 0x8c, root
   \   union <unnamed> volatile __io _A_TCCR3C
   \                     _A_TCCR3C:
   \   00000000                      DS8 1

   \                                 In  segment ABSOLUTE, at 0x8b, root
   \   union <unnamed> volatile __io _A_TCCR3A
   \                     _A_TCCR3A:
   \   00000000                      DS8 1

   \                                 In  segment ABSOLUTE, at 0x8a, root
   \   union <unnamed> volatile __io _A_TCCR3B
   \                     _A_TCCR3B:
   \   00000000                      DS8 1

   \                                 In  segment ABSOLUTE, at 0x88, root
   \   union <unnamed> volatile __io _A_TCNT3
   \                     _A_TCNT3:
   \   00000000                      DS8 2

   \                                 In  segment ABSOLUTE, at 0x86, root
   \   union <unnamed> volatile __io _A_OCR3A
   \                     _A_OCR3A:
   \   00000000                      DS8 2

   \                                 In  segment ABSOLUTE, at 0x84, root
   \   union <unnamed> volatile __io _A_OCR3B
   \                     _A_OCR3B:
   \   00000000                      DS8 2

   \                                 In  segment ABSOLUTE, at 0x82, root
   \   union <unnamed> volatile __io _A_OCR3C
   \                     _A_OCR3C:
   \   00000000                      DS8 2

   \                                 In  segment ABSOLUTE, at 0x80, root
   \   union <unnamed> volatile __io _A_ICR3
   \                     _A_ICR3:
   \   00000000                      DS8 2

   \                                 In  segment ABSOLUTE, at 0x7d, root
   \   union <unnamed> volatile __io _A_ETIMSK
   \                     _A_ETIMSK:
   \   00000000                      DS8 1

   \                                 In  segment ABSOLUTE, at 0x7c, root
   \   union <unnamed> volatile __io _A_ETIFR
   \                     _A_ETIFR:
   \   00000000                      DS8 1

   \                                 In  segment ABSOLUTE, at 0x7a, root
   \   union <unnamed> volatile __io _A_TCCR1C
   \                     _A_TCCR1C:
   \   00000000                      DS8 1

   \                                 In  segment ABSOLUTE, at 0x78, root
   \   union <unnamed> volatile __io _A_OCR1C
   \                     _A_OCR1C:
   \   00000000                      DS8 2

   \                                 In  segment ABSOLUTE, at 0x74, root
   \   union <unnamed> volatile __io _A_TWCR
   \                     _A_TWCR:
   \   00000000                      DS8 1

   \                                 In  segment ABSOLUTE, at 0x73, root
   \   union <unnamed> volatile __io _A_TWDR
   \                     _A_TWDR:
   \   00000000                      DS8 1

   \                                 In  segment ABSOLUTE, at 0x72, root
   \   union <unnamed> volatile __io _A_TWAR
   \                     _A_TWAR:
   \   00000000                      DS8 1

   \                                 In  segment ABSOLUTE, at 0x71, root
   \   union <unnamed> volatile __io _A_TWSR
   \                     _A_TWSR:
   \   00000000                      DS8 1

   \                                 In  segment ABSOLUTE, at 0x70, root
   \   union <unnamed> volatile __io _A_TWBR
   \                     _A_TWBR:
   \   00000000                      DS8 1

   \                                 In  segment ABSOLUTE, at 0x6f, root
   \   union <unnamed> volatile __io _A_OSCCAL
   \                     _A_OSCCAL:
   \   00000000                      DS8 1

   \                                 In  segment ABSOLUTE, at 0x6d, root
   \   union <unnamed> volatile __io _A_XMCRA
   \                     _A_XMCRA:
   \   00000000                      DS8 1

   \                                 In  segment ABSOLUTE, at 0x6c, root
   \   union <unnamed> volatile __io _A_XMCRB
   \                     _A_XMCRB:
   \   00000000                      DS8 1

   \                                 In  segment ABSOLUTE, at 0x6a, root
   \   union <unnamed> volatile __io _A_EICRA
   \                     _A_EICRA:
   \   00000000                      DS8 1

   \                                 In  segment ABSOLUTE, at 0x68, root
   \   union <unnamed> volatile __io _A_SPMCSR
   \                     _A_SPMCSR:
   \   00000000                      DS8 1

   \                                 In  segment ABSOLUTE, at 0x65, root
   \   union <unnamed> volatile __io _A_PORTG
   \                     _A_PORTG:
   \   00000000                      DS8 1

   \                                 In  segment ABSOLUTE, at 0x64, root
   \   union <unnamed> volatile __io _A_DDRG
   \                     _A_DDRG:
   \   00000000                      DS8 1

   \                                 In  segment ABSOLUTE, at 0x63, root
   \   union <unnamed> volatile __io _A_PING
   \                     _A_PING:
   \   00000000                      DS8 1

   \                                 In  segment ABSOLUTE, at 0x62, root
   \   union <unnamed> volatile __io _A_PORTF
   \                     _A_PORTF:
   \   00000000                      DS8 1

   \                                 In  segment ABSOLUTE, at 0x61, root
   \   union <unnamed> volatile __io _A_DDRF
   \                     _A_DDRF:
   \   00000000                      DS8 1

   \                                 In  segment ABSOLUTE, at 0x5f, root
   \   union <unnamed> volatile __io _A_SREG
   \                     _A_SREG:
   \   00000000                      DS8 1

   \                                 In  segment ABSOLUTE, at 0x5d, root
   \   union <unnamed> volatile __io _A_SP
   \                     _A_SP:
   \   00000000                      DS8 2

   \                                 In  segment ABSOLUTE, at 0x5c, root
   \   union <unnamed> volatile __io _A_XDIV
   \                     _A_XDIV:
   \   00000000                      DS8 1

   \                                 In  segment ABSOLUTE, at 0x5b, root
   \   union <unnamed> volatile __io _A_RAMPZ
   \                     _A_RAMPZ:
   \   00000000                      DS8 1

   \                                 In  segment ABSOLUTE, at 0x5a, root
   \   union <unnamed> volatile __io _A_EICRB
   \                     _A_EICRB:
   \   00000000                      DS8 1

   \                                 In  segment ABSOLUTE, at 0x59, root
   \   union <unnamed> volatile __io _A_EIMSK
   \                     _A_EIMSK:
   \   00000000                      DS8 1

   \                                 In  segment ABSOLUTE, at 0x58, root
   \   union <unnamed> volatile __io _A_EIFR
   \                     _A_EIFR:
   \   00000000                      DS8 1

   \                                 In  segment ABSOLUTE, at 0x57, root
   \   union <unnamed> volatile __io _A_TIMSK
   \                     _A_TIMSK:
   \   00000000                      DS8 1

   \                                 In  segment ABSOLUTE, at 0x56, root
   \   union <unnamed> volatile __io _A_TIFR
   \                     _A_TIFR:
   \   00000000                      DS8 1

   \                                 In  segment ABSOLUTE, at 0x55, root
   \   union <unnamed> volatile __io _A_MCUCR
   \                     _A_MCUCR:
   \   00000000                      DS8 1

   \                                 In  segment ABSOLUTE, at 0x54, root
   \   union <unnamed> volatile __io _A_MCUCSR
   \                     _A_MCUCSR:
   \   00000000                      DS8 1

   \                                 In  segment ABSOLUTE, at 0x53, root
   \   union <unnamed> volatile __io _A_TCCR0
   \                     _A_TCCR0:
   \   00000000                      DS8 1

   \                                 In  segment ABSOLUTE, at 0x52, root
   \   union <unnamed> volatile __io _A_TCNT0
   \                     _A_TCNT0:
   \   00000000                      DS8 1

   \                                 In  segment ABSOLUTE, at 0x51, root
   \   union <unnamed> volatile __io _A_OCR0
   \                     _A_OCR0:
   \   00000000                      DS8 1

   \                                 In  segment ABSOLUTE, at 0x50, root
   \   union <unnamed> volatile __io _A_ASSR
   \                     _A_ASSR:
   \   00000000                      DS8 1

   \                                 In  segment ABSOLUTE, at 0x4f, root
   \   union <unnamed> volatile __io _A_TCCR1A
   \                     _A_TCCR1A:
   \   00000000                      DS8 1

   \                                 In  segment ABSOLUTE, at 0x4e, root
   \   union <unnamed> volatile __io _A_TCCR1B
   \                     _A_TCCR1B:
   \   00000000                      DS8 1

   \                                 In  segment ABSOLUTE, at 0x4c, root
   \   union <unnamed> volatile __io _A_TCNT1
   \                     _A_TCNT1:
   \   00000000                      DS8 2

   \                                 In  segment ABSOLUTE, at 0x4a, root
   \   union <unnamed> volatile __io _A_OCR1A
   \                     _A_OCR1A:
   \   00000000                      DS8 2

   \                                 In  segment ABSOLUTE, at 0x48, root
   \   union <unnamed> volatile __io _A_OCR1B
   \                     _A_OCR1B:
   \   00000000                      DS8 2

   \                                 In  segment ABSOLUTE, at 0x46, root
   \   union <unnamed> volatile __io _A_ICR1
   \                     _A_ICR1:
   \   00000000                      DS8 2

   \                                 In  segment ABSOLUTE, at 0x45, root
   \   union <unnamed> volatile __io _A_TCCR2
   \                     _A_TCCR2:
   \   00000000                      DS8 1

   \                                 In  segment ABSOLUTE, at 0x44, root
   \   union <unnamed> volatile __io _A_TCNT2
   \                     _A_TCNT2:
   \   00000000                      DS8 1

   \                                 In  segment ABSOLUTE, at 0x43, root
   \   union <unnamed> volatile __io _A_OCR2
   \                     _A_OCR2:
   \   00000000                      DS8 1

   \                                 In  segment ABSOLUTE, at 0x42, root
   \   union <unnamed> volatile __io _A_OCDR
   \                     _A_OCDR:
   \   00000000                      DS8 1

   \                                 In  segment ABSOLUTE, at 0x41, root
   \   union <unnamed> volatile __io _A_WDTCR
   \                     _A_WDTCR:
   \   00000000                      DS8 1

   \                                 In  segment ABSOLUTE, at 0x40, root
   \   union <unnamed> volatile __io _A_SFIOR
   \                     _A_SFIOR:
   \   00000000                      DS8 1

   \                                 In  segment ABSOLUTE, at 0x3e, root
   \   union <unnamed> volatile __io _A_EEAR
   \                     _A_EEAR:
   \   00000000                      DS8 2

   \                                 In  segment ABSOLUTE, at 0x3d, root
   \   union <unnamed> volatile __io _A_EEDR
   \                     _A_EEDR:
   \   00000000                      DS8 1

   \                                 In  segment ABSOLUTE, at 0x3c, root
   \   union <unnamed> volatile __io _A_EECR
   \                     _A_EECR:
   \   00000000                      DS8 1

   \                                 In  segment ABSOLUTE, at 0x3b, root
   \   union <unnamed> volatile __io _A_PORTA
   \                     _A_PORTA:
   \   00000000                      DS8 1

   \                                 In  segment ABSOLUTE, at 0x3a, root
   \   union <unnamed> volatile __io _A_DDRA
   \                     _A_DDRA:
   \   00000000                      DS8 1

   \                                 In  segment ABSOLUTE, at 0x39, root
   \   union <unnamed> volatile __io _A_PINA
   \                     _A_PINA:
   \   00000000                      DS8 1

   \                                 In  segment ABSOLUTE, at 0x38, root
   \   union <unnamed> volatile __io _A_PORTB
   \                     _A_PORTB:
   \   00000000                      DS8 1

   \                                 In  segment ABSOLUTE, at 0x37, root
   \   union <unnamed> volatile __io _A_DDRB
   \                     _A_DDRB:
   \   00000000                      DS8 1

   \                                 In  segment ABSOLUTE, at 0x36, root
   \   union <unnamed> volatile __io _A_PINB
   \                     _A_PINB:
   \   00000000                      DS8 1

   \                                 In  segment ABSOLUTE, at 0x35, root
   \   union <unnamed> volatile __io _A_PORTC
   \                     _A_PORTC:
   \   00000000                      DS8 1

   \                                 In  segment ABSOLUTE, at 0x34, root
   \   union <unnamed> volatile __io _A_DDRC
   \                     _A_DDRC:
   \   00000000                      DS8 1

   \                                 In  segment ABSOLUTE, at 0x33, root
   \   union <unnamed> volatile __io _A_PINC
   \                     _A_PINC:
   \   00000000                      DS8 1

   \                                 In  segment ABSOLUTE, at 0x32, root
   \   union <unnamed> volatile __io _A_PORTD
   \                     _A_PORTD:
   \   00000000                      DS8 1

   \                                 In  segment ABSOLUTE, at 0x31, root
   \   union <unnamed> volatile __io _A_DDRD
   \                     _A_DDRD:
   \   00000000                      DS8 1

   \                                 In  segment ABSOLUTE, at 0x30, root
   \   union <unnamed> volatile __io _A_PIND
   \                     _A_PIND:
   \   00000000                      DS8 1

   \                                 In  segment ABSOLUTE, at 0x2f, root
   \   union <unnamed> volatile __io _A_SPDR
   \                     _A_SPDR:
   \   00000000                      DS8 1

   \                                 In  segment ABSOLUTE, at 0x2e, root
   \   union <unnamed> volatile __io _A_SPSR
   \                     _A_SPSR:
   \   00000000                      DS8 1

   \                                 In  segment ABSOLUTE, at 0x2d, root
   \   union <unnamed> volatile __io _A_SPCR
   \                     _A_SPCR:
   \   00000000                      DS8 1

   \                                 In  segment ABSOLUTE, at 0x2c, root
   \   union <unnamed> volatile __io _A_UDR0
   \                     _A_UDR0:
   \   00000000                      DS8 1

   \                                 In  segment ABSOLUTE, at 0x2b, root
   \   union <unnamed> volatile __io _A_UCSR0A
   \                     _A_UCSR0A:
   \   00000000                      DS8 1

   \                                 In  segment ABSOLUTE, at 0x2a, root
   \   union <unnamed> volatile __io _A_UCSR0B
   \                     _A_UCSR0B:
   \   00000000                      DS8 1

   \                                 In  segment ABSOLUTE, at 0x29, root
   \   union <unnamed> volatile __io _A_UBRR0L
   \                     _A_UBRR0L:
   \   00000000                      DS8 1

   \                                 In  segment ABSOLUTE, at 0x28, root
   \   union <unnamed> volatile __io _A_ACSR
   \                     _A_ACSR:
   \   00000000                      DS8 1

   \                                 In  segment ABSOLUTE, at 0x27, root
   \   union <unnamed> volatile __io _A_ADMUX
   \                     _A_ADMUX:
   \   00000000                      DS8 1

   \                                 In  segment ABSOLUTE, at 0x26, root
   \   union <unnamed> volatile __io _A_ADCSRA
   \                     _A_ADCSRA:
   \   00000000                      DS8 1

   \                                 In  segment ABSOLUTE, at 0x24, root
   \   union <unnamed> volatile __io _A_ADC
   \                     _A_ADC:
   \   00000000                      DS8 2

   \                                 In  segment ABSOLUTE, at 0x23, root
   \   union <unnamed> volatile __io _A_PORTE
   \                     _A_PORTE:
   \   00000000                      DS8 1

   \                                 In  segment ABSOLUTE, at 0x22, root
   \   union <unnamed> volatile __io _A_DDRE
   \                     _A_DDRE:
   \   00000000                      DS8 1

   \                                 In  segment ABSOLUTE, at 0x21, root
   \   union <unnamed> volatile __io _A_PINE
   \                     _A_PINE:
   \   00000000                      DS8 1

   \                                 In  segment ABSOLUTE, at 0x20, root
   \   union <unnamed> volatile __io _A_PINF
   \                     _A_PINF:
   \   00000000                      DS8 1

      static __flash TDataBase CFlash::xMainDataBase;
                               ^
"D:\Projects\CurrentProjects\CautoProjects\PSS48\include\Platform.h",366  Warning[Pe427]: 
          qualified name is not allowed in member declaration

      static __flash TDataBaseBlockPositionData CFlash::axDataBaseBlocksPositionData[];
                                                ^
"D:\Projects\CurrentProjects\CautoProjects\PSS48\include\Platform.h",367  Warning[Pe427]: 
          qualified name is not allowed in member declaration

   \                                 In  segment CODE, align 2, keep-with-next
   \   __version_3 uint8_t CPlatform::KeyOneState()
   \                     ??KeyOneState:
   \   00000000   E000               LDI     R16, 0
   \   00000002   999A               SBIC    0x13, 0x02
   \   00000004   E001               LDI     R16, 1
   \                     ??KeyOneState_1:
   \   00000006   E011               LDI     R17, 1
   \   00000008   2701               EOR     R16, R17
   \   0000000A   9508               RET
   \   0000000C                      REQUIRE _A_PINC

   \                                 In  segment CODE, align 2, keep-with-next
   \   __version_3 uint8_t CPlatform::KeyTwoState()
   \                     ??KeyTwoState:
   \   00000000   E000               LDI     R16, 0
   \   00000002   9999               SBIC    0x13, 0x01
   \   00000004   E001               LDI     R16, 1
   \                     ??KeyTwoState_1:
   \   00000006   E011               LDI     R17, 1
   \   00000008   2701               EOR     R16, R17
   \   0000000A   9508               RET
   \   0000000C                      REQUIRE _A_PINC

   \                                 In  segment CODE, align 2, keep-with-next
   \   __version_3 uint8_t CPlatform::KeyThreeState()
   \                     ??KeyThreeState:
   \   00000000   E000               LDI     R16, 0
   \   00000002   9998               SBIC    0x13, 0x00
   \   00000004   E001               LDI     R16, 1
   \                     ??KeyThreeState_1:
   \   00000006   E011               LDI     R17, 1
   \   00000008   2701               EOR     R16, R17
   \   0000000A   9508               RET
   \   0000000C                      REQUIRE _A_PINC

   \                                 In  segment CODE, align 2, keep-with-next
   \   __version_3 uint8_t CPlatform::ExternalKeyState()
   \                     ??ExternalKeyState:
   \   00000000   9110....           LDS     R17, _A_PING
   \   00000004   7011               ANDI    R17, 0x01
   \   00000006   2F01               MOV     R16, R17
   \   00000008   E011               LDI     R17, 1
   \   0000000A   2701               EOR     R16, R17
   \   0000000C   9508               RET
   \   0000000E                      REQUIRE _A_PING

      virtual bool IsSolved(void) {};
                                   ^
"D:\Projects\CurrentProjects\CautoProjects\PSS48\include\Task.h",20  Warning[Pe940]: 
          missing return statement at end of non-void function
          "CTaskInterface::IsSolved"

      virtual bool IsSourceStateActive(void) {};
                                              ^
"D:\Projects\CurrentProjects\CautoProjects\PSS48\include\Task.h",23  Warning[Pe940]: 
          missing return statement at end of non-void function
          "CTaskInterface::IsSourceStateActive"

      bool IsSolved(void) {};
                           ^
"D:\Projects\CurrentProjects\CautoProjects\PSS48\include\Task.h",58  Warning[Pe940]: 
          missing return statement at end of non-void function
          "CIsRegularButtonPressedInterface::IsSolved"

      virtual bool IsSourceStateActive(void) {};
                                              ^
"D:\Projects\CurrentProjects\CautoProjects\PSS48\include\Task.h",61  Warning[Pe940]: 
          missing return statement at end of non-void function
          "CIsRegularButtonPressedInterface::IsSourceStateActive"

      virtual uint16_t KEY_PRESSED_TIME(void) {};
                                               ^
"D:\Projects\CurrentProjects\CautoProjects\PSS48\include\Task.h",63  Warning[Pe940]: 
          missing return statement at end of non-void function
          "CIsRegularButtonPressedInterface::KEY_PRESSED_TIME"
      9          #include "Platform.h"
     10          #include "InputDevice.h"
     11          #include "Mvsn21.h"
     12          #include "ModuleMrXX.h"
     13          #include "Crc.h"
     14          #include "ModbusRTU.h"
     15          #include "DataBase.h"
     16          #include "DataTypes.h"
     17          #include "Alarm.h"
     18          #include "NotifyerControl.h"
     19          #include "Buzzer.h"
     20          #include "Event.h"
     21          #include "Dfa.h"
     22          
     23          
     24          //uint8_t CPss21::m_aucRtuCoilsArray[];
     25          //uint8_t CPss21::m_aucRtuDiscreteInputsArray[];
     26          uint16_t CPss21::m_aucRtuHoldingRegistersArray[];
     27          uint16_t CPss21::m_aucRtuInputRegistersArray[];
     28          uint8_t CPss21::m_aucRtuDiscreteDataArray[];
     29          uint8_t CPss21::m_auiReceiveMessageBuff[];
     30          //uint8_t CPss21::m_auiTransmitMessageBuff[];
     31          uint8_t CPss21::m_auiIntermediateBuff[];
     32          uint8_t CPss21::m_auiSpiRxBuffer[];
     33          uint8_t CPss21::m_auiSpiTxBuffer[];
     34          
     35          uint8_t CPss21::m_uiFsmState;
     36          uint8_t CPss21::m_uiType;
     37          //CDriver* CPss21::m_pxDriver;
     38          //CDevice* CPss21::m_apxDevices[];
     39          CDriver* CPss21::m_apxDrivers[];
     40          

   \                                 In  segment CODE, align 2, keep-with-next
   \   static __intrinsic __version_3 void __sti__routine()
   \                     ??__sti__routine:
     41          CUart CPss21::m_xUart1(&UBRR1H, &UBRR1L, &UCSR1A, &UCSR1B, &UCSR1C, &UDR1, &DDRC, DDC7, &PORTC, PC7);
   \   00000000   E007               LDI     R16, 7
   \   00000002   930A               ST      -Y, R16
   \   00000004   E305               LDI     R16, LOW(53)
   \   00000006   E010               LDI     R17, (53) >> 8
   \   00000008   ....               RCALL   ?Subroutine76
   \                     ??CrossCallReturnLabel_99:
   \   0000000A   E007               LDI     R16, 7
   \   0000000C   930A               ST      -Y, R16
   \   0000000E   E304               LDI     R16, LOW(52)
   \   00000010   ....               RCALL   ?Subroutine76
   \                     ??CrossCallReturnLabel_100:
   \   00000012   E90C               LDI     R16, LOW(156)
   \   00000014   ....               RCALL   ?Subroutine76
   \                     ??CrossCallReturnLabel_101:
   \   00000016   E90D               LDI     R16, LOW(157)
   \   00000018   ....               RCALL   ?Subroutine76
   \                     ??CrossCallReturnLabel_102:
   \   0000001A   E90A               LDI     R16, LOW(154)
   \   0000001C   ....               RCALL   ?Subroutine76
   \                     ??CrossCallReturnLabel_103:
   \   0000001E   E96B               LDI     R22, LOW(155)
   \   00000020   E070               LDI     R23, (53) >> 8
   \   00000022   E949               LDI     R20, LOW(153)
   \   00000024   E050               LDI     R21, (53) >> 8
   \   00000026   E928               LDI     R18, LOW(152)
   \   00000028   E030               LDI     R19, (53) >> 8
   \   0000002A   ....               LDI     R16, LOW(??m_xUart1)
   \   0000002C   ....               LDI     R17, (??m_xUart1) >> 8
   \   0000002E   ........           CALL    ??CUart
   \   00000032   ....               LDI     R16, LOW(?_0)
   \   00000034   ....               LDI     R17, (?_0) >> 8
   \   00000036   ....               RCALL   ?Subroutine73
     42          CModbusRTU CPss21::m_xModbusRtuOne;
   \                     ??CrossCallReturnLabel_86:
   \   00000038   ....               RCALL   ??Subroutine94_0
   \                     ??CrossCallReturnLabel_157:
   \   0000003A   ....               LDI     R16, LOW(??m_xModbusRtuOne)
   \   0000003C   ....               LDI     R17, (??m_xModbusRtuOne) >> 8
   \   0000003E   ........           CALL    ??CModbusRTU
   \   00000042   ....               LDI     R16, LOW((?_0 + 6))
   \   00000044   ....               LDI     R17, HIGH((?_0 + 6))
   \   00000046   ....               RCALL   ?Subroutine73
     43          
     44          //CDataBase CPss21::m_xDataBase;
     45          //CDataBase* CPss21::m_pxDataBase;
     46          //CDataStore CPss21::m_xDataStore;
     47          
     48          CMultiFunctionKey CPss21::m_xReceiptKey(CPlatform::KeyOneState);
   \                     ??CrossCallReturnLabel_87:
   \   00000048   ....               LDI     R18, LOW(??KeyOneState/2)
   \   0000004A   ....               LDI     R19, (??KeyOneState/2) >> 8
   \   0000004C   ....               LDI     R16, LOW((??m_xDeviceConfigSearch + 65))
   \   0000004E   ....               LDI     R17, HIGH((??m_xDeviceConfigSearch + 65))
   \   00000050   ....               RCALL   ?Subroutine12
   \                     ??CrossCallReturnLabel_5:
   \   00000052   ....               LDI     R16, LOW((?_0 + 12))
   \   00000054   ....               LDI     R17, HIGH((?_0 + 12))
   \   00000056   ....               RCALL   ?Subroutine73
     49          CMultiFunctionKey CPss21::m_xResetKey(CPlatform::KeyTwoState);
   \                     ??CrossCallReturnLabel_88:
   \   00000058   ....               LDI     R18, LOW(??KeyTwoState/2)
   \   0000005A   ....               LDI     R19, (??KeyTwoState/2) >> 8
   \   0000005C   ....               LDI     R16, LOW((??m_xDeviceConfigSearch + 80))
   \   0000005E   ....               LDI     R17, HIGH((??m_xDeviceConfigSearch + 80))
   \   00000060   ....               RCALL   ?Subroutine12
   \                     ??CrossCallReturnLabel_4:
   \   00000062   ....               LDI     R16, LOW((?_0 + 18))
   \   00000064   ....               LDI     R17, HIGH((?_0 + 18))
   \   00000066   ....               RCALL   ?Subroutine73
     50          CMultiFunctionKey CPss21::m_xCheckKey(CPlatform::KeyThreeState);
   \                     ??CrossCallReturnLabel_89:
   \   00000068   ....               LDI     R18, LOW(??KeyThreeState/2)
   \   0000006A   ....               LDI     R19, (??KeyThreeState/2) >> 8
   \   0000006C   ....               LDI     R16, LOW((??m_xDeviceConfigSearch + 95))
   \   0000006E   ....               LDI     R17, HIGH((??m_xDeviceConfigSearch + 95))
   \   00000070   ....               RCALL   ?Subroutine12
   \                     ??CrossCallReturnLabel_3:
   \   00000072   ....               LDI     R16, LOW((?_0 + 24))
   \   00000074   ....               LDI     R17, HIGH((?_0 + 24))
   \   00000076   ....               RCALL   ?Subroutine73
     51          CMultiFunctionKey CPss21::m_xExternalKey(CPlatform::ExternalKeyState);
   \                     ??CrossCallReturnLabel_90:
   \   00000078   ....               LDI     R18, LOW(??ExternalKeyState/2)
   \   0000007A   ....               LDI     R19, (??ExternalKeyState/2) >> 8
   \   0000007C   ....               LDI     R16, LOW((??m_xDeviceConfigSearch + 110))
   \   0000007E   ....               LDI     R17, HIGH((??m_xDeviceConfigSearch + 110))
   \   00000080   ....               RCALL   ?Subroutine12
   \                     ??CrossCallReturnLabel_2:
   \   00000082   ....               LDI     R16, LOW((?_0 + 30))
   \   00000084   ....               LDI     R17, HIGH((?_0 + 30))
   \   00000086   ....               RCALL   ?Subroutine73
     52          
     53          //CIsReceiptButtonPressed CPss21::m_xIsReceiptButtonPressed;
     54          
     55          uint8_t CPss21::m_uiPanelReceipt;
     56          uint8_t CPss21::m_uiPanelReset;
     57          uint8_t CPss21::m_uiExternalReceipt;
     58          uint8_t CPss21::m_uiExternalReset;
     59          uint8_t CPss21::m_uiModbusReceipt;
     60          uint8_t CPss21::m_uiModbusReset;
     61          uint8_t CPss21::m_uiDiscreteSignalsReceipt;
     62          uint8_t CPss21::m_uiDiscreteSignalsReset;
     63          uint8_t CPss21::m_uiErrorCode;
     64          uint8_t CPss21::m_uiModuleIndex;
     65          CEventUniteLogicAnd CPss21::m_xEventUniteLogicAndOne(500);
   \                     ??CrossCallReturnLabel_91:
   \   00000088   EF24               LDI     R18, 244
   \   0000008A   E031               LDI     R19, 1
   \   0000008C   ....               LDI     R16, LOW((??m_xDeviceConfigSearch + 125))
   \   0000008E   ....               LDI     R17, HIGH((??m_xDeviceConfigSearch + 125))
   \   00000090   ........           CALL    ??CEventUniteLogicAnd
   \   00000094   ....               LDI     R16, LOW((?_0 + 36))
   \   00000096   ....               LDI     R17, HIGH((?_0 + 36))
   \   00000098   ....               RCALL   ?Subroutine73
     66          CTimer CPss21::m_xMainCycleTimer(MAIN_CYCLE_PERIOD_TIME);
   \                     ??CrossCallReturnLabel_92:
   \   0000009A   E624               LDI     R18, 100
   \   0000009C   E030               LDI     R19, 0
   \   0000009E   ....               RCALL   ?Subroutine61
   \                     ??CrossCallReturnLabel_228:
   \   000000A0   ........           CALL    ??CTimer
   \   000000A4   ....               LDI     R16, LOW((?_0 + 42))
   \   000000A6   ....               LDI     R17, HIGH((?_0 + 42))
   \   000000A8   ....               RCALL   ?Subroutine73
     67          //CTimer CPss21::m_xPeripheryTimer(PERIPHERY_SCAN_TIME);
     68          
     69          CPreventiveAlarmWindowNotifyerControl CPss21::m_xPreventiveAlarmWindowNotifyerControl;
   \                     ??CrossCallReturnLabel_93:
   \   000000AA   ....               LDI     R16, LOW((??m_xDeviceConfigSearch + 145))
   \   000000AC   ....               LDI     R17, HIGH((??m_xDeviceConfigSearch + 145))
   \   000000AE   ........           CALL    ??CPreventiveAlarmWindowNotifyerControl
   \   000000B2   ....               LDI     R16, LOW((?_0 + 48))
   \   000000B4   ....               LDI     R17, HIGH((?_0 + 48))
   \   000000B6   ....               RCALL   ?Subroutine73
     70          CEmergencyAlarmWindowNotifyerControl CPss21::m_xEmergencyAlarmWindowNotifyerControl;
   \                     ??CrossCallReturnLabel_94:
   \   000000B8   ....               LDI     R16, LOW((??m_xDeviceConfigSearch + 157))
   \   000000BA   ....               LDI     R17, HIGH((??m_xDeviceConfigSearch + 157))
   \   000000BC   ........           CALL    ??CEmergencyAlarmWindowNotifyerControl
   \   000000C0   ....               LDI     R16, LOW((?_0 + 54))
   \   000000C2   ....               LDI     R17, HIGH((?_0 + 54))
   \   000000C4   ....               RCALL   ?Subroutine73
     71          CStatusLedNotifyerControl CPss21::m_xStatusLedNotifyerControl;
   \                     ??CrossCallReturnLabel_95:
   \   000000C6   ....               LDI     R16, LOW((??m_xDeviceConfigSearch + 169))
   \   000000C8   ....               LDI     R17, HIGH((??m_xDeviceConfigSearch + 169))
   \   000000CA   ........           CALL    ??CStatusLedNotifyerControl
   \   000000CE   ....               LDI     R16, LOW((?_0 + 60))
   \   000000D0   ....               LDI     R17, HIGH((?_0 + 60))
   \   000000D2   ....               RCALL   ?Subroutine73
     72          CBuzzerNotifyerControl CPss21::m_xBuzzerNotifyerControl;
   \                     ??CrossCallReturnLabel_96:
   \   000000D4   ....               LDI     R16, LOW((??m_xDeviceConfigSearch + 181))
   \   000000D6   ....               LDI     R17, HIGH((??m_xDeviceConfigSearch + 181))
   \   000000D8   ........           CALL    ??CBuzzerNotifyerControl
   \   000000DC   ....               LDI     R16, LOW((?_0 + 66))
   \   000000DE   ....               LDI     R17, HIGH((?_0 + 66))
   \   000000E0   ....               RCALL   ?Subroutine73
     73          CModbusRtuLinkControl CPss21::m_xModbusRtuLinkControl;
   \                     ??CrossCallReturnLabel_97:
   \   000000E2   ....               LDI     R16, LOW((??m_xDeviceConfigSearch + 29))
   \   000000E4   ....               LDI     R17, HIGH((??m_xDeviceConfigSearch + 29))
   \   000000E6   ........           CALL    ??CModbusRtuLinkControl
   \   000000EA   ....               LDI     R16, LOW((?_0 + 72))
   \   000000EC   ....               LDI     R17, HIGH((?_0 + 72))
   \   000000EE   ....               RCALL   ?Subroutine73
     74          
     75          uint8_t CPss21::m_uiCommonAlarmType;
     76          uint8_t CPss21::m_uiCommonAlarmTypePrevious;
     77          //CLightBoard CPss21::m_xLightBoard;
     78          TConfigDataPackOne CPss21::m_xDeviceConfigSearch;
     79          TDevConfig CPss21::m_xDeviceConfiguration;
     80          TDeviceState CPss21::m_xDeviceState;
     81          TMBusSetting CPss21::m_xModbusSettings;
     82          CAlarmDfa *CPss21::m_apxAlarmDfa[];
     83          
     84          CErrorAlarmDfa *CPss21::m_apxErrorAlarmDfa[];
     85          uint8_t CPss21::m_auiErrorAlarmDataArray[];
     86          
     87          TDiscreteOutputControl CPss21::m_axDiscreteOutputControl[];
     88          TOutputData CPss21::m_xDiscreteOutputDataBase;
     89          CAlarmWindow CPss21::m_axAlarmWindowControl[];
   \                     ??CrossCallReturnLabel_98:
   \   000000F0   ....               LDI     R22, LOW(??CAlarmWindow/2)
   \   000000F2   ....               LDI     R23, (??CAlarmWindow/2) >> 8
   \   000000F4   ....               RCALL   ?Subroutine16
   \                     ??CrossCallReturnLabel_127:
   \   000000F6   ........           CALL    __near_vec_construct
   \   000000FA   ....               LDI     R16, LOW((?_0 + 78))
   \   000000FC   ....               LDI     R17, HIGH((?_0 + 78))
   \   000000FE                      REQUIRE ?Subroutine73
   \   000000FE                      REQUIRE _A_UBRR1H
   \   000000FE                      REQUIRE _A_UBRR1L
   \   000000FE                      REQUIRE _A_UCSR1A
   \   000000FE                      REQUIRE _A_UCSR1B
   \   000000FE                      REQUIRE _A_UCSR1C
   \   000000FE                      REQUIRE _A_UDR1
   \   000000FE                      REQUIRE _A_DDRC
   \   000000FE                      REQUIRE _A_PORTC
   \   000000FE                      ;               // Fall through to label ?Subroutine73

   \                                 In  segment CODE, align 2, keep-with-next
   \                     `?<Unnamed 0>`:
   \   00000000   ....               RCALL   ?Subroutine18
   \                     ??CrossCallReturnLabel_145:
   \   00000002   ........           JMP     `?~CUart`

   \                                 In  segment CODE, align 2, keep-with-next
   \                     `?<Unnamed 1>`:
   \   00000000   ....               RCALL   ?Subroutine18
   \                     ??CrossCallReturnLabel_146:
   \   00000002   ........           JMP     `?~CModbusRTU`

   \                                 In  segment CODE, align 2, keep-with-next
   \                     ?Subroutine12:
   \   00000000   ........           JMP     ??CMultiFunctionKey

   \                                 In  segment CODE, align 2, keep-with-next
   \                     `?<Unnamed 2>`:
   \   00000000   ....               RCALL   ?Subroutine18
   \                     ??CrossCallReturnLabel_147:
   \   00000002   ........           JMP     `?~CMultiFunctionKey`

   \                                 In  segment CODE, align 2, keep-with-next
   \                     `?<Unnamed 3>`:
   \   00000000   ....               RCALL   ?Subroutine18
   \                     ??CrossCallReturnLabel_148:
   \   00000002   ........           JMP     `?~CEventUniteLogicAnd`

   \                                 In  segment CODE, align 2, keep-with-next
   \                     `?<Unnamed 4>`:
   \   00000000   ....               RCALL   ?Subroutine18
   \                     ??CrossCallReturnLabel_149:
   \   00000002   ........           JMP     `?~CTimer`

   \                                 In  segment CODE, align 2, keep-with-next
   \                     `?<Unnamed 5>`:
   \   00000000   ....               RCALL   ?Subroutine18
   \                     ??CrossCallReturnLabel_150:
   \   00000002   ........           JMP     `?~CPreventiveAlarmWindowNotifyerControl`

   \                                 In  segment CODE, align 2, keep-with-next
   \                     `?<Unnamed 6>`:
   \   00000000   ....               RCALL   ?Subroutine18
   \                     ??CrossCallReturnLabel_151:
   \   00000002   ........           JMP     `?~CEmergencyAlarmWindowNotifyerControl`

   \                                 In  segment CODE, align 2, keep-with-next
   \                     `?<Unnamed 7>`:
   \   00000000   ....               RCALL   ?Subroutine18
   \                     ??CrossCallReturnLabel_152:
   \   00000002   ........           JMP     `?~CStatusLedNotifyerControl`

   \                                 In  segment CODE, align 2, keep-with-next
   \                     `?<Unnamed 8>`:
   \   00000000   ....               RCALL   ?Subroutine18
   \                     ??CrossCallReturnLabel_153:
   \   00000002   ........           JMP     `?~CBuzzerNotifyerControl`

   \                                 In  segment CODE, align 2, keep-with-next
   \                     `?<Unnamed 9>`:
   \   00000000   ....               RCALL   ?Subroutine18
   \                     ??CrossCallReturnLabel_154:
   \   00000002   ........           JMP     `?~CModbusRtuLinkControl`

   \                                 In  segment NEAR_Z, align 1, keep-with-next, root
   \   00000000                      REQUIRE `?<Segment init: NEAR_Z>`
   \                     ??m_xModbusSettings:
   \   00000000                      DS8 7
   \                     ??m_xDeviceState:
   \   00000007                      DS8 8
   \                     ??m_aucRtuHoldingRegistersArray:
   \   0000000F                      DS8 16
   \                     ??m_aucRtuInputRegistersArray:
   \   0000001F                      DS8 16

   \                                 In  segment NEAR_Z, align 1, keep-with-next, root
   \   00000000                      REQUIRE `?<Segment init: NEAR_Z>`
   \                     ??m_aucRtuDiscreteDataArray:
   \   00000000                      DS8 120

   \                                 In  segment NEAR_Z, align 1, keep-with-next, root
   \   00000000                      REQUIRE `?<Segment init: NEAR_Z>`
   \                     ??m_auiReceiveMessageBuff:
   \   00000000                      DS8 256

   \                                 In  segment NEAR_Z, align 1, keep-with-next, root
   \   00000000                      REQUIRE `?<Segment init: NEAR_Z>`
   \                     ??m_auiIntermediateBuff:
   \   00000000                      DS8 256

   \                                 In  segment NEAR_Z, align 1, keep-with-next, root
   \   00000000                      REQUIRE `?<Segment init: NEAR_Z>`
   \                     ??m_auiSpiRxBuffer:
   \   00000000                      DS8 64

   \                                 In  segment NEAR_Z, align 1, keep-with-next, root
   \   00000000                      REQUIRE `?<Segment init: NEAR_Z>`
   \                     ??m_auiSpiTxBuffer:
   \   00000000                      DS8 64

   \                                 In  segment NEAR_Z, align 1, keep-with-next, root
   \   00000000                      REQUIRE `?<Segment init: NEAR_Z>`
   \                     ??m_xDeviceConfigSearch:
   \   00000000                      DS8 9
   \                     ??m_xDeviceConfiguration:
   \   00000009                      DS8 20
   \                     ??m_xModbusRtuLinkControl:
   \   0000001D                      DS8 11
   \                     ??m_apxDrivers:
   \   00000028                      DS8 6
   \                     ??m_apxErrorAlarmDfa:
   \   0000002E                      DS8 4
   \                     ??m_uiFsmState:
   \   00000032                      DS8 1
   \                     ??m_uiPanelReceipt:
   \   00000033                      DS8 1
   \                     ??m_uiPanelReset:
   \   00000034                      DS8 1
   \                     ??m_uiExternalReceipt:
   \   00000035                      DS8 1
   \                     ??m_uiExternalReset:
   \   00000036                      DS8 1
   \                     ??m_uiModbusReceipt:
   \   00000037                      DS8 1
   \                     ??m_uiModbusReset:
   \   00000038                      DS8 1
   \                     ??m_uiDiscreteSignalsReceipt:
   \   00000039                      DS8 1
   \                     ??m_uiDiscreteSignalsReset:
   \   0000003A                      DS8 1
   \                     ??m_uiErrorCode:
   \   0000003B                      DS8 1
   \                     ??m_uiModuleIndex:
   \   0000003C                      DS8 1
   \                     ??m_uiCommonAlarmType:
   \   0000003D                      DS8 1
   \                     ??m_uiCommonAlarmTypePrevious:
   \   0000003E                      DS8 1
   \                     ??m_auiErrorAlarmDataArray:
   \   0000003F                      DS8 2
   \                     ??m_xReceiptKey:
   \   00000041                      DS8 15
   \                     ??m_xResetKey:
   \   00000050                      DS8 15
   \                     ??m_xCheckKey:
   \   0000005F                      DS8 15
   \                     ??m_xExternalKey:
   \   0000006E                      DS8 15
   \                     ??m_xEventUniteLogicAndOne:
   \   0000007D                      DS8 14
   \                     ??m_xMainCycleTimer:
   \   0000008B                      DS8 6
   \                     ??m_xPreventiveAlarmWindowNotifyerControl:
   \   00000091                      DS8 12
   \                     ??m_xEmergencyAlarmWindowNotifyerControl:
   \   0000009D                      DS8 12
   \                     ??m_xStatusLedNotifyerControl:
   \   000000A9                      DS8 12
   \                     ??m_xBuzzerNotifyerControl:
   \   000000B5                      DS8 12
   \                     ??m_xDiscreteOutputDataBase:
   \   000000C1                      DS8 24

   \                                 In  segment NEAR_Z, align 1, keep-with-next, root
   \   00000000                      REQUIRE `?<Segment init: NEAR_Z>`
   \                     ??m_uiType:
   \   00000000                      DS8 1

   \                                 In  segment NEAR_Z, align 1, keep-with-next, root
   \   00000000                      REQUIRE `?<Segment init: NEAR_Z>`
   \                     ??m_xUart1:
   \   00000000                      DS8 47

   \                                 In  segment NEAR_Z, align 1, keep-with-next, root
   \   00000000                      REQUIRE `?<Segment init: NEAR_Z>`
   \                     ??m_xModbusRtuOne:
   \   00000000                      DS8 49

   \                                 In  segment NEAR_Z, align 1, keep-with-next, root
   \   00000000                      REQUIRE `?<Segment init: NEAR_Z>`
   \                     ??m_apxAlarmDfa:
   \   00000000                      DS8 192

   \                                 In  segment NEAR_Z, align 1, keep-with-next, root
   \   00000000                      REQUIRE `?<Segment init: NEAR_Z>`
   \                     ??m_axDiscreteOutputControl:
   \   00000000                      DS8 16

   \                                 In  segment CODE, align 2, keep-with-next
   \                     `?<Unnamed 11>`:
   \   00000000   ....               RCALL   ?Subroutine18
   \                     ??CrossCallReturnLabel_155:
   \   00000002   ........           JMP     `?~CAlarmWindow`

   \                                 In  segment NEAR_I, align 1, keep-with-next, root
   \   00000000                      REQUIRE `?<Segment init: NEAR_I>`
   \                     ?_0:
   \   00000000                      DS8 6
   \   00000006                      REQUIRE `?<Initializer for >`
   \   00000006                      DS8 6
   \   0000000C                      REQUIRE `?<Initializer for >_1`
   \   0000000C                      DS8 6
   \   00000012                      REQUIRE `?<Initializer for >_2`
   \   00000012                      DS8 6
   \   00000018                      REQUIRE `?<Initializer for >_3`
   \   00000018                      DS8 6
   \   0000001E                      REQUIRE `?<Initializer for >_4`
   \   0000001E                      DS8 6
   \   00000024                      REQUIRE `?<Initializer for >_5`
   \   00000024                      DS8 6
   \   0000002A                      REQUIRE `?<Initializer for >_6`
   \   0000002A                      DS8 6
   \   00000030                      REQUIRE `?<Initializer for >_7`
   \   00000030                      DS8 6
   \   00000036                      REQUIRE `?<Initializer for >_8`
   \   00000036                      DS8 6
   \   0000003C                      REQUIRE `?<Initializer for >_9`
   \   0000003C                      DS8 6
   \   00000042                      REQUIRE `?<Initializer for >_10`
   \   00000042                      DS8 6
   \   00000048                      REQUIRE `?<Initializer for >_11`
   \   00000048                      DS8 6
   \   0000004E                      REQUIRE `?<Initializer for >_12`
   \   0000004E                      DS8 6
   \   00000054                      REQUIRE `?<Initializer for >_13`

   \                                 In  segment NEAR_Z, align 1, keep-with-next, root
   \   00000000                      REQUIRE `?<Segment init: NEAR_Z>`
   \                     ??m_axAlarmWindowControl:
   \   00000000                      DS8 288
     90          

   \                                 In  segment NEAR_F, align 1, keep-with-next, root
     91          __flash uint8_t CPss21::m_auiErrorLedOn[] =
   \                     ??m_auiErrorLedOn:
   \   00000000   010101010101       DC8 1, 1, 1, 1, 1, 1, 1, 1, 1, 0, 0, 0, 0, 0, 0, 1, 1, 0, 0, 0, 0, 0, 0
   \              010100010000
   \              000001000001
   \              0000000000  
   \   00000017   010100000000       DC8 1, 1, 0, 0, 0, 0, 0, 0, 1, 1, 0, 0, 0, 0, 0, 0, 1, 1, 1, 1, 1, 1, 1
   \              000001010000
   \              000000000101
   \              0101010101  
   \   0000002E   0101               DC8 1, 1
     92          {
     93              1, 1, 1, 1,    1, 1, 1, 1,
     94              1, 0, 0, 0,    0, 0, 0, 1,
     95              1, 0, 0, 0,    0, 0, 0, 1,
     96              1, 0, 0, 0,    0, 0, 0, 1,
     97              1, 0, 0, 0,    0, 0, 0, 1,
     98              1, 1, 1, 1,    1, 1, 1, 1,
     99          };
    100          
    101          ////-----------------------------------------------------------------------------------------------------
    102          //CPss21::CPss21(uint8_t uiType, CDriver* pxDriver)// :
    103          ////    m_uiType(uiType),
    104          ////    m_pxDriver(pxDriver)
    105          //{
    106          //
    107          //}
    108          //
    109          ////-----------------------------------------------------------------------------------------------------
    110          //CPss21::~CPss21()
    111          //{
    112          //
    113          //}
    114          
    115          //-----------------------------------------------------------------------------------------------------

   \                                 In  segment CODE, align 2, keep-with-next
    116          void CPss21::ModbusInit(void)
   \                     ??ModbusInit:
    117          {
   \   00000000   93BA               ST      -Y, R27
   \   00000002   93AA               ST      -Y, R26
    118              CPlatform::m_pxUart1 = &m_xUart1;
   \   00000004   ....               LDI     R16, LOW(??m_xUart1)
   \   00000006   ....               LDI     R17, (??m_xUart1) >> 8
   \   00000008   ....               LDI     R30, LOW(??m_pxUart1)
   \   0000000A   ....               LDI     R31, (??m_pxUart1) >> 8
   \   0000000C   8300               ST      Z, R16
   \   0000000E   8311               STD     Z+1, R17
    119              m_xModbusRtuOne.Init(CPlatform::m_pxUart1,
    120                                   static_cast<uint32_t>((F_CPU / ((CPss21::m_xModbusSettings.BaudRate) + 1)) / 16UL),
    121                                   'N',
    122                                   8,
    123                                   1,
    124                                   CPss21::m_auiReceiveMessageBuff,
    125                                   CPss21::m_auiReceiveMessageBuff,//reinterpret_cast<uint8_t*>(CPss21::m_aucRtuHoldingRegistersArray),//m_auiTransmitMessageBuff,//
    126                                   CPss21::m_aucRtuDiscreteDataArray,//CPss21::m_aucRtuCoilsArray,
    127                                   CPss21::m_aucRtuDiscreteDataArray,//CPss21::m_aucRtuDiscreteInputsArray,
    128                                   CPss21::m_aucRtuHoldingRegistersArray,
    129                                   CPss21::m_aucRtuInputRegistersArray,
    130                                   DISCRETE_DATA_ARRAY_LENGTH,
    131                                   DISCRETE_DATA_ARRAY_LENGTH,
    132                                   HOLDING_REGISTERS_ARRAY_LENGTH,
    133                                   INPUT_REGISTERS_ARRAY_LENGTH);
   \   00000010   E008               LDI     R16, 8
   \   00000012   E010               LDI     R17, 0
   \   00000014   ....               RCALL   ?Subroutine2
   \                     ??CrossCallReturnLabel_106:
   \   00000016   E708               LDI     R16, 120
   \   00000018   ....               RCALL   ?Subroutine2
   \                     ??CrossCallReturnLabel_107:
   \   0000001A   ....               LDI     R16, LOW((??m_xModbusSettings + 31))
   \   0000001C   ....               LDI     R17, HIGH((??m_xModbusSettings + 31))
   \   0000001E   ....               RCALL   ?Subroutine76
   \                     ??CrossCallReturnLabel_104:
   \   00000020   ....               LDI     R16, LOW((??m_xModbusSettings + 15))
   \   00000022   ....               LDI     R17, HIGH((??m_xModbusSettings + 15))
   \   00000024   ....               RCALL   ?Subroutine76
   \                     ??CrossCallReturnLabel_105:
   \   00000026   ....               LDI     R16, LOW(??m_aucRtuDiscreteDataArray)
   \   00000028   ....               LDI     R17, (??m_aucRtuDiscreteDataArray) >> 8
   \   0000002A   ....               RCALL   ?Subroutine2
   \                     ??CrossCallReturnLabel_108:
   \   0000002C   ....               LDI     R16, LOW(??m_auiReceiveMessageBuff)
   \   0000002E   ....               LDI     R17, (??m_auiReceiveMessageBuff) >> 8
   \   00000030   ....               RCALL   ?Subroutine2
   \                     ??CrossCallReturnLabel_109:
   \   00000032   E001               LDI     R16, 1
   \   00000034   930A               ST      -Y, R16
   \   00000036   E008               LDI     R16, 8
   \   00000038   930A               ST      -Y, R16
   \   0000003A   E40E               LDI     R16, 78
   \   0000003C   930A               ST      -Y, R16
   \   0000003E   9140....           LDS     R20, (??m_xModbusSettings + 1)
   \   00000042   E050               LDI     R21, 0
   \   00000044   5F4F               SUBI    R20, 255
   \   00000046   4F5F               SBCI    R21, 255
   \   00000048   2F65               MOV     R22, R21
   \   0000004A   0F66               LSL     R22
   \   0000004C   0B66               SBC     R22, R22
   \   0000004E   2F76               MOV     R23, R22
   \   00000050   E000               LDI     R16, 0
   \   00000052   E810               LDI     R17, 128
   \   00000054   E720               LDI     R18, 112
   \   00000056   E030               LDI     R19, 0
   \   00000058   ........           CALL    ?UL_DIVMOD_L03
   \   0000005C   E044               LDI     R20, 4
   \   0000005E   ........           CALL    ?UL_SHR_L03
   \   00000062   01A8               MOVW    R21:R20, R17:R16
   \   00000064   01B9               MOVW    R23:R22, R19:R18
   \   00000066   ....               LDI     R18, LOW(??m_xUart1)
   \   00000068   ....               LDI     R19, (??m_xUart1) >> 8
   \   0000006A   ....               LDI     R16, LOW(??m_xModbusRtuOne)
   \   0000006C   ....               LDI     R17, (??m_xModbusRtuOne) >> 8
   \   0000006E   ........           CALL    ??Init_1
    134              m_xModbusRtuOne.SlaveSet(CPss21::m_xModbusSettings.NetAddress);
   \   00000072   9120....           LDS     R18, ??m_xModbusSettings
   \   00000076   ....               LDI     R30, LOW(??m_xModbusRtuOne)
   \   00000078   ....               LDI     R31, (??m_xModbusRtuOne) >> 8
   \   0000007A   8505               LDD     R16, Z+13
   \   0000007C   8516               LDD     R17, Z+14
   \   0000007E   ........           CALL    ??SlaveSet
    135              m_xModbusRtuOne.SetFsmState(CModbus::START_REQUEST);
   \   00000082   ....               LDI     R26, LOW((??m_xModbusRtuOne + 13))
   \   00000084   ....               LDI     R27, HIGH((??m_xModbusRtuOne + 13))
   \   00000086   ....               RCALL   ??Subroutine95_0
   \                     ??CrossCallReturnLabel_162:
   \   00000088   E002               LDI     R16, 2
   \   0000008A   8300               ST      Z, R16
    136          }
   \   0000008C                      REQUIRE ?Subroutine75
   \   0000008C                      ;               // Fall through to label ?Subroutine75

   \                                 In  segment CODE, align 2, keep-with-next
   \                     ?Subroutine75:
   \   00000000   91A9               LD      R26, Y+
   \   00000002   91B9               LD      R27, Y+
   \   00000004   9508               RET

   \                                 In  segment CODE, align 2, keep-with-next
   \                     ?Subroutine76:
   \   00000000   931A               ST      -Y, R17
   \   00000002   930A               ST      -Y, R16
   \   00000004   9508               RET

   \                                 In  segment CODE, align 2, keep-with-next
   \                     ?Subroutine2:
   \   00000000   931A               ST      -Y, R17
   \   00000002   930A               ST      -Y, R16
   \   00000004   ....               RJMP    ?Subroutine76
    137          
    138          //-----------------------------------------------------------------------------------------------------

   \                                 In  segment CODE, align 2, keep-with-next
    139          void CPss21::ModbusDefaultInit(void)
   \                     ??ModbusDefaultInit:
    140          {
    141              CPss21::m_xModbusSettings.NetAddress = 1;
   \   00000000   ....               LDI     R30, LOW(??m_xModbusSettings)
   \   00000002   ....               LDI     R31, (??m_xModbusSettings) >> 8
   \   00000004   ....               RCALL   ?Subroutine27
    142              // 9600 baud.
    143              CPss21::m_xModbusSettings.BaudRate = 47;
   \                     ??CrossCallReturnLabel_14:
   \   00000006   E20F               LDI     R16, 47
   \   00000008   8301               STD     Z+1, R16
    144              //   .
    145              CPss21::m_xModbusSettings.LinkParam = 0x08;
   \   0000000A   E008               LDI     R16, 8
   \   0000000C   8302               STD     Z+2, R16
    146          
    147              ModbusInit();
   \   0000000E   ....               RJMP    ??ModbusInit
    148          }

   \                                 In  segment CODE, align 2, keep-with-next
   \                     ?Subroutine27:
   \   00000000   E001               LDI     R16, 1
   \   00000002   8300               ST      Z, R16
   \   00000004   9508               RET
    149          
    150          //-----------------------------------------------------------------------------------------------------

   \                                 In  segment CODE, align 2, keep-with-next
   \                     ?Subroutine79:
   \   00000000   E030               LDI     R19, 0
   \   00000002   9508               RET

   \                                 In  segment CODE, align 2, keep-with-next
   \                     ?Subroutine74:
   \   00000000   ....               LDI     R16, LOW(??m_axAlarmWindowControl)
   \   00000002   ....               LDI     R17, (??m_axAlarmWindowControl) >> 8
   \   00000004   9508               RET

   \                                 In  segment CODE, align 2, keep-with-next
    151          void CPss21::Init(void)
   \                     ??Init:
    152          {
    153              CLightBoard::Init(m_axAlarmWindowControl);
   \   00000000   ....               RCALL   ?Subroutine74
   \                     ??CrossCallReturnLabel_126:
   \   00000002   ........           CALL    ??Init_2
   \   00000006   ....               RCALL   ?Subroutine26
    154              m_uiCommonAlarmType = NORMAL;
    155              m_uiCommonAlarmTypePrevious = NORMAL;
    156              SetErrorCode(0);
   \                     ??CrossCallReturnLabel_84:
   \   00000008   9300....           STS     (??m_xDeviceConfigSearch + 59), R16
    157              //   .
    158              memset(CPss21::m_auiErrorAlarmDataArray, 0, HANDLED_ERROR_NUMBER);
   \   0000000C   E042               LDI     R20, 2
   \   0000000E   ....               RCALL   ?Subroutine4
   \                     ??CrossCallReturnLabel_158:
   \   00000010   ....               LDI     R16, LOW((??m_xDeviceConfigSearch + 63))
   \   00000012   ....               LDI     R17, HIGH((??m_xDeviceConfigSearch + 63))
   \   00000014   ....               RCALL   ?Subroutine32
    159              CPss21::AllAlarmWindowOff();
   \                     ??CrossCallReturnLabel_30:
   \   00000016   ....               RJMP    ??AllAlarmWindowOff
    160          }

   \                                 In  segment CODE, align 2, keep-with-next
   \                     ?Subroutine4:
   \   00000000   E050               LDI     R21, 0
   \   00000002                      REQUIRE ??Subroutine94_0
   \   00000002                      ;               // Fall through to label ??Subroutine94_0

   \                                 In  segment CODE, align 2, keep-with-next
   \                     ??Subroutine94_0:
   \   00000000   E020               LDI     R18, 0
   \   00000002   ....               RJMP    ?Subroutine79

   \                                 In  segment CODE, align 2, keep-with-next
   \                     ?Subroutine32:
   \   00000000   ........           JMP     memset

   \                                 In  segment CODE, align 2, keep-with-next
   \                     ?Subroutine26:
   \   00000000   E000               LDI     R16, 0
   \   00000002                      REQUIRE ?Subroutine71
   \   00000002                      ;               // Fall through to label ?Subroutine71

   \                                 In  segment CODE, align 2, keep-with-next
   \                     ?Subroutine71:
   \   00000000   9300....           STS     (??m_xDeviceConfigSearch + 61), R16
   \   00000004   9300....           STS     (??m_xDeviceConfigSearch + 62), R16
   \   00000008   9508               RET
    161          
    162          //-----------------------------------------------------------------------------------------------------

   \                                 In  segment CODE, align 2, keep-with-next
    163          void CPss21::AddressBusInit(void)
   \                     ??AddressBusInit:
    164          {
    165              CPlatform::SpiSlaveSelectAddress0SetPinOutput();
   \   00000000   9A8F               SBI     0x11, 0x07
    166              CPlatform::SpiSlaveSelectAddress1SetPinOutput();
   \   00000002   9A8E               SBI     0x11, 0x06
    167              CPlatform::SpiSlaveSelectAddress2SetPinOutput();
   \   00000004   9A8D               SBI     0x11, 0x05
    168              CPlatform::SpiSlaveSelectAddress3SetPinOutput();
   \   00000006   9A8C               SBI     0x11, 0x04
    169              CPlatform::SpiSlaveSelectEnableSetPinOutput();
   \   00000008   9A89               SBI     0x11, 0x01
    170              CPlatform::SpiSlaveSelectAddress0On();
   \   0000000A   9A97               SBI     0x12, 0x07
    171              CPlatform::SpiSlaveSelectAddress1On();
   \   0000000C   9A96               SBI     0x12, 0x06
    172              CPlatform::SpiSlaveSelectAddress2On();
   \   0000000E   9A95               SBI     0x12, 0x05
    173              CPlatform::SpiSlaveSelectAddress3On();
   \   00000010   9A94               SBI     0x12, 0x04
    174              CPlatform::SpiSlaveSelectEnableOff();
   \   00000012   9891               CBI     0x12, 0x01
    175          };
   \   00000014   9508               RET
   \   00000016                      REQUIRE _A_DDRD
   \   00000016                      REQUIRE _A_PORTD
    176          
    177          //-----------------------------------------------------------------------------------------------------

   \                                 In  segment CODE, align 2, keep-with-next
    178          void CPss21::ConnectDevice(uint8_t uiAddress)
   \                     ??ConnectDevice:
    179          {
    180              uiAddress &= 0x0F;
    181          
    182              if (uiAddress &  BIT(0))
   \   00000000   FB00               BST     R16, 0
   \   00000002   F416               BRTC    ??ConnectDevice_1
    183              {
    184                  CPlatform::SpiSlaveSelectAddress0Off();
   \   00000004   9897               CBI     0x12, 0x07
    185              }
   \   00000006   C001               RJMP    ??ConnectDevice_2
    186              else
    187              {
    188                  CPlatform::SpiSlaveSelectAddress0On();
   \                     ??ConnectDevice_1:
   \   00000008   9A97               SBI     0x12, 0x07
    189              }
    190              if (uiAddress &  BIT(1))
   \                     ??ConnectDevice_2:
   \   0000000A   FB01               BST     R16, 1
   \   0000000C   F416               BRTC    ??ConnectDevice_3
    191              {
    192                  CPlatform::SpiSlaveSelectAddress1Off();
   \   0000000E   9896               CBI     0x12, 0x06
    193              }
   \   00000010   C001               RJMP    ??ConnectDevice_4
    194              else
    195              {
    196                  CPlatform::SpiSlaveSelectAddress1On();
   \                     ??ConnectDevice_3:
   \   00000012   9A96               SBI     0x12, 0x06
    197              }
    198              if (uiAddress &  BIT(2))
   \                     ??ConnectDevice_4:
   \   00000014   FB02               BST     R16, 2
   \   00000016   F416               BRTC    ??ConnectDevice_5
    199              {
    200                  CPlatform::SpiSlaveSelectAddress2Off();
   \   00000018   9895               CBI     0x12, 0x05
    201              }
   \   0000001A   C001               RJMP    ??ConnectDevice_6
    202              else
    203              {
    204                  CPlatform::SpiSlaveSelectAddress2On();
   \                     ??ConnectDevice_5:
   \   0000001C   9A95               SBI     0x12, 0x05
    205              }
    206              if (uiAddress &  BIT(3))
   \                     ??ConnectDevice_6:
   \   0000001E   FB03               BST     R16, 3
   \   00000020   F416               BRTC    ??ConnectDevice_7
    207              {
    208                  CPlatform::SpiSlaveSelectAddress3Off();
   \   00000022   9894               CBI     0x12, 0x04
    209              }
   \   00000024   C001               RJMP    ??ConnectDevice_8
    210              else
    211              {
    212                  CPlatform::SpiSlaveSelectAddress3On();
   \                     ??ConnectDevice_7:
   \   00000026   9A94               SBI     0x12, 0x04
    213              }
    214          
    215              CPlatform::SpiSlaveSelectEnableOn();
   \                     ??ConnectDevice_8:
   \   00000028   9A91               SBI     0x12, 0x01
    216              CSpi::Enable();
   \   0000002A   ........           JMP     ??Enable
   \   0000002E                      REQUIRE _A_PORTD
    217          };
    218          
    219          //-----------------------------------------------------------------------------------------------------

   \                                 In  segment CODE, align 2, keep-with-next
    220          void CPss21::DisconnectDevice(void)
   \                     ??DisconnectDevice:
    221          {
    222              CSpi::Disable();
   \   00000000   ........           CALL    ??Disable
    223              CPlatform::SpiSlaveSelectEnableOff();
   \   00000004   9891               CBI     0x12, 0x01
    224              CPlatform::SpiSlaveSelectAddress0Off();
   \   00000006   9897               CBI     0x12, 0x07
    225              CPlatform::SpiSlaveSelectAddress1Off();
   \   00000008   9896               CBI     0x12, 0x06
    226              CPlatform::SpiSlaveSelectAddress2Off();
   \   0000000A   9895               CBI     0x12, 0x05
    227              CPlatform::SpiSlaveSelectAddress3Off();
   \   0000000C   9894               CBI     0x12, 0x04
    228          };
   \   0000000E   9508               RET
   \   00000010                      REQUIRE _A_PORTD
    229          
    230          //-----------------------------------------------------------------------------------------------------

   \                                 In  segment CODE, align 2, keep-with-next
   \                     ?Subroutine18:
   \   00000000   E022               LDI     R18, 2
   \   00000002                      REQUIRE ?Subroutine79
   \   00000002                      ;               // Fall through to label ?Subroutine79

   \                                 In  segment CODE, align 2, keep-with-next
    231          void CPss21::SearchModules(void)
   \                     ??SearchModules:
    232          {
   \   00000000   ........           CALL    ?PROLOGUE5_L09
   \   00000004                      REQUIRE ?Register_R4_is_cg_reg
    233              delay_ms(500);
   \   00000004   EF04               LDI     R16, 244
   \   00000006   E011               LDI     R17, 1
   \   00000008   ........           CALL    ??delay_ms
    234              CPlatform::WatchdogReset();
   \   0000000C   95A8               WDR
    235          
    236              memset(reinterpret_cast<uint8_t*>(&m_xDeviceConfigSearch),
    237                     0,
    238                     sizeof(struct TConfigDataPackOne));
   \   0000000E   E049               LDI     R20, 9
   \   00000010   ....               RCALL   ?Subroutine4
   \                     ??CrossCallReturnLabel_159:
   \   00000012   ....               LDI     R16, LOW(??m_xDeviceConfigSearch)
   \   00000014   ....               LDI     R17, (??m_xDeviceConfigSearch) >> 8
   \   00000016   ....               RCALL   ?Subroutine32
    239          
    240              //   SPI.   ?
    241              for (uint8_t i = 0; i < SPI_MAX_BUS_ADDRESS; i++)
   \                     ??CrossCallReturnLabel_29:
   \   00000018   E080               LDI     R24, 0
   \   0000001A   E190               LDI     R25, 16
   \   0000001C   ....               LDI     R26, LOW(??m_xDeviceConfigSearch)
   \   0000001E   ....               LDI     R27, (??m_xDeviceConfigSearch) >> 8
    242              {
    243                  //     MODULE_REQUEST_QUANTITY ,
    244                  //      .
    245                  for (uint8_t j = 0; j < MODULE_REQUEST_QUANTITY; j++)
   \                     ??SearchModules_1:
   \   00000020   E005               LDI     R16, 5
   \   00000022   2E40               MOV     R4, R16
    246                  {
    247                      CPlatform::WatchdogReset();
   \                     ??SearchModules_2:
   \   00000024   95A8               WDR
    248                      delay_ms(5);
    249          
    250                      m_auiSpiTxBuffer[0] = GET_MODULE_TYPE_COMMAND;
    251                      ConnectDevice(i);
    252                      delay_us(500);
    253                      CSpi::Exchange(m_auiSpiRxBuffer,
    254                                     m_auiSpiTxBuffer,
    255                                     GET_MODULE_TYPE_REQUEST_LENGTH);
    256                      DisconnectDevice();
    257          
    258                      //  ?
    259                      if (m_auiSpiRxBuffer[SPI_COMMAND_BYTE_OFFSET] ==
    260                              GET_MODULE_TYPE_COMMAND)
    261                      {
    262                          //     ?
    263                          if (iCrcSummOneByteCompare(&m_auiSpiRxBuffer[SPI_COMMAND_BYTE_OFFSET], 2))
    264                          {
    265                              //             SPI.
    266                              m_xDeviceConfigSearch.axModulesContext[m_xDeviceConfigSearch.uiModulesQuantity].uiType =
    267                                  m_auiSpiRxBuffer[MODULE_TYPE_OFFSET];
    268                              //             SPI.
    269                              m_xDeviceConfigSearch.axModulesContext[m_xDeviceConfigSearch.uiModulesQuantity].uiAddress = i;
    270                              //  .    -
    271                              //     .
    272                              (m_xDeviceConfigSearch.uiModulesQuantity)++;
    273          
    274                              if (m_xDeviceConfigSearch.uiModulesQuantity >=
    275                                      INTERNAL_MODULE_QUANTITY)
    276                              {
    277                                  return;
    278                              }
    279                              //     .
    280                              break;
    281                          }
    282                      }
    283                  }
    284              }
   \   00000026   E005               LDI     R16, 5
   \   00000028   E010               LDI     R17, 0
   \   0000002A   ........           CALL    ??delay_ms
   \   0000002E   E901               LDI     R16, 145
   \   00000030   9300....           STS     ??m_auiSpiTxBuffer, R16
   \   00000034   2F08               MOV     R16, R24
   \   00000036   ....               RCALL   ?Subroutine31
   \                     ??CrossCallReturnLabel_25:
   \   00000038   E044               LDI     R20, 4
   \   0000003A   ....               RCALL   ?Subroutine19
   \                     ??CrossCallReturnLabel_9:
   \   0000003C   9100....           LDS     R16, (??m_auiSpiRxBuffer + 1)
   \   00000040   3901               CPI     R16, 145
   \   00000042   F4E1               BRNE    ??SearchModules_3
   \   00000044   ....               RCALL   ?Subroutine18
   \                     ??CrossCallReturnLabel_156:
   \   00000046   ....               LDI     R16, LOW((??m_auiSpiRxBuffer + 1))
   \   00000048   ....               LDI     R17, HIGH((??m_auiSpiRxBuffer + 1))
   \   0000004A   ........           CALL    ??iCrcSummOneByteCompare
   \   0000004E   2B01               OR      R16, R17
   \   00000050   F0A9               BREQ    ??SearchModules_3
   \   00000052   9100....           LDS     R16, (??m_auiSpiRxBuffer + 2)
   \   00000056   9110....           LDS     R17, ??m_xDeviceConfigSearch
   \   0000005A   E022               LDI     R18, 2
   \   0000005C   9F12               MUL     R17, R18
   \   0000005E   01FD               MOVW    R31:R30, R27:R26
   \   00000060   ....               RCALL   ??Subroutine98_0
   \                     ??CrossCallReturnLabel_180:
   \   00000062   8301               STD     Z+1, R16
   \   00000064   9100....           LDS     R16, ??m_xDeviceConfigSearch
   \   00000068   9F02               MUL     R16, R18
   \   0000006A   01FD               MOVW    R31:R30, R27:R26
   \   0000006C   ....               RCALL   ??Subroutine98_0
   \                     ??CrossCallReturnLabel_181:
   \   0000006E   8382               STD     Z+2, R24
   \   00000070   910C               LD      R16, X
   \   00000072   9503               INC     R16
   \   00000074   930C               ST      X, R16
   \   00000076   3003               CPI     R16, 3
   \   00000078   F018               BRCS    ??SearchModules_4
   \   0000007A   C013               RJMP    ??SearchModules_5
   \                     ??SearchModules_3:
   \   0000007C   944A               DEC     R4
   \   0000007E   F691               BRNE    ??SearchModules_2
   \                     ??SearchModules_4:
   \   00000080   9583               INC     R24
   \   00000082   959A               DEC     R25
   \   00000084   F669               BRNE    ??SearchModules_1
    285          
    286              if(m_xDeviceConfiguration.FixConfig)
   \   00000086   01FD               MOVW    R31:R30, R27:R26
   \   00000088   8504               LDD     R16, Z+12
   \   0000008A   FF00               SBRS    R16, 0
   \   0000008C   C00A               RJMP    ??SearchModules_5
    287              {
    288                  //       ?
    289                  if((m_xDeviceConfiguration.ICount != m_xDeviceConfigSearch.uiDiscreteInputQuantity) ||
    290                          (m_xDeviceConfiguration.OCount != m_xDeviceConfigSearch.uiDiscreteOutputQuantity))
   \   0000008E   8501               LDD     R16, Z+9
   \   00000090   8510               LDD     R17, Z+8
   \   00000092   1701               CP      R16, R17
   \   00000094   F421               BRNE    ??SearchModules_6
   \   00000096   8502               LDD     R16, Z+10
   \   00000098   8117               LDD     R17, Z+7
   \   0000009A   1701               CP      R16, R17
   \   0000009C   F011               BREQ    ??SearchModules_5
    291                  {
    292                      SetErrorCode(CFG_ERROR);
   \                     ??SearchModules_6:
   \   0000009E   E003               LDI     R16, 3
   \   000000A0   AF03               STD     Z+59, R16
    293                  }
    294              }
    295          };
   \                     ??SearchModules_5:
   \   000000A2                      REQUIRE ?Subroutine88
   \   000000A2                      ;               // Fall through to label ?Subroutine88

   \                                 In  segment CODE, align 2, keep-with-next
   \                     ?Subroutine88:
   \   00000000   E0E5               LDI     R30, 5
   \   00000002   ........           JMP     ?EPILOGUE_B5_L09

   \                                 In  segment CODE, align 2, keep-with-next
   \                     ?Subroutine31:
   \   00000000   ....               RCALL   ??ConnectDevice
   \   00000002   E60A               LDI     R16, 106
   \   00000004   E013               LDI     R17, 3
   \   00000006   5001               SUBI    R16, 1
   \   00000008   4010               SBCI    R17, 0
   \   0000000A   F7E9               BRNE    $-4
   \   0000000C   C000               RJMP    $+2
   \   0000000E   0000               NOP
   \   00000010   9508               RET

   \                                 In  segment CODE, align 2, keep-with-next
   \                     ?Subroutine19:
   \   00000000   E050               LDI     R21, 0
   \   00000002   ....               LDI     R18, LOW(??m_auiSpiTxBuffer)
   \   00000004   ....               LDI     R19, (??m_auiSpiTxBuffer) >> 8
   \   00000006   ....               LDI     R16, LOW(??m_auiSpiRxBuffer)
   \   00000008   ....               LDI     R17, (??m_auiSpiRxBuffer) >> 8
   \   0000000A   ........           CALL    ??Exchange
   \   0000000E   ....               RJMP    ??DisconnectDevice

   \                                 In  segment CODE, align 2, keep-with-next
   \                     ??Subroutine98_0:
   \   00000000   0DE0               ADD     R30, R0
   \   00000002   1DF1               ADC     R31, R1
   \   00000004   9508               RET
    296          
    297          //-----------------------------------------------------------------------------------------------------

   \                                 In  segment CODE, align 2, keep-with-next
    298          void CPss21::InitAllocationContext(TMemoryAllocationConext &xMemoryAllocationConext)
   \                     ??InitAllocationContext:
    299          {
    300              //          .
    301          
    302              xMemoryAllocationConext.puiRxBuffer = m_auiSpiRxBuffer;
   \   00000000   ....               LDI     R18, LOW(??m_auiSpiRxBuffer)
   \   00000002   ....               LDI     R19, (??m_auiSpiRxBuffer) >> 8
   \   00000004   01F8               MOVW    R31:R30, R17:R16
   \   00000006   8321               STD     Z+1, R18
   \   00000008   8332               STD     Z+2, R19
    303              xMemoryAllocationConext.puiTxBuffer = m_auiSpiTxBuffer;
   \   0000000A   ....               LDI     R18, LOW(??m_auiSpiTxBuffer)
   \   0000000C   ....               LDI     R19, (??m_auiSpiTxBuffer) >> 8
   \   0000000E   8323               STD     Z+3, R18
   \   00000010   8334               STD     Z+4, R19
    304              xMemoryAllocationConext.puiErrorCode = &m_uiErrorCode;
   \   00000012   ....               LDI     R18, LOW((??m_xDeviceConfigSearch + 59))
   \   00000014   ....               LDI     R19, HIGH((??m_xDeviceConfigSearch + 59))
   \   00000016   8325               STD     Z+5, R18
   \   00000018   8336               STD     Z+6, R19
    305          
    306              //     .
    307              xMemoryAllocationConext.uiUsedDiscreteInputs = 0;
   \   0000001A   E020               LDI     R18, 0
   \   0000001C   8721               STD     Z+9, R18
    308              //       .
    309              xMemoryAllocationConext.puiDiscreteInputs =
    310                  &m_aucRtuDiscreteDataArray[DISCRETE_INPUTS_BIT_ARRAY_OFFSET];
   \   0000001E   ....               LDI     R18, LOW((??m_aucRtuDiscreteDataArray + 16))
   \   00000020   ....               LDI     R19, HIGH((??m_aucRtuDiscreteDataArray + 16))
   \   00000022   8327               STD     Z+7, R18
   \   00000024   8730               STD     Z+8, R19
    311          
    312              //     .
    313              xMemoryAllocationConext.uiUsedDiscreteOutputState = 0;
   \   00000026   E020               LDI     R18, 0
   \   00000028   8724               STD     Z+12, R18
    314              //       .
    315              xMemoryAllocationConext.puiDiscreteOutputState =
    316                  &m_aucRtuDiscreteDataArray[DISCRETE_OUTPUT_BIT_ARRAY_OFFSET];
   \   0000002A   ....               LDI     R18, LOW((??m_aucRtuDiscreteDataArray + 112))
   \   0000002C   ....               LDI     R19, HIGH((??m_aucRtuDiscreteDataArray + 112))
   \   0000002E   8722               STD     Z+10, R18
   \   00000030   8733               STD     Z+11, R19
    317          
    318              //     .
    319              xMemoryAllocationConext.uiUsedDiscreteOutputs = 0;
   \   00000032   E020               LDI     R18, 0
   \   00000034   8727               STD     Z+15, R18
    320              //      .
    321              xMemoryAllocationConext.pxDiscreteOutputControl = m_axDiscreteOutputControl;
   \   00000036   ....               LDI     R18, LOW(??m_axDiscreteOutputControl)
   \   00000038   ....               LDI     R19, (??m_axDiscreteOutputControl) >> 8
   \   0000003A   8725               STD     Z+13, R18
   \   0000003C   8736               STD     Z+14, R19
    322          
    323              //     .
    324              xMemoryAllocationConext.uiUsedDiscreteOutputDataBase = 0;
   \   0000003E   E020               LDI     R18, 0
   \   00000040   8B22               STD     Z+18, R18
    325              //        .
    326              xMemoryAllocationConext.pxDiscreteOutputDataBase = &m_xDiscreteOutputDataBase;
   \   00000042   ....               LDI     R18, LOW((??m_xDeviceConfigSearch + 193))
   \   00000044   ....               LDI     R19, HIGH((??m_xDeviceConfigSearch + 193))
   \   00000046   8B20               STD     Z+16, R18
   \   00000048   8B31               STD     Z+17, R19
    327          
    328              //     .
    329              xMemoryAllocationConext.uiUsedErrorAlarmDataArray = 0;
   \   0000004A   E020               LDI     R18, 0
   \   0000004C   8B25               STD     Z+21, R18
    330              //      .
    331              xMemoryAllocationConext.puiErrorAlarmDataArray = m_auiErrorAlarmDataArray;
   \   0000004E   ....               LDI     R18, LOW((??m_xDeviceConfigSearch + 63))
   \   00000050   ....               LDI     R19, HIGH((??m_xDeviceConfigSearch + 63))
   \   00000052   8B23               STD     Z+19, R18
   \   00000054   8B34               STD     Z+20, R19
    332          };
   \   00000056   9508               RET
    333          
    334          //-----------------------------------------------------------------------------------------------------

   \                                 In  segment CODE, align 2, keep-with-next
    335          void CPss21::CreateDevices(void)
   \                     ??CreateDevices:
    336          {
   \   00000000   ........           CALL    ?PROLOGUE5_L09
   \   00000004                      REQUIRE ?Register_R4_is_cg_reg
   \   00000004   9766               SBIW    R29:R28, 22
    337              TMemoryAllocationConext xMemoryAllocationConext;
    338              InitAllocationContext(xMemoryAllocationConext);
   \   00000006   018E               MOVW    R17:R16, R29:R28
   \   00000008   ....               RCALL   ??InitAllocationContext
    339          
    340              for (uint8_t i = 0;
   \   0000000A   2444               CLR     R4
   \   0000000C   C00B               RJMP    ??CreateDevices_1
    341                      i < (m_xDeviceConfigSearch.uiModulesQuantity);
    342                      i++)
    343              {
    344                  CPlatform::WatchdogReset();
    345          
    346                  uint8_t uiType = m_xDeviceConfigSearch.axModulesContext[i].uiType;
    347                  switch (uiType)
    348                  {
    349                  case MODULE_TYPE_MVSN:
    350          //        case MODULE_TYPE_MVDI:
    351          //        case MODULE_TYPE_MVDS9:
    352                      if (m_xDeviceConfigSearch.uiDiscreteInputQuantity <
    353                              DISCRETE_INPUT_MODULE_MAX_NUMBER)
    354                      {
    355          //            m_apxDevices[i] = new CMvsn21;
    356          //            m_apxDevices[i] -> m_pxDriver = new CMvsn21Driver(uiType);
    357                          m_apxDrivers[i] = new CMvsn21Driver(uiType);
    358                          xMemoryAllocationConext.uiAddress = m_xDeviceConfigSearch.axModulesContext[i].uiAddress;
    359          //            m_apxDevices[i] -> m_pxDriver -> Allocate(xMemoryAllocationConext);
    360                          m_apxDrivers[i] -> Allocate(xMemoryAllocationConext);
    361                          m_xDeviceConfigSearch.uiDiscreteInputQuantity += 1;
    362                      }
    363                      break;
    364          
    365                  case MODULE_TYPE_MVDO5:
    366                      break;
    367          
    368                  case MODULE_TYPE_MR53:
    369                  case MODULE_TYPE_MR54:
    370                      if (m_xDeviceConfigSearch.uiDiscreteOutputQuantity <
    371                              DISCRETE_OUTPUT_MODULE_MAX_NUMBER)
   \                     ??CreateDevices_2:
   \   0000000E   9110....           LDS     R17, (??m_xDeviceConfigSearch + 7)
   \   00000012   2311               TST     R17
   \   00000014   F431               BRNE    ??CreateDevices_3
    372                      {
    373          //            m_apxDevices[i] = new CModuleMrXX;
    374          //            m_apxDevices[i] -> m_pxDriver = new CModuleMrXXDriver(uiType);
    375                          m_apxDrivers[i] = new CModuleMrXXDriver(uiType);
   \   00000016   ........           CALL    `??new CModuleMrXXDriver`
   \   0000001A   ....               RCALL   ?Subroutine34
    376                          xMemoryAllocationConext.uiAddress = m_xDeviceConfigSearch.axModulesContext[i].uiAddress;
    377          //            m_apxDevices[i] -> m_pxDriver -> Allocate(xMemoryAllocationConext);
    378                          m_apxDrivers[i] -> Allocate(xMemoryAllocationConext);
    379                          m_xDeviceConfigSearch.uiDiscreteOutputQuantity += 1;
    380                      }
   \                     ??CrossCallReturnLabel_36:
   \   0000001C   8107               LDD     R16, Z+7
   \   0000001E   9503               INC     R16
   \   00000020   8307               STD     Z+7, R16
   \                     ??CreateDevices_3:
   \   00000022   9443               INC     R4
   \                     ??CreateDevices_1:
   \   00000024   9100....           LDS     R16, ??m_xDeviceConfigSearch
   \   00000028   1640               CP      R4, R16
   \   0000002A   F4D0               BRCC    ??CreateDevices_4
   \   0000002C   95A8               WDR
   \   0000002E   E002               LDI     R16, 2
   \   00000030   9E40               MUL     R4, R16
   \   00000032   ....               RCALL   ?Subroutine63
   \                     ??CrossCallReturnLabel_64:
   \   00000034   01FD               MOVW    R31:R30, R27:R26
   \   00000036   8101               LDD     R16, Z+1
   \   00000038   2F10               MOV     R17, R16
   \   0000003A   951A               DEC     R17
   \   0000003C   F029               BREQ    ??CreateDevices_5
   \   0000003E   5012               SUBI    R17, 2
   \   00000040   F331               BREQ    ??CreateDevices_2
   \   00000042   951A               DEC     R17
   \   00000044   F321               BREQ    ??CreateDevices_2
   \   00000046   CFED               RJMP    ??CreateDevices_3
   \                     ??CreateDevices_5:
   \   00000048   9100....           LDS     R16, (??m_xDeviceConfigSearch + 8)
   \   0000004C   3002               CPI     R16, 2
   \   0000004E   F748               BRCC    ??CreateDevices_3
   \   00000050   E001               LDI     R16, 1
   \   00000052   ........           CALL    `??new CMvsn21Driver`
   \   00000056   ....               RCALL   ?Subroutine34
    381                      break;
    382          
    383                  case MODULE_TYPE_MVI:
    384                      break;
    385          
    386                  default:
    387                      break;
    388                  }
    389              }
   \                     ??CrossCallReturnLabel_35:
   \   00000058   8500               LDD     R16, Z+8
   \   0000005A   9503               INC     R16
   \   0000005C   8700               STD     Z+8, R16
   \   0000005E   CFE1               RJMP    ??CreateDevices_3
    390          };
   \                     ??CreateDevices_4:
   \   00000060   9666               ADIW    R29:R28, 22
   \   00000062   ....               RJMP    ?Subroutine88

   \                                 In  segment CODE, align 2, keep-with-next
   \                     ?Subroutine34:
   \   00000000   2F40               MOV     R20, R16
   \   00000002   01FD               MOVW    R31:R30, R27:R26
   \   00000004   A700               STD     Z+40, R16
   \   00000006   A711               STD     Z+41, R17
   \   00000008   8102               LDD     R16, Z+2
   \   0000000A   8308               ST      Y, R16
   \   0000000C   019E               MOVW    R19:R18, R29:R28
   \   0000000E   2F04               MOV     R16, R20
   \   00000010   2FE4               MOV     R30, R20
   \   00000012   2FF1               MOV     R31, R17
   \   00000014   8541               LDD     R20, Z+9
   \   00000016   85F2               LDD     R31, Z+10
   \   00000018   2FE4               MOV     R30, R20
   \   0000001A   9145               LPM     R20, Z+
   \   0000001C   91F4               LPM     R31, Z
   \   0000001E   2FE4               MOV     R30, R20
   \   00000020   9509               ICALL
   \   00000022   ....               RJMP    ?Subroutine65

   \                                 In  segment CODE, align 2, keep-with-next
   \                     ?Subroutine63:
   \   00000000   ....               LDI     R26, LOW(??m_xDeviceConfigSearch)
   \   00000002   ....               LDI     R27, (??m_xDeviceConfigSearch) >> 8
   \   00000004   0DA0               ADD     R26, R0
   \   00000006   1DB1               ADC     R27, R1
   \   00000008   9508               RET

   \                                 In  segment CODE, align 2, keep-with-next
   \                     ?Subroutine65:
   \   00000000   ....               LDI     R30, LOW(??m_xDeviceConfigSearch)
   \   00000002   ....               LDI     R31, (??m_xDeviceConfigSearch) >> 8
   \   00000004   9508               RET
    391          
    392          //-----------------------------------------------------------------------------------------------------

   \                                 In  segment CODE, align 2, keep-with-next
    393          void CPss21::DestroyDevices(uint8_t uiLength)
   \                     ??DestroyDevices:
    394          {
    395              for (uint16_t i = 0; i < uiLength; i++)
   \   00000000   E0E0               LDI     R30, 0
   \   00000002   E0F0               LDI     R31, 0
   \   00000004   E010               LDI     R17, 0
   \   00000006   C001               RJMP    ??DestroyDevices_1
   \                     ??DestroyDevices_2:
   \   00000008   9631               ADIW    R31:R30, 1
   \                     ??DestroyDevices_1:
   \   0000000A   17E0               CP      R30, R16
   \   0000000C   07F1               CPC     R31, R17
   \   0000000E   F3E0               BRCS    ??DestroyDevices_2
    396              {
    397          //        delete m_apxDevices[i];
    398          //        delete m_apxDrivers[i];
    399              }
    400          };
   \   00000010   9508               RET
    401          
    402          //-----------------------------------------------------------------------------------------------------

   \                                 In  segment CODE, align 2, keep-with-next
    403          uint16_t CPss21::ReportType(uint8_t *puiDestination, uint16_t uiLength)
   \                     ??ReportType:
    404          {
    405              memset(m_auiSpiTxBuffer, 0, 6);
   \   00000000   E046               LDI     R20, 6
   \   00000002   ....               RCALL   ?Subroutine4
   \                     ??CrossCallReturnLabel_160:
   \   00000004   ....               LDI     R16, LOW(??m_auiSpiTxBuffer)
   \   00000006   ....               LDI     R17, (??m_auiSpiTxBuffer) >> 8
   \   00000008   ....               RCALL   ?Subroutine32
    406              uint8_t uiLengthLocal = 0;
    407              m_auiSpiTxBuffer[uiLengthLocal++] = GET_MODULE_TYPE_COMMAND;
   \                     ??CrossCallReturnLabel_28:
   \   0000000A   ....               LDI     R30, LOW(??m_auiSpiTxBuffer)
   \   0000000C   ....               LDI     R31, (??m_auiSpiTxBuffer) >> 8
   \   0000000E   E901               LDI     R16, 145
   \   00000010   8300               ST      Z, R16
    408              m_auiSpiTxBuffer[uiLengthLocal++] = 0;
   \   00000012   E000               LDI     R16, 0
   \   00000014   8301               STD     Z+1, R16
    409              m_auiSpiTxBuffer[uiLengthLocal++] = 0;
   \   00000016   8302               STD     Z+2, R16
    410              m_auiSpiTxBuffer[uiLengthLocal++] = 0;
   \   00000018   8303               STD     Z+3, R16
    411              m_auiSpiTxBuffer[uiLengthLocal++] = 0;
   \   0000001A   8304               STD     Z+4, R16
    412          
    413              ConnectDevice(0);
   \   0000001C   ....               RCALL   ?Subroutine31
    414              delay_us(500);
    415              CSpi::Exchange(m_auiSpiRxBuffer,
    416                             m_auiSpiTxBuffer,
    417                             uiLengthLocal);
   \                     ??CrossCallReturnLabel_26:
   \   0000001E   E045               LDI     R20, 5
   \   00000020   ....               RCALL   ?Subroutine19
    418              DisconnectDevice();
    419          
    420              return 1;
   \                     ??CrossCallReturnLabel_8:
   \   00000022   E001               LDI     R16, 1
   \   00000024   E010               LDI     R17, 0
   \   00000026   9508               RET
    421          }
    422          
    423          //-----------------------------------------------------------------------------------------------------

   \                                 In  segment CODE, align 2, keep-with-next
    424          void CPss21::SetBytesFromBits(uint8_t *uiDestination,
   \                     ??SetBytesFromBits:
    425                                        uint8_t *uiSource,
    426                                        uint16_t uiLength)
    427          {
   \   00000000   ....               RCALL   ?Subroutine42
   \                     ??CrossCallReturnLabel_43:
   \   00000002   01B8               MOVW    R23:R22, R17:R16
   \   00000004   011A               MOVW    R3:R2, R21:R20
    428              int16_t shift = 0;
   \   00000006   E0A0               LDI     R26, 0
   \   00000008   E0B0               LDI     R27, 0
    429          
    430              for (int16_t i = 0; i < uiLength; i++)
   \   0000000A   ....               RCALL   ?Subroutine33
   \                     ??CrossCallReturnLabel_31:
   \   0000000C   C010               RJMP    ??SetBytesFromBits_1
    431              {
    432                  uiDestination[i] = uiSource[(i) / 8] & (1 << shift) ? 1 : 0;
   \                     ??SetBytesFromBits_2:
   \   0000000E   E000               LDI     R16, 0
   \                     ??SetBytesFromBits_3:
   \   00000010   01FB               MOVW    R31:R30, R23:R22
   \   00000012   0FE8               ADD     R30, R24
   \   00000014   1FF9               ADC     R31, R25
   \   00000016   8300               ST      Z, R16
    433                  /* gcc doesn't like: shift = (++shift) % 8; */
    434                  shift++;
    435                  shift %= 8;
   \   00000018   9611               ADIW    R27:R26, 1
   \   0000001A   E048               LDI     R20, 8
   \   0000001C   E050               LDI     R21, 0
   \   0000001E   018D               MOVW    R17:R16, R27:R26
   \   00000020   ........           CALL    ?SS_DIVMOD_L02
   \   00000024   E043               LDI     R20, 3
   \   00000026   ....               RCALL   ?Subroutine66
   \                     ??CrossCallReturnLabel_188:
   \   00000028   1BA0               SUB     R26, R16
   \   0000002A   0BB1               SBC     R27, R17
   \   0000002C   9601               ADIW    R25:R24, 1
   \                     ??SetBytesFromBits_1:
   \   0000002E   1582               CP      R24, R2
   \   00000030   0593               CPC     R25, R3
   \   00000032   F470               BRCC    ??SetBytesFromBits_4
   \   00000034   E048               LDI     R20, 8
   \   00000036   E050               LDI     R21, 0
   \   00000038   018C               MOVW    R17:R16, R25:R24
   \   0000003A   ........           CALL    ?SS_DIVMOD_L02
   \   0000003E   01F9               MOVW    R31:R30, R19:R18
   \   00000040   0FE0               ADD     R30, R16
   \   00000042   1FF1               ADC     R31, R17
   \   00000044   8150               LD      R21, Z
   \   00000046   2F4A               MOV     R20, R26
   \   00000048   ....               RCALL   ??Subroutine99_0
    436              }
   \                     ??CrossCallReturnLabel_185:
   \   0000004A   F309               BREQ    ??SetBytesFromBits_2
   \   0000004C   E001               LDI     R16, 1
   \   0000004E   CFE0               RJMP    ??SetBytesFromBits_3
    437          }
   \                     ??SetBytesFromBits_4:
   \   00000050                      REQUIRE ?Subroutine89
   \   00000050                      ;               // Fall through to label ?Subroutine89

   \                                 In  segment CODE, align 2, keep-with-next
   \                     ?Subroutine89:
   \   00000000   E0E4               LDI     R30, 4
   \   00000002   ........           JMP     ?EPILOGUE_B4_L09

   \                                 In  segment CODE, align 2, keep-with-next
   \                     ?Subroutine42:
   \   00000000   ........           JMP     ?PROLOGUE4_L09

   \                                 In  segment CODE, align 2, keep-with-next
   \                     ?Subroutine33:
   \   00000000   E080               LDI     R24, 0
   \   00000002   E090               LDI     R25, 0
   \   00000004   9508               RET

   \                                 In  segment CODE, align 2, keep-with-next
   \                     ?Subroutine66:
   \   00000000   ........           JMP     ?S_SHL_L02

   \                                 In  segment CODE, align 2, keep-with-next
   \                     ??Subroutine99_0:
   \   00000000   E001               LDI     R16, 1
   \   00000002   E010               LDI     R17, 0
   \   00000004   ....               RCALL   ?Subroutine66
   \                     ??CrossCallReturnLabel_190:
   \   00000006   2350               AND     R21, R16
   \   00000008   9508               RET
    438          
    439          //-----------------------------------------------------------------------------------------------------

   \                                 In  segment CODE, align 2, keep-with-next
    440          void CPss21::ModbusDeviceControl(uint8_t* puiData, uint16_t uiLength, uint16_t uiAddress)
   \                     ??ModbusDeviceControl:
    441          {
   \   00000000   01BA               MOVW    R23:R22, R21:R20
    442              //  - ""?
    443              if (uiAddress == MODBUS_RECEIPT_ADDRESS)
   \   00000002   2B47               OR      R20, R23
   \   00000004   F449               BRNE    ??ModbusDeviceControl_2
    444              {
    445                  if (*puiData)
   \   00000006   01F8               MOVW    R31:R30, R17:R16
   \   00000008   8100               LD      R16, Z
   \   0000000A   2300               TST     R16
   \   0000000C   F111               BREQ    ??ModbusDeviceControl_3
    446                  {
    447                      CPss21::SetModbusReceipt(1);
   \   0000000E   ....               RCALL   ?Subroutine65
   \                     ??CrossCallReturnLabel_68:
   \   00000010   E001               LDI     R16, 1
   \   00000012   AB07               STD     Z+55, R16
    448                      SetDiscreteSignalsReceipt(1);
   \   00000014   AF01               STD     Z+57, R16
    449                      SendToDevicesModbusReceipt();
   \   00000016   ....               RJMP    ??SendToDevicesModbusReceipt
    450                  }
    451              }
    452              //  - ""?
    453              else if (uiAddress == MODBUS_RESET_ADDRESS)
   \                     ??ModbusDeviceControl_2:
   \   00000018   3061               CPI     R22, 1
   \   0000001A   E040               LDI     R20, 0
   \   0000001C   0754               CPC     R21, R20
   \   0000001E   F449               BRNE    ??ModbusDeviceControl_4
    454              {
    455                  if (*puiData)
   \   00000020   01F8               MOVW    R31:R30, R17:R16
   \   00000022   8100               LD      R16, Z
   \   00000024   2300               TST     R16
   \   00000026   F0A9               BREQ    ??ModbusDeviceControl_3
    456                  {
    457                      CPss21::SetModbusReset(1);
   \   00000028   ....               RCALL   ?Subroutine65
   \                     ??CrossCallReturnLabel_69:
   \   0000002A   E001               LDI     R16, 1
   \   0000002C   AF00               STD     Z+56, R16
    458                      SetDiscreteSignalsReset(1);
   \   0000002E   AF02               STD     Z+58, R16
    459                      SendToDevicesModbusReset();
   \   00000030   ....               RJMP    ??SendToDevicesModbusReset
    460                  }
    461              }
    462              //    ?
    463              else if ((uiAddress >= ALARM_WINDOWS_BIT_ARRAY_OFFSET) &&
    464                       (uiAddress < (ALARM_WINDOWS_BIT_ARRAY_OFFSET +
    465                                     ALARM_WINDOWS_ARRAY_LENGTH)))
   \                     ??ModbusDeviceControl_4:
   \   00000032   2FE6               MOV     R30, R22
   \   00000034   2FF5               MOV     R31, R21
   \   00000036   54E0               SUBI    R30, 64
   \   00000038   40F0               SBCI    R31, 0
   \   0000003A   97F0               SBIW    R31:R30, 48
   \   0000003C   F450               BRCC    ??ModbusDeviceControl_3
    466              {
    467                  SetBytesFromBits(&m_aucRtuDiscreteDataArray[uiAddress],
    468                                   puiData,
    469                                   uiLength);
   \   0000003E   01A9               MOVW    R21:R20, R19:R18
   \   00000040   0198               MOVW    R19:R18, R17:R16
   \   00000042   ....               LDI     R16, LOW(??m_aucRtuDiscreteDataArray)
   \   00000044   ....               LDI     R17, (??m_aucRtuDiscreteDataArray) >> 8
   \   00000046   0F06               ADD     R16, R22
   \   00000048   1F17               ADC     R17, R23
   \   0000004A   ....               RCALL   ??SetBytesFromBits
    470                  //      .
    471                  m_xModbusRtuLinkControl.SetFsmEvent(CModbusRtuLinkControl::LINK_SESSION_HAPPENED_FSM_EVENT);
   \   0000004C   E001               LDI     R16, 1
   \   0000004E   9300....           STS     (??m_xDeviceConfigSearch + 33), R16
    472              }
    473          ////    //    ?
    474          //    else if ((uiAddress >= DISCRETE_INPUTS_BIT_ARRAY_OFFSET) &&//debag//
    475          //             (uiAddress < (ALARM_WINDOWS_BIT_ARRAY_OFFSET +
    476          //                           ALARM_WINDOWS_ARRAY_LENGTH)))
    477          //    {
    478          //        SetBytesFromBits(&m_aucRtuDiscreteDataArray[uiAddress],
    479          //                         puiData,
    480          //                         uiLength);
    481          //        //      .
    482          //        m_xModbusRtuLinkControl.SetFsmEvent(CModbusRtuLinkControl::LINK_SESSION_HAPPENED_FSM_EVENT);
    483          //    }
    484          }
   \                     ??ModbusDeviceControl_3:
   \   00000052   9508               RET
    485          
    486          //-----------------------------------------------------------------------------------------------------

   \                                 In  segment CODE, align 2, keep-with-next
    487          void CPss21::ModbusDeviceControl(uint8_t uiData, uint16_t uiAddress)
   \                     ??ModbusDeviceControl_1:
    488          {
   \   00000000   9721               SBIW    R29:R28, 1
   \   00000002   8308               ST      Y, R16
    489              ModbusDeviceControl(&uiData, 1, uiAddress);
   \   00000004   01A9               MOVW    R21:R20, R19:R18
   \   00000006   E021               LDI     R18, 1
   \   00000008   E030               LDI     R19, 0
   \   0000000A   018E               MOVW    R17:R16, R29:R28
   \   0000000C   ....               RCALL   ??ModbusDeviceControl
    490          }
   \   0000000E   9621               ADIW    R29:R28, 1
   \   00000010   9508               RET
    491          
    492          //-----------------------------------------------------------------------------------------------------

   \                                 In  segment CODE, align 2, keep-with-next
    493          bool CPss21::ModbusRtuLinkControlIsOn(void)
   \                     ??ModbusRtuLinkControlIsOn:
    494          {
    495              if (m_xDeviceConfiguration.MBTimeout != 0)
   \   00000000   9100....           LDS     R16, (??m_xDeviceConfigSearch + 14)
   \   00000004   2300               TST     R16
   \   00000006   F009               BREQ    ??ModbusRtuLinkControlIsOn_1
    496              {
    497                  return true;
   \   00000008   ....               RJMP    ?Subroutine82
    498              }
    499              else
    500              {
    501                  return false;
   \                     ??ModbusRtuLinkControlIsOn_1:
   \   0000000A   ....               RJMP    ?Subroutine81
    502              }
    503          }

   \                                 In  segment CODE, align 2, keep-with-next
   \                     ?Subroutine82:
   \   00000000   E001               LDI     R16, 1
   \   00000002   9508               RET

   \                                 In  segment CODE, align 2, keep-with-next
   \                     ?Subroutine81:
   \   00000000   E000               LDI     R16, 0
   \   00000002   9508               RET
    504          
    505          //-----------------------------------------------------------------------------------------------------

   \                                 In  segment CODE, align 2, keep-with-next
    506          uint16_t CPss21::GetTimeoutModbusRtuLinkControl(void)
   \                     ??GetTimeoutModbusRtuLinkControl:
    507          {
    508              return (m_xDeviceConfiguration.MBTimeout * 1000);
   \   00000000   9100....           LDS     R16, (??m_xDeviceConfigSearch + 14)
   \   00000004   E010               LDI     R17, 0
   \   00000006   EE48               LDI     R20, 232
   \   00000008   E053               LDI     R21, 3
   \   0000000A                      REQUIRE ?Subroutine90
   \   0000000A                      ;               // Fall through to label ?Subroutine90
    509          }

   \                                 In  segment CODE, align 2, keep-with-next
   \                     ?Subroutine90:
   \   00000000   ........           JMP     ?S_EC_MUL_L02
    510          
    511          //-----------------------------------------------------------------------------------------------------

   \                                 In  segment CODE, align 2, keep-with-next
    512          bool CPss21::ModbusRtuLinkControlInProgress(void)
   \                     ??ModbusRtuLinkControlInProgress:
    513          {
    514              if (m_xDeviceState.ModbusRtuLinkControlInProgress)
   \   00000000   9100....           LDS     R16, (??m_xModbusSettings + 7)
   \   00000004   FD00               SBRC    R16, 0
    515              {
    516                  return true;
   \   00000006   ....               RJMP    ?Subroutine82
    517              }
    518              else
    519              {
    520                  return false;
   \                     ??ModbusRtuLinkControlInProgress_1:
   \   00000008   ....               RJMP    ?Subroutine81
    521              }
    522          }
    523          
    524          //-----------------------------------------------------------------------------------------------------

   \                                 In  segment CODE, align 2, keep-with-next
    525          void CPss21::SetModeModbusRtuLinkControlInProgress(bool bData)
   \                     ??SetModeModbusRtuLinkControlInProgress:
    526          {
    527              m_xDeviceState.ModbusRtuLinkControlInProgress = bData;
   \   00000000   ....               LDI     R30, LOW(??m_xModbusSettings)
   \   00000002   ....               LDI     R31, (??m_xModbusSettings) >> 8
   \   00000004   FB00               BST     R16, 0
   \   00000006   8107               LDD     R16, Z+7
   \   00000008   F900               BLD     R16, 0
   \   0000000A   8307               STD     Z+7, R16
    528              //   .
    529              CDataBase::WriteBlock(reinterpret_cast<uint8_t*>(&m_xDeviceState),
    530                                    TDataBase::DEVICE_STATE);
   \   0000000C   E02A               LDI     R18, 10
   \   0000000E   ....               LDI     R16, LOW((??m_xModbusSettings + 7))
   \   00000010   ....               LDI     R17, HIGH((??m_xModbusSettings + 7))
   \   00000012   ........           CALL    ??WriteBlock
    531              //      .
    532              //   .
    533              CDataBase::SignatureCreate();
   \   00000016   ........           JMP     ??SignatureCreate
    534          }
    535          
    536          //-----------------------------------------------------------------------------------------------------

   \                                 In  segment CODE, align 2, keep-with-next
   \                     ?Subroutine80:
   \   00000000   01D9               MOVW    R27:R26, R19:R18
   \   00000002   9508               RET

   \                                 In  segment CODE, align 2, keep-with-next
    537          void CPss21::SendToDevicesReceipt(void)
   \                     ??SendToDevicesReceipt:
    538          {
   \   00000000   ....               RCALL   ?Subroutine46
    539              for (uint8_t i = 0;
   \                     ??CrossCallReturnLabel_115:
   \   00000002   C004               RJMP    ??SendToDevicesReceipt_1
    540                      i < (m_xDeviceConfigSearch.uiModulesQuantity);
    541                      i++)
    542              {
    543                  m_apxDrivers[i] -> SetReceipt(1);
   \                     ??SendToDevicesReceipt_2:
   \   00000004   ....               RCALL   ?Subroutine28
   \                     ??CrossCallReturnLabel_165:
   \   00000006   E011               LDI     R17, 1
   \   00000008   8311               STD     Z+1, R17
    544              }
   \   0000000A   9503               INC     R16
   \                     ??SendToDevicesReceipt_1:
   \   0000000C   ....               RCALL   ?Subroutine35
   \                     ??CrossCallReturnLabel_119:
   \   0000000E   F3D0               BRCS    ??SendToDevicesReceipt_2
    545          
    546              //     .
    547              m_xModbusRtuLinkControl.SetFsmEvent(CModbusRtuLinkControl::RECEIPT_HAPPENED_FSM_EVENT);
   \   00000010   ....               RJMP    ?Subroutine29
    548          }

   \                                 In  segment CODE, align 2, keep-with-next
   \                     ?Subroutine46:
   \   00000000   019D               MOVW    R19:R18, R27:R26
   \   00000002   ....               RJMP    ?Subroutine81

   \                                 In  segment CODE, align 2, keep-with-next
   \                     ?Subroutine35:
   \   00000000   9110....           LDS     R17, ??m_xDeviceConfigSearch
   \   00000004                      REQUIRE ?Subroutine83
   \   00000004                      ;               // Fall through to label ?Subroutine83

   \                                 In  segment CODE, align 2, keep-with-next
   \                     ?Subroutine83:
   \   00000000   1701               CP      R16, R17
   \   00000002   9508               RET

   \                                 In  segment CODE, align 2, keep-with-next
   \                     ?Subroutine29:
   \   00000000   E002               LDI     R16, 2
   \   00000002   9300....           STS     (??m_xDeviceConfigSearch + 33), R16
   \   00000006   ....               RJMP    ?Subroutine80
    549          
    550          //-----------------------------------------------------------------------------------------------------

   \                                 In  segment CODE, align 2, keep-with-next
    551          void CPss21::SendToDevicesReset(void)
   \                     ??SendToDevicesReset:
    552          {
   \   00000000   ....               RCALL   ?Subroutine46
    553              for (uint8_t i = 0;
   \                     ??CrossCallReturnLabel_116:
   \   00000002   C005               RJMP    ??SendToDevicesReset_1
    554                      i < (m_xDeviceConfigSearch.uiModulesQuantity);
    555                      i++)
    556              {
    557                  m_apxDrivers[i] -> SetReset(1);
   \                     ??SendToDevicesReset_2:
   \   00000004   ....               RCALL   ?Subroutine45
   \                     ??CrossCallReturnLabel_49:
   \   00000006   9612               ADIW    R27:R26, 2
   \   00000008   E011               LDI     R17, 1
   \   0000000A   931C               ST      X, R17
    558              }
   \   0000000C   9503               INC     R16
   \                     ??SendToDevicesReset_1:
   \   0000000E   ....               RCALL   ?Subroutine35
   \                     ??CrossCallReturnLabel_120:
   \   00000010   F3C8               BRCS    ??SendToDevicesReset_2
    559          }
   \   00000012   ....               RJMP    ?Subroutine80
    560          
    561          //-----------------------------------------------------------------------------------------------------

   \                                 In  segment CODE, align 2, keep-with-next
    562          void CPss21::SendToDevicesModbusReceipt(void)
   \                     ??SendToDevicesModbusReceipt:
    563          {
   \   00000000   ....               RCALL   ?Subroutine46
    564              for (uint8_t i = 0;
   \                     ??CrossCallReturnLabel_114:
   \   00000002   C004               RJMP    ??SendToDevicesModbusReceipt_1
    565                      i < (m_xDeviceConfigSearch.uiModulesQuantity);
    566                      i++)
    567              {
    568                  m_apxDrivers[i] -> SetModbusReceipt(1);
   \                     ??SendToDevicesModbusReceipt_2:
   \   00000004   ....               RCALL   ?Subroutine28
   \                     ??CrossCallReturnLabel_164:
   \   00000006   E011               LDI     R17, 1
   \   00000008   8313               STD     Z+3, R17
    569              }
   \   0000000A   9503               INC     R16
   \                     ??SendToDevicesModbusReceipt_1:
   \   0000000C   ....               RCALL   ?Subroutine35
   \                     ??CrossCallReturnLabel_118:
   \   0000000E   F3D0               BRCS    ??SendToDevicesModbusReceipt_2
    570          
    571              //     .
    572              m_xModbusRtuLinkControl.SetFsmEvent(CModbusRtuLinkControl::RECEIPT_HAPPENED_FSM_EVENT);
   \   00000010   ....               RJMP    ?Subroutine29
    573          }
    574          
    575          //-----------------------------------------------------------------------------------------------------

   \                                 In  segment CODE, align 2, keep-with-next
    576          void CPss21::SendToDevicesModbusReset(void)
   \                     ??SendToDevicesModbusReset:
    577          {
   \   00000000   ....               RCALL   ?Subroutine46
    578              for (uint8_t i = 0;
   \                     ??CrossCallReturnLabel_113:
   \   00000002   C005               RJMP    ??SendToDevicesModbusReset_1
    579                      i < (m_xDeviceConfigSearch.uiModulesQuantity);
    580                      i++)
    581              {
    582                  m_apxDrivers[i] -> SetModbusReset(1);
   \                     ??SendToDevicesModbusReset_2:
   \   00000004   ....               RCALL   ?Subroutine45
   \                     ??CrossCallReturnLabel_48:
   \   00000006   9614               ADIW    R27:R26, 4
   \   00000008   E011               LDI     R17, 1
   \   0000000A   931C               ST      X, R17
    583              }
   \   0000000C   9503               INC     R16
   \                     ??SendToDevicesModbusReset_1:
   \   0000000E   ....               RCALL   ?Subroutine35
   \                     ??CrossCallReturnLabel_117:
   \   00000010   F3C8               BRCS    ??SendToDevicesModbusReset_2
    584          }
   \   00000012                      REQUIRE ?Subroutine80
   \   00000012                      ;               // Fall through to label ?Subroutine80
    585          
    586          //-----------------------------------------------------------------------------------------------------

   \                                 In  segment CODE, align 2, keep-with-next
    587          void CPss21::KeyStateProcessing(void)
   \                     ??KeyStateProcessing:
    588          {
   \   00000000   938A               ST      -Y, R24
   \   00000002   E022               LDI     R18, 2
   \   00000004   ....               RCALL   ?Subroutine11
   \                     ??CrossCallReturnLabel_78:
   \   00000006   2300               TST     R16
   \   00000008   F021               BREQ    ??CrossCallReturnLabel_178
    589          //    m_xIsReceiptButtonPressed.Fsm();
    590          
    591          //    m_xReceiptKey.Fsm();
    592          //    m_xResetKey.Fsm();
    593          //    m_xCheckKey.Fsm();
    594          //    m_xExternalKey.Fsm();
    595          
    596          //    if (m_xIsReceiptButtonPressed.IsSolved())
    597          //    {
    598          //        SetPanelReceipt(1);
    599          //        SetDiscreteSignalsReceipt(1);
    600          //        SendToDevicesReceipt();
    601          //        m_xBuzzerNotifyerControl.AlarmSet(BEEP_SIGNAL);
    602          //    }
    603              if (m_xReceiptKey.KeyEventHappened(CMultiFunctionKey::KEY_EVENT_PRESSED_PUSH))
    604              {
    605                  SetPanelReceipt(1);
   \   0000000A   E001               LDI     R16, 1
   \   0000000C   9300....           STS     (??m_xDeviceConfigSearch + 51), R16
    606                  SetDiscreteSignalsReceipt(1);
   \   00000010   ....               RCALL   ?Subroutine15
    607                  SendToDevicesReceipt();
    608                  m_xBuzzerNotifyerControl.AlarmSet(BEEP_SIGNAL);
    609              }
    610          
    611              if (m_xResetKey.KeyEventHappened(CMultiFunctionKey::KEY_EVENT_PRESSED_PUSH))
   \                     ??CrossCallReturnLabel_178:
   \   00000012   E022               LDI     R18, 2
   \   00000014   ....               LDI     R16, LOW((??m_xDeviceConfigSearch + 80))
   \   00000016   ....               LDI     R17, HIGH((??m_xDeviceConfigSearch + 80))
   \   00000018   ....               RCALL   ?Subroutine68
   \                     ??CrossCallReturnLabel_80:
   \   0000001A   2300               TST     R16
   \   0000001C   F029               BREQ    ??CrossCallReturnLabel_172
    612              {
    613                  SetPanelReset(1);
   \   0000001E   E001               LDI     R16, 1
   \   00000020   9300....           STS     (??m_xDeviceConfigSearch + 52), R16
    614                  SetDiscreteSignalsReset(1);
   \   00000024   ....               RCALL   ?Subroutine49
    615                  SendToDevicesReset();
    616                  m_xBuzzerNotifyerControl.AlarmSet(BEEP_SIGNAL);
   \                     ??CrossCallReturnLabel_51:
   \   00000026   ....               RCALL   ??Subroutine97_0
    617              }
    618          
    619              if (m_xCheckKey.KeyEventHappened(CMultiFunctionKey::KEY_EVENT_PRESSED_PUSH))
   \                     ??CrossCallReturnLabel_172:
   \   00000028   E022               LDI     R18, 2
   \   0000002A   ....               RCALL   ?Subroutine13
   \                     ??CrossCallReturnLabel_6:
   \   0000002C   2300               TST     R16
   \   0000002E   F011               BREQ    ??CrossCallReturnLabel_173
    620              {
    621                  //   .
    622                  SetFsmState(TEST_START);
   \   00000030   ....               RCALL   ?Subroutine47
    623                  m_xBuzzerNotifyerControl.AlarmSet(BEEP_SIGNAL);
   \                     ??CrossCallReturnLabel_170:
   \   00000032   ....               RCALL   ??Subroutine97_0
    624              }
    625          
    626              //    -  ?
    627              if(m_xDeviceConfiguration.ExtUnsetOnly)
   \                     ??CrossCallReturnLabel_173:
   \   00000034   9100....           LDS     R16, (??m_xDeviceConfigSearch + 12)
   \   00000038   E022               LDI     R18, 2
   \   0000003A   FD02               SBRC    R16, 2
   \   0000003C   C007               RJMP    ??KeyStateProcessing_1
    628              {
    629                  if (m_xExternalKey.KeyEventHappened(CMultiFunctionKey::KEY_EVENT_PRESSED_RECEIPT))
    630                  {
    631                      SetExternalReset(1);
    632                      SetDiscreteSignalsReset(1);
    633                      SendToDevicesReset();
    634                      m_xBuzzerNotifyerControl.AlarmSet(BEEP_SIGNAL);
    635                  }
    636          
    637                  if (m_xExternalKey.KeyEventHappened(CMultiFunctionKey::KEY_EVENT_PRESSED_CHECK))
    638                  {
    639                      //   .
    640                      SetFsmState(TEST_START);
    641                      m_xBuzzerNotifyerControl.AlarmSet(BEEP_SIGNAL);
    642                  }
    643              }
    644              else
    645              {
    646                  if (m_xExternalKey.KeyEventHappened(CMultiFunctionKey::KEY_EVENT_PRESSED_RECEIPT))
   \   0000003E   ....               RCALL   ?Subroutine8
   \                     ??CrossCallReturnLabel_221:
   \   00000040   F021               BREQ    ??CrossCallReturnLabel_179
    647                  {
    648                      SetExternalReceipt(1);
   \   00000042   E001               LDI     R16, 1
   \   00000044   9300....           STS     (??m_xDeviceConfigSearch + 53), R16
    649                      SetDiscreteSignalsReceipt(1);
   \   00000048   ....               RCALL   ?Subroutine15
    650                      SendToDevicesReceipt();
    651                      m_xBuzzerNotifyerControl.AlarmSet(BEEP_SIGNAL);
    652                  }
    653          
    654                  if (m_xExternalKey.KeyEventHappened(CMultiFunctionKey::KEY_EVENT_PRESSED_RESET))
   \                     ??CrossCallReturnLabel_179:
   \   0000004A   E023               LDI     R18, 3
   \                     ??KeyStateProcessing_1:
   \   0000004C   ....               RCALL   ?Subroutine8
   \                     ??CrossCallReturnLabel_222:
   \   0000004E   F029               BREQ    ??CrossCallReturnLabel_174
    655                  {
    656                      SetExternalReset(1);
   \   00000050   E001               LDI     R16, 1
   \   00000052   9300....           STS     (??m_xDeviceConfigSearch + 54), R16
    657                      SetDiscreteSignalsReset(1);
   \   00000056   ....               RCALL   ?Subroutine49
    658                      SendToDevicesReset();
    659                      m_xBuzzerNotifyerControl.AlarmSet(BEEP_SIGNAL);
   \                     ??CrossCallReturnLabel_50:
   \   00000058   ....               RCALL   ??Subroutine97_0
    660                  }
    661          
    662                  if (m_xExternalKey.KeyEventHappened(CMultiFunctionKey::KEY_EVENT_PRESSED_CHECK))
   \                     ??CrossCallReturnLabel_174:
   \   0000005A   E024               LDI     R18, 4
   \   0000005C   ....               RCALL   ?Subroutine8
   \                     ??CrossCallReturnLabel_223:
   \   0000005E   F011               BREQ    ??CrossCallReturnLabel_175
    663                  {
    664                      //   .
    665                      SetFsmState(TEST_START);
   \   00000060   ....               RCALL   ?Subroutine47
    666                      m_xBuzzerNotifyerControl.AlarmSet(BEEP_SIGNAL);
   \                     ??CrossCallReturnLabel_171:
   \   00000062   ....               RCALL   ??Subroutine97_0
    667                  }
    668              }
    669          
    670              //  ""  ""   7 ?
    671              if (m_xEventUniteLogicAndOne.IsHappened((m_xReceiptKey.KeyEventHappened(CMultiFunctionKey::KEY_EVENT_PRESSED_SET_DEFAULT)),
    672                                                      (m_xCheckKey.KeyEventHappened(CMultiFunctionKey::KEY_EVENT_PRESSED_SET_DEFAULT))))
   \                     ??CrossCallReturnLabel_175:
   \   00000064   E025               LDI     R18, 5
   \   00000066   ....               RCALL   ?Subroutine13
   \                     ??CrossCallReturnLabel_7:
   \   00000068   2F80               MOV     R24, R16
   \   0000006A   E025               LDI     R18, 5
   \   0000006C   ....               RCALL   ?Subroutine11
   \                     ??CrossCallReturnLabel_79:
   \   0000006E   2F20               MOV     R18, R16
   \   00000070   2F38               MOV     R19, R24
   \   00000072   ....               LDI     R16, LOW((??m_xDeviceConfigSearch + 125))
   \   00000074   ....               LDI     R17, HIGH((??m_xDeviceConfigSearch + 125))
   \   00000076   ........           CALL    ??IsHappened
   \   0000007A   2300               TST     R16
   \   0000007C   F011               BREQ    ??CrossCallReturnLabel_176
    673              {
    674                  //   Modbus     .
    675                  CPss21::ModbusDefaultInit();
   \   0000007E   ....               RCALL   ??ModbusDefaultInit
    676                  m_xBuzzerNotifyerControl.AlarmSet(BEEP_SIGNAL);
   \   00000080   ....               RCALL   ??Subroutine97_0
    677              }
    678          }
   \                     ??CrossCallReturnLabel_176:
   \   00000082                      REQUIRE ?Subroutine84
   \   00000082                      ;               // Fall through to label ?Subroutine84

   \                                 In  segment CODE, align 2, keep-with-next
   \                     ?Subroutine84:
   \   00000000   9189               LD      R24, Y+
   \   00000002   9508               RET

   \                                 In  segment CODE, align 2, keep-with-next
   \                     ?Subroutine49:
   \   00000000   9300....           STS     (??m_xDeviceConfigSearch + 58), R16
   \   00000004   ....               RJMP    ??SendToDevicesReset

   \                                 In  segment CODE, align 2, keep-with-next
   \                     ?Subroutine15:
   \   00000000   9300....           STS     (??m_xDeviceConfigSearch + 57), R16
   \   00000004   ....               RCALL   ??SendToDevicesReceipt
   \   00000006                      REQUIRE ??Subroutine97_0
   \   00000006                      ;               // Fall through to label ??Subroutine97_0

   \                                 In  segment CODE, align 2, keep-with-next
   \                     ??Subroutine97_0:
   \   00000000   E027               LDI     R18, 7
   \   00000002   ....               RJMP    ?Subroutine60

   \                                 In  segment CODE, align 2, keep-with-next
   \                     ?Subroutine13:
   \   00000000   ....               LDI     R16, LOW((??m_xDeviceConfigSearch + 95))
   \   00000002   ....               LDI     R17, HIGH((??m_xDeviceConfigSearch + 95))
   \   00000004   ....               RJMP    ?Subroutine68

   \                                 In  segment CODE, align 2, keep-with-next
   \                     ?Subroutine11:
   \   00000000   ....               LDI     R16, LOW((??m_xDeviceConfigSearch + 65))
   \   00000002   ....               LDI     R17, HIGH((??m_xDeviceConfigSearch + 65))
   \   00000004                      REQUIRE ?Subroutine68
   \   00000004                      ;               // Fall through to label ?Subroutine68

   \                                 In  segment CODE, align 2, keep-with-next
   \                     ?Subroutine68:
   \   00000000   ........           JMP     ??KeyEventHappened

   \                                 In  segment CODE, align 2, keep-with-next
   \                     ?Subroutine8:
   \   00000000   ....               LDI     R16, LOW((??m_xDeviceConfigSearch + 110))
   \   00000002   ....               LDI     R17, HIGH((??m_xDeviceConfigSearch + 110))
   \   00000004   ....               RCALL   ?Subroutine68
   \                     ??CrossCallReturnLabel_77:
   \   00000006                      REQUIRE ?Subroutine85
   \   00000006                      ;               // Fall through to label ?Subroutine85

   \                                 In  segment CODE, align 2, keep-with-next
   \                     ?Subroutine85:
   \   00000000   2300               TST     R16
   \   00000002   9508               RET

   \                                 In  segment CODE, align 2, keep-with-next
   \                     ?Subroutine60:
   \   00000000   ....               LDI     R16, LOW((??m_xDeviceConfigSearch + 181))
   \   00000002   ....               LDI     R17, HIGH((??m_xDeviceConfigSearch + 181))
   \   00000004   ........           JMP     ??AlarmSet
    679          
    680          //-----------------------------------------------------------------------------------------------------

   \                                 In  segment CODE, align 2, keep-with-next
    681          void CPss21::ReceiptResetGlobalFlagsClear(void)
   \                     ??ReceiptResetGlobalFlagsClear:
    682          {
    683              SetPanelReceipt(0);
   \   00000000   ....               RCALL   ?Subroutine65
   \                     ??CrossCallReturnLabel_70:
   \   00000002   E000               LDI     R16, 0
   \   00000004   AB03               STD     Z+51, R16
    684              SetExternalReceipt(0);
   \   00000006   AB05               STD     Z+53, R16
    685              SetModbusReceipt(0);
   \   00000008   AB07               STD     Z+55, R16
    686              SetPanelReset(0);
   \   0000000A   AB04               STD     Z+52, R16
    687              SetExternalReset(0);
   \   0000000C   AB06               STD     Z+54, R16
    688              SetModbusReset(0);
   \   0000000E   AF00               STD     Z+56, R16
    689          }
   \   00000010   9508               RET
    690          
    691          //-----------------------------------------------------------------------------------------------------

   \                                 In  segment CODE, align 2, keep-with-next
   \                     ??Subroutine95_0:
   \   00000000   91ED               LD      R30, X+
   \   00000002   91FC               LD      R31, X
   \   00000004   9508               RET

   \                                 In  segment CODE, align 2, keep-with-next
    692          uint8_t CPss21::ModulesInteraction(uint8_t uiModuleIndex)
   \                     ??ModulesInteraction:
    693          {
   \   00000000   93BA               ST      -Y, R27
   \   00000002   93AA               ST      -Y, R26
    694              if (uiModuleIndex < (m_xDeviceConfigSearch.uiModulesQuantity))
   \   00000004   ....               RCALL   ?Subroutine35
   \                     ??CrossCallReturnLabel_121:
   \   00000006   F458               BRCC    ??ModulesInteraction_1
   \   00000008   E012               LDI     R17, 2
   \   0000000A   9F01               MUL     R16, R17
   \   0000000C   ....               RCALL   ?Subroutine36
   \                     ??CrossCallReturnLabel_182:
   \   0000000E   A5A0               LDD     R26, Z+40
   \   00000010   A5B1               LDD     R27, Z+41
   \   00000012   018D               MOVW    R17:R16, R27:R26
   \   00000014   9619               ADIW    R27:R26, 9
   \   00000016   ....               RCALL   ??Subroutine95_0
   \                     ??CrossCallReturnLabel_163:
   \   00000018   ....               RCALL   ?Subroutine64
    695              {
    696                  m_apxDrivers[uiModuleIndex] -> DataExchange();
    697                  return 0;
   \                     ??CrossCallReturnLabel_67:
   \   0000001A   E000               LDI     R16, 0
   \   0000001C   C001               RJMP    ??ModulesInteraction_2
    698              }
    699              else
    700              {
    701                  return 1;
   \                     ??ModulesInteraction_1:
   \   0000001E   E001               LDI     R16, 1
    702              }
   \                     ??ModulesInteraction_2:
   \   00000020   ....               RJMP    ?Subroutine75
    703          };

   \                                 In  segment CODE, align 2, keep-with-next
   \                     ?Subroutine36:
   \   00000000   ....               RCALL   ?Subroutine65
   \                     ??CrossCallReturnLabel_72:
   \   00000002                      REQUIRE ??Subroutine98_0
   \   00000002                      ;               // Fall through to label ??Subroutine98_0

   \                                 In  segment CODE, align 2, keep-with-next
   \                     ?Subroutine64:
   \   00000000   9632               ADIW    R31:R30, 2
   \   00000002   9125               LPM     R18, Z+
   \   00000004   91F4               LPM     R31, Z
   \   00000006   2FE2               MOV     R30, R18
   \   00000008   9409               IJMP
    704          
    705          //-----------------------------------------------------------------------------------------------------

   \                                 In  segment CODE, align 2, keep-with-next
    706          void CPss21::ConfigurationInit(void)
   \                     ??ConfigurationInit:
    707          {
   \   00000000   ....               RCALL   ?Subroutine42
    708              uint8_t* puiTempBuffer = m_auiIntermediateBuff;
   \                     ??CrossCallReturnLabel_44:
   \   00000002   ....               LDI     R26, LOW(??m_auiIntermediateBuff)
   \   00000004   ....               LDI     R27, (??m_auiIntermediateBuff) >> 8
    709              uint8_t* puiAlarmDfaInit = m_auiReceiveMessageBuff;
    710          
    711              memset(puiAlarmDfaInit, 0, DISCRETE_SIGNALS_NUMBER);
   \   00000006   E640               LDI     R20, 96
   \   00000008   ....               RCALL   ?Subroutine4
   \                     ??CrossCallReturnLabel_161:
   \   0000000A   ....               LDI     R16, LOW(??m_auiReceiveMessageBuff)
   \   0000000C   ....               LDI     R17, (??m_auiReceiveMessageBuff) >> 8
   \   0000000E   ....               RCALL   ?Subroutine32
    712          
    713              //   .
    714              //       - " ".
    715              CDataBase::ReadBlock(puiTempBuffer, TDataBase::DEV_CONFIG);
   \                     ??CrossCallReturnLabel_27:
   \   00000010   E020               LDI     R18, 0
   \   00000012   ....               RCALL   ?Subroutine43
    716              memcpy(reinterpret_cast<uint8_t*>(&m_xDeviceConfiguration),
    717                     puiTempBuffer,
    718                     sizeof(struct TDevConfig));
   \                     ??CrossCallReturnLabel_133:
   \   00000014   E144               LDI     R20, 20
   \   00000016   E050               LDI     R21, 0
   \   00000018   019D               MOVW    R19:R18, R27:R26
   \   0000001A   ....               LDI     R16, LOW((??m_xDeviceConfigSearch + 9))
   \   0000001C   ....               LDI     R17, HIGH((??m_xDeviceConfigSearch + 9))
   \   0000001E   ....               RCALL   ?Subroutine51
    719          
    720              //    ModBus.
    721              //       - "  ModBus".
    722              CDataBase::ReadBlock(puiTempBuffer, TDataBase::MODBUS_SET);
   \                     ??CrossCallReturnLabel_55:
   \   00000020   E021               LDI     R18, 1
   \   00000022   ....               RCALL   ?Subroutine43
    723              memcpy(reinterpret_cast<uint8_t*>(&m_xModbusSettings),
    724                     puiTempBuffer,
    725                     sizeof(struct TMBusSetting));
   \                     ??CrossCallReturnLabel_132:
   \   00000024   E047               LDI     R20, 7
   \   00000026   E050               LDI     R21, 0
   \   00000028   019D               MOVW    R19:R18, R27:R26
   \   0000002A   ....               LDI     R16, LOW(??m_xModbusSettings)
   \   0000002C   ....               LDI     R17, (??m_xModbusSettings) >> 8
   \   0000002E   ....               RCALL   ?Subroutine51
    726          
    727              //       - "  ".
    728              CDataBase::ReadBlock(puiTempBuffer, TDataBase::OUT_BASE);
   \                     ??CrossCallReturnLabel_54:
   \   00000030   E025               LDI     R18, 5
   \   00000032   ....               RCALL   ?Subroutine43
    729              memcpy(reinterpret_cast<uint8_t*>(&m_xDiscreteOutputDataBase),
    730                     puiTempBuffer,
    731                     sizeof(struct TOutputData));
   \                     ??CrossCallReturnLabel_131:
   \   00000034   E148               LDI     R20, 24
   \   00000036   E050               LDI     R21, 0
   \   00000038   019D               MOVW    R19:R18, R27:R26
   \   0000003A   ....               LDI     R16, LOW((??m_xDeviceConfigSearch + 193))
   \   0000003C   ....               LDI     R17, HIGH((??m_xDeviceConfigSearch + 193))
   \   0000003E   ....               RCALL   ?Subroutine51
    732          
    733              //       .
    734              //       - "     ".
    735              CDataBase::ReadBlock(puiTempBuffer, TDataBase::ACTIVITY_LEVEL);
   \                     ??CrossCallReturnLabel_53:
   \   00000040   E022               LDI     R18, 2
   \   00000042   ....               RCALL   ?Subroutine43
    736              for (uint8_t i = 0;
   \                     ??CrossCallReturnLabel_130:
   \   00000044   E020               LDI     R18, 0
    737                      i < DISCRETE_INPUTS_NUMBER;
    738                  )
    739              {
    740                  uint8_t uiData = *puiTempBuffer;
   \                     ??ConfigurationInit_1:
   \   00000046   916D               LD      R22, X+
    741                  for (uint8_t j = 0;
   \   00000048   E050               LDI     R21, 0
   \   0000004A   E038               LDI     R19, 8
    742                          j < 8;
    743                          j++)
    744                  {
    745                      //        .
    746                      if (((uiData >> j) & 0x01))
   \                     ??ConfigurationInit_2:
   \   0000004C   E010               LDI     R17, 0
   \   0000004E   ....               LDI     R30, LOW(??m_auiReceiveMessageBuff)
   \   00000050   ....               LDI     R31, (??m_auiReceiveMessageBuff) >> 8
   \   00000052   0FE2               ADD     R30, R18
   \   00000054   1FF1               ADC     R31, R17
   \   00000056   2F06               MOV     R16, R22
   \   00000058   2F45               MOV     R20, R21
   \   0000005A   ........           CALL    ?SS_SHR_L02
   \   0000005E   7001               ANDI    R16, 0x01
   \   00000060   F011               BREQ    ??ConfigurationInit_3
    747                      {
    748                          puiAlarmDfaInit[i] = 0x80;
   \   00000062   E800               LDI     R16, 128
   \   00000064   C001               RJMP    ??ConfigurationInit_4
    749                      }
    750                      else
    751                      {
    752                          puiAlarmDfaInit[i] = 0;
   \                     ??ConfigurationInit_3:
   \   00000066   E000               LDI     R16, 0
   \                     ??ConfigurationInit_4:
   \   00000068   8300               ST      Z, R16
    753                      }
    754                      i++;
   \   0000006A   9523               INC     R18
    755                  }
   \   0000006C   9553               INC     R21
   \   0000006E   953A               DEC     R19
   \   00000070   F769               BRNE    ??ConfigurationInit_2
    756                  puiTempBuffer++;
    757              }
   \   00000072   3320               CPI     R18, 48
   \   00000074   F340               BRCS    ??ConfigurationInit_1
    758          
    759              puiTempBuffer = m_auiIntermediateBuff;
    760              //      .
    761              //       - "        ".
    762              CDataBase::ReadBlock(puiTempBuffer, TDataBase::ALARM_WINDOW_INDEX);
   \   00000076   ....               RCALL   ?Subroutine48
    763              for (uint8_t i = 0;
   \                     ??CrossCallReturnLabel_134:
   \   00000078   E020               LDI     R18, 0
   \   0000007A   E600               LDI     R16, 96
    764                      i < DISCRETE_SIGNALS_NUMBER;
    765                      i++)
    766              {
    767                  //       .
    768                  puiAlarmDfaInit[i] |= (puiTempBuffer[i] & ~(0x80));
   \                     ??ConfigurationInit_5:
   \   0000007C   2FE2               MOV     R30, R18
   \   0000007E   E0F0               LDI     R31, 0
   \   00000080   ....               SUBI    R30, LOW((-(??m_auiIntermediateBuff) & 0xFFFF))
   \   00000082   ....               SBCI    R31, (-(??m_auiIntermediateBuff) & 0xFFFF) >> 8
   \   00000084   8110               LD      R17, Z
   \   00000086   771F               ANDI    R17, 0x7F
   \   00000088   2FE2               MOV     R30, R18
   \   0000008A   E0F0               LDI     R31, 0
   \   0000008C   ....               SUBI    R30, LOW((-(??m_auiReceiveMessageBuff) & 0xFFFF))
   \   0000008E   ....               SBCI    R31, (-(??m_auiReceiveMessageBuff) & 0xFFFF) >> 8
   \   00000090   8130               LD      R19, Z
   \   00000092   2B31               OR      R19, R17
   \   00000094   8330               ST      Z, R19
    769              }
   \   00000096   9523               INC     R18
   \   00000098   950A               DEC     R16
   \   0000009A   F781               BRNE    ??ConfigurationInit_5
    770          
    771              //       - "    ".
    772              CDataBase::ReadBlock(puiTempBuffer, TDataBase::ALARM_TYPE);
   \   0000009C   E024               LDI     R18, 4
   \   0000009E   ....               RCALL   ?Subroutine69
    773              for (uint8_t i = 0;
   \                     ??CrossCallReturnLabel_136:
   \   000000A0   E020               LDI     R18, 0
   \   000000A2   E610               LDI     R17, 96
    774                      i < DISCRETE_SIGNALS_NUMBER;
    775                      i++)
    776              {
    777                  uint8_t uiWindowIndex = (puiAlarmDfaInit[i] & ~(0x80));
   \                     ??ConfigurationInit_6:
   \   000000A4   E030               LDI     R19, 0
   \   000000A6   ....               LDI     R30, LOW(??m_auiReceiveMessageBuff)
   \   000000A8   ....               LDI     R31, (??m_auiReceiveMessageBuff) >> 8
   \   000000AA   0FE2               ADD     R30, R18
   \   000000AC   1FF3               ADC     R31, R19
   \   000000AE   8130               LD      R19, Z
   \   000000B0   2F03               MOV     R16, R19
   \   000000B2   770F               ANDI    R16, 0x7F
    778                  //      ?
    779                  if (uiWindowIndex < ALARM_WINDOWS_NUMBER)
   \   000000B4   3300               CPI     R16, 48
   \   000000B6   7830               ANDI    R19, 0x80
   \   000000B8   F430               BRCC    ??ConfigurationInit_7
    780                  {
    781                      //    ,   .
    782                      //       .
    783                      puiAlarmDfaInit[i] &= 0x80;
    784                      //      .
    785                      puiAlarmDfaInit[i] |= puiTempBuffer[uiWindowIndex];
   \   000000BA   E0B0               LDI     R27, 0
   \   000000BC   ....               SUBI    R16, LOW((-(??m_auiIntermediateBuff) & 0xFFFF))
   \   000000BE   2FA0               MOV     R26, R16
   \   000000C0   ....               SBCI    R27, (-(??m_auiIntermediateBuff) & 0xFFFF) >> 8
   \   000000C2   910C               LD      R16, X
   \   000000C4   2B30               OR      R19, R16
    786                  }
    787                  else
    788                  {
    789                      //    ,   .
    790                      //       .
    791                      puiAlarmDfaInit[i] &= 0x80;
   \                     ??ConfigurationInit_7:
   \   000000C6   8330               ST      Z, R19
    792                  }
    793              }
   \   000000C8   9523               INC     R18
   \   000000CA   951A               DEC     R17
   \   000000CC   F759               BRNE    ??ConfigurationInit_6
    794          
    795              //       .
    796              for (uint8_t i = 0;
   \   000000CE   E080               LDI     R24, 0
   \   000000D0   E690               LDI     R25, 96
    797                      i < DISCRETE_SIGNALS_NUMBER;
    798                      i++)
    799              {
    800                  //       ?
    801                  switch (puiAlarmDfaInit[i] & 0x03)
   \                     ??ConfigurationInit_8:
   \   000000D2   E002               LDI     R16, 2
   \   000000D4   9F80               MUL     R24, R16
   \   000000D6   ....               LDI     R26, LOW(??m_apxAlarmDfa)
   \   000000D8   ....               LDI     R27, (??m_apxAlarmDfa) >> 8
   \   000000DA   0DA0               ADD     R26, R0
   \   000000DC   1DB1               ADC     R27, R1
   \   000000DE   E010               LDI     R17, 0
   \   000000E0   ....               LDI     R30, LOW(??m_auiReceiveMessageBuff)
   \   000000E2   ....               LDI     R31, (??m_auiReceiveMessageBuff) >> 8
   \   000000E4   0FE8               ADD     R30, R24
   \   000000E6   1FF1               ADC     R31, R17
   \   000000E8   8100               LD      R16, Z
   \   000000EA   7003               ANDI    R16, 0x03
   \   000000EC   F111               BREQ    ??ConfigurationInit_9
   \   000000EE   950A               DEC     R16
   \   000000F0   F029               BREQ    ??ConfigurationInit_10
   \   000000F2   950A               DEC     R16
   \   000000F4   F061               BREQ    ??ConfigurationInit_11
   \   000000F6   950A               DEC     R16
   \   000000F8   F099               BREQ    ??ConfigurationInit_12
   \   000000FA   C01B               RJMP    ??ConfigurationInit_9
    802                  {
    803                  case NORMAL:
    804                      m_apxAlarmDfa[i] = new CNormalAlarmDfa;
    805                      break;
    806          
    807                  case INDICATION:
    808                      //       - ?
    809                      if (puiAlarmDfaInit[i] & 0x80)
   \                     ??ConfigurationInit_10:
   \   000000FC   8100               LD      R16, Z
   \   000000FE   FF07               SBRS    R16, 7
   \   00000100   C003               RJMP    ??ConfigurationInit_13
    810                      {
    811                          m_apxAlarmDfa[i] = new CIndicationAlarmHighLevelDfa;
   \   00000102   ........           CALL    `??new CIndicationAlarmHighLevelDfa`
   \   00000106   C017               RJMP    ??ConfigurationInit_14
    812                      }
    813                      else
    814                      {
    815                          m_apxAlarmDfa[i] = new CIndicationAlarmLowLevelDfa;
   \                     ??ConfigurationInit_13:
   \   00000108   ........           CALL    `??new CIndicationAlarmLowLevelDfa`
   \   0000010C   C014               RJMP    ??ConfigurationInit_14
    816                      }
    817                      break;
    818          
    819                  case PREVENTIVE:
    820                      //       - ?
    821                      if (puiAlarmDfaInit[i] & 0x80)
   \                     ??ConfigurationInit_11:
   \   0000010E   8100               LD      R16, Z
   \   00000110   FF07               SBRS    R16, 7
   \   00000112   C003               RJMP    ??ConfigurationInit_15
    822                      {
    823                          m_apxAlarmDfa[i] = new CPreventiveAlarmHighLevelDfa;
   \   00000114   ........           CALL    `??new CPreventiveAlarmHighLevelDfa`
   \   00000118   C00E               RJMP    ??ConfigurationInit_14
    824                      }
    825                      else
    826                      {
    827                          m_apxAlarmDfa[i] = new CPreventiveAlarmLowLevelDfa;
   \                     ??ConfigurationInit_15:
   \   0000011A   ........           CALL    `??new CPreventiveAlarmLowLevelDfa`
   \   0000011E   C00B               RJMP    ??ConfigurationInit_14
    828                      }
    829                      break;
    830          
    831                  case EMERGENCY:
    832                      //       - ?
    833                      if (puiAlarmDfaInit[i] & 0x80)
   \                     ??ConfigurationInit_12:
   \   00000120   8100               LD      R16, Z
   \   00000122   FF07               SBRS    R16, 7
   \   00000124   C003               RJMP    ??ConfigurationInit_16
    834                      {
    835                          m_apxAlarmDfa[i] = new CEmergencyAlarmHighLevelDfa;
   \   00000126   ........           CALL    `??new CEmergencyAlarmHighLevelDfa`
   \   0000012A   C005               RJMP    ??ConfigurationInit_14
    836                      }
    837                      else
    838                      {
    839                          m_apxAlarmDfa[i] = new CEmergencyAlarmLowLevelDfa;
   \                     ??ConfigurationInit_16:
   \   0000012C   ........           CALL    `??new CEmergencyAlarmLowLevelDfa`
   \   00000130   C002               RJMP    ??ConfigurationInit_14
    840                      }
    841                      break;
    842          
    843                  case IND_PREVENTIVE:
    844                      m_apxAlarmDfa[i] = new CNormalAlarmDfa;
    845                      break;
    846          
    847                  case IND_EMERGENCY:
    848                      m_apxAlarmDfa[i] = new CNormalAlarmDfa;
    849                      break;
    850          
    851                  default:
    852                      m_apxAlarmDfa[i] = new CNormalAlarmDfa;
   \                     ??ConfigurationInit_9:
   \   00000132   ........           CALL    `??new CNormalAlarmDfa`
   \                     ??ConfigurationInit_14:
   \   00000136   930D               ST      X+, R16
   \   00000138   931C               ST      X, R17
    853                      break;
    854                  }
    855              }
   \   0000013A   9583               INC     R24
   \   0000013C   959A               DEC     R25
   \   0000013E   F649               BRNE    ??ConfigurationInit_8
    856          
    857              //         .
    858              //       - "        ".
    859              CDataBase::ReadBlock(puiTempBuffer, TDataBase::ALARM_WINDOW_INDEX);
   \   00000140   ....               RCALL   ?Subroutine48
    860              for (uint8_t i = 0;
   \                     ??CrossCallReturnLabel_135:
   \   00000142   E040               LDI     R20, 0
   \   00000144   E620               LDI     R18, 96
    861                      i < DISCRETE_SIGNALS_NUMBER;
    862                      i++)
    863              {
    864                  //      ?
    865                  if (puiTempBuffer[i] < ALARM_WINDOWS_NUMBER)
   \                     ??ConfigurationInit_17:
   \   00000146   ....               RCALL   ?Subroutine25
   \                     ??CrossCallReturnLabel_124:
   \   00000148   8111               LDD     R17, Z+1
   \   0000014A   ....               RCALL   ?Subroutine37
   \                     ??CrossCallReturnLabel_37:
   \   0000014C   3330               CPI     R19, 48
   \   0000014E   01F8               MOVW    R31:R30, R17:R16
   \   00000150   F410               BRCC    ??ConfigurationInit_18
    866                  {
    867                      //       .
    868                      m_apxAlarmDfa[i] ->
    869                      SetAlarmWindowIndex(puiTempBuffer[i]);
   \   00000152   8333               STD     Z+3, R19
    870                  }
   \   00000154   C002               RJMP    ??ConfigurationInit_19
    871                  else
    872                  {
    873                      m_apxAlarmDfa[i] ->
    874                      SetAlarmWindowIndex(0);
   \                     ??ConfigurationInit_18:
   \   00000156   E000               LDI     R16, 0
   \   00000158   8303               STD     Z+3, R16
    875                  }
    876              }
   \                     ??ConfigurationInit_19:
   \   0000015A   9543               INC     R20
   \   0000015C   952A               DEC     R18
   \   0000015E   F799               BRNE    ??ConfigurationInit_17
    877          
    878              //       - " ,   ".
    879              CDataBase::ReadBlock(puiTempBuffer, TDataBase::RELAY);
   \   00000160   E026               LDI     R18, 6
   \   00000162   ....               RCALL   ?Subroutine69
    880              //     .
    881              for (uint8_t i = 0;
   \                     ??CrossCallReturnLabel_137:
   \   00000164   E040               LDI     R20, 0
   \   00000166   E620               LDI     R18, 96
    882                      i < DISCRETE_SIGNALS_NUMBER;
    883                      i++)
    884              {
    885                  *(m_apxAlarmDfa[i] -> GetLinkedDiscreteOutputsPointer()) = puiTempBuffer[i];
   \                     ??ConfigurationInit_20:
   \   00000168   ....               RCALL   ?Subroutine37
   \                     ??CrossCallReturnLabel_38:
   \   0000016A   ....               RCALL   ?Subroutine25
   \                     ??CrossCallReturnLabel_125:
   \   0000016C   81F1               LDD     R31, Z+1
   \   0000016E   2FE0               MOV     R30, R16
   \   00000170   8334               STD     Z+4, R19
   \   00000172   9543               INC     R20
   \   00000174   952A               DEC     R18
   \   00000176   F7C1               BRNE    ??ConfigurationInit_20
    886              };
    887          
    888              //       -   .
    889              for (uint8_t i = 0;
   \   00000178   E010               LDI     R17, 0
   \   0000017A   E300               LDI     R16, 48
   \   0000017C   E022               LDI     R18, 2
    890                      i < DISCRETE_INPUTS_NUMBER;
    891                      i++)
    892              {
    893                  m_apxAlarmDfa[i] -> SetDiscreteStateIndex(i);
   \                     ??ConfigurationInit_21:
   \   0000017E   9F12               MUL     R17, R18
   \   00000180   ....               RCALL   ?Subroutine67
   \                     ??CrossCallReturnLabel_74:
   \   00000182   81A0               LD      R26, Z
   \   00000184   81B1               LDD     R27, Z+1
   \   00000186   9615               ADIW    R27:R26, 5
   \   00000188   931C               ST      X, R17
    894              };
   \   0000018A   9513               INC     R17
   \   0000018C   950A               DEC     R16
   \   0000018E   F7B9               BRNE    ??ConfigurationInit_21
    895              //       -  (coils Modbus).
    896              for (uint8_t i = 0;
   \   00000190   E010               LDI     R17, 0
   \   00000192   E300               LDI     R16, 48
   \   00000194   E032               LDI     R19, 2
    897                      i < ALARM_WINDOWS_NUMBER;
    898                      i++)
    899              {
    900                  m_apxAlarmDfa[DISCRETE_INPUTS_NUMBER + i] -> SetDiscreteStateIndex(DISCRETE_INPUTS_NUMBER + i);
   \                     ??ConfigurationInit_22:
   \   00000196   2F21               MOV     R18, R17
   \   00000198   5D20               SUBI    R18, 208
   \   0000019A   9F13               MUL     R17, R19
   \   0000019C   01F0               MOVW    R31:R30, R1:R0
   \   0000019E   ....               SUBI    R30, LOW((-(??m_apxAlarmDfa + 96) & 0xFFFF))
   \   000001A0   ....               SBCI    R31, HIGH((-(??m_apxAlarmDfa + 96) & 0xFFFF))
   \   000001A2   81A0               LD      R26, Z
   \   000001A4   81B1               LDD     R27, Z+1
   \   000001A6   9615               ADIW    R27:R26, 5
   \   000001A8   932C               ST      X, R18
    901          //        m_apxAlarmDfa[DISCRETE_INPUTS_NUMBER + i] -> SetDiscreteStateIndex(i);
    902              };
   \   000001AA   9513               INC     R17
   \   000001AC   950A               DEC     R16
   \   000001AE   F799               BRNE    ??ConfigurationInit_22
    903          
    904              //    .
    905              //       - "    EEPROM".
    906              CDataBase::ReadBlock(puiTempBuffer, TDataBase::DEVICE_STATE);
   \   000001B0   E02A               LDI     R18, 10
   \   000001B2   ....               RCALL   ?Subroutine69
    907              memcpy(reinterpret_cast<uint8_t*>(&m_xDeviceState),
    908                     puiTempBuffer,
    909                     sizeof(struct TDeviceState));
   \                     ??CrossCallReturnLabel_138:
   \   000001B4   E048               LDI     R20, 8
   \   000001B6   E050               LDI     R21, 0
   \   000001B8   ....               LDI     R18, LOW(??m_auiIntermediateBuff)
   \   000001BA   ....               LDI     R19, (??m_auiIntermediateBuff) >> 8
   \   000001BC   ....               LDI     R16, LOW((??m_xModbusSettings + 7))
   \   000001BE   ....               LDI     R17, HIGH((??m_xModbusSettings + 7))
   \   000001C0   ....               RCALL   ?Subroutine51
    910          
    911          //    //    .
    912          //    uint8_t uiIndex = 0;
    913          //
    914          //    m_apxErrorAlarmDfa[uiIndex] = new CErrorAlarmDfa;
    915          //    //        .
    916          //    m_apxErrorAlarmDfa[uiIndex] -> SetAlarmWindowIndex(IMD_ERROR);
    917          //    //     .
    918          //    m_apxErrorAlarmDfa[uiIndex] -> SetDiscreteStateIndex(IMD_ERROR);
    919          //    uiIndex++;
    920          //
    921          //    m_apxErrorAlarmDfa[uiIndex] = new CErrorAlarmDfa;
    922          //    //        .
    923          //    m_apxErrorAlarmDfa[uiIndex] -> SetAlarmWindowIndex(OMD_ERROR);
    924          //    //     .
    925          //    m_apxErrorAlarmDfa[uiIndex] -> SetDiscreteStateIndex(OMD_ERROR);
    926          //    uiIndex++;
    927          //
    928          //    m_apxErrorAlarmDfa[uiIndex] = new CErrorAlarmDfa;
    929          //    //        .
    930          //    m_apxErrorAlarmDfa[uiIndex] -> SetAlarmWindowIndex(CFG_ERROR);
    931          //    //     .
    932          //    m_apxErrorAlarmDfa[uiIndex] -> SetDiscreteStateIndex(CFG_ERROR);
    933          //    uiIndex++;
    934          //
    935          //    m_apxErrorAlarmDfa[uiIndex] = new CErrorAlarmDfa;
    936          //    //        .
    937          //    m_apxErrorAlarmDfa[uiIndex] -> SetAlarmWindowIndex(DB_ERROR);
    938          //    //     .
    939          //    m_apxErrorAlarmDfa[uiIndex] -> SetDiscreteStateIndex(DB_ERROR);
    940          //    uiIndex++;
    941          //
    942          //    m_apxErrorAlarmDfa[uiIndex] = new CErrorAlarmDfa;
    943          //    //        .
    944          //    m_apxErrorAlarmDfa[uiIndex] -> SetAlarmWindowIndex(MBS_ERROR);
    945          //    //     .
    946          //    m_apxErrorAlarmDfa[uiIndex] -> SetDiscreteStateIndex(MBS_ERROR);
    947          //    uiIndex++;
    948          
    949              //    .
    950              for (uint8_t i = 0;
   \                     ??CrossCallReturnLabel_52:
   \   000001C2   E090               LDI     R25, 0
   \   000001C4   E082               LDI     R24, 2
    951                      i < HANDLED_ERROR_NUMBER;
    952                      i++)
    953              {
    954                  m_apxErrorAlarmDfa[i] = new CErrorAlarmDfa;
   \                     ??ConfigurationInit_23:
   \   000001C6   ........           CALL    `??new CErrorAlarmDfa`
   \   000001CA   E022               LDI     R18, 2
   \   000001CC   9F92               MUL     R25, R18
   \   000001CE   ....               RCALL   ?Subroutine36
   \                     ??CrossCallReturnLabel_183:
   \   000001D0   A706               STD     Z+46, R16
   \   000001D2   A717               STD     Z+47, R17
    955                  //        .
    956                  m_apxErrorAlarmDfa[i] -> SetAlarmWindowIndex(i);
   \   000001D4   01D8               MOVW    R27:R26, R17:R16
   \   000001D6   9613               ADIW    R27:R26, 3
   \   000001D8   939C               ST      X, R25
    957                  //     .
    958                  m_apxErrorAlarmDfa[i] -> SetDiscreteStateIndex(i);
   \   000001DA   A506               LDD     R16, Z+46
   \   000001DC   A5F7               LDD     R31, Z+47
   \   000001DE   2FE0               MOV     R30, R16
   \   000001E0   8394               STD     Z+4, R25
    959              };
   \   000001E2   9593               INC     R25
   \   000001E4   958A               DEC     R24
   \   000001E6   F779               BRNE    ??ConfigurationInit_23
    960          }
   \   000001E8   ....               RJMP    ?Subroutine89

   \                                 In  segment CODE, align 2, keep-with-next
   \                     ?Subroutine51:
   \   00000000   ........           JMP     memcpy

   \                                 In  segment CODE, align 2, keep-with-next
   \                     ?Subroutine48:
   \   00000000   E023               LDI     R18, 3
   \   00000002                      REQUIRE ?Subroutine69
   \   00000002                      ;               // Fall through to label ?Subroutine69

   \                                 In  segment CODE, align 2, keep-with-next
   \                     ?Subroutine69:
   \   00000000   ....               LDI     R16, LOW(??m_auiIntermediateBuff)
   \   00000002   ....               LDI     R17, (??m_auiIntermediateBuff) >> 8
   \   00000004                      REQUIRE ?Subroutine91
   \   00000004                      ;               // Fall through to label ?Subroutine91

   \                                 In  segment CODE, align 2, keep-with-next
   \                     ?Subroutine91:
   \   00000000   ........           JMP     ??ReadBlock

   \                                 In  segment CODE, align 2, keep-with-next
   \                     ?Subroutine43:
   \   00000000   018D               MOVW    R17:R16, R27:R26
   \   00000002   ....               RJMP    ?Subroutine91

   \                                 In  segment CODE, align 2, keep-with-next
   \                     ?Subroutine37:
   \   00000000   E0F0               LDI     R31, 0
   \   00000002   2FE4               MOV     R30, R20
   \   00000004   ....               SUBI    R30, LOW((-(??m_auiIntermediateBuff) & 0xFFFF))
   \   00000006   ....               SBCI    R31, (-(??m_auiIntermediateBuff) & 0xFFFF) >> 8
   \   00000008   8130               LD      R19, Z
   \   0000000A   9508               RET

   \                                 In  segment CODE, align 2, keep-with-next
   \                     ?Subroutine25:
   \   00000000   E002               LDI     R16, 2
   \   00000002   9F40               MUL     R20, R16
   \   00000004   ....               RCALL   ?Subroutine67
   \                     ??CrossCallReturnLabel_76:
   \   00000006                      REQUIRE ?Subroutine86
   \   00000006                      ;               // Fall through to label ?Subroutine86

   \                                 In  segment CODE, align 2, keep-with-next
   \                     ?Subroutine86:
   \   00000000   8100               LD      R16, Z
   \   00000002   9508               RET

   \                                 In  segment CODE, align 2, keep-with-next
   \                     ?Subroutine67:
   \   00000000   01F0               MOVW    R31:R30, R1:R0
   \   00000002   ....               SUBI    R30, LOW((-(??m_apxAlarmDfa) & 0xFFFF))
   \   00000004   ....               SBCI    R31, (-(??m_apxAlarmDfa) & 0xFFFF) >> 8
   \   00000006   9508               RET
    961          
    962          //-----------------------------------------------------------------------------------------------------

   \                                 In  segment CODE, align 2, keep-with-next
    963          void CPss21::DiscreteOutputControlClear(void)
   \                     ??DiscreteOutputControlClear:
    964          {
   \   00000000   01AC               MOVW    R21:R20, R25:R24
    965              //      ()   .
    966              for (int j = 0;
    967                      j < DISCRETE_OUTPUT_MODULE_MAX_NUMBER;
    968                      j++)
    969              {
    970                  //   .
    971                  for (int k = 0;
   \   00000002   ....               RCALL   ?Subroutine33
   \                     ??CrossCallReturnLabel_32:
   \   00000004   E008               LDI     R16, 8
   \   00000006   E010               LDI     R17, 0
    972                          k < MR_DISCRETE_OUTPUT_NUMBER;
    973                          k++)
    974                  {
    975                      //   -  .
    976                      m_axDiscreteOutputControl[(j * MR_DISCRETE_OUTPUT_NUMBER) + k].uiNewActivation = 0;
   \                     ??DiscreteOutputControlClear_1:
   \   00000008   019C               MOVW    R19:R18, R25:R24
   \   0000000A   0F22               LSL     R18
   \   0000000C   1F33               ROL     R19
   \   0000000E   ....               LDI     R30, LOW(??m_axDiscreteOutputControl)
   \   00000010   ....               LDI     R31, (??m_axDiscreteOutputControl) >> 8
   \   00000012   0FE2               ADD     R30, R18
   \   00000014   1FF3               ADC     R31, R19
   \   00000016   8310               ST      Z, R17
    977                      //   -   .
    978                      m_axDiscreteOutputControl[(j * MR_DISCRETE_OUTPUT_NUMBER) + k].uiRelayActivationRequest = 0;
   \   00000018   8311               STD     Z+1, R17
    979                  }
   \   0000001A   9601               ADIW    R25:R24, 1
   \   0000001C   950A               DEC     R16
   \   0000001E   F7A1               BRNE    ??DiscreteOutputControlClear_1
    980              }
    981          }
   \   00000020   01CA               MOVW    R25:R24, R21:R20
   \   00000022   9508               RET
    982          
    983          //-----------------------------------------------------------------------------------------------------

   \                                 In  segment CODE, align 2, keep-with-next
    984          void CPss21::DiscreteOutputsSet(uint8_t *puiLinkedDiscreteOutputs, uint8_t uiNewViolation)
   \                     ??DiscreteOutputsSet:
    985          {
   \   00000000   ....               RCALL   ?Subroutine42
   \                     ??CrossCallReturnLabel_45:
   \   00000002   01B8               MOVW    R23:R22, R17:R16
    986              //       ?
    987              if (!uiNewViolation)
   \   00000004   2322               TST     R18
   \   00000006   E0A0               LDI     R26, 0
   \   00000008   E0B0               LDI     R27, 0
   \   0000000A   E031               LDI     R19, 1
   \   0000000C   F489               BRNE    ??DiscreteOutputsSet_1
    988              {
    989                  //   .
    990                  //   -  ,   ,
    991                  //       - .
    992                  //   .
    993                  for (int j = 0;
    994                          j < DISCRETE_OUTPUT_MODULE_MAX_NUMBER;
    995                          j++)
    996                  {
    997                      //   .
    998                      for (int k = 0;
   \                     ??DiscreteOutputsSet_2:
   \   0000000E   ....               RCALL   ?Subroutine33
   \                     ??CrossCallReturnLabel_33:
   \   00000010   E028               LDI     R18, 8
    999                              k < MR_DISCRETE_OUTPUT_NUMBER;
   1000                              k++)
   1001                      {
   1002                          //  - (j, k)  () ?
   1003                          if (puiLinkedDiscreteOutputs[j] & (0x01 << k))
   \                     ??DiscreteOutputsSet_3:
   \   00000012   ....               RCALL   ?Subroutine24
   \                     ??CrossCallReturnLabel_186:
   \   00000014   F031               BREQ    ??DiscreteOutputsSet_4
   1004                          {
   1005                              //   -   .
   1006                              m_axDiscreteOutputControl[(j * MR_DISCRETE_OUTPUT_NUMBER) + k].uiRelayActivationRequest = 1;
   \   00000016   ....               RCALL   ?Subroutine44
   1007                          }
   1008                      }
   \                     ??CrossCallReturnLabel_46:
   \   00000018   01F8               MOVW    R31:R30, R17:R16
   \   0000001A   ....               SUBI    R30, LOW((-(??m_axDiscreteOutputControl) & 0xFFFF))
   \   0000001C   ....               SBCI    R31, (-(??m_axDiscreteOutputControl) & 0xFFFF) >> 8
   \   0000001E   E001               LDI     R16, 1
   \   00000020   8301               STD     Z+1, R16
   \                     ??DiscreteOutputsSet_4:
   \   00000022   9601               ADIW    R25:R24, 1
   \   00000024   952A               DEC     R18
   \   00000026   F7A9               BRNE    ??DiscreteOutputsSet_3
   1009                  }
   \   00000028   9611               ADIW    R27:R26, 1
   \   0000002A   953A               DEC     R19
   \   0000002C   F091               BREQ    ??DiscreteOutputsSet_5
   \   0000002E   CFEF               RJMP    ??DiscreteOutputsSet_2
   1010              }
   1011              else
   1012              {
   1013                  //  .
   1014                  //   -  ,   
   1015                  //      -  .
   1016                  //   -  ,   ,
   1017                  //       - .
   1018                  //   .
   1019                  for (int j = 0;
   1020                          j < DISCRETE_OUTPUT_MODULE_MAX_NUMBER;
   1021                          j++)
   1022                  {
   1023                      //   .
   1024                      for (int k = 0;
   \                     ??DiscreteOutputsSet_1:
   \   00000030   ....               RCALL   ?Subroutine33
   \                     ??CrossCallReturnLabel_34:
   \   00000032   E028               LDI     R18, 8
   1025                              k < MR_DISCRETE_OUTPUT_NUMBER;
   1026                              k++)
   1027                      {
   1028                          //  - (j, k)  () ?
   1029                          if (puiLinkedDiscreteOutputs[j] & (0x01 << k))
   \                     ??DiscreteOutputsSet_6:
   \   00000034   ....               RCALL   ?Subroutine24
   \                     ??CrossCallReturnLabel_187:
   \   00000036   F039               BREQ    ??DiscreteOutputsSet_7
   1030                          {
   1031                              //   -  .
   1032                              m_axDiscreteOutputControl[(j * MR_DISCRETE_OUTPUT_NUMBER) + k].uiNewActivation = 1;
   \   00000038   ....               RCALL   ?Subroutine44
   \                     ??CrossCallReturnLabel_47:
   \   0000003A   ....               LDI     R30, LOW(??m_axDiscreteOutputControl)
   \   0000003C   ....               LDI     R31, (??m_axDiscreteOutputControl) >> 8
   \   0000003E   0FE0               ADD     R30, R16
   \   00000040   1FF1               ADC     R31, R17
   \   00000042   ....               RCALL   ?Subroutine27
   1033                              //   -   .
   1034                              m_axDiscreteOutputControl[(j * MR_DISCRETE_OUTPUT_NUMBER) + k].uiRelayActivationRequest = 1;
   \                     ??CrossCallReturnLabel_15:
   \   00000044   8301               STD     Z+1, R16
   1035                          }
   1036                      }
   \                     ??DiscreteOutputsSet_7:
   \   00000046   9601               ADIW    R25:R24, 1
   \   00000048   952A               DEC     R18
   \   0000004A   F7A1               BRNE    ??DiscreteOutputsSet_6
   1037                  }
   \   0000004C   9611               ADIW    R27:R26, 1
   \   0000004E   953A               DEC     R19
   \   00000050   F779               BRNE    ??DiscreteOutputsSet_1
   1038              }
   1039          }
   \                     ??DiscreteOutputsSet_5:
   \   00000052   ....               RJMP    ?Subroutine89

   \                                 In  segment CODE, align 2, keep-with-next
   \                     ?Subroutine44:
   \   00000000   E043               LDI     R20, 3
   \   00000002   018D               MOVW    R17:R16, R27:R26
   \   00000004   ....               RCALL   ?Subroutine66
   \                     ??CrossCallReturnLabel_189:
   \   00000006   0F08               ADD     R16, R24
   \   00000008   1F19               ADC     R17, R25
   \   0000000A   0F00               LSL     R16
   \   0000000C   1F11               ROL     R17
   \   0000000E   9508               RET

   \                                 In  segment CODE, align 2, keep-with-next
   \                     ?Subroutine24:
   \   00000000   01FB               MOVW    R31:R30, R23:R22
   \   00000002   0FEA               ADD     R30, R26
   \   00000004   1FFB               ADC     R31, R27
   \   00000006   8150               LD      R21, Z
   \   00000008   2F48               MOV     R20, R24
   \   0000000A                      REQUIRE ??Subroutine99_0
   \   0000000A                      ;               // Fall through to label ??Subroutine99_0
   1040          
   1041          //-----------------------------------------------------------------------------------------------------

   \                                 In  segment CODE, align 2, keep-with-next
   1042          void CPss21::AlarmsProcessing(void)
   \                     ??AlarmsProcessing:
   1043          {
   \   00000000   939A               ST      -Y, R25
   \   00000002   938A               ST      -Y, R24
   1044              //    .
   1045              for (uint8_t i = 0;
   \   00000004   E090               LDI     R25, 0
   \   00000006   E680               LDI     R24, 96
   1046                      i < DISCRETE_SIGNALS_NUMBER;
   1047                      i++)
   1048              {
   1049                  m_apxAlarmDfa[i] -> Fsm();
   \                     ??AlarmsProcessing_1:
   \   00000008   E002               LDI     R16, 2
   \   0000000A   9F90               MUL     R25, R16
   \   0000000C   ....               RCALL   ?Subroutine67
   1050              }
   \                     ??CrossCallReturnLabel_75:
   \   0000000E   8120               LD      R18, Z
   \   00000010   8131               LDD     R19, Z+1
   \   00000012   ....               RCALL   ?Subroutine38
   \                     ??CrossCallReturnLabel_39:
   \   00000014   F7C9               BRNE    ??AlarmsProcessing_1
   1051          }
   \   00000016                      REQUIRE ?Subroutine77
   \   00000016                      ;               // Fall through to label ?Subroutine77

   \                                 In  segment CODE, align 2, keep-with-next
   \                     ?Subroutine77:
   \   00000000   9189               LD      R24, Y+
   \   00000002   9199               LD      R25, Y+
   \   00000004   9508               RET

   \                                 In  segment CODE, align 2, keep-with-next
   \                     ?Subroutine38:
   \   00000000   0189               MOVW    R17:R16, R19:R18
   \   00000002   01F9               MOVW    R31:R30, R19:R18
   \   00000004   8121               LDD     R18, Z+1
   \   00000006   81F2               LDD     R31, Z+2
   \   00000008   2FE2               MOV     R30, R18
   \   0000000A   ....               RCALL   ?Subroutine64
   \                     ??CrossCallReturnLabel_66:
   \   0000000C   9593               INC     R25
   \   0000000E   958A               DEC     R24
   \   00000010   9508               RET
   1052          
   1053          //-----------------------------------------------------------------------------------------------------

   \                                 In  segment CODE, align 2, keep-with-next
   1054          void CPss21::ErrorAlarmsProcessing(void)
   \                     ??ErrorAlarmsProcessing:
   1055          {
   \   00000000   939A               ST      -Y, R25
   \   00000002   938A               ST      -Y, R24
   1056              //    .
   1057              for (uint8_t i = 0;
   \   00000004   E090               LDI     R25, 0
   \   00000006   E082               LDI     R24, 2
   \                     ??ErrorAlarmsProcessing_1:
   \   00000008   E002               LDI     R16, 2
   \   0000000A   9F90               MUL     R25, R16
   \   0000000C   ....               RCALL   ?Subroutine36
   1058                      i < HANDLED_ERROR_NUMBER;
   1059                      i++)
   1060              {
   1061                  m_apxErrorAlarmDfa[i] -> Fsm();
   1062              }
   \                     ??CrossCallReturnLabel_184:
   \   0000000E   A526               LDD     R18, Z+46
   \   00000010   A537               LDD     R19, Z+47
   \   00000012   ....               RCALL   ?Subroutine38
   \                     ??CrossCallReturnLabel_40:
   \   00000014   F7C9               BRNE    ??ErrorAlarmsProcessing_1
   1063          }
   \   00000016   ....               RJMP    ?Subroutine77
   1064          
   1065          //-----------------------------------------------------------------------------------------------------

   \                                 In  segment CODE, align 2, keep-with-next
   1066          uint8_t CPss21::GetDiscreteInputState(uint8_t uiIndex)
   \                     ??GetDiscreteInputState:
   1067          {
   1068          //    //       ?
   1069          //    if ((uiIndex >= 0) &&
   1070          //            (uiIndex < (DISCRETE_INPUTS_NUMBER + ALARM_WINDOWS_NUMBER)))
   1071          //    {
   1072          //        //     -   .
   1073          //        return m_aucRtuDiscreteDataArray[DISCRETE_INPUTS_BIT_ARRAY_OFFSET + uiIndex];
   1074          //    }
   1075          //    else
   1076          //    {
   1077          //        //     -   ,  0.
   1078          //        return m_aucRtuDiscreteDataArray[DISCRETE_INPUTS_BIT_ARRAY_OFFSET];
   1079          //    }
   1080          
   1081              if (uiIndex < DISCRETE_INPUTS_NUMBER)
   1082              {
   1083                  //     -   .
   1084                  return m_aucRtuDiscreteDataArray[DISCRETE_INPUTS_BIT_ARRAY_OFFSET + uiIndex];
   1085              }
   1086              else
   1087              {
   1088                  //     -  (coils Modbus).
   1089                  return m_aucRtuDiscreteDataArray[ALARM_WINDOWS_BIT_ARRAY_OFFSET + (uiIndex - DISCRETE_INPUTS_NUMBER)];
   \   00000000   E0F0               LDI     R31, 0
   \   00000002   2FE0               MOV     R30, R16
   \   00000004   ....               SUBI    R30, LOW((-(??m_aucRtuDiscreteDataArray) & 0xFFFF))
   \   00000006   ....               SBCI    R31, (-(??m_aucRtuDiscreteDataArray) & 0xFFFF) >> 8
   \   00000008   8900               LDD     R16, Z+16
   \   0000000A   9508               RET
   1090              }
   1091          }
   1092          
   1093          //-----------------------------------------------------------------------------------------------------

   \                                 In  segment CODE, align 2, keep-with-next
   1094          void CPss21::SetErrorAlarmState(uint8_t uiIndex, uint8_t uiData)
   \                     ??SetErrorAlarmState:
   1095          {
   1096              //    .
   1097              m_auiErrorAlarmDataArray[uiIndex] = uiData;
   \   00000000   ....               RCALL   ?Subroutine41
   \                     ??CrossCallReturnLabel_41:
   \   00000002   8310               ST      Z, R17
   1098          }
   \   00000004   9508               RET

   \                                 In  segment CODE, align 2, keep-with-next
   \                     ?Subroutine41:
   \   00000000   E0F0               LDI     R31, 0
   \   00000002   2FE0               MOV     R30, R16
   \   00000004   ....               SUBI    R30, LOW((-(??m_xDeviceConfigSearch + 63) & 0xFFFF))
   \   00000006   ....               SBCI    R31, HIGH((-(??m_xDeviceConfigSearch + 63) & 0xFFFF))
   \   00000008   9508               RET
   1099          
   1100          //-----------------------------------------------------------------------------------------------------

   \                                 In  segment CODE, align 2, keep-with-next
   1101          uint8_t CPss21::GetErrorAlarmState(uint8_t uiIndex)
   \                     ??GetErrorAlarmState:
   1102          {
   1103              //    .
   1104              return m_auiErrorAlarmDataArray[uiIndex];
   \   00000000   ....               RCALL   ?Subroutine41
   \                     ??CrossCallReturnLabel_42:
   \   00000002   ....               RJMP    ?Subroutine86
   1105          }
   1106          
   1107          //-----------------------------------------------------------------------------------------------------

   \                                 In  segment CODE, align 2, keep-with-next
   1108          void CPss21::AlarmTypeSet(uint8_t uiAlarmType)
   \                     ??AlarmTypeSet:
   1109          {
   \   00000000   938A               ST      -Y, R24
   \   00000002   2F80               MOV     R24, R16
   1110              m_xPreventiveAlarmWindowNotifyerControl.AlarmSet(uiAlarmType);
   \   00000004   2F20               MOV     R18, R16
   \   00000006   ....               RCALL   ?Subroutine57
   1111              m_xEmergencyAlarmWindowNotifyerControl.AlarmSet(uiAlarmType);
   \                     ??CrossCallReturnLabel_207:
   \   00000008   2F28               MOV     R18, R24
   \   0000000A   ....               RCALL   ?Subroutine58
   1112              m_xStatusLedNotifyerControl.AlarmSet(uiAlarmType);
   \                     ??CrossCallReturnLabel_209:
   \   0000000C   2F28               MOV     R18, R24
   \   0000000E   ....               RCALL   ?Subroutine59
   1113              m_xBuzzerNotifyerControl.AlarmSet(uiAlarmType);
   \                     ??CrossCallReturnLabel_211:
   \   00000010   2F28               MOV     R18, R24
   \   00000012   ....               RCALL   ?Subroutine60
   1114          }
   \                     ??CrossCallReturnLabel_216:
   \   00000014   ....               RJMP    ?Subroutine84

   \                                 In  segment CODE, align 2, keep-with-next
   \                     ?Subroutine59:
   \   00000000   ....               LDI     R16, LOW((??m_xDeviceConfigSearch + 169))
   \   00000002   ....               LDI     R17, HIGH((??m_xDeviceConfigSearch + 169))
   \   00000004   ........           JMP     ??AlarmSet_3

   \                                 In  segment CODE, align 2, keep-with-next
   \                     ?Subroutine58:
   \   00000000   ....               LDI     R16, LOW((??m_xDeviceConfigSearch + 157))
   \   00000002   ....               LDI     R17, HIGH((??m_xDeviceConfigSearch + 157))
   \   00000004   ........           JMP     ??AlarmSet_2

   \                                 In  segment CODE, align 2, keep-with-next
   \                     ?Subroutine57:
   \   00000000   ....               LDI     R16, LOW((??m_xDeviceConfigSearch + 145))
   \   00000002   ....               LDI     R17, HIGH((??m_xDeviceConfigSearch + 145))
   \   00000004   ........           JMP     ??AlarmSet_1
   1115          
   1116          //-----------------------------------------------------------------------------------------------------

   \                                 In  segment CODE, align 2, keep-with-next
   1117          void CPss21::AlarmTypeChange(void)
   \                     ??AlarmTypeChange:
   1118          {
   1119              if (m_uiCommonAlarmType != m_uiCommonAlarmTypePrevious)
   \   00000000   ....               RCALL   ?Subroutine39
   \                     ??CrossCallReturnLabel_122:
   \   00000002   F011               BREQ    ??CrossCallReturnLabel_141
   1120              {
   1121                  m_uiCommonAlarmTypePrevious = m_uiCommonAlarmType;
   \   00000004   AF06               STD     Z+62, R16
   1122                  AlarmTypeSet(m_uiCommonAlarmType);
   \   00000006   ....               RCALL   ?Subroutine92
   1123              }
   1124          }
   \                     ??CrossCallReturnLabel_141:
   \   00000008   9508               RET

   \                                 In  segment CODE, align 2, keep-with-next
   \                     ?Subroutine39:
   \   00000000   ....               RCALL   ?Subroutine65
   \                     ??CrossCallReturnLabel_73:
   \   00000002   AD05               LDD     R16, Z+61
   \   00000004   AD16               LDD     R17, Z+62
   \   00000006   ....               RJMP    ?Subroutine83

   \                                 In  segment CODE, align 2, keep-with-next
   \                     ?Subroutine92:
   \   00000000   ....               RJMP    ??AlarmTypeSet
   1125          
   1126          //-----------------------------------------------------------------------------------------------------

   \                                 In  segment CODE, align 2, keep-with-next
   1127          void CPss21::AlarmTypeErrorChange(void)
   \                     ??AlarmTypeErrorChange:
   1128          {
   1129              if (m_uiCommonAlarmType != m_uiCommonAlarmTypePrevious)
   \   00000000   ....               RCALL   ?Subroutine39
   \                     ??CrossCallReturnLabel_123:
   \   00000002   F011               BREQ    ??CrossCallReturnLabel_215
   1130              {
   1131                  m_uiCommonAlarmTypePrevious = m_uiCommonAlarmType;
   \   00000004   AF06               STD     Z+62, R16
   1132          
   1133                  m_xPreventiveAlarmWindowNotifyerControl.AlarmSet(INDICATION);
   \   00000006   ....               RCALL   ??Subroutine103_0
   1134                  m_xEmergencyAlarmWindowNotifyerControl.AlarmSet(INDICATION);
   1135                  m_xStatusLedNotifyerControl.AlarmSet(ERROR);
   1136                  m_xBuzzerNotifyerControl.AlarmSet(ERROR);
   1137              }
   1138          }
   \                     ??CrossCallReturnLabel_215:
   \   00000008   9508               RET

   \                                 In  segment CODE, align 2, keep-with-next
   \                     ??Subroutine103_0:
   \   00000000   E021               LDI     R18, 1
   \   00000002   ....               RCALL   ?Subroutine57
   \                     ??CrossCallReturnLabel_206:
   \   00000004   E021               LDI     R18, 1
   \   00000006   ....               RCALL   ?Subroutine58
   \                     ??CrossCallReturnLabel_208:
   \   00000008   E026               LDI     R18, 6
   \   0000000A   ....               RCALL   ?Subroutine59
   \                     ??CrossCallReturnLabel_210:
   \   0000000C   E026               LDI     R18, 6
   \   0000000E                      REQUIRE ?Subroutine60
   \   0000000E                      ;               // Fall through to label ?Subroutine60
   1139          
   1140          //-----------------------------------------------------------------------------------------------------

   \                                 In  segment CODE, align 2, keep-with-next
   1141          void CPss21::AlarmTypeReceipt(void)
   \                     ??AlarmTypeReceipt:
   1142          {
   1143              m_uiCommonAlarmType = INDICATION;
   \   00000000   E001               LDI     R16, 1
   \   00000002   ....               RCALL   ?Subroutine71
   1144              m_uiCommonAlarmTypePrevious = INDICATION;
   1145              AlarmTypeSet(INDICATION);
   \                     ??CrossCallReturnLabel_83:
   \   00000004                      REQUIRE ?Subroutine92
   \   00000004                      ;               // Fall through to label ?Subroutine92
   1146          }
   1147          
   1148          //-----------------------------------------------------------------------------------------------------

   \                                 In  segment CODE, align 2, keep-with-next
   1149          void CPss21::AlarmTypeReset(void)
   \                     ??AlarmTypeReset:
   1150          {
   1151              m_uiCommonAlarmType = NORMAL;
   \   00000000   ....               RCALL   ?Subroutine26
   1152              m_uiCommonAlarmTypePrevious = NORMAL;
   1153              AlarmTypeSet(NORMAL);
   \                     ??CrossCallReturnLabel_85:
   \   00000002   ....               RJMP    ?Subroutine92
   1154          }
   1155          
   1156          //-----------------------------------------------------------------------------------------------------

   \                                 In  segment CODE, align 2, keep-with-next
   1157          void CPss21::NotifyersControlProcessing(void)
   \                     ??NotifyersControlProcessing:
   1158          {
   1159              m_xPreventiveAlarmWindowNotifyerControl.Fsm();
   \   00000000   ....               LDI     R16, LOW((??m_xDeviceConfigSearch + 145))
   \   00000002   ....               LDI     R17, HIGH((??m_xDeviceConfigSearch + 145))
   \   00000004   ....               RCALL   ?Subroutine93
   1160              m_xEmergencyAlarmWindowNotifyerControl.Fsm();
   \                     ??CrossCallReturnLabel_144:
   \   00000006   ....               LDI     R16, LOW((??m_xDeviceConfigSearch + 157))
   \   00000008   ....               LDI     R17, HIGH((??m_xDeviceConfigSearch + 157))
   \   0000000A   ....               RCALL   ?Subroutine93
   1161              m_xStatusLedNotifyerControl.Fsm();
   \                     ??CrossCallReturnLabel_143:
   \   0000000C   ....               LDI     R16, LOW((??m_xDeviceConfigSearch + 169))
   \   0000000E   ....               LDI     R17, HIGH((??m_xDeviceConfigSearch + 169))
   \   00000010   ....               RCALL   ?Subroutine93
   1162              m_xBuzzerNotifyerControl.Fsm();
   \                     ??CrossCallReturnLabel_142:
   \   00000012   ....               LDI     R16, LOW((??m_xDeviceConfigSearch + 181))
   \   00000014   ....               LDI     R17, HIGH((??m_xDeviceConfigSearch + 181))
   \   00000016                      REQUIRE ?Subroutine93
   \   00000016                      ;               // Fall through to label ?Subroutine93
   1163          }

   \                                 In  segment CODE, align 2, keep-with-next
   \                     ?Subroutine93:
   \   00000000   ........           JMP     ??Fsm
   1164          
   1165          //-----------------------------------------------------------------------------------------------------

   \                                 In  segment CODE, align 2, keep-with-next
   1166          void CPss21::SetAlarmWindowType(uint8_t uiAlarmWindowIndex, uint8_t uiAlarmType)
   \                     ??SetAlarmWindowType:
   1167          {
   \   00000000   2F21               MOV     R18, R17
   1168              GetAlarmWindowControlPointer(uiAlarmWindowIndex) -> SetAlarmType(uiAlarmType);
   \   00000002   E010               LDI     R17, 0
   \   00000004   E046               LDI     R20, 6
   \   00000006   ....               RCALL   ?Subroutine72
   \                     ??CrossCallReturnLabel_204:
   \   00000008   01F8               MOVW    R31:R30, R17:R16
   \   0000000A   ....               SUBI    R30, LOW((-(??m_axAlarmWindowControl) & 0xFFFF))
   \   0000000C   ....               SBCI    R31, (-(??m_axAlarmWindowControl) & 0xFFFF) >> 8
   \   0000000E   8322               STD     Z+2, R18
   1169          }
   \   00000010   9508               RET
   1170          
   1171          //-----------------------------------------------------------------------------------------------------

   \                                 In  segment CODE, align 2, keep-with-next
   1172          void CPss21::SaveContextNotifyerControl(void)
   \                     ??SaveContextNotifyerControl:
   1173          {
   1174          //    //      .
   1175          //    m_xPreventiveAlarmWindowNotifyerControl.SetSavedFsmState(m_xPreventiveAlarmWindowNotifyerControl.GetFsmState());
   1176          //    m_xEmergencyAlarmWindowNotifyerControl.SetSavedFsmState(m_xEmergencyAlarmWindowNotifyerControl.GetFsmState());
   1177          //    m_xStatusLedNotifyerControl.SetSavedFsmState(m_xStatusLedNotifyerControl.GetFsmState());
   1178          //    m_xBuzzerNotifyerControl.SetSavedFsmState(m_xBuzzerNotifyerControl.GetFsmState());
   1179          
   1180              //     -  .
   1181              for (uint8_t i = 0;
   \   00000000   ....               RCALL   ??Subroutine100_0
   1182                      i < ALARM_WINDOWS_NUMBER;
   1183                      i++)
   1184              {
   1185                  m_axAlarmWindowControl[i].SetSavedAlarmType(m_axAlarmWindowControl[i].GetAlarmType());
   \                     ??CrossCallReturnLabel_196:
   \   00000002   ....               RCALL   ?Subroutine62
   \                     ??CrossCallReturnLabel_199:
   \   00000004   8102               LDD     R16, Z+2
   \   00000006   8303               STD     Z+3, R16
   1186                  m_axAlarmWindowControl[i].SetSavedActivityState(m_axAlarmWindowControl[i].GetActivityState());
   \   00000008   8100               LD      R16, Z
   \   0000000A   8301               STD     Z+1, R16
   1187              };
   \   0000000C   ....               RCALL   ?Subroutine30
   \                     ??CrossCallReturnLabel_19:
   \   0000000E   F7C9               BRNE    ??CrossCallReturnLabel_196
   1188          }
   \   00000010   9508               RET

   \                                 In  segment CODE, align 2, keep-with-next
   \                     ?Subroutine30:
   \   00000000   9523               INC     R18
   \   00000002   953A               DEC     R19
   \   00000004   9508               RET

   \                                 In  segment CODE, align 2, keep-with-next
   \                     ??Subroutine100_0:
   \   00000000   E020               LDI     R18, 0
   \   00000002   E330               LDI     R19, 48
   \   00000004   E046               LDI     R20, 6
   \   00000006   9508               RET
   1189          
   1190          //-----------------------------------------------------------------------------------------------------

   \                                 In  segment CODE, align 2, keep-with-next
   1191          void CPss21::RestoreContextNotifyerControl(void)
   \                     ??RestoreContextNotifyerControl:
   1192          {
   1193          //    //      .
   1194          //    m_xPreventiveAlarmWindowNotifyerControl.SetFsmState(m_xPreventiveAlarmWindowNotifyerControl.GetSavedFsmState());
   1195          //    m_xEmergencyAlarmWindowNotifyerControl.SetFsmState(m_xEmergencyAlarmWindowNotifyerControl.GetSavedFsmState());
   1196          //    m_xStatusLedNotifyerControl.SetFsmState(m_xStatusLedNotifyerControl.GetSavedFsmState());
   1197          //    m_xBuzzerNotifyerControl.SetFsmState(m_xBuzzerNotifyerControl.GetSavedFsmState());
   1198              AlarmTypeSet(GetCommonAlarmType());
   \   00000000   9100....           LDS     R16, (??m_xDeviceConfigSearch + 61)
   \   00000004   ....               RCALL   ?Subroutine92
   1199          
   1200              //     -  .
   1201              for (uint8_t i = 0;
   \                     ??CrossCallReturnLabel_140:
   \   00000006   ....               RCALL   ??Subroutine100_0
   1202                      i < ALARM_WINDOWS_NUMBER;
   1203                      i++)
   1204              {
   1205                  m_axAlarmWindowControl[i].SetAlarmType(m_axAlarmWindowControl[i].GetSavedAlarmType());
   \                     ??CrossCallReturnLabel_197:
   \   00000008   ....               RCALL   ?Subroutine62
   \                     ??CrossCallReturnLabel_200:
   \   0000000A   8103               LDD     R16, Z+3
   \   0000000C   8302               STD     Z+2, R16
   1206                  m_axAlarmWindowControl[i].SetActivityState(m_axAlarmWindowControl[i].GetSavedActivityState());
   \   0000000E   8101               LDD     R16, Z+1
   \   00000010   8300               ST      Z, R16
   1207              };
   \   00000012   ....               RCALL   ?Subroutine30
   \                     ??CrossCallReturnLabel_20:
   \   00000014   F7C9               BRNE    ??CrossCallReturnLabel_197
   1208          }
   \   00000016   9508               RET
   1209          
   1210          //-----------------------------------------------------------------------------------------------------

   \                                 In  segment CODE, align 2, keep-with-next
   1211          void CPss21::DiscreteSignalsProcessing(void)
   \                     ??DiscreteSignalsProcessing:
   1212          {
   1213              DiscreteOutputControlClear();
   \   00000000   ....               RCALL   ??DiscreteOutputControlClear
   1214              AlarmsProcessing();
   \   00000002   ....               RCALL   ??AlarmsProcessing
   1215              ErrorAlarmsProcessing();
   \   00000004   ....               RCALL   ??ErrorAlarmsProcessing
   1216              SetDiscreteSignalsReceipt(0);
   \   00000006   E000               LDI     R16, 0
   \   00000008   9300....           STS     (??m_xDeviceConfigSearch + 57), R16
   1217              SetDiscreteSignalsReset(0);
   \   0000000C   9300....           STS     (??m_xDeviceConfigSearch + 58), R16
   1218          }
   \   00000010   9508               RET
   1219          
   1220          //-----------------------------------------------------------------------------------------------------

   \                                 In  segment CODE, align 2, keep-with-next
   1221          void CPss21::BoardWindowsUpdate(void)
   \                     ??BoardWindowsUpdate:
   1222          {
   1223              CLightBoard::Set(m_axAlarmWindowControl);
   \   00000000   ....               RJMP    ?Subroutine87
   1224          }

   \                                 In  segment CODE, align 2, keep-with-next
   \                     ?Subroutine87:
   \   00000000   ....               RCALL   ?Subroutine74
   \                     ??CrossCallReturnLabel_129:
   \   00000002   ........           JMP     ??Set
   1225          
   1226          //-----------------------------------------------------------------------------------------------------

   \                                 In  segment CODE, align 2, keep-with-next
   1227          void CPss21::ActiveAlarmWindowOn(uint8_t uiAlarmType)
   \                     ??ActiveAlarmWindowOn:
   1228          {
   \   00000000   ....               RCALL   ?Subroutine1
   1229              for (uint8_t i = 0;
   1230                      i < ALARM_WINDOWS_NUMBER;
   1231                      i++)
   1232              {
   1233                  //        ?
   1234                  if (m_axAlarmWindowControl[i].GetAlarmType() == uiAlarmType)
   \                     ??CrossCallReturnLabel_191:
   \   00000002   ....               RCALL   ?Subroutine21
   \                     ??CrossCallReturnLabel_12:
   \   00000004   F409               BRNE    ??CrossCallReturnLabel_16
   1235                  {
   1236                      //   ,   .
   1237                      m_axAlarmWindowControl[i].SetActivityState(1);
   \   00000006   ....               RCALL   ?Subroutine27
   1238                  }
   1239          
   1240          //        CPss21::m_aucRtuHoldingRegistersArray[i] = m_axAlarmWindowControl[i].GetActivityState();
   1241              };
   \                     ??CrossCallReturnLabel_16:
   \   00000008   ....               RCALL   ?Subroutine30
   \                     ??CrossCallReturnLabel_21:
   \   0000000A   F7D9               BRNE    ??CrossCallReturnLabel_191
   1242          
   1243              BoardWindowsUpdate();
   \   0000000C   ....               RJMP    ?Subroutine87
   1244          }

   \                                 In  segment CODE, align 2, keep-with-next
   \                     ?Subroutine1:
   \   00000000   2F60               MOV     R22, R16
   \   00000002                      REQUIRE ??Subroutine100_0
   \   00000002                      ;               // Fall through to label ??Subroutine100_0

   \                                 In  segment CODE, align 2, keep-with-next
   \                     ?Subroutine21:
   \   00000000   ....               RCALL   ?Subroutine62
   \                     ??CrossCallReturnLabel_203:
   \   00000002   8102               LDD     R16, Z+2
   \   00000004   1706               CP      R16, R22
   \   00000006   9508               RET

   \                                 In  segment CODE, align 2, keep-with-next
   \                     ?Subroutine62:
   \   00000000   2F02               MOV     R16, R18
   \   00000002                      REQUIRE ??Subroutine101_0
   \   00000002                      ;               // Fall through to label ??Subroutine101_0

   \                                 In  segment CODE, align 2, keep-with-next
   \                     ??Subroutine101_0:
   \   00000000   E010               LDI     R17, 0
   \   00000002   ....               RCALL   ?Subroutine72
   \                     ??CrossCallReturnLabel_205:
   \   00000004   ....               LDI     R30, LOW(??m_axAlarmWindowControl)
   \   00000006   ....               LDI     R31, (??m_axAlarmWindowControl) >> 8
   \   00000008   0FE0               ADD     R30, R16
   \   0000000A   1FF1               ADC     R31, R17
   \   0000000C   9508               RET

   \                                 In  segment CODE, align 2, keep-with-next
   \                     ?Subroutine72:
   \   00000000   E050               LDI     R21, 0
   \   00000002   ....               RJMP    ?Subroutine90
   1245          
   1246          //-----------------------------------------------------------------------------------------------------

   \                                 In  segment CODE, align 2, keep-with-next
   1247          void CPss21::ActiveAlarmWindowOff(uint8_t uiAlarmType)
   \                     ??ActiveAlarmWindowOff:
   1248          {
   \   00000000   ....               RCALL   ?Subroutine1
   1249              for (uint8_t i = 0;
   1250                      i < ALARM_WINDOWS_NUMBER;
   1251                      i++)
   1252              {
   1253                  //        ?
   1254                  if (m_axAlarmWindowControl[i].GetAlarmType() == uiAlarmType)
   \                     ??CrossCallReturnLabel_192:
   \   00000002   ....               RCALL   ?Subroutine21
   \                     ??CrossCallReturnLabel_13:
   \   00000004   F011               BREQ    ??ActiveAlarmWindowOff_1
   1255                  {
   1256                      //   ,    .
   1257                      m_axAlarmWindowControl[i].SetActivityState(0);
   1258                  }
   1259                  else if (m_axAlarmWindowControl[i].GetAlarmType() == NORMAL)
   \   00000006   2300               TST     R16
   \   00000008   F409               BRNE    ??ActiveAlarmWindowOff_2
   1260                  {
   1261                      //   ,    .
   1262                      m_axAlarmWindowControl[i].SetActivityState(0);
   \                     ??ActiveAlarmWindowOff_1:
   \   0000000A   8350               ST      Z, R21
   1263                  }
   1264          
   1265          //        CPss21::m_aucRtuHoldingRegistersArray[i] = m_axAlarmWindowControl[i].GetActivityState();
   1266              };
   \                     ??ActiveAlarmWindowOff_2:
   \   0000000C   ....               RCALL   ?Subroutine30
   \                     ??CrossCallReturnLabel_22:
   \   0000000E   F7C9               BRNE    ??CrossCallReturnLabel_192
   1267          
   1268              BoardWindowsUpdate();
   \   00000010                      REQUIRE ?Subroutine87
   \   00000010                      ;               // Fall through to label ?Subroutine87
   1269          }
   1270          
   1271          //-----------------------------------------------------------------------------------------------------

   \                                 In  segment CODE, align 2, keep-with-next
   1272          void CPss21::AllAlarmWindowOn(uint8_t uiAlarmType)
   \                     ??AllAlarmWindowOn:
   1273          {
   \   00000000   ....               RCALL   ?Subroutine1
   1274          //    CAlarmWindow axAlarmWindowControl[ALARM_WINDOWS_NUMBER];
   1275          
   1276              for (uint8_t i = 0;
   1277                      i < ALARM_WINDOWS_NUMBER;
   1278                      i++)
   1279              {
   1280                  //   ,   .
   1281                  m_axAlarmWindowControl[i].SetAlarmType(uiAlarmType);
   \                     ??CrossCallReturnLabel_193:
   \   00000002   ....               RCALL   ?Subroutine62
   \                     ??CrossCallReturnLabel_201:
   \   00000004   8362               STD     Z+2, R22
   1282                  //   ,   .
   1283                  m_axAlarmWindowControl[i].SetActivityState(1);
   \   00000006   ....               RCALL   ?Subroutine27
   1284              };
   \                     ??CrossCallReturnLabel_17:
   \   00000008   ....               RCALL   ?Subroutine30
   \                     ??CrossCallReturnLabel_23:
   \   0000000A   F7D9               BRNE    ??CrossCallReturnLabel_193
   1285          
   1286              BoardWindowsUpdate();
   \   0000000C   ....               RJMP    ?Subroutine87
   1287          }
   1288          
   1289          //-----------------------------------------------------------------------------------------------------

   \                                 In  segment CODE, align 2, keep-with-next
   1290          void CPss21::ErrorWindowOn(uint8_t uiIndex)
   \                     ??ErrorWindowOn:
   1291          {
   \   00000000   ....               RCALL   ?Subroutine1
   1292              //    - .
   1293              for (uint8_t i = 0;
   1294                      i < ALARM_WINDOWS_NUMBER;
   1295                      i++)
   1296              {
   1297                  if (m_auiErrorLedOn[i])
   \                     ??CrossCallReturnLabel_194:
   \   00000002   2FE2               MOV     R30, R18
   \   00000004   E0F0               LDI     R31, 0
   \   00000006   ....               SUBI    R30, LOW((-(??m_auiErrorLedOn) & 0xFFFF))
   \   00000008   ....               SBCI    R31, (-(??m_auiErrorLedOn) & 0xFFFF) >> 8
   \   0000000A   9104               LPM     R16, Z
   \   0000000C   2300               TST     R16
   \   0000000E   F021               BREQ    ??ErrorWindowOn_1
   1298                  {
   1299                      //   ,   .
   1300                      m_axAlarmWindowControl[i].SetAlarmType(INDICATION);
   \   00000010   ....               RCALL   ?Subroutine62
   \                     ??CrossCallReturnLabel_202:
   \   00000012   E001               LDI     R16, 1
   \   00000014   8302               STD     Z+2, R16
   1301                      m_axAlarmWindowControl[i].SetActivityState(1);
   \   00000016   8300               ST      Z, R16
   1302                  }
   1303              };
   \                     ??ErrorWindowOn_1:
   \   00000018   ....               RCALL   ?Subroutine30
   \                     ??CrossCallReturnLabel_24:
   \   0000001A   F799               BRNE    ??CrossCallReturnLabel_194
   1304          
   1305              if (uiIndex < ALARM_WINDOWS_NUMBER)
   \   0000001C   3360               CPI     R22, 48
   \   0000001E   F410               BRCC    ??CrossCallReturnLabel_11
   1306              {
   1307                  m_axAlarmWindowControl[uiIndex].SetAlarmType(NORMAL);
   \   00000020   2F06               MOV     R16, R22
   \   00000022   ....               RCALL   ?Subroutine20
   1308                  m_axAlarmWindowControl[uiIndex].SetActivityState(0);
   1309              }
   1310          
   1311              BoardWindowsUpdate();
   \                     ??CrossCallReturnLabel_11:
   \   00000024   ....               RJMP    ?Subroutine87
   1312          }

   \                                 In  segment CODE, align 2, keep-with-next
   \                     ?Subroutine20:
   \   00000000   ....               RCALL   ??Subroutine101_0
   \                     ??CrossCallReturnLabel_198:
   \   00000002   8352               STD     Z+2, R21
   \   00000004   8350               ST      Z, R21
   \   00000006   9508               RET
   1313          
   1314          //-----------------------------------------------------------------------------------------------------

   \                                 In  segment CODE, align 2, keep-with-next
   1315          void CPss21::AllAlarmWindowOff(void)
   \                     ??AllAlarmWindowOff:
   1316          {
   1317              for (uint8_t i = 0;
   \   00000000   ....               RCALL   ??Subroutine100_0
   1318                      i < ALARM_WINDOWS_NUMBER;
   1319                      i++)
   1320              {
   1321                  //   ,    .
   1322                  m_axAlarmWindowControl[i].SetAlarmType(NORMAL);
   \                     ??CrossCallReturnLabel_195:
   \   00000002   2F02               MOV     R16, R18
   \   00000004   ....               RCALL   ?Subroutine20
   1323                  //   ,    .
   1324                  m_axAlarmWindowControl[i].SetActivityState(0);
   1325              };
   \                     ??CrossCallReturnLabel_10:
   \   00000006   ....               RCALL   ?Subroutine30
   \                     ??CrossCallReturnLabel_18:
   \   00000008   F7E1               BRNE    ??CrossCallReturnLabel_195
   1326          
   1327              BoardWindowsUpdate();
   \   0000000A   ....               RJMP    ?Subroutine87
   1328          }
   1329          
   1330          //-----------------------------------------------------------------------------------------------------

   \                                 In  segment CODE, align 2, keep-with-next
   1331          void CPss21::TestMainCycle(void)
   \                     ??TestMainCycle:
   1332          {
   1333              CPss21::m_xModbusRtuOne.Fsm();
   \   00000000   ....               RCALL   ?Subroutine7
   1334          
   1335              CPss21::KeyStateProcessing();
   1336          
   1337              NotifyersControlProcessing();
   1338          
   1339              CPss21::ReceiptResetGlobalFlagsClear();
   \                     ??CrossCallReturnLabel_0:
   \   00000002                      REQUIRE ?Subroutine78
   \   00000002                      ;               // Fall through to label ?Subroutine78
   1340          
   1341              CPlatform::WatchdogReset();
   1342          }

   \                                 In  segment CODE, align 2, keep-with-next
   \                     ?Subroutine78:
   \   00000000   ....               RCALL   ?Subroutine52
   \                     ??CrossCallReturnLabel_112:
   \   00000002                      REQUIRE ??Subroutine102_0
   \   00000002                      ;               // Fall through to label ??Subroutine102_0

   \                                 In  segment CODE, align 2, keep-with-next
   \                     ??Subroutine102_0:
   \   00000000   95A8               WDR
   \   00000002   9508               RET

   \                                 In  segment CODE, align 2, keep-with-next
   \                     ?Subroutine52:
   \   00000000   ....               RJMP    ??ReceiptResetGlobalFlagsClear

   \                                 In  segment CODE, align 2, keep-with-next
   \                     ?Subroutine56:
   \   00000000   ....               LDI     R16, LOW(??m_xModbusRtuOne)
   \   00000002   ....               LDI     R17, (??m_xModbusRtuOne) >> 8
   \   00000004   ........           JMP     ??Fsm_1

   \                                 In  segment CODE, align 2, keep-with-next
   \                     ?Subroutine7:
   \   00000000   ....               RCALL   ?Subroutine56
   \                     ??CrossCallReturnLabel_60:
   \   00000002   ....               RJMP    ?Subroutine70

   \                                 In  segment CODE, align 2, keep-with-next
   \                     ?Subroutine70:
   \   00000000   ....               RCALL   ??KeyStateProcessing
   \   00000002   ....               RJMP    ??NotifyersControlProcessing
   1343          
   1344          //-----------------------------------------------------------------------------------------------------

   \                                 In  segment CODE, align 2, keep-with-next
   1345          void CPss21::ErrorMainCycle(void)
   \                     ??ErrorMainCycle:
   1346          {
   1347              CPss21::m_xModbusRtuOne.Fsm();
   \   00000000   ....               RCALL   ?Subroutine56
   1348          
   1349              CPss21::KeyStateProcessing();
   \                     ??CrossCallReturnLabel_61:
   \   00000002   ....               RCALL   ??KeyStateProcessing
   1350          
   1351              //   - ""?
   1352              if ((GetPanelReceipt()) ||
   1353                      (GetExternalReceipt()) ||
   1354                      (GetModbusReceipt()))
   \   00000004   ....               RCALL   ?Subroutine65
   \                     ??CrossCallReturnLabel_71:
   \   00000006   A903               LDD     R16, Z+51
   \   00000008   2300               TST     R16
   \   0000000A   F431               BRNE    ??ErrorMainCycle_1
   \   0000000C   A905               LDD     R16, Z+53
   \   0000000E   2300               TST     R16
   \   00000010   F419               BRNE    ??ErrorMainCycle_1
   \   00000012   A907               LDD     R16, Z+55
   \   00000014   2300               TST     R16
   \   00000016   F021               BREQ    ??CrossCallReturnLabel_217
   1355              {
   1356          //        m_xPreventiveAlarmWindowNotifyerControl.AlarmSet(INDICATION);
   1357          //        m_xEmergencyAlarmWindowNotifyerControl.AlarmSet(INDICATION);
   1358                  m_xStatusLedNotifyerControl.AlarmSet(NORMAL);
   \                     ??ErrorMainCycle_1:
   \   00000018   E020               LDI     R18, 0
   \   0000001A   ....               RCALL   ?Subroutine59
   1359                  m_xBuzzerNotifyerControl.AlarmSet(NORMAL);
   \                     ??CrossCallReturnLabel_212:
   \   0000001C   E020               LDI     R18, 0
   \   0000001E   ....               RCALL   ?Subroutine60
   1360              }
   1361          
   1362              NotifyersControlProcessing();
   \                     ??CrossCallReturnLabel_217:
   \   00000020   ....               RCALL   ??NotifyersControlProcessing
   1363          
   1364              CPss21::ReceiptResetGlobalFlagsClear();
   \   00000022   ....               RJMP    ?Subroutine78
   1365          
   1366              CPlatform::WatchdogReset();
   1367          }
   1368          
   1369          //-----------------------------------------------------------------------------------------------------

   \                                 In  segment CODE, align 2, keep-with-next
   1370          void CPss21::LinkControlErrorMainCycle(void)
   \                     ??LinkControlErrorMainCycle:
   1371          {
   1372              CPss21::m_xModbusRtuOne.Fsm();
   \   00000000   ....               RCALL   ?Subroutine5
   1373              CPss21::m_xModbusRtuLinkControl.Fsm();
   1374          
   1375              CPss21::KeyStateProcessing();
   1376          
   1377              NotifyersControlProcessing();
   1378          
   1379              CPss21::ReceiptResetGlobalFlagsClear();
   \                     ??CrossCallReturnLabel_81:
   \   00000002   ....               RCALL   ?Subroutine52
   1380          
   1381              CDataStore::Fsm();
   \                     ??CrossCallReturnLabel_111:
   \   00000004   ....               RCALL   ?Subroutine55
   1382          
   1383              CPlatform::WatchdogReset();
   \                     ??CrossCallReturnLabel_58:
   \   00000006   ....               RJMP    ??Subroutine102_0
   1384          }

   \                                 In  segment CODE, align 2, keep-with-next
   \                     ?Subroutine55:
   \   00000000   ........           JMP     ??Fsm_3

   \                                 In  segment CODE, align 2, keep-with-next
   \                     ?Subroutine5:
   \   00000000   ....               RCALL   ?Subroutine56
   \                     ??CrossCallReturnLabel_59:
   \   00000002   ....               LDI     R16, LOW((??m_xDeviceConfigSearch + 29))
   \   00000004   ....               LDI     R17, HIGH((??m_xDeviceConfigSearch + 29))
   \   00000006   ........           CALL    ??Fsm_2
   \   0000000A                      REQUIRE ?Subroutine70
   \   0000000A                      ;               // Fall through to label ?Subroutine70
   1385          
   1386          //-----------------------------------------------------------------------------------------------------

   \                                 In  segment CODE, align 2, keep-with-next
   1387          void CPss21::MainFsm(void)
   \                     ??MainFsm:
   1388          {
   \   00000000   9100....           LDS     R16, (??m_xDeviceConfigSearch + 50)
   \   00000004   ....               LDI     R30, LOW(`?<Jumptable for MainFsm>_0`)
   \   00000006   ....               LDI     R31, (`?<Jumptable for MainFsm>_0`) >> 16
   \   00000008   BFFB               OUT     0x3B, R31
   \   0000000A   ....               LDI     R31, HIGH(`?<Jumptable for MainFsm>_0`)
   \   0000000C   ........           JMP     ?CV_SWITCH_L06
   1389              switch (GetFsmState())
   1390              {
   1391              case START:
   1392                  CPlatform::WatchdogEnable();
   \                     ??MainFsm_1:
   \   00000010   95A8               WDR
   \   00000012   B501               IN      R16, 0x21
   \   00000014   6108               ORI     R16, 0x18
   \   00000016   BD01               OUT     0x21, R16
   \   00000018   B501               IN      R16, 0x21
   \   0000001A   6007               ORI     R16, 0x07
   \   0000001C   BD01               OUT     0x21, R16
   1393                  CPlatform::Init();
   \   0000001E   ........           CALL    ??Init_3
   1394                  CPss21::Init();
   \   00000022   ....               RCALL   ??Init
   1395                  CBuzzer::Init();
   \   00000024   ........           CALL    ??Init_4
   1396                  if (!(CDataBase::Check()))
   \   00000028   ........           CALL    ??Check
   \   0000002C   2300               TST     R16
   \   0000002E   F171               BREQ    ??MainFsm_2
   1397                  {
   1398                      SetFsmState(ERROR_START);
   1399                  }
   1400                  else
   1401                  {
   1402                      CPss21::ConfigurationInit();
   \   00000030   ....               RCALL   ??ConfigurationInit
   1403                      CPss21::ModbusInit();
   \   00000032   ....               RCALL   ??ModbusInit
   1404                      CSpi::Init();
   \   00000034   ........           CALL    ??Init_5
   1405                      CPss21::AddressBusInit();
   \   00000038   ....               RCALL   ??AddressBusInit
   1406                      CPss21::SearchModules();
   \   0000003A   ....               RCALL   ??SearchModules
   1407                      CPss21::CreateDevices();
   \   0000003C   ....               RCALL   ??CreateDevices
   1408                      m_xBuzzerNotifyerControl.AlarmSet(BEEP_SIGNAL);
   \   0000003E   ....               RCALL   ??Subroutine97_0
   1409                      SetFsmState(MAIN_CYCLE_START_WAITING);
   \                     ??CrossCallReturnLabel_177:
   \   00000040   C02D               RJMP    ??CrossCallReturnLabel_110
   1410                  }
   1411                  break;
   1412          
   1413              case RESTART:
   1414                  break;
   1415          
   1416              case MAIN_CYCLE_START_WAITING:
   1417                  CPss21::m_xModbusRtuOne.Fsm();
   \                     ??MainFsm_3:
   \   00000042   ....               RCALL   ?Subroutine7
   1418          
   1419                  CPss21::KeyStateProcessing();
   1420          
   1421                  NotifyersControlProcessing();
   1422          
   1423                  CDataStore::Fsm();
   \                     ??CrossCallReturnLabel_1:
   \   00000044   ....               RCALL   ?Subroutine9
   1424          
   1425                  if (CPss21::m_xMainCycleTimer.IsOverflow())
   \                     ??CrossCallReturnLabel_218:
   \   00000046   F409               BRNE    $+2+2
   \   00000048   C057               RJMP    ??CrossCallReturnLabel_56
   1426                  {
   1427                      CPss21::m_xMainCycleTimer.Reset();
   \   0000004A   ....               RCALL   ?Subroutine61
   \                     ??CrossCallReturnLabel_229:
   \   0000004C   ........           CALL    ??Reset
   1428                      CPlatform::WatchdogReset();
   \   00000050   95A8               WDR
   1429                      SetModuleIndex(0);
   \   00000052   E000               LDI     R16, 0
   \   00000054   9300....           STS     (??m_xDeviceConfigSearch + 60), R16
   1430                      SetFsmState(MAIN_CYCLE_MODULES_INTERACTION);
   \   00000058   E003               LDI     R16, 3
   \   0000005A   C019               RJMP    ??MainFsm_4
   1431                  }
   1432          
   1433                  break;
   1434          
   1435              case MAIN_CYCLE_MODULES_INTERACTION:
   1436                  CPss21::m_xModbusRtuOne.Fsm();
   \                     ??MainFsm_5:
   \   0000005C   ....               RCALL   ?Subroutine5
   1437                  CPss21::m_xModbusRtuLinkControl.Fsm();
   1438          
   1439                  CPss21::KeyStateProcessing();
   1440          
   1441                  NotifyersControlProcessing();
   1442          
   1443                  CDataStore::Fsm();
   \                     ??CrossCallReturnLabel_82:
   \   0000005E   ....               RCALL   ?Subroutine55
   1444          
   1445                  if (CPss21::ModulesInteraction(GetModuleIndex()))
   \                     ??CrossCallReturnLabel_57:
   \   00000060   9100....           LDS     R16, (??m_xDeviceConfigSearch + 60)
   \   00000064   ....               RCALL   ??ModulesInteraction
   \   00000066   2300               TST     R16
   \   00000068   F019               BREQ    ??MainFsm_6
   1446                  {
   1447                      SetFsmState(MAIN_CYCLE_DISCRETE_SIGNALS_PROCESSING);
   \   0000006A   E004               LDI     R16, 4
   \   0000006C   ....               RCALL   ??Subroutine96_0
   1448                  }
   \                     ??CrossCallReturnLabel_166:
   \   0000006E   C005               RJMP    ??MainFsm_7
   1449                  else
   1450                  {
   1451                      SetModuleIndex(GetModuleIndex() + 1);
   \                     ??MainFsm_6:
   \   00000070   ....               LDI     R30, LOW((??m_xDeviceConfigSearch + 60))
   \   00000072   ....               LDI     R31, HIGH((??m_xDeviceConfigSearch + 60))
   \   00000074   8100               LD      R16, Z
   \   00000076   9503               INC     R16
   \   00000078   8300               ST      Z, R16
   1452                  }
   1453          
   1454                  switch (GetErrorCode())
   \                     ??MainFsm_7:
   \   0000007A   9100....           LDS     R16, (??m_xDeviceConfigSearch + 59)
   \   0000007E   5003               SUBI    R16, 3
   \   00000080   F029               BREQ    ??MainFsm_2
   \   00000082   950A               DEC     R16
   \   00000084   F019               BREQ    ??MainFsm_2
   \   00000086   950A               DEC     R16
   \   00000088   F019               BREQ    ??MainFsm_8
   \   0000008A   9508               RET
   1455                  {
   1456          //        case IMD_ERROR:
   1457          //        case OMD_ERROR:
   1458                  case CFG_ERROR:
   1459                  case DB_ERROR:
   1460                      SetFsmState(ERROR_START);
   \                     ??MainFsm_2:
   \   0000008C   E008               LDI     R16, 8
   \                     ??MainFsm_4:
   \   0000008E   ....               RJMP    ??Subroutine96_0
   1461                      break;
   1462          
   1463                  case MBS_ERROR:
   1464                      SetFsmState(LINK_CONTROL_ERROR_START);
   \                     ??MainFsm_8:
   \   00000090   E00A               LDI     R16, 10
   \   00000092   CFFD               RJMP    ??MainFsm_4
   1465                      break;
   1466          
   1467                  default:
   1468                      break;
   1469                  }
   1470                  break;
   1471          
   1472              case MAIN_CYCLE_DISCRETE_SIGNALS_PROCESSING:
   1473                  CPss21::DiscreteSignalsProcessing();
   \                     ??MainFsm_9:
   \   00000094   ....               RCALL   ??DiscreteSignalsProcessing
   1474                  SetFsmState(MAIN_CYCLE_END);
   \   00000096   E005               LDI     R16, 5
   \   00000098   CFFA               RJMP    ??MainFsm_4
   1475                  break;
   1476          
   1477              case MAIN_CYCLE_END:
   1478                  CPss21::ReceiptResetGlobalFlagsClear();
   \                     ??MainFsm_10:
   \   0000009A   ....               RCALL   ?Subroutine52
   1479                  SetFsmState(MAIN_CYCLE_START_WAITING);
   \                     ??CrossCallReturnLabel_110:
   \   0000009C   E002               LDI     R16, 2
   \   0000009E   CFF7               RJMP    ??MainFsm_4
   1480                  break;
   1481          
   1482          //-----------------------------------------------------------------------------------------------------
   1483              case TEST_START:
   1484                  SaveContextNotifyerControl();
   \                     ??MainFsm_11:
   \   000000A0   ....               RCALL   ??SaveContextNotifyerControl
   1485                  AlarmTypeSet(PREVENTIVE);
   \   000000A2   E002               LDI     R16, 2
   \   000000A4   ....               RCALL   ?Subroutine92
   1486                  CPss21::AllAlarmWindowOn(PREVENTIVE);
   \                     ??CrossCallReturnLabel_139:
   \   000000A6   E002               LDI     R16, 2
   \   000000A8   ....               RCALL   ??AllAlarmWindowOn
   1487                  CPss21::m_xMainCycleTimer.Set(TEST_ON_TIME());
   \   000000AA   E828               LDI     R18, 136
   \   000000AC   E133               LDI     R19, 19
   \   000000AE   ....               RCALL   ??Subroutine105_0
   1488                  SetFsmState(TEST_ON);
   \                     ??CrossCallReturnLabel_225:
   \   000000B0   E007               LDI     R16, 7
   \   000000B2   C009               RJMP    ??MainFsm_12
   1489          
   1490                  CPlatform::WatchdogReset();
   1491                  break;
   1492          
   1493              case TEST_ON:
   1494                  if (CPss21::m_xMainCycleTimer.IsOverflow())
   \                     ??MainFsm_13:
   \   000000B4   ....               RCALL   ??Subroutine104_0
   \                     ??CrossCallReturnLabel_220:
   \   000000B6   F019               BREQ    ??CrossCallReturnLabel_167
   1495                  {
   1496                      CPss21::AllAlarmWindowOff();
   \   000000B8   ....               RCALL   ?Subroutine6
   1497                      RestoreContextNotifyerControl();
   1498                      CPss21::m_xMainCycleTimer.Set(MAIN_CYCLE_PERIOD_TIME);
   1499                      SetFsmState(MAIN_CYCLE_START_WAITING);
   \                     ??CrossCallReturnLabel_227:
   \   000000BA   E002               LDI     R16, 2
   \   000000BC   ....               RCALL   ??Subroutine96_0
   1500                  }
   1501          
   1502                  TestMainCycle();
   \                     ??CrossCallReturnLabel_167:
   \   000000BE   ....               RJMP    ??TestMainCycle
   1503                  break;
   1504          
   1505          //-----------------------------------------------------------------------------------------------------
   1506              case ERROR_START:
   1507                  //   Modbus     .
   1508                  ModbusDefaultInit();
   \                     ??MainFsm_14:
   \   000000C0   ....               RCALL   ??ModbusDefaultInit
   1509                  ErrorWindowOn(GetErrorCode() - 1);
   \   000000C2   ....               RCALL   ?Subroutine14
   1510                  SetErrorCode(0);
   1511          
   1512                  m_xPreventiveAlarmWindowNotifyerControl.AlarmSet(INDICATION);
   1513                  m_xEmergencyAlarmWindowNotifyerControl.AlarmSet(INDICATION);
   1514                  m_xStatusLedNotifyerControl.AlarmSet(ERROR);
   1515                  m_xBuzzerNotifyerControl.AlarmSet(ERROR);
   1516          
   1517                  SetFsmState(ERROR_ON);
   \                     ??CrossCallReturnLabel_213:
   \   000000C4   E009               LDI     R16, 9
   \                     ??MainFsm_12:
   \   000000C6   ....               RCALL   ??Subroutine96_0
   1518          
   1519                  CPlatform::WatchdogReset();
   \                     ??CrossCallReturnLabel_168:
   \   000000C8   ....               RJMP    ??Subroutine102_0
   1520                  break;
   1521          
   1522              case ERROR_ON:
   1523                  ErrorMainCycle();
   \                     ??MainFsm_15:
   \   000000CA   ....               RJMP    ??ErrorMainCycle
   1524                  break;
   1525          
   1526          //-----------------------------------------------------------------------------------------------------
   1527              case LINK_CONTROL_ERROR_START:
   1528                  SaveContextNotifyerControl();
   \                     ??MainFsm_16:
   \   000000CC   ....               RCALL   ??SaveContextNotifyerControl
   1529                  ErrorWindowOn(GetErrorCode() - 1);
   \   000000CE   ....               RCALL   ?Subroutine14
   1530                  SetErrorCode(0);
   1531          
   1532                  m_xPreventiveAlarmWindowNotifyerControl.AlarmSet(INDICATION);
   1533                  m_xEmergencyAlarmWindowNotifyerControl.AlarmSet(INDICATION);
   1534                  m_xStatusLedNotifyerControl.AlarmSet(ERROR);
   1535                  m_xBuzzerNotifyerControl.AlarmSet(ERROR);
   1536          
   1537                  CPlatform::WatchdogReset();
   \                     ??CrossCallReturnLabel_214:
   \   000000D0   95A8               WDR
   1538                  SetFsmState(LINK_CONTROL_ERROR_ON);
   \   000000D2   E00B               LDI     R16, 11
   \   000000D4   CFDC               RJMP    ??MainFsm_4
   1539                  break;
   1540          
   1541              case LINK_CONTROL_ERROR_ON:
   1542                  LinkControlErrorMainCycle();
   \                     ??MainFsm_17:
   \   000000D6   ....               RJMP    ??LinkControlErrorMainCycle
   1543                  break;
   1544          
   1545              case LINK_CONTROL_ERROR_OFF:
   1546                  CPss21::AllAlarmWindowOff();
   \                     ??MainFsm_18:
   \   000000D8   ....               RCALL   ?Subroutine6
   1547                  RestoreContextNotifyerControl();
   1548                  CPss21::m_xMainCycleTimer.Set(MAIN_CYCLE_PERIOD_TIME);
   1549          
   1550                  CPlatform::WatchdogReset();
   \                     ??CrossCallReturnLabel_226:
   \   000000DA   95A8               WDR
   1551                  SetFsmState(MAIN_CYCLE_START_WAITING);
   \   000000DC   CFDF               RJMP    ??CrossCallReturnLabel_110
   1552                  break;
   1553          
   1554          //-----------------------------------------------------------------------------------------------------
   1555              case PROGRAMMING_START:
   1556                  //        
   1557                  //  "PROGRAMMING_TIME + WDTO_2S",    .
   1558                  CPss21::m_xMainCycleTimer.Set(PROGRAMMING_TIME);
   \                     ??MainFsm_19:
   \   000000DE   EE28               LDI     R18, 232
   \   000000E0   E033               LDI     R19, 3
   \   000000E2   ....               RCALL   ??Subroutine105_0
   1559                  SetFsmState(PROGRAMMING_ON);
   \                     ??CrossCallReturnLabel_224:
   \   000000E4   E00E               LDI     R16, 14
   \   000000E6   CFEF               RJMP    ??MainFsm_12
   1560          
   1561                  CPlatform::WatchdogReset();
   1562                  break;
   1563          
   1564              case PROGRAMMING_ON:
   1565                  CPss21::m_xModbusRtuOne.Fsm();
   \                     ??MainFsm_20:
   \   000000E8   ....               RCALL   ?Subroutine56
   1566          
   1567                  CDataStore::Fsm();
   \                     ??CrossCallReturnLabel_62:
   \   000000EA   ....               RCALL   ?Subroutine9
   1568          
   1569                  if (CPss21::m_xMainCycleTimer.IsOverflow())
   \                     ??CrossCallReturnLabel_219:
   \   000000EC   F369               BREQ    ??CrossCallReturnLabel_168
   1570                  {
   1571                      SetFsmState(REBOOT);
   \   000000EE   E00F               LDI     R16, 15
   \   000000F0   ....               RCALL   ??Subroutine96_0
   1572                  }
   1573          
   1574                  CPlatform::WatchdogReset();
   \                     ??CrossCallReturnLabel_169:
   \   000000F2   CFEA               RJMP    ??CrossCallReturnLabel_168
   1575                  break;
   1576          
   1577              case REBOOT:
   1578                  //  "WDTO_2S" - ,    .
   1579                  CPss21::m_xModbusRtuOne.Fsm();
   \                     ??MainFsm_21:
   \   000000F4   ....               RCALL   ?Subroutine56
   1580          
   1581                  CDataStore::Fsm();
   \                     ??CrossCallReturnLabel_63:
   \   000000F6   ....               RCALL   ?Subroutine55
   1582                  break;
   1583          
   1584          //-----------------------------------------------------------------------------------------------------
   1585              default:
   1586                  break;
   1587              }
   1588          }
   \                     ??CrossCallReturnLabel_56:
   \   000000F8   9508               RET
   \   000000FA                      REQUIRE _A_WDTCR

   \                                 In  segment CODE, align 2, keep-with-next
   \                     ?Subroutine14:
   \   00000000   9100....           LDS     R16, (??m_xDeviceConfigSearch + 59)
   \   00000004   950A               DEC     R16
   \   00000006   ....               RCALL   ??ErrorWindowOn
   \   00000008   E000               LDI     R16, 0
   \   0000000A   9300....           STS     (??m_xDeviceConfigSearch + 59), R16
   \   0000000E                      REQUIRE ?Subroutine60
   \   0000000E                      REQUIRE ??Subroutine103_0
   \   0000000E                      ;               // Fall through to label ??Subroutine103_0

   \                                 In  segment CODE, align 2, keep-with-next
   \                     ?Subroutine9:
   \   00000000   ........           CALL    ??Fsm_3
   \   00000004                      REQUIRE ??Subroutine104_0
   \   00000004                      ;               // Fall through to label ??Subroutine104_0

   \                                 In  segment CODE, align 2, keep-with-next
   \                     ??Subroutine104_0:
   \   00000000   ....               RCALL   ?Subroutine61
   \                     ??CrossCallReturnLabel_230:
   \   00000002   ........           CALL    ??IsOverflow
   \   00000006   ....               RJMP    ?Subroutine85

   \                                 In  segment CODE, align 2, keep-with-next
   \                     ?Subroutine61:
   \   00000000   ....               LDI     R16, LOW((??m_xDeviceConfigSearch + 139))
   \   00000002   ....               LDI     R17, HIGH((??m_xDeviceConfigSearch + 139))
   \   00000004   9508               RET

   \                                 In  segment CODE, align 2, keep-with-next
   \                     ?Subroutine6:
   \   00000000   ....               RCALL   ??AllAlarmWindowOff
   \   00000002   ....               RCALL   ??RestoreContextNotifyerControl
   \   00000004   E624               LDI     R18, 100
   \   00000006   E030               LDI     R19, 0
   \   00000008                      REQUIRE ??Subroutine105_0
   \   00000008                      ;               // Fall through to label ??Subroutine105_0

   \                                 In  segment CODE, align 2, keep-with-next
   \                     ??Subroutine105_0:
   \   00000000   ....               RCALL   ?Subroutine61
   \                     ??CrossCallReturnLabel_231:
   \   00000002   ........           JMP     ??Set_1

   \                                 In  segment CODE, align 2, keep-with-next
   \                     ?Subroutine73:
   \   00000000   ........           JMP     __record_needed_destruction

   \                                 In  segment NEAR_ID, align 1, keep-with-next, root
   \                     `?<Initializer for >`:
   \   00000000   ............       DC16 ?_1, ??m_xUart1, `?<Unnamed 0>`/2
   \                     `?<Initializer for >_1`:
   \   00000006   ............       DC16 ?_3, ??m_xModbusRtuOne, `?<Unnamed 1>`/2
   \                     `?<Initializer for >_2`:
   \   0000000C   ............       DC16 ?_5, ??m_xReceiptKey, `?<Unnamed 2>`/2
   \                     `?<Initializer for >_3`:
   \   00000012   ............       DC16 ?_7, ??m_xResetKey, `?<Unnamed 2>`/2
   \                     `?<Initializer for >_4`:
   \   00000018   ............       DC16 ?_9, ??m_xCheckKey, `?<Unnamed 2>`/2
   \                     `?<Initializer for >_5`:
   \   0000001E   ............       DC16 ?_11, ??m_xExternalKey, `?<Unnamed 2>`/2
   \                     `?<Initializer for >_6`:
   \   00000024   ............       DC16 ?_13, ??m_xEventUniteLogicAndOne, `?<Unnamed 3>`/2
   \                     `?<Initializer for >_7`:
   \   0000002A   ............       DC16 ?_15, ??m_xMainCycleTimer, `?<Unnamed 4>`/2
   \                     `?<Initializer for >_8`:
   \   00000030   ............       DC16 ?_17, ??m_xPreventiveAlarmWindowNotifyerControl, `?<Unnamed 5>`/2
   \                     `?<Initializer for >_9`:
   \   00000036   ............       DC16 ?_19, ??m_xEmergencyAlarmWindowNotifyerControl, `?<Unnamed 6>`/2
   \                     `?<Initializer for >_10`:
   \   0000003C   ............       DC16 ?_21, ??m_xStatusLedNotifyerControl, `?<Unnamed 7>`/2
   \                     `?<Initializer for >_11`:
   \   00000042   ............       DC16 ?_23, ??m_xBuzzerNotifyerControl, `?<Unnamed 8>`/2
   \                     `?<Initializer for >_12`:
   \   00000048   ............       DC16 ?_25, ??m_xModbusRtuLinkControl, `?<Unnamed 9>`/2
   \                     `?<Initializer for >_13`:
   \   0000004E   ....0000....       DC16 ?_27, 0H, `?<Unnamed 10>`/2

   \                                 In  segment DIFUNCT, align 1, keep-with-next, root
   \   00000000                      REQUIRE ?call_ctors
   \   00000000   ....               DW      ??__sti__routine/2

   \                                 In  segment SWITCH, align 2, keep-with-next
   \                     `?<Jumptable for MainFsm>_0`:
   \   00000000   00                 DB      0
   \   00000001   00                 DB      0
   \   00000002   ....               DW      (??CrossCallReturnLabel_56) /2
   \   00000004   0010               DW      16
   \   00000006   ....               DW      (??MainFsm_1) /2
   \   00000008   ....               DW      (??CrossCallReturnLabel_56) /2
   \   0000000A   ....               DW      (??MainFsm_3) /2
   \   0000000C   ....               DW      (??MainFsm_5) /2
   \   0000000E   ....               DW      (??MainFsm_9) /2
   \   00000010   ....               DW      (??MainFsm_10) /2
   \   00000012   ....               DW      (??MainFsm_11) /2
   \   00000014   ....               DW      (??MainFsm_13) /2
   \   00000016   ....               DW      (??MainFsm_14) /2
   \   00000018   ....               DW      (??MainFsm_15) /2
   \   0000001A   ....               DW      (??MainFsm_16) /2
   \   0000001C   ....               DW      (??MainFsm_17) /2
   \   0000001E   ....               DW      (??MainFsm_18) /2
   \   00000020   ....               DW      (??MainFsm_19) /2
   \   00000022   ....               DW      (??MainFsm_20) /2
   \   00000024   ....               DW      (??MainFsm_21) /2

   \                                 In  segment CODE, align 2, keep-with-next
   \                     `?<Unnamed 10>`:
   \   00000000   ....               LDI     R22, LOW(`?<Unnamed 11>`/2)
   \   00000002   ....               LDI     R23, (`?<Unnamed 11>`/2) >> 8
   \   00000004   ....               RCALL   ?Subroutine16
   \                     ??CrossCallReturnLabel_128:
   \   00000006   ........           JMP     __near_vec_destroy

   \                                 In  segment CODE, align 2, keep-with-next
   \                     ?Subroutine16:
   \   00000000   E046               LDI     R20, 6
   \   00000002   E050               LDI     R21, 0
   \   00000004   E320               LDI     R18, 48
   \   00000006   E030               LDI     R19, 0
   \   00000008                      REQUIRE ?Subroutine74
   \   00000008                      ;               // Fall through to label ?Subroutine74

   \                                 In  segment CODE, align 2, keep-with-next
   \                     ?Subroutine28:
   \   00000000   E012               LDI     R17, 2
   \   00000002   9F01               MUL     R16, R17
   \   00000004   ....               RCALL   ?Subroutine63
   \                     ??CrossCallReturnLabel_65:
   \   00000006   9698               ADIW    R27:R26, 40
   \   00000008                      REQUIRE ??Subroutine95_0
   \   00000008                      ;               // Fall through to label ??Subroutine95_0

   \                                 In  segment CODE, align 2, keep-with-next
   \                     ?Subroutine45:
   \   00000000   E012               LDI     R17, 2
   \   00000002   9F01               MUL     R16, R17
   \   00000004   01F0               MOVW    R31:R30, R1:R0
   \   00000006   ....               SUBI    R30, LOW((-(??m_xDeviceConfigSearch) & 0xFFFF))
   \   00000008   ....               SBCI    R31, (-(??m_xDeviceConfigSearch) & 0xFFFF) >> 8
   \   0000000A   A5A0               LDD     R26, Z+40
   \   0000000C   A5B1               LDD     R27, Z+41
   \   0000000E   9508               RET

   \                                 In  segment CODE, align 2, keep-with-next
   \                     ?Subroutine47:
   \   00000000   E006               LDI     R16, 6
   \   00000002                      REQUIRE ??Subroutine96_0
   \   00000002                      ;               // Fall through to label ??Subroutine96_0

   \                                 In  segment CODE, align 2, keep-with-next
   \                     ??Subroutine96_0:
   \   00000000   9300....           STS     (??m_xDeviceConfigSearch + 50), R16
   \   00000004   9508               RET
   1589          

   Maximum stack usage in bytes:

   CSTACK RSTACK Function
   ------ ------ --------
      0      2   <Unnamed 0>
        0      2   -> CUart::~CUart()
      0      2   <Unnamed 10>
        0      2   -> __near_vec_destroy
      0      2   <Unnamed 11>
        0      2   -> CAlarmWindow::~CAlarmWindow()
      0      2   <Unnamed 1>
        0      2   -> CModbusRTU::~CModbusRTU()
      0      2   <Unnamed 2>
        0      2   -> CMultiFunctionKey::~CMultiFunctionKey()
      0      2   <Unnamed 3>
        0      2   -> CEventUniteLogicAnd::~CEventUniteLogicAnd()
      0      2   <Unnamed 4>
        0      2   -> CTimer::~CTimer()
      0      2   <Unnamed 5>
        0      2   -> CPreventiveAlarmWindowNotifyerControl::~CPreventiveAlarmWindowNotifyerControl()
      0      2   <Unnamed 6>
        0      2   -> CEmergencyAlarmWindowNotifyerControl::~CEmergencyAlarmWindowNotifyerControl()
      0      2   <Unnamed 7>
        0      2   -> CStatusLedNotifyerControl::~CStatusLedNotifyerControl()
      0      2   <Unnamed 8>
        0      2   -> CBuzzerNotifyerControl::~CBuzzerNotifyerControl()
      0      2   <Unnamed 9>
        0      2   -> CModbusRtuLinkControl::~CModbusRtuLinkControl()
      0      2   CPlatform::ExternalKeyState()
      0      2   CPlatform::KeyOneState()
      0      2   CPlatform::KeyThreeState()
      0      2   CPlatform::KeyTwoState()
      0      2   CPss21::ActiveAlarmWindowOff(uint8_t)
        0      2   -> CLightBoard::Set(CAlarmWindow *)
        0      6 ?S_EC_MUL_L02
      0      2   CPss21::ActiveAlarmWindowOn(uint8_t)
        0      2   -> CLightBoard::Set(CAlarmWindow *)
        0      6 ?S_EC_MUL_L02
      0      2   CPss21::AddressBusInit()
      0      2   CPss21::AlarmTypeChange()
        0      2   -> CPss21::AlarmTypeSet(uint8_t)
      0      2   CPss21::AlarmTypeErrorChange()
        0      2   -> CBuzzerNotifyerControl::AlarmSet(uint8_t)
        0      4   -> CEmergencyAlarmWindowNotifyerControl::AlarmSet(uint8_t)
        0      4   -> CPreventiveAlarmWindowNotifyerControl::AlarmSet(uint8_t)
        0      4   -> CStatusLedNotifyerControl::AlarmSet(uint8_t)
      0      2   CPss21::AlarmTypeReceipt()
        0      2   -> CPss21::AlarmTypeSet(uint8_t)
      0      2   CPss21::AlarmTypeReset()
        0      2   -> CPss21::AlarmTypeSet(uint8_t)
      1      2   CPss21::AlarmTypeSet(uint8_t)
        1      2   -> CBuzzerNotifyerControl::AlarmSet(uint8_t)
        1      2   -> CEmergencyAlarmWindowNotifyerControl::AlarmSet(uint8_t)
        1      2   -> CPreventiveAlarmWindowNotifyerControl::AlarmSet(uint8_t)
        1      2   -> CStatusLedNotifyerControl::AlarmSet(uint8_t)
      2      2   CPss21::AlarmsProcessing()
        2      4   -- Indirect call
      0      2   CPss21::AllAlarmWindowOff()
        0      2   -> CLightBoard::Set(CAlarmWindow *)
        0      6 ?S_EC_MUL_L02
      0      2   CPss21::AllAlarmWindowOn(uint8_t)
        0      2   -> CLightBoard::Set(CAlarmWindow *)
        0      4 ?S_EC_MUL_L02
      0      2   CPss21::BoardWindowsUpdate()
        0      2   -> CLightBoard::Set(CAlarmWindow *)
      4      2   CPss21::ConfigurationInit()
        4      2   -> CDataBase::ReadBlock(uint8_t *, uint8_t)
        4      2   -> CEmergencyAlarmHighLevelDfa::new CEmergencyAlarmHighLevelDfa()
        4      2   -> CEmergencyAlarmLowLevelDfa::new CEmergencyAlarmLowLevelDfa()
        4      2   -> CErrorAlarmDfa::new CErrorAlarmDfa()
        4      2   -> CIndicationAlarmHighLevelDfa::new CIndicationAlarmHighLevelDfa()
        4      2   -> CIndicationAlarmLowLevelDfa::new CIndicationAlarmLowLevelDfa()
        4      2   -> CNormalAlarmDfa::new CNormalAlarmDfa()
        4      2   -> CPreventiveAlarmHighLevelDfa::new CPreventiveAlarmHighLevelDfa()
        4      2   -> CPreventiveAlarmLowLevelDfa::new CPreventiveAlarmLowLevelDfa()
        4      2   -> memcpy
        4      2   -> memset
        4      2 ?SS_SHR_L02
      0      2   CPss21::ConnectDevice(uint8_t)
        0      2   -> CSpi::Enable()
     27      2   CPss21::CreateDevices()
       27      4   -- Indirect call
       27      2   -> CModuleMrXXDriver::new CModuleMrXXDriver(uint8_t)
       27      2   -> CMvsn21Driver::new CMvsn21Driver(uint8_t)
       27      2   -> CPss21::InitAllocationContext(TMemoryAllocationConext &)
      0      2   CPss21::DestroyDevices(uint8_t)
      0      2   CPss21::DisconnectDevice()
        0      2   -> CSpi::Disable()
      0      2   CPss21::DiscreteOutputControlClear()
      4      2   CPss21::DiscreteOutputsSet(uint8_t *, uint8_t)
        4      4 ?S_SHL_L02
      0      2   CPss21::DiscreteSignalsProcessing()
        0      2   -> CPss21::AlarmsProcessing()
        0      2   -> CPss21::DiscreteOutputControlClear()
        0      2   -> CPss21::ErrorAlarmsProcessing()
      2      2   CPss21::ErrorAlarmsProcessing()
        2      4   -- Indirect call
      0      2   CPss21::ErrorMainCycle()
        0      2   -> CBuzzerNotifyerControl::AlarmSet(uint8_t)
        0      2   -> CModbusRTU::Fsm()
        0      2   -> CPss21::KeyStateProcessing()
        0      2   -> CPss21::NotifyersControlProcessing()
        0      2   -> CPss21::ReceiptResetGlobalFlagsClear()
        0      2   -> CStatusLedNotifyerControl::AlarmSet(uint8_t)
      0      2   CPss21::ErrorWindowOn(uint8_t)
        0      2   -> CLightBoard::Set(CAlarmWindow *)
        0      4 ?S_EC_MUL_L02
        0      6 ?S_EC_MUL_L02
      0      2   CPss21::GetDiscreteInputState(uint8_t)
      0      2   CPss21::GetErrorAlarmState(uint8_t)
      0      2   CPss21::GetTimeoutModbusRtuLinkControl()
        0      2 ?S_EC_MUL_L02
      0      2   CPss21::Init()
        0      2   -> CLightBoard::Init(CAlarmWindow *)
        0      2   -> CPss21::AllAlarmWindowOff()
        0      2   -> memset
      0      2   CPss21::InitAllocationContext(TMemoryAllocationConext &)
      1      2   CPss21::KeyStateProcessing()
        1      2   -> CBuzzerNotifyerControl::AlarmSet(uint8_t)
        1      2   -> CEventUniteLogicAnd::IsHappened(uint8_t, uint8_t)
        1      2   -> CMultiFunctionKey::KeyEventHappened(uint8_t)
        1      4   -> CMultiFunctionKey::KeyEventHappened(uint8_t)
        1      2   -> CPss21::ModbusDefaultInit()
        1      4   -> CPss21::SendToDevicesReceipt()
        1      2   -> CPss21::SendToDevicesReset()
      0      2   CPss21::LinkControlErrorMainCycle()
        0      2   -> CDataStore::Fsm()
        0      4   -> CModbusRTU::Fsm()
        0      4   -> CModbusRtuLinkControl::Fsm()
        0      4   -> CPss21::KeyStateProcessing()
        0      2   -> CPss21::NotifyersControlProcessing()
        0      2   -> CPss21::ReceiptResetGlobalFlagsClear()
      0      2   CPss21::MainFsm()
        0      2   -> CBuzzer::Init()
        0      2   -> CBuzzerNotifyerControl::AlarmSet(uint8_t)
        0      2   -> CDataBase::Check()
        0      2   -> CDataStore::Fsm()
        0      4   -> CDataStore::Fsm()
        0      4   -> CEmergencyAlarmWindowNotifyerControl::AlarmSet(uint8_t)
        0      2   -> CModbusRTU::Fsm()
        0      4   -> CModbusRTU::Fsm()
        0      4   -> CModbusRtuLinkControl::Fsm()
        0      2   -> CPlatform::Init()
        0      4   -> CPreventiveAlarmWindowNotifyerControl::AlarmSet(uint8_t)
        0      2   -> CPss21::AddressBusInit()
        0      2   -> CPss21::AlarmTypeSet(uint8_t)
        0      4   -> CPss21::AllAlarmWindowOff()
        0      2   -> CPss21::AllAlarmWindowOn(uint8_t)
        0      2   -> CPss21::ConfigurationInit()
        0      2   -> CPss21::CreateDevices()
        0      2   -> CPss21::DiscreteSignalsProcessing()
        0      2   -> CPss21::ErrorMainCycle()
        0      4   -> CPss21::ErrorWindowOn(uint8_t)
        0      2   -> CPss21::Init()
        0      4   -> CPss21::KeyStateProcessing()
        0      2   -> CPss21::LinkControlErrorMainCycle()
        0      2   -> CPss21::ModbusDefaultInit()
        0      2   -> CPss21::ModbusInit()
        0      2   -> CPss21::ModulesInteraction(uint8_t)
        0      2   -> CPss21::NotifyersControlProcessing()
        0      2   -> CPss21::ReceiptResetGlobalFlagsClear()
        0      4   -> CPss21::RestoreContextNotifyerControl()
        0      2   -> CPss21::SaveContextNotifyerControl()
        0      2   -> CPss21::SearchModules()
        0      2   -> CPss21::TestMainCycle()
        0      2   -> CSpi::Init()
        0      4   -> CStatusLedNotifyerControl::AlarmSet(uint8_t)
        0      4   -> CTimer::IsOverflow()
        0      2   -> CTimer::Reset()
        0      2   -> CTimer::Set(uint16_t)
        0      2 ?CV_SWITCH_L06
      0      2   CPss21::ModbusDefaultInit()
        0      2   -> CPss21::ModbusInit()
      0      2   CPss21::ModbusDeviceControl(uint8_t *, uint16_t, uint16_t)
        0      2   -> CPss21::SendToDevicesModbusReceipt()
        0      2   -> CPss21::SendToDevicesModbusReset()
        0      2   -> CPss21::SetBytesFromBits(uint8_t *, uint8_t *, uint16_t)
      1      2   CPss21::ModbusDeviceControl(uint8_t, uint16_t)
        1      2   -> CPss21::ModbusDeviceControl(uint8_t *, uint16_t, uint16_t)
     25      2   CPss21::ModbusInit()
        2      2   -> CModbus::SlaveSet(uint8_t)
        2      2   -> CModbusRTU::Init(CUart *, uint32_t, char, uint8_t, uint8_t, uint8_t *, uint8_t *, uint8_t *, uint8_t *, uint16_t *, uint16_t *, uint16_t, uint16_t, uint16_t, uint16_t)
       25      2 ?UL_DIVMOD_L03
       25      2 ?UL_SHR_L03
      0      2   CPss21::ModbusRtuLinkControlInProgress()
      0      2   CPss21::ModbusRtuLinkControlIsOn()
      2      2   CPss21::ModulesInteraction(uint8_t)
        2      2   -- Indirect call
      0      2   CPss21::NotifyersControlProcessing()
        0      2   -> CNotifyerControl::Fsm()
      0      2   CPss21::ReceiptResetGlobalFlagsClear()
      0      2   CPss21::ReportType(uint8_t *, uint16_t)
        0      4   -> CPss21::ConnectDevice(uint8_t)
        0      2   -> CPss21::DisconnectDevice()
        0      4   -> CSpi::Exchange(uint8_t *, uint8_t *, uint16_t)
        0      2   -> memset
      0      2   CPss21::RestoreContextNotifyerControl()
        0      2   -> CPss21::AlarmTypeSet(uint8_t)
        0      4 ?S_EC_MUL_L02
      0      2   CPss21::SaveContextNotifyerControl()
        0      4 ?S_EC_MUL_L02
      5      2   CPss21::SearchModules()
        5      4   -> CPss21::ConnectDevice(uint8_t)
        5      2   -> CPss21::DisconnectDevice()
        5      4   -> CSpi::Exchange(uint8_t *, uint8_t *, uint16_t)
        5      2   -> delay_ms(uint16_t)
        5      2   -> iCrcSummOneByteCompare(unsigned char *, unsigned int)
        5      2   -> memset
      0      2   CPss21::SendToDevicesModbusReceipt()
      0      2   CPss21::SendToDevicesModbusReset()
      0      2   CPss21::SendToDevicesReceipt()
      0      2   CPss21::SendToDevicesReset()
      0      2   CPss21::SetAlarmWindowType(uint8_t, uint8_t)
        0      2 ?S_EC_MUL_L02
      4      2   CPss21::SetBytesFromBits(uint8_t *, uint8_t *, uint16_t)
        4      2 ?SS_DIVMOD_L02
        4      2 ?S_SHL_L02
        4      4 ?S_SHL_L02
      0      2   CPss21::SetErrorAlarmState(uint8_t, uint8_t)
      0      2   CPss21::SetModeModbusRtuLinkControlInProgress(bool)
        0      2   -> CDataBase::SignatureCreate()
        0      2   -> CDataBase::WriteBlock(uint8_t *, uint8_t)
      0      2   CPss21::TestMainCycle()
        0      4   -> CModbusRTU::Fsm()
        0      4   -> CPss21::KeyStateProcessing()
        0      2   -> CPss21::NotifyersControlProcessing()
        0      2   -> CPss21::ReceiptResetGlobalFlagsClear()
     12      2   __sti__routine()
        0      2   -> CBuzzerNotifyerControl::CBuzzerNotifyerControl()
        0      2   -> CEmergencyAlarmWindowNotifyerControl::CEmergencyAlarmWindowNotifyerControl()
        0      2   -> CEventUniteLogicAnd::CEventUniteLogicAnd(uint16_t)
        0      2   -> CModbusRTU::CModbusRTU()
        0      2   -> CModbusRtuLinkControl::CModbusRtuLinkControl()
        0      2   -> CMultiFunctionKey::CMultiFunctionKey(uint8_t (*)())
        0      2   -> CPreventiveAlarmWindowNotifyerControl::CPreventiveAlarmWindowNotifyerControl()
        0      2   -> CStatusLedNotifyerControl::CStatusLedNotifyerControl()
        0      2   -> CTimer::CTimer(uint16_t)
        0      2   -> CUart::CUart(uint8_t volatile *, uint8_t volatile *, uint8_t volatile *, uint8_t volatile *, uint8_t volatile *, uint8_t volatile *, uint8_t volatile *, uint8_t, uint8_t volatile *, uint8_t)
        0      2   -> __near_vec_construct
        0      2   -> __record_needed_destruction


   Segment part sizes:

   Bytes  Function/Label
   -----  --------------
      84  ?<Initializer for >
      38  ?<Jumptable for MainFsm>_0
       6  ?<Unnamed 0>
      10  ?<Unnamed 10>
       6  ?<Unnamed 11>
       6  ?<Unnamed 1>
       6  ?<Unnamed 2>
       6  ?<Unnamed 3>
       6  ?<Unnamed 4>
       6  ?<Unnamed 5>
       6  ?<Unnamed 6>
       6  ?<Unnamed 7>
       6  ?<Unnamed 8>
       6  ?<Unnamed 9>
       8  ??Subroutine100_0
      14  ??Subroutine101_0
       4  ??Subroutine102_0
      14  ??Subroutine103_0
       8  ??Subroutine104_0
       6  ??Subroutine105_0
       4  ??Subroutine94_0
       6  ??Subroutine95_0
       6  ??Subroutine96_0
       4  ??Subroutine97_0
       6  ??Subroutine98_0
      10  ??Subroutine99_0
       2  ?Subroutine1
       4  ?Subroutine11
       4  ?Subroutine12
       6  ?Subroutine13
      14  ?Subroutine14
       6  ?Subroutine15
       8  ?Subroutine16
       2  ?Subroutine18
      16  ?Subroutine19
       6  ?Subroutine2
       8  ?Subroutine20
       8  ?Subroutine21
      10  ?Subroutine24
       6  ?Subroutine25
       2  ?Subroutine26
       6  ?Subroutine27
       8  ?Subroutine28
       8  ?Subroutine29
       6  ?Subroutine30
      18  ?Subroutine31
       4  ?Subroutine32
       6  ?Subroutine33
      36  ?Subroutine34
       4  ?Subroutine35
       2  ?Subroutine36
      12  ?Subroutine37
      18  ?Subroutine38
       8  ?Subroutine39
       2  ?Subroutine4
      10  ?Subroutine41
       4  ?Subroutine42
       4  ?Subroutine43
      16  ?Subroutine44
      16  ?Subroutine45
       4  ?Subroutine46
       2  ?Subroutine47
       2  ?Subroutine48
       6  ?Subroutine49
      10  ?Subroutine5
       4  ?Subroutine51
       2  ?Subroutine52
       4  ?Subroutine55
       8  ?Subroutine56
       8  ?Subroutine57
       8  ?Subroutine58
       8  ?Subroutine59
       8  ?Subroutine6
       8  ?Subroutine60
       6  ?Subroutine61
       2  ?Subroutine62
      10  ?Subroutine63
      10  ?Subroutine64
       6  ?Subroutine65
       4  ?Subroutine66
       8  ?Subroutine67
       4  ?Subroutine68
       4  ?Subroutine69
       4  ?Subroutine7
       4  ?Subroutine70
      10  ?Subroutine71
       4  ?Subroutine72
       4  ?Subroutine73
       6  ?Subroutine74
       6  ?Subroutine75
       6  ?Subroutine76
       6  ?Subroutine77
       2  ?Subroutine78
       4  ?Subroutine79
       6  ?Subroutine8
       4  ?Subroutine80
       4  ?Subroutine81
       4  ?Subroutine82
       4  ?Subroutine83
       4  ?Subroutine84
       4  ?Subroutine85
       4  ?Subroutine86
       6  ?Subroutine87
       6  ?Subroutine88
       6  ?Subroutine89
       4  ?Subroutine9
       4  ?Subroutine90
       4  ?Subroutine91
       2  ?Subroutine92
       4  ?Subroutine93
      84  ?_0
      14  CPlatform::ExternalKeyState()
      12  CPlatform::KeyOneState()
      12  CPlatform::KeyThreeState()
      12  CPlatform::KeyTwoState()
      16  CPss21::ActiveAlarmWindowOff(uint8_t)
      14  CPss21::ActiveAlarmWindowOn(uint8_t)
      22  CPss21::AddressBusInit()
      10  CPss21::AlarmTypeChange()
      10  CPss21::AlarmTypeErrorChange()
       4  CPss21::AlarmTypeReceipt()
       4  CPss21::AlarmTypeReset()
      22  CPss21::AlarmTypeSet(uint8_t)
      22  CPss21::AlarmsProcessing()
      12  CPss21::AllAlarmWindowOff()
      14  CPss21::AllAlarmWindowOn(uint8_t)
       2  CPss21::BoardWindowsUpdate()
     490  CPss21::ConfigurationInit()
      46  CPss21::ConnectDevice(uint8_t)
     100  CPss21::CreateDevices()
      18  CPss21::DestroyDevices(uint8_t)
      16  CPss21::DisconnectDevice()
      36  CPss21::DiscreteOutputControlClear()
      84  CPss21::DiscreteOutputsSet(uint8_t *, uint8_t)
      18  CPss21::DiscreteSignalsProcessing()
      24  CPss21::ErrorAlarmsProcessing()
      36  CPss21::ErrorMainCycle()
      38  CPss21::ErrorWindowOn(uint8_t)
      12  CPss21::GetDiscreteInputState(uint8_t)
       4  CPss21::GetErrorAlarmState(uint8_t)
      10  CPss21::GetTimeoutModbusRtuLinkControl()
      24  CPss21::Init()
      88  CPss21::InitAllocationContext(TMemoryAllocationConext &)
     130  CPss21::KeyStateProcessing()
       8  CPss21::LinkControlErrorMainCycle()
     250  CPss21::MainFsm()
      16  CPss21::ModbusDefaultInit()
      84  CPss21::ModbusDeviceControl(uint8_t *, uint16_t, uint16_t)
      18  CPss21::ModbusDeviceControl(uint8_t, uint16_t)
     140  CPss21::ModbusInit()
      10  CPss21::ModbusRtuLinkControlInProgress()
      12  CPss21::ModbusRtuLinkControlIsOn()
      34  CPss21::ModulesInteraction(uint8_t)
      22  CPss21::NotifyersControlProcessing()
      18  CPss21::ReceiptResetGlobalFlagsClear()
      40  CPss21::ReportType(uint8_t *, uint16_t)
      24  CPss21::RestoreContextNotifyerControl()
      18  CPss21::SaveContextNotifyerControl()
     162  CPss21::SearchModules()
      18  CPss21::SendToDevicesModbusReceipt()
      18  CPss21::SendToDevicesModbusReset()
      18  CPss21::SendToDevicesReceipt()
      20  CPss21::SendToDevicesReset()
      18  CPss21::SetAlarmWindowType(uint8_t, uint8_t)
      80  CPss21::SetBytesFromBits(uint8_t *, uint8_t *, uint16_t)
       6  CPss21::SetErrorAlarmState(uint8_t, uint8_t)
      26  CPss21::SetModeModbusRtuLinkControlInProgress(bool)
       2  CPss21::TestMainCycle()
     192  CPss21::m_apxAlarmDfa
     120  CPss21::m_aucRtuDiscreteDataArray
      48  CPss21::m_auiErrorLedOn
     256  CPss21::m_auiIntermediateBuff
     256  CPss21::m_auiReceiveMessageBuff
      64  CPss21::m_auiSpiRxBuffer
      64  CPss21::m_auiSpiTxBuffer
     288  CPss21::m_axAlarmWindowControl
      16  CPss21::m_axDiscreteOutputControl
       1  CPss21::m_uiType
     217  CPss21::m_xDeviceConfigSearch
          CPss21::m_xDeviceConfiguration
          CPss21::m_xModbusRtuLinkControl
          CPss21::m_apxDrivers
          CPss21::m_apxErrorAlarmDfa
          CPss21::m_uiFsmState
          CPss21::m_uiPanelReceipt
          CPss21::m_uiPanelReset
          CPss21::m_uiExternalReceipt
          CPss21::m_uiExternalReset
          CPss21::m_uiModbusReceipt
          CPss21::m_uiModbusReset
          CPss21::m_uiDiscreteSignalsReceipt
          CPss21::m_uiDiscreteSignalsReset
          CPss21::m_uiErrorCode
          CPss21::m_uiModuleIndex
          CPss21::m_uiCommonAlarmType
          CPss21::m_uiCommonAlarmTypePrevious
          CPss21::m_auiErrorAlarmDataArray
          CPss21::m_xReceiptKey
          CPss21::m_xResetKey
          CPss21::m_xCheckKey
          CPss21::m_xExternalKey
          CPss21::m_xEventUniteLogicAndOne
          CPss21::m_xMainCycleTimer
          CPss21::m_xPreventiveAlarmWindowNotifyerControl
          CPss21::m_xEmergencyAlarmWindowNotifyerControl
          CPss21::m_xStatusLedNotifyerControl
          CPss21::m_xBuzzerNotifyerControl
          CPss21::m_xDiscreteOutputDataBase
      49  CPss21::m_xModbusRtuOne
      47  CPss21::m_xModbusSettings
          CPss21::m_xDeviceState
          CPss21::m_aucRtuHoldingRegistersArray
          CPss21::m_aucRtuInputRegistersArray
      47  CPss21::m_xUart1
       1  _A_ACSR
       2  _A_ADC
       1  _A_ADCSRA
       1  _A_ADMUX
       1  _A_ASSR
       1  _A_DDRA
       1  _A_DDRB
       1  _A_DDRC
       1  _A_DDRD
       1  _A_DDRE
       1  _A_DDRF
       1  _A_DDRG
       2  _A_EEAR
       1  _A_EECR
       1  _A_EEDR
       1  _A_EICRA
       1  _A_EICRB
       1  _A_EIFR
       1  _A_EIMSK
       1  _A_ETIFR
       1  _A_ETIMSK
       2  _A_ICR1
       2  _A_ICR3
       1  _A_MCUCR
       1  _A_MCUCSR
       1  _A_OCDR
       1  _A_OCR0
       2  _A_OCR1A
       2  _A_OCR1B
       2  _A_OCR1C
       1  _A_OCR2
       2  _A_OCR3A
       2  _A_OCR3B
       2  _A_OCR3C
       1  _A_OSCCAL
       1  _A_PINA
       1  _A_PINB
       1  _A_PINC
       1  _A_PIND
       1  _A_PINE
       1  _A_PINF
       1  _A_PING
       1  _A_PORTA
       1  _A_PORTB
       1  _A_PORTC
       1  _A_PORTD
       1  _A_PORTE
       1  _A_PORTF
       1  _A_PORTG
       1  _A_RAMPZ
       1  _A_SFIOR
       2  _A_SP
       1  _A_SPCR
       1  _A_SPDR
       1  _A_SPMCSR
       1  _A_SPSR
       1  _A_SREG
       1  _A_TCCR0
       1  _A_TCCR1A
       1  _A_TCCR1B
       1  _A_TCCR1C
       1  _A_TCCR2
       1  _A_TCCR3A
       1  _A_TCCR3B
       1  _A_TCCR3C
       1  _A_TCNT0
       2  _A_TCNT1
       1  _A_TCNT2
       2  _A_TCNT3
       1  _A_TIFR
       1  _A_TIMSK
       1  _A_TWAR
       1  _A_TWBR
       1  _A_TWCR
       1  _A_TWDR
       1  _A_TWSR
       1  _A_UBRR0H
       1  _A_UBRR0L
       1  _A_UBRR1H
       1  _A_UBRR1L
       1  _A_UCSR0A
       1  _A_UCSR0B
       1  _A_UCSR0C
       1  _A_UCSR1A
       1  _A_UCSR1B
       1  _A_UCSR1C
       1  _A_UDR0
       1  _A_UDR1
       1  _A_WDTCR
       1  _A_XDIV
       1  _A_XMCRA
       1  _A_XMCRB
     254  __sti__routine()
      66  -- Other

 
   105 bytes in segment ABSOLUTE
 3 410 bytes in segment CODE
     2 bytes in segment DIFUNCT
    14 bytes in segment INITTAB
    70 bytes in segment NEAR_F
    84 bytes in segment NEAR_I
    84 bytes in segment NEAR_ID
 1 645 bytes in segment NEAR_Z
    38 bytes in segment SWITCH
 
 3 554 bytes of CODE memory (+  64 bytes shared)
 1 729 bytes of DATA memory (+ 105 bytes shared)

Errors: none
Warnings: 7
