###############################################################################
#
# IAR C/C++ Compiler V7.10.6.1378 for Atmel AVR           10/Aug/2022  12:40:28
# Copyright 1996-2018 IAR Systems AB.
#
#    Source file  =  D:\Projects\CautoProjects\PSS48\PSS48\src\Pss21.cpp
#    Command line =  
#        -f C:\Users\ghost\AppData\Local\Temp\EW8C2.tmp
#        (--string_literals_in_flash
#        D:\Projects\CautoProjects\PSS48\PSS48\src\Pss21.cpp --cpu=m128a -ms -o
#        D:\Projects\CautoProjects\PSS48\PSS48\Debug\Obj -lC
#        D:\Projects\CautoProjects\PSS48\PSS48\Debug\List -lB
#        D:\Projects\CautoProjects\PSS48\PSS48\Debug\List -y
#        --initializers_in_flash --root_variables --no_cse --no_inline
#        --no_code_motion --no_cross_call --no_clustering --no_tbaa --debug
#        -DENABLE_BIT_DEFINITIONS -e -I
#        D:\Projects\CautoProjects\PSS48\PSS48\include\ -I
#        D:\Projects\CautoProjects\PSS48\PSS48\Modbus\ --eeprom_size 4096
#        --dlib --dlib_config "C:\Program Files (x86)\IAR Systems\Embedded
#        Workbench 8.0\avr\LIB\DLIB\dlAVR-3s-ec_mul-n.h" -On --eec++)
#    Locale       =  Russian_RUS.1251
#    List file    =  D:\Projects\CautoProjects\PSS48\PSS48\Debug\List\Pss21.lst
#    Object file  =  D:\Projects\CautoProjects\PSS48\PSS48\Debug\Obj\Pss21.r90
#
###############################################################################

D:\Projects\CautoProjects\PSS48\PSS48\src\Pss21.cpp
      1          //-----------------------------------------------------------------------------------------------------
      2          //  Sourse      : FileName.cpp
      3          //  Created     : 01.06.2022
      4          //  Author      : Alexandr Volvenkin
      5          //  email       : aav-36@mail.ru
      6          //  GitHub      : https://github.com/AlexandrVolvenkin
      7          //-----------------------------------------------------------------------------------------------------
      8          #include "Pss21.h"

   \                                 In  segment CODE, align 2, keep-with-next
   \   __version_3 void CDriver::SetReceipt(uint8_t)
   \                     ??SetReceipt:
   \   00000000   01F8               MOVW    R31:R30, R17:R16
   \   00000002   8321               STD     Z+1, R18
   \   00000004   9508               RET

   \                                 In  segment CODE, align 2, keep-with-next
   \   __version_3 void CDriver::SetReset(uint8_t)
   \                     ??SetReset:
   \   00000000   01F8               MOVW    R31:R30, R17:R16
   \   00000002   8322               STD     Z+2, R18
   \   00000004   9508               RET

   \                                 In  segment CODE, align 2, keep-with-next
   \   __version_3 void CDriver::SetModbusReceipt(uint8_t)
   \                     ??SetModbusReceipt:
   \   00000000   01F8               MOVW    R31:R30, R17:R16
   \   00000002   8323               STD     Z+3, R18
   \   00000004   9508               RET

   \                                 In  segment CODE, align 2, keep-with-next
   \   __version_3 void CDriver::SetModbusReset(uint8_t)
   \                     ??SetModbusReset:
   \   00000000   01F8               MOVW    R31:R30, R17:R16
   \   00000002   8324               STD     Z+4, R18
   \   00000004   9508               RET

   \                                 In  segment ABSOLUTE, at 0x9d, root
   \   union <unnamed> volatile __io _A_UCSR1C
   \                     _A_UCSR1C:
   \   00000000                      DS8 1

   \                                 In  segment ABSOLUTE, at 0x9c, root
   \   union <unnamed> volatile __io _A_UDR1
   \                     _A_UDR1:
   \   00000000                      DS8 1

   \                                 In  segment ABSOLUTE, at 0x9b, root
   \   union <unnamed> volatile __io _A_UCSR1A
   \                     _A_UCSR1A:
   \   00000000                      DS8 1

   \                                 In  segment ABSOLUTE, at 0x9a, root
   \   union <unnamed> volatile __io _A_UCSR1B
   \                     _A_UCSR1B:
   \   00000000                      DS8 1

   \                                 In  segment ABSOLUTE, at 0x99, root
   \   union <unnamed> volatile __io _A_UBRR1L
   \                     _A_UBRR1L:
   \   00000000                      DS8 1

   \                                 In  segment ABSOLUTE, at 0x98, root
   \   union <unnamed> volatile __io _A_UBRR1H
   \                     _A_UBRR1H:
   \   00000000                      DS8 1

   \                                 In  segment ABSOLUTE, at 0x95, root
   \   union <unnamed> volatile __io _A_UCSR0C
   \                     _A_UCSR0C:
   \   00000000                      DS8 1

   \                                 In  segment ABSOLUTE, at 0x90, root
   \   union <unnamed> volatile __io _A_UBRR0H
   \                     _A_UBRR0H:
   \   00000000                      DS8 1

   \                                 In  segment ABSOLUTE, at 0x8c, root
   \   union <unnamed> volatile __io _A_TCCR3C
   \                     _A_TCCR3C:
   \   00000000                      DS8 1

   \                                 In  segment ABSOLUTE, at 0x8b, root
   \   union <unnamed> volatile __io _A_TCCR3A
   \                     _A_TCCR3A:
   \   00000000                      DS8 1

   \                                 In  segment ABSOLUTE, at 0x8a, root
   \   union <unnamed> volatile __io _A_TCCR3B
   \                     _A_TCCR3B:
   \   00000000                      DS8 1

   \                                 In  segment ABSOLUTE, at 0x88, root
   \   union <unnamed> volatile __io _A_TCNT3
   \                     _A_TCNT3:
   \   00000000                      DS8 2

   \                                 In  segment ABSOLUTE, at 0x86, root
   \   union <unnamed> volatile __io _A_OCR3A
   \                     _A_OCR3A:
   \   00000000                      DS8 2

   \                                 In  segment ABSOLUTE, at 0x84, root
   \   union <unnamed> volatile __io _A_OCR3B
   \                     _A_OCR3B:
   \   00000000                      DS8 2

   \                                 In  segment ABSOLUTE, at 0x82, root
   \   union <unnamed> volatile __io _A_OCR3C
   \                     _A_OCR3C:
   \   00000000                      DS8 2

   \                                 In  segment ABSOLUTE, at 0x80, root
   \   union <unnamed> volatile __io _A_ICR3
   \                     _A_ICR3:
   \   00000000                      DS8 2

   \                                 In  segment ABSOLUTE, at 0x7d, root
   \   union <unnamed> volatile __io _A_ETIMSK
   \                     _A_ETIMSK:
   \   00000000                      DS8 1

   \                                 In  segment ABSOLUTE, at 0x7c, root
   \   union <unnamed> volatile __io _A_ETIFR
   \                     _A_ETIFR:
   \   00000000                      DS8 1

   \                                 In  segment ABSOLUTE, at 0x7a, root
   \   union <unnamed> volatile __io _A_TCCR1C
   \                     _A_TCCR1C:
   \   00000000                      DS8 1

   \                                 In  segment ABSOLUTE, at 0x78, root
   \   union <unnamed> volatile __io _A_OCR1C
   \                     _A_OCR1C:
   \   00000000                      DS8 2

   \                                 In  segment ABSOLUTE, at 0x74, root
   \   union <unnamed> volatile __io _A_TWCR
   \                     _A_TWCR:
   \   00000000                      DS8 1

   \                                 In  segment ABSOLUTE, at 0x73, root
   \   union <unnamed> volatile __io _A_TWDR
   \                     _A_TWDR:
   \   00000000                      DS8 1

   \                                 In  segment ABSOLUTE, at 0x72, root
   \   union <unnamed> volatile __io _A_TWAR
   \                     _A_TWAR:
   \   00000000                      DS8 1

   \                                 In  segment ABSOLUTE, at 0x71, root
   \   union <unnamed> volatile __io _A_TWSR
   \                     _A_TWSR:
   \   00000000                      DS8 1

   \                                 In  segment ABSOLUTE, at 0x70, root
   \   union <unnamed> volatile __io _A_TWBR
   \                     _A_TWBR:
   \   00000000                      DS8 1

   \                                 In  segment ABSOLUTE, at 0x6f, root
   \   union <unnamed> volatile __io _A_OSCCAL
   \                     _A_OSCCAL:
   \   00000000                      DS8 1

   \                                 In  segment ABSOLUTE, at 0x6d, root
   \   union <unnamed> volatile __io _A_XMCRA
   \                     _A_XMCRA:
   \   00000000                      DS8 1

   \                                 In  segment ABSOLUTE, at 0x6c, root
   \   union <unnamed> volatile __io _A_XMCRB
   \                     _A_XMCRB:
   \   00000000                      DS8 1

   \                                 In  segment ABSOLUTE, at 0x6a, root
   \   union <unnamed> volatile __io _A_EICRA
   \                     _A_EICRA:
   \   00000000                      DS8 1

   \                                 In  segment ABSOLUTE, at 0x68, root
   \   union <unnamed> volatile __io _A_SPMCSR
   \                     _A_SPMCSR:
   \   00000000                      DS8 1

   \                                 In  segment ABSOLUTE, at 0x65, root
   \   union <unnamed> volatile __io _A_PORTG
   \                     _A_PORTG:
   \   00000000                      DS8 1

   \                                 In  segment ABSOLUTE, at 0x64, root
   \   union <unnamed> volatile __io _A_DDRG
   \                     _A_DDRG:
   \   00000000                      DS8 1

   \                                 In  segment ABSOLUTE, at 0x63, root
   \   union <unnamed> volatile __io _A_PING
   \                     _A_PING:
   \   00000000                      DS8 1

   \                                 In  segment ABSOLUTE, at 0x62, root
   \   union <unnamed> volatile __io _A_PORTF
   \                     _A_PORTF:
   \   00000000                      DS8 1

   \                                 In  segment ABSOLUTE, at 0x61, root
   \   union <unnamed> volatile __io _A_DDRF
   \                     _A_DDRF:
   \   00000000                      DS8 1

   \                                 In  segment ABSOLUTE, at 0x5f, root
   \   union <unnamed> volatile __io _A_SREG
   \                     _A_SREG:
   \   00000000                      DS8 1

   \                                 In  segment ABSOLUTE, at 0x5d, root
   \   union <unnamed> volatile __io _A_SP
   \                     _A_SP:
   \   00000000                      DS8 2

   \                                 In  segment ABSOLUTE, at 0x5c, root
   \   union <unnamed> volatile __io _A_XDIV
   \                     _A_XDIV:
   \   00000000                      DS8 1

   \                                 In  segment ABSOLUTE, at 0x5b, root
   \   union <unnamed> volatile __io _A_RAMPZ
   \                     _A_RAMPZ:
   \   00000000                      DS8 1

   \                                 In  segment ABSOLUTE, at 0x5a, root
   \   union <unnamed> volatile __io _A_EICRB
   \                     _A_EICRB:
   \   00000000                      DS8 1

   \                                 In  segment ABSOLUTE, at 0x59, root
   \   union <unnamed> volatile __io _A_EIMSK
   \                     _A_EIMSK:
   \   00000000                      DS8 1

   \                                 In  segment ABSOLUTE, at 0x58, root
   \   union <unnamed> volatile __io _A_EIFR
   \                     _A_EIFR:
   \   00000000                      DS8 1

   \                                 In  segment ABSOLUTE, at 0x57, root
   \   union <unnamed> volatile __io _A_TIMSK
   \                     _A_TIMSK:
   \   00000000                      DS8 1

   \                                 In  segment ABSOLUTE, at 0x56, root
   \   union <unnamed> volatile __io _A_TIFR
   \                     _A_TIFR:
   \   00000000                      DS8 1

   \                                 In  segment ABSOLUTE, at 0x55, root
   \   union <unnamed> volatile __io _A_MCUCR
   \                     _A_MCUCR:
   \   00000000                      DS8 1

   \                                 In  segment ABSOLUTE, at 0x54, root
   \   union <unnamed> volatile __io _A_MCUCSR
   \                     _A_MCUCSR:
   \   00000000                      DS8 1

   \                                 In  segment ABSOLUTE, at 0x53, root
   \   union <unnamed> volatile __io _A_TCCR0
   \                     _A_TCCR0:
   \   00000000                      DS8 1

   \                                 In  segment ABSOLUTE, at 0x52, root
   \   union <unnamed> volatile __io _A_TCNT0
   \                     _A_TCNT0:
   \   00000000                      DS8 1

   \                                 In  segment ABSOLUTE, at 0x51, root
   \   union <unnamed> volatile __io _A_OCR0
   \                     _A_OCR0:
   \   00000000                      DS8 1

   \                                 In  segment ABSOLUTE, at 0x50, root
   \   union <unnamed> volatile __io _A_ASSR
   \                     _A_ASSR:
   \   00000000                      DS8 1

   \                                 In  segment ABSOLUTE, at 0x4f, root
   \   union <unnamed> volatile __io _A_TCCR1A
   \                     _A_TCCR1A:
   \   00000000                      DS8 1

   \                                 In  segment ABSOLUTE, at 0x4e, root
   \   union <unnamed> volatile __io _A_TCCR1B
   \                     _A_TCCR1B:
   \   00000000                      DS8 1

   \                                 In  segment ABSOLUTE, at 0x4c, root
   \   union <unnamed> volatile __io _A_TCNT1
   \                     _A_TCNT1:
   \   00000000                      DS8 2

   \                                 In  segment ABSOLUTE, at 0x4a, root
   \   union <unnamed> volatile __io _A_OCR1A
   \                     _A_OCR1A:
   \   00000000                      DS8 2

   \                                 In  segment ABSOLUTE, at 0x48, root
   \   union <unnamed> volatile __io _A_OCR1B
   \                     _A_OCR1B:
   \   00000000                      DS8 2

   \                                 In  segment ABSOLUTE, at 0x46, root
   \   union <unnamed> volatile __io _A_ICR1
   \                     _A_ICR1:
   \   00000000                      DS8 2

   \                                 In  segment ABSOLUTE, at 0x45, root
   \   union <unnamed> volatile __io _A_TCCR2
   \                     _A_TCCR2:
   \   00000000                      DS8 1

   \                                 In  segment ABSOLUTE, at 0x44, root
   \   union <unnamed> volatile __io _A_TCNT2
   \                     _A_TCNT2:
   \   00000000                      DS8 1

   \                                 In  segment ABSOLUTE, at 0x43, root
   \   union <unnamed> volatile __io _A_OCR2
   \                     _A_OCR2:
   \   00000000                      DS8 1

   \                                 In  segment ABSOLUTE, at 0x42, root
   \   union <unnamed> volatile __io _A_OCDR
   \                     _A_OCDR:
   \   00000000                      DS8 1

   \                                 In  segment ABSOLUTE, at 0x41, root
   \   union <unnamed> volatile __io _A_WDTCR
   \                     _A_WDTCR:
   \   00000000                      DS8 1

   \                                 In  segment ABSOLUTE, at 0x40, root
   \   union <unnamed> volatile __io _A_SFIOR
   \                     _A_SFIOR:
   \   00000000                      DS8 1

   \                                 In  segment ABSOLUTE, at 0x3e, root
   \   union <unnamed> volatile __io _A_EEAR
   \                     _A_EEAR:
   \   00000000                      DS8 2

   \                                 In  segment ABSOLUTE, at 0x3d, root
   \   union <unnamed> volatile __io _A_EEDR
   \                     _A_EEDR:
   \   00000000                      DS8 1

   \                                 In  segment ABSOLUTE, at 0x3c, root
   \   union <unnamed> volatile __io _A_EECR
   \                     _A_EECR:
   \   00000000                      DS8 1

   \                                 In  segment ABSOLUTE, at 0x3b, root
   \   union <unnamed> volatile __io _A_PORTA
   \                     _A_PORTA:
   \   00000000                      DS8 1

   \                                 In  segment ABSOLUTE, at 0x3a, root
   \   union <unnamed> volatile __io _A_DDRA
   \                     _A_DDRA:
   \   00000000                      DS8 1

   \                                 In  segment ABSOLUTE, at 0x39, root
   \   union <unnamed> volatile __io _A_PINA
   \                     _A_PINA:
   \   00000000                      DS8 1

   \                                 In  segment ABSOLUTE, at 0x38, root
   \   union <unnamed> volatile __io _A_PORTB
   \                     _A_PORTB:
   \   00000000                      DS8 1

   \                                 In  segment ABSOLUTE, at 0x37, root
   \   union <unnamed> volatile __io _A_DDRB
   \                     _A_DDRB:
   \   00000000                      DS8 1

   \                                 In  segment ABSOLUTE, at 0x36, root
   \   union <unnamed> volatile __io _A_PINB
   \                     _A_PINB:
   \   00000000                      DS8 1

   \                                 In  segment ABSOLUTE, at 0x35, root
   \   union <unnamed> volatile __io _A_PORTC
   \                     _A_PORTC:
   \   00000000                      DS8 1

   \                                 In  segment ABSOLUTE, at 0x34, root
   \   union <unnamed> volatile __io _A_DDRC
   \                     _A_DDRC:
   \   00000000                      DS8 1

   \                                 In  segment ABSOLUTE, at 0x33, root
   \   union <unnamed> volatile __io _A_PINC
   \                     _A_PINC:
   \   00000000                      DS8 1

   \                                 In  segment ABSOLUTE, at 0x32, root
   \   union <unnamed> volatile __io _A_PORTD
   \                     _A_PORTD:
   \   00000000                      DS8 1

   \                                 In  segment ABSOLUTE, at 0x31, root
   \   union <unnamed> volatile __io _A_DDRD
   \                     _A_DDRD:
   \   00000000                      DS8 1

   \                                 In  segment ABSOLUTE, at 0x30, root
   \   union <unnamed> volatile __io _A_PIND
   \                     _A_PIND:
   \   00000000                      DS8 1

   \                                 In  segment ABSOLUTE, at 0x2f, root
   \   union <unnamed> volatile __io _A_SPDR
   \                     _A_SPDR:
   \   00000000                      DS8 1

   \                                 In  segment ABSOLUTE, at 0x2e, root
   \   union <unnamed> volatile __io _A_SPSR
   \                     _A_SPSR:
   \   00000000                      DS8 1

   \                                 In  segment ABSOLUTE, at 0x2d, root
   \   union <unnamed> volatile __io _A_SPCR
   \                     _A_SPCR:
   \   00000000                      DS8 1

   \                                 In  segment ABSOLUTE, at 0x2c, root
   \   union <unnamed> volatile __io _A_UDR0
   \                     _A_UDR0:
   \   00000000                      DS8 1

   \                                 In  segment ABSOLUTE, at 0x2b, root
   \   union <unnamed> volatile __io _A_UCSR0A
   \                     _A_UCSR0A:
   \   00000000                      DS8 1

   \                                 In  segment ABSOLUTE, at 0x2a, root
   \   union <unnamed> volatile __io _A_UCSR0B
   \                     _A_UCSR0B:
   \   00000000                      DS8 1

   \                                 In  segment ABSOLUTE, at 0x29, root
   \   union <unnamed> volatile __io _A_UBRR0L
   \                     _A_UBRR0L:
   \   00000000                      DS8 1

   \                                 In  segment ABSOLUTE, at 0x28, root
   \   union <unnamed> volatile __io _A_ACSR
   \                     _A_ACSR:
   \   00000000                      DS8 1

   \                                 In  segment ABSOLUTE, at 0x27, root
   \   union <unnamed> volatile __io _A_ADMUX
   \                     _A_ADMUX:
   \   00000000                      DS8 1

   \                                 In  segment ABSOLUTE, at 0x26, root
   \   union <unnamed> volatile __io _A_ADCSRA
   \                     _A_ADCSRA:
   \   00000000                      DS8 1

   \                                 In  segment ABSOLUTE, at 0x24, root
   \   union <unnamed> volatile __io _A_ADC
   \                     _A_ADC:
   \   00000000                      DS8 2

   \                                 In  segment ABSOLUTE, at 0x23, root
   \   union <unnamed> volatile __io _A_PORTE
   \                     _A_PORTE:
   \   00000000                      DS8 1

   \                                 In  segment ABSOLUTE, at 0x22, root
   \   union <unnamed> volatile __io _A_DDRE
   \                     _A_DDRE:
   \   00000000                      DS8 1

   \                                 In  segment ABSOLUTE, at 0x21, root
   \   union <unnamed> volatile __io _A_PINE
   \                     _A_PINE:
   \   00000000                      DS8 1

   \                                 In  segment ABSOLUTE, at 0x20, root
   \   union <unnamed> volatile __io _A_PINF
   \                     _A_PINF:
   \   00000000                      DS8 1

      static __flash TDataBase CFlash::xMainDataBase;
                               ^
"D:\Projects\CautoProjects\PSS48\PSS48\include\Platform.h",359  Warning[Pe427]: 
          qualified name is not allowed in member declaration

      static __flash TDataBaseBlockPositionData CFlash::axDataBaseBlocksPositionData[];
                                                ^
"D:\Projects\CautoProjects\PSS48\PSS48\include\Platform.h",360  Warning[Pe427]: 
          qualified name is not allowed in member declaration

   \                                 In  segment CODE, align 2, keep-with-next
   \   __version_3 void CPlatform::WatchdogReset()
   \                     ??WatchdogReset:
   \   00000000   95A8               WDR
   \   00000002   9508               RET

   \                                 In  segment CODE, align 2, keep-with-next
   \   __version_3 void CPlatform::WatchdogEnable()
   \                     ??WatchdogEnable:
   \   00000000   95A8               WDR
   \   00000002   B501               IN      R16, 0x21
   \   00000004   6108               ORI     R16, 0x18
   \   00000006   BD01               OUT     0x21, R16
   \   00000008   B501               IN      R16, 0x21
   \   0000000A   6007               ORI     R16, 0x07
   \   0000000C   BD01               OUT     0x21, R16
   \   0000000E   9508               RET
   \   00000010                      REQUIRE _A_WDTCR

   \                                 In  segment CODE, align 2, keep-with-next
   \   __version_3 uint8_t CPlatform::KeyOneState()
   \                     ??KeyOneState:
   \   00000000   E000               LDI     R16, 0
   \   00000002   999A               SBIC    0x13, 0x02
   \   00000004   9503               INC     R16
   \                     ??KeyOneState_1:
   \   00000006   E011               LDI     R17, 1
   \   00000008   2701               EOR     R16, R17
   \   0000000A   9508               RET
   \   0000000C                      REQUIRE _A_PINC

   \                                 In  segment CODE, align 2, keep-with-next
   \   __version_3 uint8_t CPlatform::KeyTwoState()
   \                     ??KeyTwoState:
   \   00000000   E000               LDI     R16, 0
   \   00000002   9999               SBIC    0x13, 0x01
   \   00000004   9503               INC     R16
   \                     ??KeyTwoState_1:
   \   00000006   E011               LDI     R17, 1
   \   00000008   2701               EOR     R16, R17
   \   0000000A   9508               RET
   \   0000000C                      REQUIRE _A_PINC

   \                                 In  segment CODE, align 2, keep-with-next
   \   __version_3 uint8_t CPlatform::KeyThreeState()
   \                     ??KeyThreeState:
   \   00000000   E000               LDI     R16, 0
   \   00000002   9998               SBIC    0x13, 0x00
   \   00000004   9503               INC     R16
   \                     ??KeyThreeState_1:
   \   00000006   E011               LDI     R17, 1
   \   00000008   2701               EOR     R16, R17
   \   0000000A   9508               RET
   \   0000000C                      REQUIRE _A_PINC

   \                                 In  segment CODE, align 2, keep-with-next
   \   __version_3 uint8_t CPlatform::ExternalKeyState()
   \                     ??ExternalKeyState:
   \   00000000   9110....           LDS     R17, _A_PING
   \   00000004   2F01               MOV     R16, R17
   \   00000006   7001               ANDI    R16, 0x01
   \   00000008   E011               LDI     R17, 1
   \   0000000A   2701               EOR     R16, R17
   \   0000000C   9508               RET
   \   0000000E                      REQUIRE _A_PING

   \                                 In  segment CODE, align 2, keep-with-next
   \   __version_3 void CPlatform::SpiSlaveSelectAddress0SetPinOutput()
   \                     ??SpiSlaveSelectAddress0SetPinOutput:
   \   00000000   9A8F               SBI     0x11, 0x07
   \   00000002   9508               RET
   \   00000004                      REQUIRE _A_DDRD

   \                                 In  segment CODE, align 2, keep-with-next
   \   __version_3 void CPlatform::SpiSlaveSelectAddress0On()
   \                     ??SpiSlaveSelectAddress0On:
   \   00000000   9A97               SBI     0x12, 0x07
   \   00000002   9508               RET
   \   00000004                      REQUIRE _A_PORTD

   \                                 In  segment CODE, align 2, keep-with-next
   \   __version_3 void CPlatform::SpiSlaveSelectAddress0Off()
   \                     ??SpiSlaveSelectAddress0Off:
   \   00000000   9897               CBI     0x12, 0x07
   \   00000002   9508               RET
   \   00000004                      REQUIRE _A_PORTD

   \                                 In  segment CODE, align 2, keep-with-next
   \   __version_3 void CPlatform::SpiSlaveSelectAddress1SetPinOutput()
   \                     ??SpiSlaveSelectAddress1SetPinOutput:
   \   00000000   9A8E               SBI     0x11, 0x06
   \   00000002   9508               RET
   \   00000004                      REQUIRE _A_DDRD

   \                                 In  segment CODE, align 2, keep-with-next
   \   __version_3 void CPlatform::SpiSlaveSelectAddress1On()
   \                     ??SpiSlaveSelectAddress1On:
   \   00000000   9A96               SBI     0x12, 0x06
   \   00000002   9508               RET
   \   00000004                      REQUIRE _A_PORTD

   \                                 In  segment CODE, align 2, keep-with-next
   \   __version_3 void CPlatform::SpiSlaveSelectAddress1Off()
   \                     ??SpiSlaveSelectAddress1Off:
   \   00000000   9896               CBI     0x12, 0x06
   \   00000002   9508               RET
   \   00000004                      REQUIRE _A_PORTD

   \                                 In  segment CODE, align 2, keep-with-next
   \   __version_3 void CPlatform::SpiSlaveSelectAddress2SetPinOutput()
   \                     ??SpiSlaveSelectAddress2SetPinOutput:
   \   00000000   9A8D               SBI     0x11, 0x05
   \   00000002   9508               RET
   \   00000004                      REQUIRE _A_DDRD

   \                                 In  segment CODE, align 2, keep-with-next
   \   __version_3 void CPlatform::SpiSlaveSelectAddress2On()
   \                     ??SpiSlaveSelectAddress2On:
   \   00000000   9A95               SBI     0x12, 0x05
   \   00000002   9508               RET
   \   00000004                      REQUIRE _A_PORTD

   \                                 In  segment CODE, align 2, keep-with-next
   \   __version_3 void CPlatform::SpiSlaveSelectAddress2Off()
   \                     ??SpiSlaveSelectAddress2Off:
   \   00000000   9895               CBI     0x12, 0x05
   \   00000002   9508               RET
   \   00000004                      REQUIRE _A_PORTD

   \                                 In  segment CODE, align 2, keep-with-next
   \   __version_3 void CPlatform::SpiSlaveSelectAddress3SetPinOutput()
   \                     ??SpiSlaveSelectAddress3SetPinOutput:
   \   00000000   9A8C               SBI     0x11, 0x04
   \   00000002   9508               RET
   \   00000004                      REQUIRE _A_DDRD

   \                                 In  segment CODE, align 2, keep-with-next
   \   __version_3 void CPlatform::SpiSlaveSelectAddress3On()
   \                     ??SpiSlaveSelectAddress3On:
   \   00000000   9A94               SBI     0x12, 0x04
   \   00000002   9508               RET
   \   00000004                      REQUIRE _A_PORTD

   \                                 In  segment CODE, align 2, keep-with-next
   \   __version_3 void CPlatform::SpiSlaveSelectAddress3Off()
   \                     ??SpiSlaveSelectAddress3Off:
   \   00000000   9894               CBI     0x12, 0x04
   \   00000002   9508               RET
   \   00000004                      REQUIRE _A_PORTD

   \                                 In  segment CODE, align 2, keep-with-next
   \   __version_3 void CPlatform::SpiSlaveSelectEnableSetPinOutput()
   \                     ??SpiSlaveSelectEnableSetPinOutput:
   \   00000000   9A89               SBI     0x11, 0x01
   \   00000002   9508               RET
   \   00000004                      REQUIRE _A_DDRD

   \                                 In  segment CODE, align 2, keep-with-next
   \   __version_3 void CPlatform::SpiSlaveSelectEnableOn()
   \                     ??SpiSlaveSelectEnableOn:
   \   00000000   9A91               SBI     0x12, 0x01
   \   00000002   9508               RET
   \   00000004                      REQUIRE _A_PORTD

   \                                 In  segment CODE, align 2, keep-with-next
   \   __version_3 void CPlatform::SpiSlaveSelectEnableOff()
   \                     ??SpiSlaveSelectEnableOff:
   \   00000000   9891               CBI     0x12, 0x01
   \   00000002   9508               RET
   \   00000004                      REQUIRE _A_PORTD

   \                                 In  segment CODE, align 2, keep-with-next
   \   __version_3 void CAlarmWindow::SetActivityState(uint8_t)
   \                     ??SetActivityState:
   \   00000000   01F8               MOVW    R31:R30, R17:R16
   \   00000002   8320               ST      Z, R18
   \   00000004   9508               RET

   \                                 In  segment CODE, align 2, keep-with-next
   \   __version_3 uint8_t CAlarmWindow::GetActivityState()
   \                     ??GetActivityState:
   \   00000000   01F8               MOVW    R31:R30, R17:R16
   \   00000002   8100               LD      R16, Z
   \   00000004   9508               RET

   \                                 In  segment CODE, align 2, keep-with-next
   \   __version_3 void CAlarmWindow::SetSavedActivityState(uint8_t)
   \                     ??SetSavedActivityState:
   \   00000000   01F8               MOVW    R31:R30, R17:R16
   \   00000002   8321               STD     Z+1, R18
   \   00000004   9508               RET

   \                                 In  segment CODE, align 2, keep-with-next
   \   __version_3 uint8_t CAlarmWindow::GetSavedActivityState()
   \                     ??GetSavedActivityState:
   \   00000000   01F8               MOVW    R31:R30, R17:R16
   \   00000002   8101               LDD     R16, Z+1
   \   00000004   9508               RET

   \                                 In  segment CODE, align 2, keep-with-next
   \   __version_3 void CAlarmWindow::SetAlarmType(uint8_t)
   \                     ??SetAlarmType:
   \   00000000   01F8               MOVW    R31:R30, R17:R16
   \   00000002   8322               STD     Z+2, R18
   \   00000004   9508               RET

   \                                 In  segment CODE, align 2, keep-with-next
   \   __version_3 uint8_t CAlarmWindow::GetAlarmType()
   \                     ??GetAlarmType:
   \   00000000   01F8               MOVW    R31:R30, R17:R16
   \   00000002   8102               LDD     R16, Z+2
   \   00000004   9508               RET

   \                                 In  segment CODE, align 2, keep-with-next
   \   __version_3 void CAlarmWindow::SetSavedAlarmType(uint8_t)
   \                     ??SetSavedAlarmType:
   \   00000000   01F8               MOVW    R31:R30, R17:R16
   \   00000002   8323               STD     Z+3, R18
   \   00000004   9508               RET

   \                                 In  segment CODE, align 2, keep-with-next
   \   __version_3 uint8_t CAlarmWindow::GetSavedAlarmType()
   \                     ??GetSavedAlarmType:
   \   00000000   01F8               MOVW    R31:R30, R17:R16
   \   00000002   8103               LDD     R16, Z+3
   \   00000004   9508               RET

   \                                 In  segment CODE, align 2, keep-with-next
   \   __version_3 void CDfaLite::SetFsmState(uint8_t)
   \                     ??SetFsmState:
   \   00000000   01F8               MOVW    R31:R30, R17:R16
   \   00000002   8320               ST      Z, R18
   \   00000004   9508               RET

   \                                 In  segment CODE, align 2, keep-with-next
   \   __version_3 void CDfa::SetFsmEvent(uint8_t)
   \                     ??SetFsmEvent:
   \   00000000   01F8               MOVW    R31:R30, R17:R16
   \   00000002   8324               STD     Z+4, R18
   \   00000004   9508               RET

   \                                 In  segment CODE, align 2, keep-with-next
   \   __version_3 void CAlarmDfa::SetDiscreteStateIndex(uint8_t)
   \                     ??SetDiscreteStateIndex:
   \   00000000   01F8               MOVW    R31:R30, R17:R16
   \   00000002   8325               STD     Z+5, R18
   \   00000004   9508               RET

   \                                 In  segment CODE, align 2, keep-with-next
   \   __version_3 void CAlarmDfa::SetAlarmWindowIndex(uint8_t)
   \                     ??SetAlarmWindowIndex:
   \   00000000   01F8               MOVW    R31:R30, R17:R16
   \   00000002   8323               STD     Z+3, R18
   \   00000004   9508               RET

   \                                 In  segment CODE, align 2, keep-with-next
   \   __version_3 uint8_t *CAlarmDfa::GetLinkedDiscreteOutputsPointer()
   \                     ??GetLinkedDiscreteOutputsPointer:
   \   00000000   5F0C               SUBI    R16, 252
   \   00000002   4F1F               SBCI    R17, 255
   \   00000004   9508               RET

   \                                 In  segment CODE, align 2, keep-with-next
   \   __version_3 uint16_t CPss21::TEST_ON_TIME()
   \                     ??TEST_ON_TIME:
   \   00000000   E808               LDI     R16, 136
   \   00000002   E113               LDI     R17, 19
   \   00000004   9508               RET

   \                                 In  segment CODE, align 2, keep-with-next
   \   __version_3 uint8_t CPss21::GetFsmState()
   \                     ??GetFsmState:
   \   00000000   9100....           LDS     R16, ??m_uiFsmState
   \   00000004   9508               RET

   \                                 In  segment CODE, align 2, keep-with-next
   \   __version_3 void CPss21::SetFsmState(uint8_t)
   \                     ??SetFsmState_1:
   \   00000000   9300....           STS     ??m_uiFsmState, R16
   \   00000004   9508               RET

   \                                 In  segment CODE, align 2, keep-with-next
   \   __version_3 void CPss21::SetPanelReceipt(uint8_t)
   \                     ??SetPanelReceipt:
   \   00000000   9300....           STS     ??m_uiPanelReceipt, R16
   \   00000004   9508               RET

   \                                 In  segment CODE, align 2, keep-with-next
   \   __version_3 uint8_t CPss21::GetPanelReceipt()
   \                     ??GetPanelReceipt:
   \   00000000   9100....           LDS     R16, ??m_uiPanelReceipt
   \   00000004   9508               RET

   \                                 In  segment CODE, align 2, keep-with-next
   \   __version_3 void CPss21::SetPanelReset(uint8_t)
   \                     ??SetPanelReset:
   \   00000000   9300....           STS     ??m_uiPanelReset, R16
   \   00000004   9508               RET

   \                                 In  segment CODE, align 2, keep-with-next
   \   __version_3 void CPss21::SetExternalReceipt(uint8_t)
   \                     ??SetExternalReceipt:
   \   00000000   9300....           STS     ??m_uiExternalReceipt, R16
   \   00000004   9508               RET

   \                                 In  segment CODE, align 2, keep-with-next
   \   __version_3 uint8_t CPss21::GetExternalReceipt()
   \                     ??GetExternalReceipt:
   \   00000000   9100....           LDS     R16, ??m_uiExternalReceipt
   \   00000004   9508               RET

   \                                 In  segment CODE, align 2, keep-with-next
   \   __version_3 void CPss21::SetExternalReset(uint8_t)
   \                     ??SetExternalReset:
   \   00000000   9300....           STS     ??m_uiExternalReset, R16
   \   00000004   9508               RET

   \                                 In  segment CODE, align 2, keep-with-next
   \   __version_3 void CPss21::SetModbusReceipt(uint8_t)
   \                     ??SetModbusReceipt_1:
   \   00000000   9300....           STS     ??m_uiModbusReceipt, R16
   \   00000004   9508               RET

   \                                 In  segment CODE, align 2, keep-with-next
   \   __version_3 uint8_t CPss21::GetModbusReceipt()
   \                     ??GetModbusReceipt:
   \   00000000   9100....           LDS     R16, ??m_uiModbusReceipt
   \   00000004   9508               RET

   \                                 In  segment CODE, align 2, keep-with-next
   \   __version_3 void CPss21::SetModbusReset(uint8_t)
   \                     ??SetModbusReset_1:
   \   00000000   9300....           STS     ??m_uiModbusReset, R16
   \   00000004   9508               RET

   \                                 In  segment CODE, align 2, keep-with-next
   \   __version_3 void CPss21::SetDiscreteSignalsReceipt(uint8_t)
   \                     ??SetDiscreteSignalsReceipt:
   \   00000000   9300....           STS     ??m_uiDiscreteSignalsReceipt, R16
   \   00000004   9508               RET

   \                                 In  segment CODE, align 2, keep-with-next
   \   __version_3 void CPss21::SetDiscreteSignalsReset(uint8_t)
   \                     ??SetDiscreteSignalsReset:
   \   00000000   9300....           STS     ??m_uiDiscreteSignalsReset, R16
   \   00000004   9508               RET

   \                                 In  segment CODE, align 2, keep-with-next
   \   __version_3 uint8_t CPss21::GetCommonAlarmType()
   \                     ??GetCommonAlarmType:
   \   00000000   9100....           LDS     R16, ??m_uiCommonAlarmType
   \   00000004   9508               RET

   \                                 In  segment CODE, align 2, keep-with-next
   \   __version_3 void CPss21::SetErrorCode(uint8_t)
   \                     ??SetErrorCode:
   \   00000000   9300....           STS     ??m_uiErrorCode, R16
   \   00000004   9508               RET

   \                                 In  segment CODE, align 2, keep-with-next
   \   __version_3 uint8_t CPss21::GetErrorCode()
   \                     ??GetErrorCode:
   \   00000000   9100....           LDS     R16, ??m_uiErrorCode
   \   00000004   9508               RET

   \                                 In  segment CODE, align 2, keep-with-next
   \   __version_3 uint8_t CPss21::GetModuleIndex()
   \                     ??GetModuleIndex:
   \   00000000   9100....           LDS     R16, ??m_uiModuleIndex
   \   00000004   9508               RET

   \                                 In  segment CODE, align 2, keep-with-next
   \   __version_3 void CPss21::SetModuleIndex(uint8_t)
   \                     ??SetModuleIndex:
   \   00000000   9300....           STS     ??m_uiModuleIndex, R16
   \   00000004   9508               RET

   \                                 In  segment CODE, align 2, keep-with-next
   \   __version_3 CAlarmWindow *CPss21::GetAlarmWindowControlPointer(uint8_t)
   \                     ??GetAlarmWindowControlPointer:
   \   00000000   E010               LDI     R17, 0
   \   00000002   E046               LDI     R20, 6
   \   00000004   E050               LDI     R21, 0
   \   00000006   ........           CALL    ?S_EC_MUL_L02
   \   0000000A   0198               MOVW    R19:R18, R17:R16
   \   0000000C   ....               LDI     R16, LOW(??m_axAlarmWindowControl)
   \   0000000E   ....               LDI     R17, (??m_axAlarmWindowControl) >> 8
   \   00000010   0F02               ADD     R16, R18
   \   00000012   1F13               ADC     R17, R19
   \   00000014   9508               RET
      9          #include "Platform.h"
     10          #include "InputDevice.h"
     11          #include "Mvsn21.h"
     12          #include "ModuleMrXX.h"
     13          #include "Crc.h"
     14          #include "ModbusRTU.h"
     15          #include "DataBase.h"
     16          #include "DataTypes.h"
     17          #include "Alarm.h"
     18          #include "NotifyerControl.h"
     19          #include "Buzzer.h"
     20          #include "Event.h"
     21          #include "Dfa.h"
     22          
     23          
     24          //uint8_t CPss21::m_aucRtuCoilsArray[];
     25          //uint8_t CPss21::m_aucRtuDiscreteInputsArray[];

   \                                 In  segment NEAR_Z, align 1, keep-with-next, root
   \   00000000                      REQUIRE `?<Segment init: NEAR_Z>`
     26          uint16_t CPss21::m_aucRtuHoldingRegistersArray[];
   \                     ??m_aucRtuHoldingRegistersArray:
   \   00000000                      DS8 16

   \                                 In  segment NEAR_Z, align 1, keep-with-next, root
   \   00000000                      REQUIRE `?<Segment init: NEAR_Z>`
     27          uint16_t CPss21::m_aucRtuInputRegistersArray[];
   \                     ??m_aucRtuInputRegistersArray:
   \   00000000                      DS8 16

   \                                 In  segment NEAR_Z, align 1, keep-with-next, root
   \   00000000                      REQUIRE `?<Segment init: NEAR_Z>`
     28          uint8_t CPss21::m_aucRtuDiscreteDataArray[];
   \                     ??m_aucRtuDiscreteDataArray:
   \   00000000                      DS8 120

   \                                 In  segment NEAR_Z, align 1, keep-with-next, root
   \   00000000                      REQUIRE `?<Segment init: NEAR_Z>`
     29          uint8_t CPss21::m_auiReceiveMessageBuff[];
   \                     ??m_auiReceiveMessageBuff:
   \   00000000                      DS8 256
     30          //uint8_t CPss21::m_auiTransmitMessageBuff[];

   \                                 In  segment NEAR_Z, align 1, keep-with-next, root
   \   00000000                      REQUIRE `?<Segment init: NEAR_Z>`
     31          uint8_t CPss21::m_auiIntermediateBuff[];
   \                     ??m_auiIntermediateBuff:
   \   00000000                      DS8 256

   \                                 In  segment NEAR_Z, align 1, keep-with-next, root
   \   00000000                      REQUIRE `?<Segment init: NEAR_Z>`
     32          uint8_t CPss21::m_auiSpiRxBuffer[];
   \                     ??m_auiSpiRxBuffer:
   \   00000000                      DS8 64

   \                                 In  segment NEAR_Z, align 1, keep-with-next, root
   \   00000000                      REQUIRE `?<Segment init: NEAR_Z>`
     33          uint8_t CPss21::m_auiSpiTxBuffer[];
   \                     ??m_auiSpiTxBuffer:
   \   00000000                      DS8 64
     34          

   \                                 In  segment NEAR_Z, align 1, keep-with-next, root
   \   00000000                      REQUIRE `?<Segment init: NEAR_Z>`
     35          uint8_t CPss21::m_uiFsmState;
   \                     ??m_uiFsmState:
   \   00000000                      DS8 1

   \                                 In  segment NEAR_Z, align 1, keep-with-next, root
   \   00000000                      REQUIRE `?<Segment init: NEAR_Z>`
     36          uint8_t CPss21::m_uiType;
   \                     ??m_uiType:
   \   00000000                      DS8 1
     37          //CDriver* CPss21::m_pxDriver;
     38          //CDevice* CPss21::m_apxDevices[];

   \                                 In  segment NEAR_Z, align 1, keep-with-next, root
   \   00000000                      REQUIRE `?<Segment init: NEAR_Z>`
     39          CDriver* CPss21::m_apxDrivers[];
   \                     ??m_apxDrivers:
   \   00000000                      DS8 6
     40          

   \                                 In  segment CODE, align 2, keep-with-next
   \   static __intrinsic __version_3 void __sti__routine()
   \                     ??__sti__routine:
     41          CUart CPss21::m_xUart1(&UBRR1H, &UBRR1L, &UCSR1A, &UCSR1B, &UCSR1C, &UDR1, &DDRC, DDC7, &PORTC, PC7);
   \   00000000   E007               LDI     R16, 7
   \   00000002   930A               ST      -Y, R16
   \   00000004   E305               LDI     R16, LOW(53)
   \   00000006   E010               LDI     R17, (53) >> 8
   \   00000008   931A               ST      -Y, R17
   \   0000000A   930A               ST      -Y, R16
   \   0000000C   E007               LDI     R16, 7
   \   0000000E   930A               ST      -Y, R16
   \   00000010   E304               LDI     R16, LOW(52)
   \   00000012   E010               LDI     R17, (52) >> 8
   \   00000014   931A               ST      -Y, R17
   \   00000016   930A               ST      -Y, R16
   \   00000018   E90C               LDI     R16, LOW(156)
   \   0000001A   E010               LDI     R17, (156) >> 8
   \   0000001C   931A               ST      -Y, R17
   \   0000001E   930A               ST      -Y, R16
   \   00000020   E90D               LDI     R16, LOW(157)
   \   00000022   E010               LDI     R17, (157) >> 8
   \   00000024   931A               ST      -Y, R17
   \   00000026   930A               ST      -Y, R16
   \   00000028   E90A               LDI     R16, LOW(154)
   \   0000002A   E010               LDI     R17, (154) >> 8
   \   0000002C   931A               ST      -Y, R17
   \   0000002E   930A               ST      -Y, R16
   \   00000030   E96B               LDI     R22, LOW(155)
   \   00000032   E070               LDI     R23, (155) >> 8
   \   00000034   E949               LDI     R20, LOW(153)
   \   00000036   E050               LDI     R21, (153) >> 8
   \   00000038   E928               LDI     R18, LOW(152)
   \   0000003A   E030               LDI     R19, (152) >> 8
   \   0000003C   ....               LDI     R16, LOW(??m_xUart1)
   \   0000003E   ....               LDI     R17, (??m_xUart1) >> 8
   \   00000040   ........           CALL    ??CUart
   \   00000044   ....               LDI     R16, LOW(?_0)
   \   00000046   ....               LDI     R17, (?_0) >> 8
   \   00000048   ........           CALL    __record_needed_destruction
     42          CModbusRTU CPss21::m_xModbusRtuOne;
   \   0000004C   E020               LDI     R18, 0
   \   0000004E   E030               LDI     R19, 0
   \   00000050   ....               LDI     R16, LOW(??m_xModbusRtuOne)
   \   00000052   ....               LDI     R17, (??m_xModbusRtuOne) >> 8
   \   00000054   ........           CALL    ??CModbusRTU
   \   00000058   ....               LDI     R16, LOW(?_2)
   \   0000005A   ....               LDI     R17, (?_2) >> 8
   \   0000005C   ........           CALL    __record_needed_destruction
     43          
     44          //CDataBase CPss21::m_xDataBase;
     45          //CDataBase* CPss21::m_pxDataBase;
     46          CDataStore CPss21::m_xDataStore;
   \   00000060   ....               LDI     R16, LOW(??m_xDataStore)
   \   00000062   ....               LDI     R17, (??m_xDataStore) >> 8
   \   00000064   ........           CALL    ??CDataStore
   \   00000068   ....               LDI     R16, LOW(?_4)
   \   0000006A   ....               LDI     R17, (?_4) >> 8
   \   0000006C   ........           CALL    __record_needed_destruction
     47          
     48          CMultiFunctionKey CPss21::m_xReceiptKey(CPlatform::KeyOneState);
   \   00000070   ....               LDI     R18, LOW(??KeyOneState/2)
   \   00000072   ....               LDI     R19, (??KeyOneState/2) >> 8
   \   00000074   ....               LDI     R16, LOW(??m_xReceiptKey)
   \   00000076   ....               LDI     R17, (??m_xReceiptKey) >> 8
   \   00000078   ........           CALL    ??CMultiFunctionKey
   \   0000007C   ....               LDI     R16, LOW(?_6)
   \   0000007E   ....               LDI     R17, (?_6) >> 8
   \   00000080   ........           CALL    __record_needed_destruction
     49          CMultiFunctionKey CPss21::m_xResetKey(CPlatform::KeyTwoState);
   \   00000084   ....               LDI     R18, LOW(??KeyTwoState/2)
   \   00000086   ....               LDI     R19, (??KeyTwoState/2) >> 8
   \   00000088   ....               LDI     R16, LOW(??m_xResetKey)
   \   0000008A   ....               LDI     R17, (??m_xResetKey) >> 8
   \   0000008C   ........           CALL    ??CMultiFunctionKey
   \   00000090   ....               LDI     R16, LOW(?_8)
   \   00000092   ....               LDI     R17, (?_8) >> 8
   \   00000094   ........           CALL    __record_needed_destruction
     50          CMultiFunctionKey CPss21::m_xCheckKey(CPlatform::KeyThreeState);
   \   00000098   ....               LDI     R18, LOW(??KeyThreeState/2)
   \   0000009A   ....               LDI     R19, (??KeyThreeState/2) >> 8
   \   0000009C   ....               LDI     R16, LOW(??m_xCheckKey)
   \   0000009E   ....               LDI     R17, (??m_xCheckKey) >> 8
   \   000000A0   ........           CALL    ??CMultiFunctionKey
   \   000000A4   ....               LDI     R16, LOW(?_10)
   \   000000A6   ....               LDI     R17, (?_10) >> 8
   \   000000A8   ........           CALL    __record_needed_destruction
     51          CMultiFunctionKey CPss21::m_xExternalKey(CPlatform::ExternalKeyState);
   \   000000AC   ....               LDI     R18, LOW(??ExternalKeyState/2)
   \   000000AE   ....               LDI     R19, (??ExternalKeyState/2) >> 8
   \   000000B0   ....               LDI     R16, LOW(??m_xExternalKey)
   \   000000B2   ....               LDI     R17, (??m_xExternalKey) >> 8
   \   000000B4   ........           CALL    ??CMultiFunctionKey
   \   000000B8   ....               LDI     R16, LOW(?_12)
   \   000000BA   ....               LDI     R17, (?_12) >> 8
   \   000000BC   ........           CALL    __record_needed_destruction
     52          
     53          uint8_t CPss21::m_uiPanelReceipt;
     54          uint8_t CPss21::m_uiPanelReset;
     55          uint8_t CPss21::m_uiExternalReceipt;
     56          uint8_t CPss21::m_uiExternalReset;
     57          uint8_t CPss21::m_uiModbusReceipt;
     58          uint8_t CPss21::m_uiModbusReset;
     59          uint8_t CPss21::m_uiDiscreteSignalsReceipt;
     60          uint8_t CPss21::m_uiDiscreteSignalsReset;
     61          uint8_t CPss21::m_uiErrorCode;
     62          uint8_t CPss21::m_uiModuleIndex;
     63          CEventUniteLogicAnd CPss21::m_xEventUniteLogicAndOne(500);
   \   000000C0   EF24               LDI     R18, 244
   \   000000C2   E031               LDI     R19, 1
   \   000000C4   ....               LDI     R16, LOW(??m_xEventUniteLogicAndOne)
   \   000000C6   ....               LDI     R17, (??m_xEventUniteLogicAndOne) >> 8
   \   000000C8   ........           CALL    ??CEventUniteLogicAnd
   \   000000CC   ....               LDI     R16, LOW(?_14)
   \   000000CE   ....               LDI     R17, (?_14) >> 8
   \   000000D0   ........           CALL    __record_needed_destruction
     64          CTimer CPss21::m_xMainCycleTimer(MAIN_CYCLE_PERIOD_TIME);
   \   000000D4   E624               LDI     R18, 100
   \   000000D6   E030               LDI     R19, 0
   \   000000D8   ....               LDI     R16, LOW(??m_xMainCycleTimer)
   \   000000DA   ....               LDI     R17, (??m_xMainCycleTimer) >> 8
   \   000000DC   ........           CALL    ??CTimer
   \   000000E0   ....               LDI     R16, LOW(?_16)
   \   000000E2   ....               LDI     R17, (?_16) >> 8
   \   000000E4   ........           CALL    __record_needed_destruction
     65          //CTimer CPss21::m_xPeripheryTimer(PERIPHERY_SCAN_TIME);
     66          
     67          CPreventiveAlarmWindowNotifyerControl CPss21::m_xPreventiveAlarmWindowNotifyerControl;
   \   000000E8   ....               LDI     R16, LOW(??m_xPreventiveAlarmWindowNotifyerControl)
   \   000000EA   ....               LDI     R17, (??m_xPreventiveAlarmWindowNotifyerControl) >> 8
   \   000000EC   ........           CALL    ??CPreventiveAlarmWindowNotifyerControl
   \   000000F0   ....               LDI     R16, LOW(?_18)
   \   000000F2   ....               LDI     R17, (?_18) >> 8
   \   000000F4   ........           CALL    __record_needed_destruction
     68          CEmergencyAlarmWindowNotifyerControl CPss21::m_xEmergencyAlarmWindowNotifyerControl;
   \   000000F8   ....               LDI     R16, LOW(??m_xEmergencyAlarmWindowNotifyerControl)
   \   000000FA   ....               LDI     R17, (??m_xEmergencyAlarmWindowNotifyerControl) >> 8
   \   000000FC   ........           CALL    ??CEmergencyAlarmWindowNotifyerControl
   \   00000100   ....               LDI     R16, LOW(?_20)
   \   00000102   ....               LDI     R17, (?_20) >> 8
   \   00000104   ........           CALL    __record_needed_destruction
     69          CStatusLedNotifyerControl CPss21::m_xStatusLedNotifyerControl;
   \   00000108   ....               LDI     R16, LOW(??m_xStatusLedNotifyerControl)
   \   0000010A   ....               LDI     R17, (??m_xStatusLedNotifyerControl) >> 8
   \   0000010C   ........           CALL    ??CStatusLedNotifyerControl
   \   00000110   ....               LDI     R16, LOW(?_22)
   \   00000112   ....               LDI     R17, (?_22) >> 8
   \   00000114   ........           CALL    __record_needed_destruction
     70          CBuzzerNotifyerControl CPss21::m_xBuzzerNotifyerControl;
   \   00000118   ....               LDI     R16, LOW(??m_xBuzzerNotifyerControl)
   \   0000011A   ....               LDI     R17, (??m_xBuzzerNotifyerControl) >> 8
   \   0000011C   ........           CALL    ??CBuzzerNotifyerControl
   \   00000120   ....               LDI     R16, LOW(?_24)
   \   00000122   ....               LDI     R17, (?_24) >> 8
   \   00000124   ........           CALL    __record_needed_destruction
     71          CModbusRtuLinkControl CPss21::m_xModbusRtuLinkControl;
   \   00000128   ....               LDI     R16, LOW(??m_xModbusRtuLinkControl)
   \   0000012A   ....               LDI     R17, (??m_xModbusRtuLinkControl) >> 8
   \   0000012C   ........           CALL    ??CModbusRtuLinkControl
   \   00000130   ....               LDI     R16, LOW(?_26)
   \   00000132   ....               LDI     R17, (?_26) >> 8
   \   00000134   ........           CALL    __record_needed_destruction
     72          
     73          uint8_t CPss21::m_uiCommonAlarmType;
     74          uint8_t CPss21::m_uiCommonAlarmTypePrevious;
     75          CLightBoard CPss21::m_xLightBoard;
   \   00000138   ....               LDI     R16, LOW(??m_xLightBoard)
   \   0000013A   ....               LDI     R17, (??m_xLightBoard) >> 8
   \   0000013C   ........           CALL    ??CLightBoard
   \   00000140   ....               LDI     R16, LOW(?_28)
   \   00000142   ....               LDI     R17, (?_28) >> 8
   \   00000144   ........           CALL    __record_needed_destruction
     76          TConfigDataPackOne CPss21::m_xDeviceConfigSearch;
     77          TDevConfig CPss21::m_xDeviceConfiguration;
     78          TDeviceState CPss21::m_xDeviceState;
     79          TMBusSetting CPss21::m_xModbusSettings;
     80          CAlarmDfa *CPss21::m_apxAlarmDfa[];
     81          TDiscreteOutputControl CPss21::m_axDiscreteOutputControl[];
     82          TOutputData CPss21::m_xDiscreteOutputDataBase;
     83          CAlarmWindow CPss21::m_axAlarmWindowControl[];
   \   00000148   ....               LDI     R22, LOW(??CAlarmWindow/2)
   \   0000014A   ....               LDI     R23, (??CAlarmWindow/2) >> 8
   \   0000014C   E046               LDI     R20, 6
   \   0000014E   E050               LDI     R21, 0
   \   00000150   E320               LDI     R18, 48
   \   00000152   E030               LDI     R19, 0
   \   00000154   ....               LDI     R16, LOW(??m_axAlarmWindowControl)
   \   00000156   ....               LDI     R17, (??m_axAlarmWindowControl) >> 8
   \   00000158   ........           CALL    __near_vec_construct
   \   0000015C   ....               LDI     R16, LOW(?_30)
   \   0000015E   ....               LDI     R17, (?_30) >> 8
   \   00000160   ........           CALL    __record_needed_destruction
   \   00000164   9508               RET
   \   00000166                      REQUIRE _A_UBRR1H
   \   00000166                      REQUIRE _A_UBRR1L
   \   00000166                      REQUIRE _A_UCSR1A
   \   00000166                      REQUIRE _A_UCSR1B
   \   00000166                      REQUIRE _A_UCSR1C
   \   00000166                      REQUIRE _A_UDR1
   \   00000166                      REQUIRE _A_DDRC
   \   00000166                      REQUIRE _A_PORTC

   \                                 In  segment CODE, align 2, keep-with-next
   \                     `?<Unnamed 0>`:
   \   00000000   939A               ST      -Y, R25
   \   00000002   938A               ST      -Y, R24
   \   00000004   01C8               MOVW    R25:R24, R17:R16
   \   00000006   E022               LDI     R18, 2
   \   00000008   E030               LDI     R19, 0
   \   0000000A   018C               MOVW    R17:R16, R25:R24
   \   0000000C   ........           CALL    `?~CUart`
   \   00000010   9189               LD      R24, Y+
   \   00000012   9199               LD      R25, Y+
   \   00000014   9508               RET

   \                                 In  segment NEAR_Z, align 1, keep-with-next, root
   \   00000000                      REQUIRE `?<Segment init: NEAR_Z>`
   \                     ??m_xUart1:
   \   00000000                      DS8 47

   \                                 In  segment CODE, align 2, keep-with-next
   \                     `?<Unnamed 1>`:
   \   00000000   939A               ST      -Y, R25
   \   00000002   938A               ST      -Y, R24
   \   00000004   01C8               MOVW    R25:R24, R17:R16
   \   00000006   E022               LDI     R18, 2
   \   00000008   E030               LDI     R19, 0
   \   0000000A   018C               MOVW    R17:R16, R25:R24
   \   0000000C   ........           CALL    `?~CModbusRTU`
   \   00000010   9189               LD      R24, Y+
   \   00000012   9199               LD      R25, Y+
   \   00000014   9508               RET

   \                                 In  segment NEAR_Z, align 1, keep-with-next, root
   \   00000000                      REQUIRE `?<Segment init: NEAR_Z>`
   \                     ??m_xModbusRtuOne:
   \   00000000                      DS8 49

   \                                 In  segment CODE, align 2, keep-with-next
   \                     `?<Unnamed 2>`:
   \   00000000   939A               ST      -Y, R25
   \   00000002   938A               ST      -Y, R24
   \   00000004   01C8               MOVW    R25:R24, R17:R16
   \   00000006   E022               LDI     R18, 2
   \   00000008   E030               LDI     R19, 0
   \   0000000A   018C               MOVW    R17:R16, R25:R24
   \   0000000C   ........           CALL    `?~CDataStore`
   \   00000010   9189               LD      R24, Y+
   \   00000012   9199               LD      R25, Y+
   \   00000014   9508               RET

   \                                 In  segment NEAR_Z, align 1, keep-with-next, root
   \   00000000                      REQUIRE `?<Segment init: NEAR_Z>`
   \                     ??m_xDataStore:
   \   00000000                      DS8 137

   \                                 In  segment CODE, align 2, keep-with-next
   \                     `?<Unnamed 3>`:
   \   00000000   939A               ST      -Y, R25
   \   00000002   938A               ST      -Y, R24
   \   00000004   01C8               MOVW    R25:R24, R17:R16
   \   00000006   E022               LDI     R18, 2
   \   00000008   E030               LDI     R19, 0
   \   0000000A   018C               MOVW    R17:R16, R25:R24
   \   0000000C   ........           CALL    `?~CMultiFunctionKey`
   \   00000010   9189               LD      R24, Y+
   \   00000012   9199               LD      R25, Y+
   \   00000014   9508               RET

   \                                 In  segment NEAR_Z, align 1, keep-with-next, root
   \   00000000                      REQUIRE `?<Segment init: NEAR_Z>`
   \                     ??m_xReceiptKey:
   \   00000000                      DS8 15

   \                                 In  segment NEAR_Z, align 1, keep-with-next, root
   \   00000000                      REQUIRE `?<Segment init: NEAR_Z>`
   \                     ??m_xResetKey:
   \   00000000                      DS8 15

   \                                 In  segment NEAR_Z, align 1, keep-with-next, root
   \   00000000                      REQUIRE `?<Segment init: NEAR_Z>`
   \                     ??m_xCheckKey:
   \   00000000                      DS8 15

   \                                 In  segment NEAR_Z, align 1, keep-with-next, root
   \   00000000                      REQUIRE `?<Segment init: NEAR_Z>`
   \                     ??m_xExternalKey:
   \   00000000                      DS8 15

   \                                 In  segment NEAR_Z, align 1, keep-with-next, root
   \   00000000                      REQUIRE `?<Segment init: NEAR_Z>`
   \                     ??m_uiPanelReceipt:
   \   00000000                      DS8 1

   \                                 In  segment NEAR_Z, align 1, keep-with-next, root
   \   00000000                      REQUIRE `?<Segment init: NEAR_Z>`
   \                     ??m_uiPanelReset:
   \   00000000                      DS8 1

   \                                 In  segment NEAR_Z, align 1, keep-with-next, root
   \   00000000                      REQUIRE `?<Segment init: NEAR_Z>`
   \                     ??m_uiExternalReceipt:
   \   00000000                      DS8 1

   \                                 In  segment NEAR_Z, align 1, keep-with-next, root
   \   00000000                      REQUIRE `?<Segment init: NEAR_Z>`
   \                     ??m_uiExternalReset:
   \   00000000                      DS8 1

   \                                 In  segment NEAR_Z, align 1, keep-with-next, root
   \   00000000                      REQUIRE `?<Segment init: NEAR_Z>`
   \                     ??m_uiModbusReceipt:
   \   00000000                      DS8 1

   \                                 In  segment NEAR_Z, align 1, keep-with-next, root
   \   00000000                      REQUIRE `?<Segment init: NEAR_Z>`
   \                     ??m_uiModbusReset:
   \   00000000                      DS8 1

   \                                 In  segment NEAR_Z, align 1, keep-with-next, root
   \   00000000                      REQUIRE `?<Segment init: NEAR_Z>`
   \                     ??m_uiDiscreteSignalsReceipt:
   \   00000000                      DS8 1

   \                                 In  segment NEAR_Z, align 1, keep-with-next, root
   \   00000000                      REQUIRE `?<Segment init: NEAR_Z>`
   \                     ??m_uiDiscreteSignalsReset:
   \   00000000                      DS8 1

   \                                 In  segment NEAR_Z, align 1, keep-with-next, root
   \   00000000                      REQUIRE `?<Segment init: NEAR_Z>`
   \                     ??m_uiErrorCode:
   \   00000000                      DS8 1

   \                                 In  segment NEAR_Z, align 1, keep-with-next, root
   \   00000000                      REQUIRE `?<Segment init: NEAR_Z>`
   \                     ??m_uiModuleIndex:
   \   00000000                      DS8 1

   \                                 In  segment CODE, align 2, keep-with-next
   \                     `?<Unnamed 4>`:
   \   00000000   939A               ST      -Y, R25
   \   00000002   938A               ST      -Y, R24
   \   00000004   01C8               MOVW    R25:R24, R17:R16
   \   00000006   E022               LDI     R18, 2
   \   00000008   E030               LDI     R19, 0
   \   0000000A   018C               MOVW    R17:R16, R25:R24
   \   0000000C   ........           CALL    `?~CEventUniteLogicAnd`
   \   00000010   9189               LD      R24, Y+
   \   00000012   9199               LD      R25, Y+
   \   00000014   9508               RET

   \                                 In  segment NEAR_Z, align 1, keep-with-next, root
   \   00000000                      REQUIRE `?<Segment init: NEAR_Z>`
   \                     ??m_xEventUniteLogicAndOne:
   \   00000000                      DS8 14

   \                                 In  segment CODE, align 2, keep-with-next
   \                     `?<Unnamed 5>`:
   \   00000000   939A               ST      -Y, R25
   \   00000002   938A               ST      -Y, R24
   \   00000004   01C8               MOVW    R25:R24, R17:R16
   \   00000006   E022               LDI     R18, 2
   \   00000008   E030               LDI     R19, 0
   \   0000000A   018C               MOVW    R17:R16, R25:R24
   \   0000000C   ........           CALL    `?~CTimer`
   \   00000010   9189               LD      R24, Y+
   \   00000012   9199               LD      R25, Y+
   \   00000014   9508               RET

   \                                 In  segment NEAR_Z, align 1, keep-with-next, root
   \   00000000                      REQUIRE `?<Segment init: NEAR_Z>`
   \                     ??m_xMainCycleTimer:
   \   00000000                      DS8 6

   \                                 In  segment CODE, align 2, keep-with-next
   \                     `?<Unnamed 6>`:
   \   00000000   939A               ST      -Y, R25
   \   00000002   938A               ST      -Y, R24
   \   00000004   01C8               MOVW    R25:R24, R17:R16
   \   00000006   E022               LDI     R18, 2
   \   00000008   E030               LDI     R19, 0
   \   0000000A   018C               MOVW    R17:R16, R25:R24
   \   0000000C   ........           CALL    `?~CPreventiveAlarmWindowNotifyerControl`
   \   00000010   9189               LD      R24, Y+
   \   00000012   9199               LD      R25, Y+
   \   00000014   9508               RET

   \                                 In  segment NEAR_Z, align 1, keep-with-next, root
   \   00000000                      REQUIRE `?<Segment init: NEAR_Z>`
   \                     ??m_xPreventiveAlarmWindowNotifyerControl:
   \   00000000                      DS8 12

   \                                 In  segment CODE, align 2, keep-with-next
   \                     `?<Unnamed 7>`:
   \   00000000   939A               ST      -Y, R25
   \   00000002   938A               ST      -Y, R24
   \   00000004   01C8               MOVW    R25:R24, R17:R16
   \   00000006   E022               LDI     R18, 2
   \   00000008   E030               LDI     R19, 0
   \   0000000A   018C               MOVW    R17:R16, R25:R24
   \   0000000C   ........           CALL    `?~CEmergencyAlarmWindowNotifyerControl`
   \   00000010   9189               LD      R24, Y+
   \   00000012   9199               LD      R25, Y+
   \   00000014   9508               RET

   \                                 In  segment NEAR_Z, align 1, keep-with-next, root
   \   00000000                      REQUIRE `?<Segment init: NEAR_Z>`
   \                     ??m_xEmergencyAlarmWindowNotifyerControl:
   \   00000000                      DS8 12

   \                                 In  segment CODE, align 2, keep-with-next
   \                     `?<Unnamed 8>`:
   \   00000000   939A               ST      -Y, R25
   \   00000002   938A               ST      -Y, R24
   \   00000004   01C8               MOVW    R25:R24, R17:R16
   \   00000006   E022               LDI     R18, 2
   \   00000008   E030               LDI     R19, 0
   \   0000000A   018C               MOVW    R17:R16, R25:R24
   \   0000000C   ........           CALL    `?~CStatusLedNotifyerControl`
   \   00000010   9189               LD      R24, Y+
   \   00000012   9199               LD      R25, Y+
   \   00000014   9508               RET

   \                                 In  segment NEAR_Z, align 1, keep-with-next, root
   \   00000000                      REQUIRE `?<Segment init: NEAR_Z>`
   \                     ??m_xStatusLedNotifyerControl:
   \   00000000                      DS8 12

   \                                 In  segment CODE, align 2, keep-with-next
   \                     `?<Unnamed 9>`:
   \   00000000   939A               ST      -Y, R25
   \   00000002   938A               ST      -Y, R24
   \   00000004   01C8               MOVW    R25:R24, R17:R16
   \   00000006   E022               LDI     R18, 2
   \   00000008   E030               LDI     R19, 0
   \   0000000A   018C               MOVW    R17:R16, R25:R24
   \   0000000C   ........           CALL    `?~CBuzzerNotifyerControl`
   \   00000010   9189               LD      R24, Y+
   \   00000012   9199               LD      R25, Y+
   \   00000014   9508               RET

   \                                 In  segment NEAR_Z, align 1, keep-with-next, root
   \   00000000                      REQUIRE `?<Segment init: NEAR_Z>`
   \                     ??m_xBuzzerNotifyerControl:
   \   00000000                      DS8 12

   \                                 In  segment CODE, align 2, keep-with-next
   \                     `?<Unnamed 10>`:
   \   00000000   939A               ST      -Y, R25
   \   00000002   938A               ST      -Y, R24
   \   00000004   01C8               MOVW    R25:R24, R17:R16
   \   00000006   E022               LDI     R18, 2
   \   00000008   E030               LDI     R19, 0
   \   0000000A   018C               MOVW    R17:R16, R25:R24
   \   0000000C   ........           CALL    `?~CModbusRtuLinkControl`
   \   00000010   9189               LD      R24, Y+
   \   00000012   9199               LD      R25, Y+
   \   00000014   9508               RET

   \                                 In  segment NEAR_Z, align 1, keep-with-next, root
   \   00000000                      REQUIRE `?<Segment init: NEAR_Z>`
   \                     ??m_xModbusRtuLinkControl:
   \   00000000                      DS8 11

   \                                 In  segment NEAR_Z, align 1, keep-with-next, root
   \   00000000                      REQUIRE `?<Segment init: NEAR_Z>`
   \                     ??m_uiCommonAlarmType:
   \   00000000                      DS8 1

   \                                 In  segment NEAR_Z, align 1, keep-with-next, root
   \   00000000                      REQUIRE `?<Segment init: NEAR_Z>`
   \                     ??m_uiCommonAlarmTypePrevious:
   \   00000000                      DS8 1

   \                                 In  segment CODE, align 2, keep-with-next
   \                     `?<Unnamed 11>`:
   \   00000000   939A               ST      -Y, R25
   \   00000002   938A               ST      -Y, R24
   \   00000004   01C8               MOVW    R25:R24, R17:R16
   \   00000006   E022               LDI     R18, 2
   \   00000008   E030               LDI     R19, 0
   \   0000000A   018C               MOVW    R17:R16, R25:R24
   \   0000000C   ........           CALL    `?~CLightBoard`
   \   00000010   9189               LD      R24, Y+
   \   00000012   9199               LD      R25, Y+
   \   00000014   9508               RET

   \                                 In  segment NEAR_Z, align 1, keep-with-next, root
   \   00000000                      REQUIRE `?<Segment init: NEAR_Z>`
   \                     ??m_xLightBoard:
   \   00000000                      DS8 70

   \                                 In  segment NEAR_Z, align 1, keep-with-next, root
   \   00000000                      REQUIRE `?<Segment init: NEAR_Z>`
   \                     ??m_xDeviceConfigSearch:
   \   00000000                      DS8 9

   \                                 In  segment NEAR_Z, align 1, keep-with-next, root
   \   00000000                      REQUIRE `?<Segment init: NEAR_Z>`
   \                     ??m_xDeviceConfiguration:
   \   00000000                      DS8 20

   \                                 In  segment NEAR_Z, align 1, keep-with-next, root
   \   00000000                      REQUIRE `?<Segment init: NEAR_Z>`
   \                     ??m_xDeviceState:
   \   00000000                      DS8 8

   \                                 In  segment NEAR_Z, align 1, keep-with-next, root
   \   00000000                      REQUIRE `?<Segment init: NEAR_Z>`
   \                     ??m_xModbusSettings:
   \   00000000                      DS8 7

   \                                 In  segment NEAR_Z, align 1, keep-with-next, root
   \   00000000                      REQUIRE `?<Segment init: NEAR_Z>`
   \                     ??m_apxAlarmDfa:
   \   00000000                      DS8 192

   \                                 In  segment NEAR_Z, align 1, keep-with-next, root
   \   00000000                      REQUIRE `?<Segment init: NEAR_Z>`
   \                     ??m_axDiscreteOutputControl:
   \   00000000                      DS8 16

   \                                 In  segment NEAR_Z, align 1, keep-with-next, root
   \   00000000                      REQUIRE `?<Segment init: NEAR_Z>`
   \                     ??m_xDiscreteOutputDataBase:
   \   00000000                      DS8 24

   \                                 In  segment CODE, align 2, keep-with-next
   \                     `?<Unnamed 13>`:
   \   00000000   939A               ST      -Y, R25
   \   00000002   938A               ST      -Y, R24
   \   00000004   01C8               MOVW    R25:R24, R17:R16
   \   00000006   E022               LDI     R18, 2
   \   00000008   E030               LDI     R19, 0
   \   0000000A   018C               MOVW    R17:R16, R25:R24
   \   0000000C   ........           CALL    `?~CAlarmWindow`
   \   00000010   9189               LD      R24, Y+
   \   00000012   9199               LD      R25, Y+
   \   00000014   9508               RET

   \                                 In  segment NEAR_Z, align 1, keep-with-next, root
   \   00000000                      REQUIRE `?<Segment init: NEAR_Z>`
   \                     ??m_axAlarmWindowControl:
   \   00000000                      DS8 288
     84          

   \                                 In  segment NEAR_F, align 1, keep-with-next, root
     85          __flash uint8_t CPss21::m_auiErrorLedOn[] =
   \                     ??m_auiErrorLedOn:
   \   00000000   010101010101       DC8 1, 1, 1, 1, 1, 1, 1, 1, 1, 0, 0, 0, 0, 0, 0, 1, 1, 0, 0, 0, 0, 0, 0
   \              010100010000
   \              000001000001
   \              0000000000  
   \   00000017   010100000000       DC8 1, 1, 0, 0, 0, 0, 0, 0, 1, 1, 0, 0, 0, 0, 0, 0, 1, 1, 1, 1, 1, 1, 1
   \              000001010000
   \              000000000101
   \              0101010101  
   \   0000002E   0101               DC8 1, 1
     86          {
     87              1, 1, 1, 1,    1, 1, 1, 1,
     88              1, 0, 0, 0,    0, 0, 0, 1,
     89              1, 0, 0, 0,    0, 0, 0, 1,
     90              1, 0, 0, 0,    0, 0, 0, 1,
     91              1, 0, 0, 0,    0, 0, 0, 1,
     92              1, 1, 1, 1,    1, 1, 1, 1,
     93          };
     94          
     95          ////-----------------------------------------------------------------------------------------------------
     96          //CPss21::CPss21(uint8_t uiType, CDriver* pxDriver)// :
     97          ////    m_uiType(uiType),
     98          ////    m_pxDriver(pxDriver)
     99          //{
    100          //
    101          //}
    102          //
    103          ////-----------------------------------------------------------------------------------------------------
    104          //CPss21::~CPss21()
    105          //{
    106          //
    107          //}
    108          
    109          //-----------------------------------------------------------------------------------------------------

   \                                 In  segment CODE, align 2, keep-with-next
    110          void CPss21::ModbusInit(void)
   \                     ??ModbusInit:
    111          {
    112              CPlatform::m_pxUart1 = &m_xUart1;
   \   00000000   ....               LDI     R16, LOW(??m_xUart1)
   \   00000002   ....               LDI     R17, (??m_xUart1) >> 8
   \   00000004   ....               LDI     R30, LOW(??m_pxUart1)
   \   00000006   ....               LDI     R31, (??m_pxUart1) >> 8
   \   00000008   8300               ST      Z, R16
   \   0000000A   8311               STD     Z+1, R17
    113              m_xModbusRtuOne.Init(CPlatform::m_pxUart1,
    114                                   static_cast<uint32_t>((F_CPU / ((CPss21::m_xModbusSettings.BaudRate) + 1)) / 16UL),
    115                                   'N',
    116                                   8,
    117                                   1,
    118                                   CPss21::m_auiReceiveMessageBuff,
    119                                   CPss21::m_auiReceiveMessageBuff,//CPss21::m_auiTransmitMessageBuff,
    120                                   CPss21::m_aucRtuDiscreteDataArray,//CPss21::m_aucRtuCoilsArray,
    121                                   CPss21::m_aucRtuDiscreteDataArray,//CPss21::m_aucRtuDiscreteInputsArray,
    122                                   CPss21::m_aucRtuHoldingRegistersArray,
    123                                   CPss21::m_aucRtuInputRegistersArray,
    124                                   DISCRETE_DATA_ARRAY_LENGTH,
    125                                   DISCRETE_DATA_ARRAY_LENGTH,
    126                                   HOLDING_REGISTERS_ARRAY_LENGTH,
    127                                   INPUT_REGISTERS_ARRAY_LENGTH);
   \   0000000C   E008               LDI     R16, 8
   \   0000000E   E010               LDI     R17, 0
   \   00000010   931A               ST      -Y, R17
   \   00000012   930A               ST      -Y, R16
   \   00000014   E008               LDI     R16, 8
   \   00000016   E010               LDI     R17, 0
   \   00000018   931A               ST      -Y, R17
   \   0000001A   930A               ST      -Y, R16
   \   0000001C   E708               LDI     R16, 120
   \   0000001E   E010               LDI     R17, 0
   \   00000020   931A               ST      -Y, R17
   \   00000022   930A               ST      -Y, R16
   \   00000024   E708               LDI     R16, 120
   \   00000026   E010               LDI     R17, 0
   \   00000028   931A               ST      -Y, R17
   \   0000002A   930A               ST      -Y, R16
   \   0000002C   ....               LDI     R16, LOW(??m_aucRtuInputRegistersArray)
   \   0000002E   ....               LDI     R17, (??m_aucRtuInputRegistersArray) >> 8
   \   00000030   931A               ST      -Y, R17
   \   00000032   930A               ST      -Y, R16
   \   00000034   ....               LDI     R16, LOW(??m_aucRtuHoldingRegistersArray)
   \   00000036   ....               LDI     R17, (??m_aucRtuHoldingRegistersArray) >> 8
   \   00000038   931A               ST      -Y, R17
   \   0000003A   930A               ST      -Y, R16
   \   0000003C   ....               LDI     R16, LOW(??m_aucRtuDiscreteDataArray)
   \   0000003E   ....               LDI     R17, (??m_aucRtuDiscreteDataArray) >> 8
   \   00000040   931A               ST      -Y, R17
   \   00000042   930A               ST      -Y, R16
   \   00000044   ....               LDI     R16, LOW(??m_aucRtuDiscreteDataArray)
   \   00000046   ....               LDI     R17, (??m_aucRtuDiscreteDataArray) >> 8
   \   00000048   931A               ST      -Y, R17
   \   0000004A   930A               ST      -Y, R16
   \   0000004C   ....               LDI     R16, LOW(??m_auiReceiveMessageBuff)
   \   0000004E   ....               LDI     R17, (??m_auiReceiveMessageBuff) >> 8
   \   00000050   931A               ST      -Y, R17
   \   00000052   930A               ST      -Y, R16
   \   00000054   ....               LDI     R16, LOW(??m_auiReceiveMessageBuff)
   \   00000056   ....               LDI     R17, (??m_auiReceiveMessageBuff) >> 8
   \   00000058   931A               ST      -Y, R17
   \   0000005A   930A               ST      -Y, R16
   \   0000005C   E001               LDI     R16, 1
   \   0000005E   930A               ST      -Y, R16
   \   00000060   E008               LDI     R16, 8
   \   00000062   930A               ST      -Y, R16
   \   00000064   E40E               LDI     R16, 78
   \   00000066   930A               ST      -Y, R16
   \   00000068   9140....           LDS     R20, (??m_xModbusSettings + 1)
   \   0000006C   E050               LDI     R21, 0
   \   0000006E   5F4F               SUBI    R20, 255
   \   00000070   4F5F               SBCI    R21, 255
   \   00000072   2F65               MOV     R22, R21
   \   00000074   0F66               LSL     R22
   \   00000076   0B66               SBC     R22, R22
   \   00000078   2F76               MOV     R23, R22
   \   0000007A   E000               LDI     R16, 0
   \   0000007C   E810               LDI     R17, 128
   \   0000007E   E720               LDI     R18, 112
   \   00000080   E030               LDI     R19, 0
   \   00000082   ........           CALL    ?UL_DIVMOD_L03
   \   00000086   E044               LDI     R20, 4
   \   00000088   ........           CALL    ?UL_SHR_L03
   \   0000008C   01A8               MOVW    R21:R20, R17:R16
   \   0000008E   01B9               MOVW    R23:R22, R19:R18
   \   00000090   ....               LDI     R30, LOW(??m_pxUart1)
   \   00000092   ....               LDI     R31, (??m_pxUart1) >> 8
   \   00000094   8120               LD      R18, Z
   \   00000096   8131               LDD     R19, Z+1
   \   00000098   ....               LDI     R16, LOW(??m_xModbusRtuOne)
   \   0000009A   ....               LDI     R17, (??m_xModbusRtuOne) >> 8
   \   0000009C   ........           CALL    ??Init_1
    128              m_xModbusRtuOne.SlaveSet(CPss21::m_xModbusSettings.NetAddress);
   \   000000A0   9120....           LDS     R18, ??m_xModbusSettings
   \   000000A4   ....               LDI     R30, LOW(??m_xModbusRtuOne)
   \   000000A6   ....               LDI     R31, (??m_xModbusRtuOne) >> 8
   \   000000A8   8505               LDD     R16, Z+13
   \   000000AA   8516               LDD     R17, Z+14
   \   000000AC   ........           CALL    ??SlaveSet
    129              m_xModbusRtuOne.SetFsmState(CModbus::START_REQUEST);
   \   000000B0   E022               LDI     R18, 2
   \   000000B2   ....               LDI     R30, LOW(??m_xModbusRtuOne)
   \   000000B4   ....               LDI     R31, (??m_xModbusRtuOne) >> 8
   \   000000B6   8505               LDD     R16, Z+13
   \   000000B8   8516               LDD     R17, Z+14
   \   000000BA   ........           CALL    ??SetFsmState
    130          }
   \   000000BE   9508               RET
    131          
    132          //-----------------------------------------------------------------------------------------------------

   \                                 In  segment CODE, align 2, keep-with-next
    133          void CPss21::ModbusDefaultInit(void)
   \                     ??ModbusDefaultInit:
    134          {
    135              CPss21::m_xModbusSettings.NetAddress = 1;
   \   00000000   E001               LDI     R16, 1
   \   00000002   9300....           STS     ??m_xModbusSettings, R16
    136              // 9600 baud.
    137              CPss21::m_xModbusSettings.BaudRate = 47;
   \   00000006   E20F               LDI     R16, 47
   \   00000008   9300....           STS     (??m_xModbusSettings + 1), R16
    138              // Два стоп бита.
    139              CPss21::m_xModbusSettings.LinkParam = 0x08;
   \   0000000C   E008               LDI     R16, 8
   \   0000000E   9300....           STS     (??m_xModbusSettings + 2), R16
    140          
    141              ModbusInit();
   \   00000012   ....               RCALL   ??ModbusInit
    142          }
   \   00000014   9508               RET
    143          
    144          //-----------------------------------------------------------------------------------------------------

   \                                 In  segment CODE, align 2, keep-with-next
    145          void CPss21::Init(void)
   \                     ??Init:
    146          {
    147              m_xLightBoard.Init(m_axAlarmWindowControl);
   \   00000000   ....               LDI     R18, LOW(??m_axAlarmWindowControl)
   \   00000002   ....               LDI     R19, (??m_axAlarmWindowControl) >> 8
   \   00000004   ....               LDI     R16, LOW(??m_xLightBoard)
   \   00000006   ....               LDI     R17, (??m_xLightBoard) >> 8
   \   00000008   ........           CALL    ??Init_2
    148              m_uiCommonAlarmType = NORMAL;
   \   0000000C   E000               LDI     R16, 0
   \   0000000E   9300....           STS     ??m_uiCommonAlarmType, R16
    149              m_uiCommonAlarmTypePrevious = NORMAL;
   \   00000012   E000               LDI     R16, 0
   \   00000014   9300....           STS     ??m_uiCommonAlarmTypePrevious, R16
    150              SetErrorCode(0);
   \   00000018   E000               LDI     R16, 0
   \   0000001A   ........           CALL    ??SetErrorCode
    151          }
   \   0000001E   9508               RET
    152          
    153          //-----------------------------------------------------------------------------------------------------

   \                                 In  segment CODE, align 2, keep-with-next
    154          void CPss21::AddressBusInit(void)
   \                     ??AddressBusInit:
    155          {
    156              CPlatform::SpiSlaveSelectAddress0SetPinOutput();
   \   00000000   ........           CALL    ??SpiSlaveSelectAddress0SetPinOutput
    157              CPlatform::SpiSlaveSelectAddress1SetPinOutput();
   \   00000004   ........           CALL    ??SpiSlaveSelectAddress1SetPinOutput
    158              CPlatform::SpiSlaveSelectAddress2SetPinOutput();
   \   00000008   ........           CALL    ??SpiSlaveSelectAddress2SetPinOutput
    159              CPlatform::SpiSlaveSelectAddress3SetPinOutput();
   \   0000000C   ........           CALL    ??SpiSlaveSelectAddress3SetPinOutput
    160              CPlatform::SpiSlaveSelectEnableSetPinOutput();
   \   00000010   ........           CALL    ??SpiSlaveSelectEnableSetPinOutput
    161              CPlatform::SpiSlaveSelectAddress0On();
   \   00000014   ........           CALL    ??SpiSlaveSelectAddress0On
    162              CPlatform::SpiSlaveSelectAddress1On();
   \   00000018   ........           CALL    ??SpiSlaveSelectAddress1On
    163              CPlatform::SpiSlaveSelectAddress2On();
   \   0000001C   ........           CALL    ??SpiSlaveSelectAddress2On
    164              CPlatform::SpiSlaveSelectAddress3On();
   \   00000020   ........           CALL    ??SpiSlaveSelectAddress3On
    165              CPlatform::SpiSlaveSelectEnableOff();
   \   00000024   ........           CALL    ??SpiSlaveSelectEnableOff
    166          };
   \   00000028   9508               RET
    167          
    168          //-----------------------------------------------------------------------------------------------------

   \                                 In  segment CODE, align 2, keep-with-next
    169          void CPss21::ConnectDevice(uint8_t uiAddress)
   \                     ??ConnectDevice:
    170          {
   \   00000000   938A               ST      -Y, R24
   \   00000002   2F80               MOV     R24, R16
    171              uiAddress &= 0x0F;
   \   00000004   708F               ANDI    R24, 0x0F
    172          
    173              if (uiAddress &  BIT(0))
   \   00000006   FB80               BST     R24, 0
   \   00000008   F41E               BRTC    ??ConnectDevice_1
    174              {
    175                  CPlatform::SpiSlaveSelectAddress0Off();
   \   0000000A   ........           CALL    ??SpiSlaveSelectAddress0Off
   \   0000000E   C002               RJMP    ??ConnectDevice_2
    176              }
    177              else
    178              {
    179                  CPlatform::SpiSlaveSelectAddress0On();
   \                     ??ConnectDevice_1:
   \   00000010   ........           CALL    ??SpiSlaveSelectAddress0On
    180              }
    181              if (uiAddress &  BIT(1))
   \                     ??ConnectDevice_2:
   \   00000014   FB81               BST     R24, 1
   \   00000016   F41E               BRTC    ??ConnectDevice_3
    182              {
    183                  CPlatform::SpiSlaveSelectAddress1Off();
   \   00000018   ........           CALL    ??SpiSlaveSelectAddress1Off
   \   0000001C   C002               RJMP    ??ConnectDevice_4
    184              }
    185              else
    186              {
    187                  CPlatform::SpiSlaveSelectAddress1On();
   \                     ??ConnectDevice_3:
   \   0000001E   ........           CALL    ??SpiSlaveSelectAddress1On
    188              }
    189              if (uiAddress &  BIT(2))
   \                     ??ConnectDevice_4:
   \   00000022   FB82               BST     R24, 2
   \   00000024   F41E               BRTC    ??ConnectDevice_5
    190              {
    191                  CPlatform::SpiSlaveSelectAddress2Off();
   \   00000026   ........           CALL    ??SpiSlaveSelectAddress2Off
   \   0000002A   C002               RJMP    ??ConnectDevice_6
    192              }
    193              else
    194              {
    195                  CPlatform::SpiSlaveSelectAddress2On();
   \                     ??ConnectDevice_5:
   \   0000002C   ........           CALL    ??SpiSlaveSelectAddress2On
    196              }
    197              if (uiAddress &  BIT(3))
   \                     ??ConnectDevice_6:
   \   00000030   FB83               BST     R24, 3
   \   00000032   F41E               BRTC    ??ConnectDevice_7
    198              {
    199                  CPlatform::SpiSlaveSelectAddress3Off();
   \   00000034   ........           CALL    ??SpiSlaveSelectAddress3Off
   \   00000038   C002               RJMP    ??ConnectDevice_8
    200              }
    201              else
    202              {
    203                  CPlatform::SpiSlaveSelectAddress3On();
   \                     ??ConnectDevice_7:
   \   0000003A   ........           CALL    ??SpiSlaveSelectAddress3On
    204              }
    205          
    206              CPlatform::SpiSlaveSelectEnableOn();
   \                     ??ConnectDevice_8:
   \   0000003E   ........           CALL    ??SpiSlaveSelectEnableOn
    207              CSpi::Enable();
   \   00000042   ........           CALL    ??Enable
    208          };
   \   00000046   9189               LD      R24, Y+
   \   00000048   9508               RET
    209          
    210          //-----------------------------------------------------------------------------------------------------

   \                                 In  segment CODE, align 2, keep-with-next
    211          void CPss21::DisconnectDevice(void)
   \                     ??DisconnectDevice:
    212          {
    213              CSpi::Disable();
   \   00000000   ........           CALL    ??Disable
    214              CPlatform::SpiSlaveSelectEnableOff();
   \   00000004   ........           CALL    ??SpiSlaveSelectEnableOff
    215              CPlatform::SpiSlaveSelectAddress0Off();
   \   00000008   ........           CALL    ??SpiSlaveSelectAddress0Off
    216              CPlatform::SpiSlaveSelectAddress1Off();
   \   0000000C   ........           CALL    ??SpiSlaveSelectAddress1Off
    217              CPlatform::SpiSlaveSelectAddress2Off();
   \   00000010   ........           CALL    ??SpiSlaveSelectAddress2Off
    218              CPlatform::SpiSlaveSelectAddress3Off();
   \   00000014   ........           CALL    ??SpiSlaveSelectAddress3Off
    219          };
   \   00000018   9508               RET
    220          
    221          //-----------------------------------------------------------------------------------------------------

   \                                 In  segment CODE, align 2, keep-with-next
    222          void CPss21::SearchModules(void)
   \                     ??SearchModules:
    223          {
   \   00000000   939A               ST      -Y, R25
   \   00000002   938A               ST      -Y, R24
    224              delay_ms(500);
   \   00000004   EF04               LDI     R16, 244
   \   00000006   E011               LDI     R17, 1
   \   00000008   ........           CALL    ??delay_ms
    225              CPlatform::WatchdogReset();
   \   0000000C   ........           CALL    ??WatchdogReset
    226          
    227              memset(reinterpret_cast<uint8_t*>(&m_xDeviceConfigSearch),
    228                     0,
    229                     sizeof(struct TConfigDataPackOne));
   \   00000010   E049               LDI     R20, 9
   \   00000012   E050               LDI     R21, 0
   \   00000014   E020               LDI     R18, 0
   \   00000016   E030               LDI     R19, 0
   \   00000018   ....               LDI     R16, LOW(??m_xDeviceConfigSearch)
   \   0000001A   ....               LDI     R17, (??m_xDeviceConfigSearch) >> 8
   \   0000001C   ........           CALL    memset
    230          
    231              // опросим интерфейс SPI. какие модули присутствуют?
    232              for (uint8_t i = 0; i < SPI_MAX_BUS_ADDRESS; i++)
   \   00000020   E090               LDI     R25, 0
   \                     ??SearchModules_1:
   \   00000022   3190               CPI     R25, 16
   \   00000024   F008               BRCS    $+2+2
   \   00000026   C04D               RJMP    ??SearchModules_2
    233              {
    234                  // если модуль не ответил MODULE_REQUEST_QUANTITY раз,
    235                  // то его нет или он неисправен.
    236                  for (uint8_t j = 0; j < MODULE_REQUEST_QUANTITY; j++)
   \   00000028   E080               LDI     R24, 0
   \                     ??SearchModules_3:
   \   0000002A   3085               CPI     R24, 5
   \   0000002C   F008               BRCS    $+2+2
   \   0000002E   C047               RJMP    ??SearchModules_4
    237                  {
    238                      CPlatform::WatchdogReset();
   \   00000030   ........           CALL    ??WatchdogReset
    239                      delay_ms(5);
   \   00000034   E005               LDI     R16, 5
   \   00000036   E010               LDI     R17, 0
   \   00000038   ........           CALL    ??delay_ms
    240          
    241                      m_auiSpiTxBuffer[0] = GET_MODULE_TYPE_COMMAND;
   \   0000003C   E901               LDI     R16, 145
   \   0000003E   9300....           STS     ??m_auiSpiTxBuffer, R16
    242                      ConnectDevice(i);
   \   00000042   2F09               MOV     R16, R25
   \   00000044   ....               RCALL   ??ConnectDevice
    243                      delay_us(500);
   \   00000046   E60A               LDI     R16, 106
   \   00000048   E013               LDI     R17, 3
   \   0000004A   5001               SUBI    R16, 1
   \   0000004C   4010               SBCI    R17, 0
   \   0000004E   F7E9               BRNE    $-4
   \   00000050   C000               RJMP    $+2
   \   00000052   0000               NOP
    244                      CSpi::Exchange(m_auiSpiRxBuffer,
    245                                     m_auiSpiTxBuffer,
    246                                     GET_MODULE_TYPE_REQUEST_LENGTH);
   \   00000054   E044               LDI     R20, 4
   \   00000056   E050               LDI     R21, 0
   \   00000058   ....               LDI     R18, LOW(??m_auiSpiTxBuffer)
   \   0000005A   ....               LDI     R19, (??m_auiSpiTxBuffer) >> 8
   \   0000005C   ....               LDI     R16, LOW(??m_auiSpiRxBuffer)
   \   0000005E   ....               LDI     R17, (??m_auiSpiRxBuffer) >> 8
   \   00000060   ........           CALL    ??Exchange
    247                      DisconnectDevice();
   \   00000064   ....               RCALL   ??DisconnectDevice
    248          
    249                      // модуль отвечает?
    250                      if (m_auiSpiRxBuffer[SPI_COMMAND_BYTE_OFFSET] ==
    251                              GET_MODULE_TYPE_COMMAND)
   \   00000066   9100....           LDS     R16, (??m_auiSpiRxBuffer + 1)
   \   0000006A   3901               CPI     R16, 145
   \   0000006C   F531               BRNE    ??SearchModules_5
    252                      {
    253                          // обмен данными прошёл без ошибок?
    254                          if (iCrcSummOneByteCompare(&m_auiSpiRxBuffer[SPI_COMMAND_BYTE_OFFSET], 2))
   \   0000006E   E022               LDI     R18, 2
   \   00000070   E030               LDI     R19, 0
   \   00000072   ....               LDI     R16, LOW((??m_auiSpiRxBuffer + 1))
   \   00000074   ....               LDI     R17, HIGH((??m_auiSpiRxBuffer + 1))
   \   00000076   ........           CALL    ??iCrcSummOneByteCompare
   \   0000007A   2B01               OR      R16, R17
   \   0000007C   F0F1               BREQ    ??SearchModules_5
    255                          {
    256                              // сохраним тип модуля в массиве для упорядочивания следования модулей при поиске на SPI.
    257                              m_xDeviceConfigSearch.axModulesContext[m_xDeviceConfigSearch.uiModulesQuantity].uiType =
    258                                  m_auiSpiRxBuffer[MODULE_TYPE_OFFSET];
   \   0000007E   9120....           LDS     R18, (??m_auiSpiRxBuffer + 2)
   \   00000082   9100....           LDS     R16, ??m_xDeviceConfigSearch
   \   00000086   E010               LDI     R17, 0
   \   00000088   0F00               LSL     R16
   \   0000008A   1F11               ROL     R17
   \   0000008C   01F8               MOVW    R31:R30, R17:R16
   \   0000008E   ....               SUBI    R30, LOW((-(??m_xDeviceConfigSearch) & 0xFFFF))
   \   00000090   ....               SBCI    R31, (-(??m_xDeviceConfigSearch) & 0xFFFF) >> 8
   \   00000092   8321               STD     Z+1, R18
    259                              // сохраним адрес модуля в массиве для упорядочивания следования модулей при поиске на SPI.
    260                              m_xDeviceConfigSearch.axModulesContext[m_xDeviceConfigSearch.uiModulesQuantity].uiAddress = i;
   \   00000094   9100....           LDS     R16, ??m_xDeviceConfigSearch
   \   00000098   E010               LDI     R17, 0
   \   0000009A   0F00               LSL     R16
   \   0000009C   1F11               ROL     R17
   \   0000009E   01F8               MOVW    R31:R30, R17:R16
   \   000000A0   ....               SUBI    R30, LOW((-(??m_xDeviceConfigSearch) & 0xFFFF))
   \   000000A2   ....               SBCI    R31, (-(??m_xDeviceConfigSearch) & 0xFFFF) >> 8
   \   000000A4   8392               STD     Z+2, R25
    261                              // модуль присутствует. увеличим значение переменной -
    262                              // фактическое количество модулей в системе.
    263                              (m_xDeviceConfigSearch.uiModulesQuantity)++;
   \   000000A6   9100....           LDS     R16, ??m_xDeviceConfigSearch
   \   000000AA   9503               INC     R16
   \   000000AC   9300....           STS     ??m_xDeviceConfigSearch, R16
    264          
    265                              if (m_xDeviceConfigSearch.uiModulesQuantity >=
    266                                      INTERNAL_MODULE_QUANTITY)
   \   000000B0   9100....           LDS     R16, ??m_xDeviceConfigSearch
   \   000000B4   3003               CPI     R16, 3
   \   000000B6   F018               BRCS    ??SearchModules_4
    267                              {
    268                                  return;
   \   000000B8   C004               RJMP    ??SearchModules_2
    269                              }
    270                              // перейдём к опросу следующего адреса.
    271                              break;
    272                          }
    273                      }
    274                  }
   \                     ??SearchModules_5:
   \   000000BA   9583               INC     R24
   \   000000BC   CFB6               RJMP    ??SearchModules_3
    275              }
   \                     ??SearchModules_4:
   \   000000BE   9593               INC     R25
   \   000000C0   CFB0               RJMP    ??SearchModules_1
    276          };
   \                     ??SearchModules_2:
   \   000000C2   9189               LD      R24, Y+
   \   000000C4   9199               LD      R25, Y+
   \   000000C6   9508               RET
    277          
    278          //-----------------------------------------------------------------------------------------------------

   \                                 In  segment CODE, align 2, keep-with-next
    279          void CPss21::InitAllocationContext(TMemoryAllocationConext &xMemoryAllocationConext)
   \                     ??InitAllocationContext:
    280          {
    281              // Подготовим к отправке текущие адреса объектов системы используемых драйверами устройств.
    282          
    283              xMemoryAllocationConext.puiRxBuffer = m_auiSpiRxBuffer;
   \   00000000   ....               LDI     R18, LOW(??m_auiSpiRxBuffer)
   \   00000002   ....               LDI     R19, (??m_auiSpiRxBuffer) >> 8
   \   00000004   01F8               MOVW    R31:R30, R17:R16
   \   00000006   8321               STD     Z+1, R18
   \   00000008   8332               STD     Z+2, R19
    284              xMemoryAllocationConext.puiTxBuffer = m_auiSpiTxBuffer;
   \   0000000A   ....               LDI     R18, LOW(??m_auiSpiTxBuffer)
   \   0000000C   ....               LDI     R19, (??m_auiSpiTxBuffer) >> 8
   \   0000000E   01F8               MOVW    R31:R30, R17:R16
   \   00000010   8323               STD     Z+3, R18
   \   00000012   8334               STD     Z+4, R19
    285              xMemoryAllocationConext.puiErrorCode = &m_uiErrorCode;
   \   00000014   ....               LDI     R18, LOW(??m_uiErrorCode)
   \   00000016   ....               LDI     R19, (??m_uiErrorCode) >> 8
   \   00000018   01F8               MOVW    R31:R30, R17:R16
   \   0000001A   8325               STD     Z+5, R18
   \   0000001C   8336               STD     Z+6, R19
    286          
    287              // Обнулим общий объём выделенной памяти.
    288              xMemoryAllocationConext.uiUsedDiscreteInputs = 0;
   \   0000001E   01F8               MOVW    R31:R30, R17:R16
   \   00000020   E020               LDI     R18, 0
   \   00000022   8721               STD     Z+9, R18
    289              // Подключим буфер для хранения состояний дискретных входов.
    290              xMemoryAllocationConext.puiDiscreteInputs =
    291                  &m_aucRtuDiscreteDataArray[DISCRETE_INPUTS_BIT_ARRAY_OFFSET];
   \   00000024   ....               LDI     R18, LOW((??m_aucRtuDiscreteDataArray + 16))
   \   00000026   ....               LDI     R19, HIGH((??m_aucRtuDiscreteDataArray + 16))
   \   00000028   01F8               MOVW    R31:R30, R17:R16
   \   0000002A   8327               STD     Z+7, R18
   \   0000002C   8730               STD     Z+8, R19
    292          
    293              // Обнулим общий объём выделенной памяти.
    294              xMemoryAllocationConext.uiUsedDiscreteOutputState = 0;
   \   0000002E   01F8               MOVW    R31:R30, R17:R16
   \   00000030   E020               LDI     R18, 0
   \   00000032   8724               STD     Z+12, R18
    295              // Подключим буфер для хранения состояний дискретных выходов.
    296              xMemoryAllocationConext.puiDiscreteOutputState =
    297                  &m_aucRtuDiscreteDataArray[DISCRETE_OUTPUT_BIT_ARRAY_OFFSET];
   \   00000034   ....               LDI     R18, LOW((??m_aucRtuDiscreteDataArray + 112))
   \   00000036   ....               LDI     R19, HIGH((??m_aucRtuDiscreteDataArray + 112))
   \   00000038   01F8               MOVW    R31:R30, R17:R16
   \   0000003A   8722               STD     Z+10, R18
   \   0000003C   8733               STD     Z+11, R19
    298          
    299              // Обнулим общий объём выделенной памяти.
    300              xMemoryAllocationConext.uiUsedDiscreteOutputs = 0;
   \   0000003E   01F8               MOVW    R31:R30, R17:R16
   \   00000040   E020               LDI     R18, 0
   \   00000042   8727               STD     Z+15, R18
    301              // Подключим буфер для управления дискретными выходов.
    302              xMemoryAllocationConext.pxDiscreteOutputControl = m_axDiscreteOutputControl;
   \   00000044   ....               LDI     R18, LOW(??m_axDiscreteOutputControl)
   \   00000046   ....               LDI     R19, (??m_axDiscreteOutputControl) >> 8
   \   00000048   01F8               MOVW    R31:R30, R17:R16
   \   0000004A   8725               STD     Z+13, R18
   \   0000004C   8736               STD     Z+14, R19
    303          
    304              // Обнулим общий объём выделенной памяти.
    305              xMemoryAllocationConext.uiUsedDiscreteOutputDataBase = 0;
   \   0000004E   01F8               MOVW    R31:R30, R17:R16
   \   00000050   E020               LDI     R18, 0
   \   00000052   8B22               STD     Z+18, R18
    306              // Подключим буфер с базой данных модулей дискретных выходов.
    307              xMemoryAllocationConext.pxDiscreteOutputDataBase = &m_xDiscreteOutputDataBase;
   \   00000054   ....               LDI     R18, LOW(??m_xDiscreteOutputDataBase)
   \   00000056   ....               LDI     R19, (??m_xDiscreteOutputDataBase) >> 8
   \   00000058   01F8               MOVW    R31:R30, R17:R16
   \   0000005A   8B20               STD     Z+16, R18
   \   0000005C   8B31               STD     Z+17, R19
    308          };
   \   0000005E   9508               RET
    309          
    310          //-----------------------------------------------------------------------------------------------------

   \                                 In  segment CODE, align 2, keep-with-next
    311          void CPss21::CreateDevices(void)
   \                     ??CreateDevices:
    312          {
   \   00000000   93AA               ST      -Y, R26
   \   00000002   938A               ST      -Y, R24
   \   00000004   9763               SBIW    R29:R28, 19
    313              TMemoryAllocationConext xMemoryAllocationConext;
    314              InitAllocationContext(xMemoryAllocationConext);
   \   00000006   018E               MOVW    R17:R16, R29:R28
   \   00000008   ....               RCALL   ??InitAllocationContext
    315          
    316              for (uint8_t i = 0;
   \   0000000A   E0A0               LDI     R26, 0
    317                      i < (m_xDeviceConfigSearch.uiModulesQuantity);
   \                     ??CreateDevices_1:
   \   0000000C   9100....           LDS     R16, ??m_xDeviceConfigSearch
   \   00000010   17A0               CP      R26, R16
   \   00000012   F008               BRCS    $+2+2
   \   00000014   C09D               RJMP    ??CreateDevices_2
    318                      i++)
    319              {
    320                  CPlatform::WatchdogReset();
   \   00000016   ........           CALL    ??WatchdogReset
    321          
    322                  uint8_t uiType = m_xDeviceConfigSearch.axModulesContext[i].uiType;
   \   0000001A   2F0A               MOV     R16, R26
   \   0000001C   E010               LDI     R17, 0
   \   0000001E   0F00               LSL     R16
   \   00000020   1F11               ROL     R17
   \   00000022   01F8               MOVW    R31:R30, R17:R16
   \   00000024   ....               SUBI    R30, LOW((-(??m_xDeviceConfigSearch) & 0xFFFF))
   \   00000026   ....               SBCI    R31, (-(??m_xDeviceConfigSearch) & 0xFFFF) >> 8
   \   00000028   8181               LDD     R24, Z+1
    323                  switch (uiType)
   \   0000002A   2F08               MOV     R16, R24
   \   0000002C   5001               SUBI    R16, 1
   \   0000002E   F069               BREQ    ??CreateDevices_3
   \   00000030   950A               DEC     R16
   \   00000032   F409               BRNE    $+2+2
   \   00000034   C08B               RJMP    ??CreateDevices_4
   \   00000036   950A               DEC     R16
   \   00000038   F409               BRNE    $+2+2
   \   0000003A   C048               RJMP    ??CreateDevices_5
   \   0000003C   950A               DEC     R16
   \   0000003E   F409               BRNE    $+2+2
   \   00000040   C045               RJMP    ??CreateDevices_5
   \   00000042   950A               DEC     R16
   \   00000044   F409               BRNE    $+2+2
   \   00000046   C082               RJMP    ??CreateDevices_4
   \   00000048   C081               RJMP    ??CreateDevices_4
    324                  {
    325                  case MODULE_TYPE_MVSN:
    326          //        case MODULE_TYPE_MVDI:
    327          //        case MODULE_TYPE_MVDS9:
    328          //            m_apxDevices[i] = new CMvsn21;
    329          //            m_apxDevices[i] -> m_pxDriver = new CMvsn21Driver(uiType);
    330                      m_apxDrivers[i] = new CMvsn21Driver(uiType);
   \                     ??CreateDevices_3:
   \   0000004A   E101               LDI     R16, 17
   \   0000004C   E010               LDI     R17, 0
   \   0000004E   ........           CALL    `??operator new`
   \   00000052   2F20               MOV     R18, R16
   \   00000054   2B21               OR      R18, R17
   \   00000056   F021               BREQ    ??CreateDevices_6
   \   00000058   2F28               MOV     R18, R24
   \   0000005A   ........           CALL    ??CMvsn21Driver
   \   0000005E   C002               RJMP    ??CreateDevices_7
   \                     ??CreateDevices_6:
   \   00000060   E000               LDI     R16, 0
   \   00000062   E010               LDI     R17, 0
   \                     ??CreateDevices_7:
   \   00000064   2F2A               MOV     R18, R26
   \   00000066   E030               LDI     R19, 0
   \   00000068   0F22               LSL     R18
   \   0000006A   1F33               ROL     R19
   \   0000006C   01F9               MOVW    R31:R30, R19:R18
   \   0000006E   ....               SUBI    R30, LOW((-(??m_apxDrivers) & 0xFFFF))
   \   00000070   ....               SBCI    R31, (-(??m_apxDrivers) & 0xFFFF) >> 8
   \   00000072   8300               ST      Z, R16
   \   00000074   8311               STD     Z+1, R17
    331                      xMemoryAllocationConext.uiAddress = m_xDeviceConfigSearch.axModulesContext[i].uiAddress;
   \   00000076   2F0A               MOV     R16, R26
   \   00000078   E010               LDI     R17, 0
   \   0000007A   0F00               LSL     R16
   \   0000007C   1F11               ROL     R17
   \   0000007E   01F8               MOVW    R31:R30, R17:R16
   \   00000080   ....               SUBI    R30, LOW((-(??m_xDeviceConfigSearch) & 0xFFFF))
   \   00000082   ....               SBCI    R31, (-(??m_xDeviceConfigSearch) & 0xFFFF) >> 8
   \   00000084   8102               LDD     R16, Z+2
   \   00000086   8308               ST      Y, R16
    332          //            m_apxDevices[i] -> m_pxDriver -> Allocate(xMemoryAllocationConext);
    333                      m_apxDrivers[i] -> Allocate(xMemoryAllocationConext);
   \   00000088   019E               MOVW    R19:R18, R29:R28
   \   0000008A   2F0A               MOV     R16, R26
   \   0000008C   E010               LDI     R17, 0
   \   0000008E   0F00               LSL     R16
   \   00000090   1F11               ROL     R17
   \   00000092   01F8               MOVW    R31:R30, R17:R16
   \   00000094   ....               SUBI    R30, LOW((-(??m_apxDrivers) & 0xFFFF))
   \   00000096   ....               SBCI    R31, (-(??m_apxDrivers) & 0xFFFF) >> 8
   \   00000098   8100               LD      R16, Z
   \   0000009A   8111               LDD     R17, Z+1
   \   0000009C   2F4A               MOV     R20, R26
   \   0000009E   E050               LDI     R21, 0
   \   000000A0   0F44               LSL     R20
   \   000000A2   1F55               ROL     R21
   \   000000A4   01FA               MOVW    R31:R30, R21:R20
   \   000000A6   ....               SUBI    R30, LOW((-(??m_apxDrivers) & 0xFFFF))
   \   000000A8   ....               SBCI    R31, (-(??m_apxDrivers) & 0xFFFF) >> 8
   \   000000AA   8140               LD      R20, Z
   \   000000AC   8151               LDD     R21, Z+1
   \   000000AE   01FA               MOVW    R31:R30, R21:R20
   \   000000B0   8147               LDD     R20, Z+7
   \   000000B2   8550               LDD     R21, Z+8
   \   000000B4   01FA               MOVW    R31:R30, R21:R20
   \   000000B6   9145               LPM     R20, Z+
   \   000000B8   9154               LPM     R21, Z
   \   000000BA   9731               SBIW    R31:R30, 1
   \   000000BC   01FA               MOVW    R31:R30, R21:R20
   \   000000BE   9509               ICALL
    334                      m_xDeviceConfigSearch.uiDiscreteInputQuantity += 1;
   \   000000C0   9100....           LDS     R16, (??m_xDeviceConfigSearch + 8)
   \   000000C4   9503               INC     R16
   \   000000C6   9300....           STS     (??m_xDeviceConfigSearch + 8), R16
    335                      break;
   \   000000CA   C040               RJMP    ??CreateDevices_4
    336          
    337                  case MODULE_TYPE_MVDO5:
    338                      break;
    339          
    340                  case MODULE_TYPE_MR53:
    341                  case MODULE_TYPE_MR54:
    342          //            m_apxDevices[i] = new CModuleMrXX;
    343          //            m_apxDevices[i] -> m_pxDriver = new CModuleMrXXDriver(uiType);
    344                      m_apxDrivers[i] = new CModuleMrXXDriver(uiType);
   \                     ??CreateDevices_5:
   \   000000CC   E10C               LDI     R16, 28
   \   000000CE   E010               LDI     R17, 0
   \   000000D0   ........           CALL    `??operator new`
   \   000000D4   2F20               MOV     R18, R16
   \   000000D6   2B21               OR      R18, R17
   \   000000D8   F021               BREQ    ??CreateDevices_8
   \   000000DA   2F28               MOV     R18, R24
   \   000000DC   ........           CALL    ??CModuleMrXXDriver
   \   000000E0   C002               RJMP    ??CreateDevices_9
   \                     ??CreateDevices_8:
   \   000000E2   E000               LDI     R16, 0
   \   000000E4   E010               LDI     R17, 0
   \                     ??CreateDevices_9:
   \   000000E6   2F2A               MOV     R18, R26
   \   000000E8   E030               LDI     R19, 0
   \   000000EA   0F22               LSL     R18
   \   000000EC   1F33               ROL     R19
   \   000000EE   01F9               MOVW    R31:R30, R19:R18
   \   000000F0   ....               SUBI    R30, LOW((-(??m_apxDrivers) & 0xFFFF))
   \   000000F2   ....               SBCI    R31, (-(??m_apxDrivers) & 0xFFFF) >> 8
   \   000000F4   8300               ST      Z, R16
   \   000000F6   8311               STD     Z+1, R17
    345                      xMemoryAllocationConext.uiAddress = m_xDeviceConfigSearch.axModulesContext[i].uiAddress;
   \   000000F8   2F0A               MOV     R16, R26
   \   000000FA   E010               LDI     R17, 0
   \   000000FC   0F00               LSL     R16
   \   000000FE   1F11               ROL     R17
   \   00000100   01F8               MOVW    R31:R30, R17:R16
   \   00000102   ....               SUBI    R30, LOW((-(??m_xDeviceConfigSearch) & 0xFFFF))
   \   00000104   ....               SBCI    R31, (-(??m_xDeviceConfigSearch) & 0xFFFF) >> 8
   \   00000106   8102               LDD     R16, Z+2
   \   00000108   8308               ST      Y, R16
    346          //            m_apxDevices[i] -> m_pxDriver -> Allocate(xMemoryAllocationConext);
    347                      m_apxDrivers[i] -> Allocate(xMemoryAllocationConext);
   \   0000010A   019E               MOVW    R19:R18, R29:R28
   \   0000010C   2F0A               MOV     R16, R26
   \   0000010E   E010               LDI     R17, 0
   \   00000110   0F00               LSL     R16
   \   00000112   1F11               ROL     R17
   \   00000114   01F8               MOVW    R31:R30, R17:R16
   \   00000116   ....               SUBI    R30, LOW((-(??m_apxDrivers) & 0xFFFF))
   \   00000118   ....               SBCI    R31, (-(??m_apxDrivers) & 0xFFFF) >> 8
   \   0000011A   8100               LD      R16, Z
   \   0000011C   8111               LDD     R17, Z+1
   \   0000011E   2F4A               MOV     R20, R26
   \   00000120   E050               LDI     R21, 0
   \   00000122   0F44               LSL     R20
   \   00000124   1F55               ROL     R21
   \   00000126   01FA               MOVW    R31:R30, R21:R20
   \   00000128   ....               SUBI    R30, LOW((-(??m_apxDrivers) & 0xFFFF))
   \   0000012A   ....               SBCI    R31, (-(??m_apxDrivers) & 0xFFFF) >> 8
   \   0000012C   8140               LD      R20, Z
   \   0000012E   8151               LDD     R21, Z+1
   \   00000130   01FA               MOVW    R31:R30, R21:R20
   \   00000132   8147               LDD     R20, Z+7
   \   00000134   8550               LDD     R21, Z+8
   \   00000136   01FA               MOVW    R31:R30, R21:R20
   \   00000138   9145               LPM     R20, Z+
   \   0000013A   9154               LPM     R21, Z
   \   0000013C   9731               SBIW    R31:R30, 1
   \   0000013E   01FA               MOVW    R31:R30, R21:R20
   \   00000140   9509               ICALL
    348                      m_xDeviceConfigSearch.uiDiscreteOutputQuantity += 1;
   \   00000142   9100....           LDS     R16, (??m_xDeviceConfigSearch + 7)
   \   00000146   9503               INC     R16
   \   00000148   9300....           STS     (??m_xDeviceConfigSearch + 7), R16
    349                      break;
    350          
    351                  case MODULE_TYPE_MVI:
    352                      break;
    353          
    354                  default:
    355                      break;
    356                  }
    357              }
   \                     ??CreateDevices_4:
   \   0000014C   95A3               INC     R26
   \   0000014E   CF5E               RJMP    ??CreateDevices_1
    358          
    359              if(m_xDeviceConfiguration.FixConfig)
   \                     ??CreateDevices_2:
   \   00000150   ....               LDI     R30, LOW(??m_xDeviceConfiguration)
   \   00000152   ....               LDI     R31, (??m_xDeviceConfiguration) >> 8
   \   00000154   8103               LDD     R16, Z+3
   \   00000156   FF00               SBRS    R16, 0
   \   00000158   C00F               RJMP    ??CreateDevices_10
    360              {
    361                  // Предыдущая сохранённая и текущая конфигурации не совпадают?
    362                  if((m_xDeviceConfiguration.ICount != m_xDeviceConfigSearch.uiDiscreteInputQuantity) ||
    363                          (m_xDeviceConfiguration.OCount != m_xDeviceConfigSearch.uiDiscreteOutputQuantity))
   \   0000015A   9100....           LDS     R16, ??m_xDeviceConfiguration
   \   0000015E   9110....           LDS     R17, (??m_xDeviceConfigSearch + 8)
   \   00000162   1701               CP      R16, R17
   \   00000164   F431               BRNE    ??CreateDevices_11
   \   00000166   9100....           LDS     R16, (??m_xDeviceConfiguration + 1)
   \   0000016A   9110....           LDS     R17, (??m_xDeviceConfigSearch + 7)
   \   0000016E   1701               CP      R16, R17
   \   00000170   F019               BREQ    ??CreateDevices_10
    364                  {
    365                      SetErrorCode(CFG_ERROR);
   \                     ??CreateDevices_11:
   \   00000172   E003               LDI     R16, 3
   \   00000174   ........           CALL    ??SetErrorCode
    366                  }
    367              }
    368          };
   \                     ??CreateDevices_10:
   \   00000178   9663               ADIW    R29:R28, 19
   \   0000017A   9189               LD      R24, Y+
   \   0000017C   91A9               LD      R26, Y+
   \   0000017E   9508               RET
    369          
    370          //-----------------------------------------------------------------------------------------------------

   \                                 In  segment CODE, align 2, keep-with-next
    371          void CPss21::DestroyDevices(uint8_t uiLength)
   \                     ??DestroyDevices:
    372          {
    373              for (uint16_t i = 0; i < uiLength; i++)
   \   00000000   E0E0               LDI     R30, 0
   \   00000002   E0F0               LDI     R31, 0
   \                     ??DestroyDevices_1:
   \   00000004   E010               LDI     R17, 0
   \   00000006   17E0               CP      R30, R16
   \   00000008   07F1               CPC     R31, R17
   \   0000000A   F410               BRCC    ??DestroyDevices_2
   \   0000000C   9631               ADIW    R31:R30, 1
   \   0000000E   CFFA               RJMP    ??DestroyDevices_1
    374              {
    375          //        delete m_apxDevices[i];
    376          //        delete m_apxDrivers[i];
    377              }
    378          };
   \                     ??DestroyDevices_2:
   \   00000010   9508               RET
    379          
    380          //-----------------------------------------------------------------------------------------------------

   \                                 In  segment CODE, align 2, keep-with-next
    381          uint16_t CPss21::ReportType(uint8_t *puiDestination, uint16_t uiLength)
   \                     ??ReportType:
    382          {
   \   00000000   ........           CALL    ?PROLOGUE6_L09
   \   00000004                      REQUIRE ?Register_R4_is_cg_reg
   \   00000004                      REQUIRE ?Register_R5_is_cg_reg
   \   00000004   0128               MOVW    R5:R4, R17:R16
   \   00000006   01C9               MOVW    R25:R24, R19:R18
    383              memset(m_auiSpiTxBuffer, 0, 6);
   \   00000008   E046               LDI     R20, 6
   \   0000000A   E050               LDI     R21, 0
   \   0000000C   E020               LDI     R18, 0
   \   0000000E   E030               LDI     R19, 0
   \   00000010   ....               LDI     R16, LOW(??m_auiSpiTxBuffer)
   \   00000012   ....               LDI     R17, (??m_auiSpiTxBuffer) >> 8
   \   00000014   ........           CALL    memset
    384              uint8_t uiLengthLocal = 0;
   \   00000018   E0A0               LDI     R26, 0
    385              m_auiSpiTxBuffer[uiLengthLocal++] = GET_MODULE_TYPE_COMMAND;
   \   0000001A   E0B0               LDI     R27, 0
   \   0000001C   01FD               MOVW    R31:R30, R27:R26
   \   0000001E   ....               SUBI    R30, LOW((-(??m_auiSpiTxBuffer) & 0xFFFF))
   \   00000020   ....               SBCI    R31, (-(??m_auiSpiTxBuffer) & 0xFFFF) >> 8
   \   00000022   E901               LDI     R16, 145
   \   00000024   8300               ST      Z, R16
   \   00000026   95A3               INC     R26
    386              m_auiSpiTxBuffer[uiLengthLocal++] = 0;
   \   00000028   E0B0               LDI     R27, 0
   \   0000002A   01FD               MOVW    R31:R30, R27:R26
   \   0000002C   ....               SUBI    R30, LOW((-(??m_auiSpiTxBuffer) & 0xFFFF))
   \   0000002E   ....               SBCI    R31, (-(??m_auiSpiTxBuffer) & 0xFFFF) >> 8
   \   00000030   E000               LDI     R16, 0
   \   00000032   8300               ST      Z, R16
   \   00000034   95A3               INC     R26
    387              m_auiSpiTxBuffer[uiLengthLocal++] = 0;
   \   00000036   E0B0               LDI     R27, 0
   \   00000038   01FD               MOVW    R31:R30, R27:R26
   \   0000003A   ....               SUBI    R30, LOW((-(??m_auiSpiTxBuffer) & 0xFFFF))
   \   0000003C   ....               SBCI    R31, (-(??m_auiSpiTxBuffer) & 0xFFFF) >> 8
   \   0000003E   E000               LDI     R16, 0
   \   00000040   8300               ST      Z, R16
   \   00000042   95A3               INC     R26
    388              m_auiSpiTxBuffer[uiLengthLocal++] = 0;
   \   00000044   E0B0               LDI     R27, 0
   \   00000046   01FD               MOVW    R31:R30, R27:R26
   \   00000048   ....               SUBI    R30, LOW((-(??m_auiSpiTxBuffer) & 0xFFFF))
   \   0000004A   ....               SBCI    R31, (-(??m_auiSpiTxBuffer) & 0xFFFF) >> 8
   \   0000004C   E000               LDI     R16, 0
   \   0000004E   8300               ST      Z, R16
   \   00000050   95A3               INC     R26
    389              m_auiSpiTxBuffer[uiLengthLocal++] = 0;
   \   00000052   E0B0               LDI     R27, 0
   \   00000054   01FD               MOVW    R31:R30, R27:R26
   \   00000056   ....               SUBI    R30, LOW((-(??m_auiSpiTxBuffer) & 0xFFFF))
   \   00000058   ....               SBCI    R31, (-(??m_auiSpiTxBuffer) & 0xFFFF) >> 8
   \   0000005A   E000               LDI     R16, 0
   \   0000005C   8300               ST      Z, R16
   \   0000005E   95A3               INC     R26
    390          
    391              ConnectDevice(0);
   \   00000060   E000               LDI     R16, 0
   \   00000062   ....               RCALL   ??ConnectDevice
    392              delay_us(500);
   \   00000064   E60A               LDI     R16, 106
   \   00000066   E013               LDI     R17, 3
   \   00000068   5001               SUBI    R16, 1
   \   0000006A   4010               SBCI    R17, 0
   \   0000006C   F7E9               BRNE    $-4
   \   0000006E   C000               RJMP    $+2
   \   00000070   0000               NOP
    393              CSpi::Exchange(m_auiSpiRxBuffer,
    394                             m_auiSpiTxBuffer,
    395                             uiLengthLocal);
   \   00000072   2F4A               MOV     R20, R26
   \   00000074   E050               LDI     R21, 0
   \   00000076   ....               LDI     R18, LOW(??m_auiSpiTxBuffer)
   \   00000078   ....               LDI     R19, (??m_auiSpiTxBuffer) >> 8
   \   0000007A   ....               LDI     R16, LOW(??m_auiSpiRxBuffer)
   \   0000007C   ....               LDI     R17, (??m_auiSpiRxBuffer) >> 8
   \   0000007E   ........           CALL    ??Exchange
    396              DisconnectDevice();
   \   00000082   ....               RCALL   ??DisconnectDevice
    397          
    398              return 1;
   \   00000084   E001               LDI     R16, 1
   \   00000086   E010               LDI     R17, 0
   \   00000088   E0E6               LDI     R30, 6
   \   0000008A   ........           JMP     ?EPILOGUE_B6_L09
    399          }
    400          
    401          //-----------------------------------------------------------------------------------------------------

   \                                 In  segment CODE, align 2, keep-with-next
    402          void CPss21::SetBytesFromBits(uint8_t *uiDestination,
   \                     ??SetBytesFromBits:
    403                                        uint8_t *uiSourse,
    404                                        uint16_t uiLength)
    405          {
   \   00000000   ........           CALL    ?PROLOGUE4_L09
   \   00000004   01B8               MOVW    R23:R22, R17:R16
   \   00000006   011A               MOVW    R3:R2, R21:R20
    406              int16_t shift = 0;
   \   00000008   E080               LDI     R24, 0
   \   0000000A   E090               LDI     R25, 0
    407          
    408              for (int16_t i = 0; i < uiLength; i++)
   \   0000000C   E0A0               LDI     R26, 0
   \   0000000E   E0B0               LDI     R27, 0
   \                     ??SetBytesFromBits_1:
   \   00000010   15A2               CP      R26, R2
   \   00000012   05B3               CPC     R27, R3
   \   00000014   F508               BRCC    ??SetBytesFromBits_2
    409              {
    410                  uiDestination[i] = uiSourse[(i) / 8] & (1 << shift) ? 1 : 0;
   \   00000016   E048               LDI     R20, 8
   \   00000018   E050               LDI     R21, 0
   \   0000001A   018D               MOVW    R17:R16, R27:R26
   \   0000001C   ........           CALL    ?SS_DIVMOD_L02
   \   00000020   01F9               MOVW    R31:R30, R19:R18
   \   00000022   0FE0               ADD     R30, R16
   \   00000024   1FF1               ADC     R31, R17
   \   00000026   8150               LD      R21, Z
   \   00000028   2F48               MOV     R20, R24
   \   0000002A   E001               LDI     R16, 1
   \   0000002C   E010               LDI     R17, 0
   \   0000002E   ........           CALL    ?S_SHL_L02
   \   00000032   2350               AND     R21, R16
   \   00000034   2355               TST     R21
   \   00000036   F011               BREQ    ??SetBytesFromBits_3
   \   00000038   E001               LDI     R16, 1
   \   0000003A   C001               RJMP    ??SetBytesFromBits_4
   \                     ??SetBytesFromBits_3:
   \   0000003C   E000               LDI     R16, 0
   \                     ??SetBytesFromBits_4:
   \   0000003E   01FB               MOVW    R31:R30, R23:R22
   \   00000040   0FEA               ADD     R30, R26
   \   00000042   1FFB               ADC     R31, R27
   \   00000044   8300               ST      Z, R16
    411                  /* gcc doesn't like: shift = (++shift) % 8; */
    412                  shift++;
   \   00000046   9601               ADIW    R25:R24, 1
    413                  shift %= 8;
   \   00000048   E048               LDI     R20, 8
   \   0000004A   E050               LDI     R21, 0
   \   0000004C   018C               MOVW    R17:R16, R25:R24
   \   0000004E   ........           CALL    ?SS_DIVMOD_L02
   \   00000052   01CA               MOVW    R25:R24, R21:R20
    414              }
   \   00000054   9611               ADIW    R27:R26, 1
   \   00000056   CFDC               RJMP    ??SetBytesFromBits_1
    415          }
   \                     ??SetBytesFromBits_2:
   \   00000058   E0E4               LDI     R30, 4
   \   0000005A   ........           JMP     ?EPILOGUE_B4_L09
    416          
    417          //-----------------------------------------------------------------------------------------------------

   \                                 In  segment CODE, align 2, keep-with-next
    418          void CPss21::ModbusDeviceControl(uint8_t* puiData, uint16_t uiLength, uint16_t uiAddress)
   \                     ??ModbusDeviceControl:
    419          {
   \   00000000   ........           CALL    ?PROLOGUE6_L09
   \   00000004                      REQUIRE ?Register_R4_is_cg_reg
   \   00000004                      REQUIRE ?Register_R5_is_cg_reg
   \   00000004   01D8               MOVW    R27:R26, R17:R16
   \   00000006   0129               MOVW    R5:R4, R19:R18
   \   00000008   01CA               MOVW    R25:R24, R21:R20
    420              // Команда - "Квитирование"?
    421              if (uiAddress == MODBUS_RECEIPT_ADDRESS)
   \   0000000A   2F08               MOV     R16, R24
   \   0000000C   2B09               OR      R16, R25
   \   0000000E   F459               BRNE    ??ModbusDeviceControl_2
    422              {
    423                  if (*puiData)
   \   00000010   910C               LD      R16, X
   \   00000012   2300               TST     R16
   \   00000014   F159               BREQ    ??ModbusDeviceControl_3
    424                  {
    425                      CPss21::SetModbusReceipt(1);
   \   00000016   E001               LDI     R16, 1
   \   00000018   ........           CALL    ??SetModbusReceipt_1
    426                      SetDiscreteSignalsReceipt(1);
   \   0000001C   E001               LDI     R16, 1
   \   0000001E   ........           CALL    ??SetDiscreteSignalsReceipt
    427                      SendToDevicesModbusReceipt();
   \   00000022   ....               RCALL   ??SendToDevicesModbusReceipt
   \   00000024   C023               RJMP    ??ModbusDeviceControl_3
    428                  }
    429              }
    430              // Команда - "Сброс"?
    431              else if (uiAddress == MODBUS_RESET_ADDRESS)
   \                     ??ModbusDeviceControl_2:
   \   00000026   3081               CPI     R24, 1
   \   00000028   E000               LDI     R16, 0
   \   0000002A   0790               CPC     R25, R16
   \   0000002C   F459               BRNE    ??ModbusDeviceControl_4
    432              {
    433                  if (*puiData)
   \   0000002E   910C               LD      R16, X
   \   00000030   2300               TST     R16
   \   00000032   F0E1               BREQ    ??ModbusDeviceControl_3
    434                  {
    435                      CPss21::SetModbusReset(1);
   \   00000034   E001               LDI     R16, 1
   \   00000036   ........           CALL    ??SetModbusReset_1
    436                      SetDiscreteSignalsReset(1);
   \   0000003A   E001               LDI     R16, 1
   \   0000003C   ........           CALL    ??SetDiscreteSignalsReset
    437                      SendToDevicesModbusReset();
   \   00000040   ....               RCALL   ??SendToDevicesModbusReset
   \   00000042   C014               RJMP    ??ModbusDeviceControl_3
    438                  }
    439              }
    440              // Изменение состояния окон сигнализации?
    441              else if ((uiAddress >= ALARM_WINDOWS_BIT_ARRAY_OFFSET) &&
    442                       (uiAddress < (ALARM_WINDOWS_BIT_ARRAY_OFFSET +
    443                                     ALARM_WINDOWS_ARRAY_LENGTH)))
   \                     ??ModbusDeviceControl_4:
   \   00000044   3480               CPI     R24, 64
   \   00000046   E000               LDI     R16, 0
   \   00000048   0790               CPC     R25, R16
   \   0000004A   F080               BRCS    ??ModbusDeviceControl_3
   \   0000004C   3780               CPI     R24, 112
   \   0000004E   E000               LDI     R16, 0
   \   00000050   0790               CPC     R25, R16
   \   00000052   F460               BRCC    ??ModbusDeviceControl_3
    444              {
    445                  SetBytesFromBits(&m_aucRtuDiscreteDataArray[uiAddress],
    446                                   puiData,
    447                                   uiLength);
   \   00000054   01A2               MOVW    R21:R20, R5:R4
   \   00000056   019D               MOVW    R19:R18, R27:R26
   \   00000058   ....               LDI     R16, LOW(??m_aucRtuDiscreteDataArray)
   \   0000005A   ....               LDI     R17, (??m_aucRtuDiscreteDataArray) >> 8
   \   0000005C   0F08               ADD     R16, R24
   \   0000005E   1F19               ADC     R17, R25
   \   00000060   ....               RCALL   ??SetBytesFromBits
    448                  // Сообщим автомату о состоявшемся сеансе связи.
    449                  m_xModbusRtuLinkControl.SetFsmEvent(CModbusRtuLinkControl::LINK_SESSION_HAPPENED_FSM_EVENT);
   \   00000062   E021               LDI     R18, 1
   \   00000064   ....               LDI     R16, LOW(??m_xModbusRtuLinkControl)
   \   00000066   ....               LDI     R17, (??m_xModbusRtuLinkControl) >> 8
   \   00000068   ........           CALL    ??SetFsmEvent
    450              }
    451          }
   \                     ??ModbusDeviceControl_3:
   \   0000006C   E0E6               LDI     R30, 6
   \   0000006E   ........           JMP     ?EPILOGUE_B6_L09
    452          
    453          //-----------------------------------------------------------------------------------------------------

   \                                 In  segment CODE, align 2, keep-with-next
    454          void CPss21::ModbusDeviceControl(uint8_t uiData, uint16_t uiAddress)
   \                     ??ModbusDeviceControl_1:
    455          {
   \   00000000   939A               ST      -Y, R25
   \   00000002   938A               ST      -Y, R24
   \   00000004   9721               SBIW    R29:R28, 1
   \   00000006   8308               ST      Y, R16
   \   00000008   01C9               MOVW    R25:R24, R19:R18
    456              ModbusDeviceControl(&uiData, 1, uiAddress);
   \   0000000A   01AC               MOVW    R21:R20, R25:R24
   \   0000000C   E021               LDI     R18, 1
   \   0000000E   E030               LDI     R19, 0
   \   00000010   018E               MOVW    R17:R16, R29:R28
   \   00000012   ....               RCALL   ??ModbusDeviceControl
    457          }
   \   00000014   9621               ADIW    R29:R28, 1
   \   00000016   9189               LD      R24, Y+
   \   00000018   9199               LD      R25, Y+
   \   0000001A   9508               RET
    458          
    459          //-----------------------------------------------------------------------------------------------------

   \                                 In  segment CODE, align 2, keep-with-next
    460          bool CPss21::ModbusRtuLinkControlIsOn(void)
   \                     ??ModbusRtuLinkControlIsOn:
    461          {
    462              if (m_xDeviceConfiguration.MBTimeout != 0)
   \   00000000   9100....           LDS     R16, (??m_xDeviceConfiguration + 5)
   \   00000004   2300               TST     R16
   \   00000006   F011               BREQ    ??ModbusRtuLinkControlIsOn_1
    463              {
    464                  return true;
   \   00000008   E001               LDI     R16, 1
   \   0000000A   9508               RET
    465              }
    466              else
    467              {
    468                  return false;
   \                     ??ModbusRtuLinkControlIsOn_1:
   \   0000000C   E000               LDI     R16, 0
   \   0000000E   9508               RET
    469              }
    470          }
    471          
    472          //-----------------------------------------------------------------------------------------------------

   \                                 In  segment CODE, align 2, keep-with-next
    473          uint16_t CPss21::GetTimeoutModbusRtuLinkControl(void)
   \                     ??GetTimeoutModbusRtuLinkControl:
    474          {
    475              return (m_xDeviceConfiguration.MBTimeout * 1000);
   \   00000000   9100....           LDS     R16, (??m_xDeviceConfiguration + 5)
   \   00000004   E010               LDI     R17, 0
   \   00000006   EE48               LDI     R20, 232
   \   00000008   E053               LDI     R21, 3
   \   0000000A   ........           CALL    ?S_EC_MUL_L02
   \   0000000E   9508               RET
    476          }
    477          
    478          //-----------------------------------------------------------------------------------------------------

   \                                 In  segment CODE, align 2, keep-with-next
    479          bool CPss21::ModbusRtuLinkControlInProgress(void)
   \                     ??ModbusRtuLinkControlInProgress:
    480          {
    481              if (m_xDeviceState.ModbusRtuLinkControlInProgress)
   \   00000000   ....               LDI     R30, LOW(??m_xDeviceState)
   \   00000002   ....               LDI     R31, (??m_xDeviceState) >> 8
   \   00000004   8100               LD      R16, Z
   \   00000006   FF00               SBRS    R16, 0
   \   00000008   C002               RJMP    ??ModbusRtuLinkControlInProgress_1
    482              {
    483                  return true;
   \   0000000A   E001               LDI     R16, 1
   \   0000000C   9508               RET
    484              }
    485              else
    486              {
    487                  return false;
   \                     ??ModbusRtuLinkControlInProgress_1:
   \   0000000E   E000               LDI     R16, 0
   \   00000010   9508               RET
    488              }
    489          }
    490          
    491          //-----------------------------------------------------------------------------------------------------

   \                                 In  segment CODE, align 2, keep-with-next
    492          void CPss21::SetModeModbusRtuLinkControlInProgress(bool bData)
   \                     ??SetModeModbusRtuLinkControlInProgress:
    493          {
   \   00000000   938A               ST      -Y, R24
   \   00000002   2F80               MOV     R24, R16
    494              m_xDeviceState.ModbusRtuLinkControlInProgress = bData;
   \   00000004   ....               LDI     R30, LOW(??m_xDeviceState)
   \   00000006   ....               LDI     R31, (??m_xDeviceState) >> 8
   \   00000008   FB80               BST     R24, 0
   \   0000000A   8100               LD      R16, Z
   \   0000000C   F900               BLD     R16, 0
   \   0000000E   8300               ST      Z, R16
    495              // Сохраним текущую конфигурацию.
    496              CDataBase::Write(reinterpret_cast<uint8_t*>(&m_xDeviceState),
    497                               CDataBase::GetBlockLength(TDataBase::DEVICE_STATE),
    498                               TDataBase::DEVICE_STATE);
   \   00000010   E00A               LDI     R16, 10
   \   00000012   ........           CALL    ??GetBlockLength
   \   00000016   0198               MOVW    R19:R18, R17:R16
   \   00000018   E04A               LDI     R20, 10
   \   0000001A   ....               LDI     R16, LOW(??m_xDeviceState)
   \   0000001C   ....               LDI     R17, (??m_xDeviceState) >> 8
   \   0000001E   ........           CALL    ??Write
    499              // База данных изменена при записи блока.
    500              // Поставим подтверждающую подпись.
    501              CDataBase::SignatureCreate();
   \   00000022   ........           CALL    ??SignatureCreate
    502          }
   \   00000026   9189               LD      R24, Y+
   \   00000028   9508               RET
    503          
    504          //-----------------------------------------------------------------------------------------------------

   \                                 In  segment CODE, align 2, keep-with-next
    505          void CPss21::SendToDevicesReceipt(void)
   \                     ??SendToDevicesReceipt:
    506          {
   \   00000000   938A               ST      -Y, R24
    507              for (uint8_t i = 0;
   \   00000002   E080               LDI     R24, 0
    508                      i < (m_xDeviceConfigSearch.uiModulesQuantity);
   \                     ??SendToDevicesReceipt_1:
   \   00000004   9100....           LDS     R16, ??m_xDeviceConfigSearch
   \   00000008   1780               CP      R24, R16
   \   0000000A   F470               BRCC    ??SendToDevicesReceipt_2
    509                      i++)
    510              {
    511                  m_apxDrivers[i] -> SetReceipt(1);
   \   0000000C   E021               LDI     R18, 1
   \   0000000E   2F08               MOV     R16, R24
   \   00000010   E010               LDI     R17, 0
   \   00000012   0F00               LSL     R16
   \   00000014   1F11               ROL     R17
   \   00000016   01F8               MOVW    R31:R30, R17:R16
   \   00000018   ....               SUBI    R30, LOW((-(??m_apxDrivers) & 0xFFFF))
   \   0000001A   ....               SBCI    R31, (-(??m_apxDrivers) & 0xFFFF) >> 8
   \   0000001C   8100               LD      R16, Z
   \   0000001E   8111               LDD     R17, Z+1
   \   00000020   ........           CALL    ??SetReceipt
    512              }
   \   00000024   9583               INC     R24
   \   00000026   CFEE               RJMP    ??SendToDevicesReceipt_1
    513          
    514              // Сообщим автомату о состоявшемся квитировании.
    515              m_xModbusRtuLinkControl.SetFsmEvent(CModbusRtuLinkControl::RECEIPT_HAPPENED_FSM_EVENT);
   \                     ??SendToDevicesReceipt_2:
   \   00000028   E022               LDI     R18, 2
   \   0000002A   ....               LDI     R16, LOW(??m_xModbusRtuLinkControl)
   \   0000002C   ....               LDI     R17, (??m_xModbusRtuLinkControl) >> 8
   \   0000002E   ........           CALL    ??SetFsmEvent
    516          }
   \   00000032   9189               LD      R24, Y+
   \   00000034   9508               RET
    517          
    518          //-----------------------------------------------------------------------------------------------------

   \                                 In  segment CODE, align 2, keep-with-next
    519          void CPss21::SendToDevicesReset(void)
   \                     ??SendToDevicesReset:
    520          {
   \   00000000   938A               ST      -Y, R24
    521              for (uint8_t i = 0;
   \   00000002   E080               LDI     R24, 0
    522                      i < (m_xDeviceConfigSearch.uiModulesQuantity);
   \                     ??SendToDevicesReset_1:
   \   00000004   9100....           LDS     R16, ??m_xDeviceConfigSearch
   \   00000008   1780               CP      R24, R16
   \   0000000A   F470               BRCC    ??SendToDevicesReset_2
    523                      i++)
    524              {
    525                  m_apxDrivers[i] -> SetReset(1);
   \   0000000C   E021               LDI     R18, 1
   \   0000000E   2F08               MOV     R16, R24
   \   00000010   E010               LDI     R17, 0
   \   00000012   0F00               LSL     R16
   \   00000014   1F11               ROL     R17
   \   00000016   01F8               MOVW    R31:R30, R17:R16
   \   00000018   ....               SUBI    R30, LOW((-(??m_apxDrivers) & 0xFFFF))
   \   0000001A   ....               SBCI    R31, (-(??m_apxDrivers) & 0xFFFF) >> 8
   \   0000001C   8100               LD      R16, Z
   \   0000001E   8111               LDD     R17, Z+1
   \   00000020   ........           CALL    ??SetReset
    526              }
   \   00000024   9583               INC     R24
   \   00000026   CFEE               RJMP    ??SendToDevicesReset_1
    527          }
   \                     ??SendToDevicesReset_2:
   \   00000028   9189               LD      R24, Y+
   \   0000002A   9508               RET
    528          
    529          //-----------------------------------------------------------------------------------------------------

   \                                 In  segment CODE, align 2, keep-with-next
    530          void CPss21::SendToDevicesModbusReceipt(void)
   \                     ??SendToDevicesModbusReceipt:
    531          {
   \   00000000   938A               ST      -Y, R24
    532              for (uint8_t i = 0;
   \   00000002   E080               LDI     R24, 0
    533                      i < (m_xDeviceConfigSearch.uiModulesQuantity);
   \                     ??SendToDevicesModbusReceipt_1:
   \   00000004   9100....           LDS     R16, ??m_xDeviceConfigSearch
   \   00000008   1780               CP      R24, R16
   \   0000000A   F470               BRCC    ??SendToDevicesModbusReceipt_2
    534                      i++)
    535              {
    536                  m_apxDrivers[i] -> SetModbusReceipt(1);
   \   0000000C   E021               LDI     R18, 1
   \   0000000E   2F08               MOV     R16, R24
   \   00000010   E010               LDI     R17, 0
   \   00000012   0F00               LSL     R16
   \   00000014   1F11               ROL     R17
   \   00000016   01F8               MOVW    R31:R30, R17:R16
   \   00000018   ....               SUBI    R30, LOW((-(??m_apxDrivers) & 0xFFFF))
   \   0000001A   ....               SBCI    R31, (-(??m_apxDrivers) & 0xFFFF) >> 8
   \   0000001C   8100               LD      R16, Z
   \   0000001E   8111               LDD     R17, Z+1
   \   00000020   ........           CALL    ??SetModbusReceipt
    537              }
   \   00000024   9583               INC     R24
   \   00000026   CFEE               RJMP    ??SendToDevicesModbusReceipt_1
    538          }
   \                     ??SendToDevicesModbusReceipt_2:
   \   00000028   9189               LD      R24, Y+
   \   0000002A   9508               RET
    539          
    540          //-----------------------------------------------------------------------------------------------------

   \                                 In  segment CODE, align 2, keep-with-next
    541          void CPss21::SendToDevicesModbusReset(void)
   \                     ??SendToDevicesModbusReset:
    542          {
   \   00000000   938A               ST      -Y, R24
    543              for (uint8_t i = 0;
   \   00000002   E080               LDI     R24, 0
    544                      i < (m_xDeviceConfigSearch.uiModulesQuantity);
   \                     ??SendToDevicesModbusReset_1:
   \   00000004   9100....           LDS     R16, ??m_xDeviceConfigSearch
   \   00000008   1780               CP      R24, R16
   \   0000000A   F470               BRCC    ??SendToDevicesModbusReset_2
    545                      i++)
    546              {
    547                  m_apxDrivers[i] -> SetModbusReset(1);
   \   0000000C   E021               LDI     R18, 1
   \   0000000E   2F08               MOV     R16, R24
   \   00000010   E010               LDI     R17, 0
   \   00000012   0F00               LSL     R16
   \   00000014   1F11               ROL     R17
   \   00000016   01F8               MOVW    R31:R30, R17:R16
   \   00000018   ....               SUBI    R30, LOW((-(??m_apxDrivers) & 0xFFFF))
   \   0000001A   ....               SBCI    R31, (-(??m_apxDrivers) & 0xFFFF) >> 8
   \   0000001C   8100               LD      R16, Z
   \   0000001E   8111               LDD     R17, Z+1
   \   00000020   ........           CALL    ??SetModbusReset
    548              }
   \   00000024   9583               INC     R24
   \   00000026   CFEE               RJMP    ??SendToDevicesModbusReset_1
    549          }
   \                     ??SendToDevicesModbusReset_2:
   \   00000028   9189               LD      R24, Y+
   \   0000002A   9508               RET
    550          
    551          //-----------------------------------------------------------------------------------------------------

   \                                 In  segment CODE, align 2, keep-with-next
    552          void CPss21::KeyStateProcessing(void)
   \                     ??KeyStateProcessing:
    553          {
   \   00000000   938A               ST      -Y, R24
    554          //    m_xReceiptKey.Fsm();
    555          //    m_xResetKey.Fsm();
    556          //    m_xCheckKey.Fsm();
    557          //    m_xExternalKey.Fsm();
    558          
    559              if (m_xReceiptKey.KeyEventHappened(CMultiFunctionKey::KEY_EVENT_PRESSED_PUSH))
   \   00000002   E022               LDI     R18, 2
   \   00000004   ....               LDI     R16, LOW(??m_xReceiptKey)
   \   00000006   ....               LDI     R17, (??m_xReceiptKey) >> 8
   \   00000008   ........           CALL    ??KeyEventHappened
   \   0000000C   2300               TST     R16
   \   0000000E   F061               BREQ    ??KeyStateProcessing_1
    560              {
    561                  SetPanelReceipt(1);
   \   00000010   E001               LDI     R16, 1
   \   00000012   ........           CALL    ??SetPanelReceipt
    562                  SetDiscreteSignalsReceipt(1);
   \   00000016   E001               LDI     R16, 1
   \   00000018   ........           CALL    ??SetDiscreteSignalsReceipt
    563                  SendToDevicesReceipt();
   \   0000001C   ....               RCALL   ??SendToDevicesReceipt
    564                  m_xBuzzerNotifyerControl.AlarmSet(BEEP_SIGNAL);
   \   0000001E   E027               LDI     R18, 7
   \   00000020   ....               LDI     R16, LOW(??m_xBuzzerNotifyerControl)
   \   00000022   ....               LDI     R17, (??m_xBuzzerNotifyerControl) >> 8
   \   00000024   ........           CALL    ??AlarmSet
    565              }
    566          
    567              if (m_xResetKey.KeyEventHappened(CMultiFunctionKey::KEY_EVENT_PRESSED_PUSH))
   \                     ??KeyStateProcessing_1:
   \   00000028   E022               LDI     R18, 2
   \   0000002A   ....               LDI     R16, LOW(??m_xResetKey)
   \   0000002C   ....               LDI     R17, (??m_xResetKey) >> 8
   \   0000002E   ........           CALL    ??KeyEventHappened
   \   00000032   2300               TST     R16
   \   00000034   F061               BREQ    ??KeyStateProcessing_2
    568              {
    569                  SetPanelReset(1);
   \   00000036   E001               LDI     R16, 1
   \   00000038   ........           CALL    ??SetPanelReset
    570                  SetDiscreteSignalsReset(1);
   \   0000003C   E001               LDI     R16, 1
   \   0000003E   ........           CALL    ??SetDiscreteSignalsReset
    571                  SendToDevicesReset();
   \   00000042   ....               RCALL   ??SendToDevicesReset
    572                  m_xBuzzerNotifyerControl.AlarmSet(BEEP_SIGNAL);
   \   00000044   E027               LDI     R18, 7
   \   00000046   ....               LDI     R16, LOW(??m_xBuzzerNotifyerControl)
   \   00000048   ....               LDI     R17, (??m_xBuzzerNotifyerControl) >> 8
   \   0000004A   ........           CALL    ??AlarmSet
    573              }
    574          
    575              if (m_xCheckKey.KeyEventHappened(CMultiFunctionKey::KEY_EVENT_PRESSED_PUSH))
   \                     ??KeyStateProcessing_2:
   \   0000004E   E022               LDI     R18, 2
   \   00000050   ....               LDI     R16, LOW(??m_xCheckKey)
   \   00000052   ....               LDI     R17, (??m_xCheckKey) >> 8
   \   00000054   ........           CALL    ??KeyEventHappened
   \   00000058   2300               TST     R16
   \   0000005A   F041               BREQ    ??KeyStateProcessing_3
    576              {
    577                  // Включим режим тестирования.
    578                  SetFsmState(TEST_START);
   \   0000005C   E006               LDI     R16, 6
   \   0000005E   ........           CALL    ??SetFsmState_1
    579                  m_xBuzzerNotifyerControl.AlarmSet(BEEP_SIGNAL);
   \   00000062   E027               LDI     R18, 7
   \   00000064   ....               LDI     R16, LOW(??m_xBuzzerNotifyerControl)
   \   00000066   ....               LDI     R17, (??m_xBuzzerNotifyerControl) >> 8
   \   00000068   ........           CALL    ??AlarmSet
    580              }
    581          
    582              if (m_xExternalKey.KeyEventHappened(CMultiFunctionKey::KEY_EVENT_PRESSED_RECEIPT))
   \                     ??KeyStateProcessing_3:
   \   0000006C   E022               LDI     R18, 2
   \   0000006E   ....               LDI     R16, LOW(??m_xExternalKey)
   \   00000070   ....               LDI     R17, (??m_xExternalKey) >> 8
   \   00000072   ........           CALL    ??KeyEventHappened
   \   00000076   2300               TST     R16
   \   00000078   F061               BREQ    ??KeyStateProcessing_4
    583              {
    584                  SetExternalReceipt(1);
   \   0000007A   E001               LDI     R16, 1
   \   0000007C   ........           CALL    ??SetExternalReceipt
    585                  SetDiscreteSignalsReceipt(1);
   \   00000080   E001               LDI     R16, 1
   \   00000082   ........           CALL    ??SetDiscreteSignalsReceipt
    586                  SendToDevicesReceipt();
   \   00000086   ....               RCALL   ??SendToDevicesReceipt
    587                  m_xBuzzerNotifyerControl.AlarmSet(BEEP_SIGNAL);
   \   00000088   E027               LDI     R18, 7
   \   0000008A   ....               LDI     R16, LOW(??m_xBuzzerNotifyerControl)
   \   0000008C   ....               LDI     R17, (??m_xBuzzerNotifyerControl) >> 8
   \   0000008E   ........           CALL    ??AlarmSet
    588              }
    589          
    590              if (m_xExternalKey.KeyEventHappened(CMultiFunctionKey::KEY_EVENT_PRESSED_RESET))
   \                     ??KeyStateProcessing_4:
   \   00000092   E023               LDI     R18, 3
   \   00000094   ....               LDI     R16, LOW(??m_xExternalKey)
   \   00000096   ....               LDI     R17, (??m_xExternalKey) >> 8
   \   00000098   ........           CALL    ??KeyEventHappened
   \   0000009C   2300               TST     R16
   \   0000009E   F061               BREQ    ??KeyStateProcessing_5
    591              {
    592                  SetExternalReset(1);
   \   000000A0   E001               LDI     R16, 1
   \   000000A2   ........           CALL    ??SetExternalReset
    593                  SetDiscreteSignalsReset(1);
   \   000000A6   E001               LDI     R16, 1
   \   000000A8   ........           CALL    ??SetDiscreteSignalsReset
    594                  SendToDevicesReset();
   \   000000AC   ....               RCALL   ??SendToDevicesReset
    595                  m_xBuzzerNotifyerControl.AlarmSet(BEEP_SIGNAL);
   \   000000AE   E027               LDI     R18, 7
   \   000000B0   ....               LDI     R16, LOW(??m_xBuzzerNotifyerControl)
   \   000000B2   ....               LDI     R17, (??m_xBuzzerNotifyerControl) >> 8
   \   000000B4   ........           CALL    ??AlarmSet
    596              }
    597          
    598              if (m_xExternalKey.KeyEventHappened(CMultiFunctionKey::KEY_EVENT_PRESSED_CHECK))
   \                     ??KeyStateProcessing_5:
   \   000000B8   E024               LDI     R18, 4
   \   000000BA   ....               LDI     R16, LOW(??m_xExternalKey)
   \   000000BC   ....               LDI     R17, (??m_xExternalKey) >> 8
   \   000000BE   ........           CALL    ??KeyEventHappened
   \   000000C2   2300               TST     R16
   \   000000C4   F041               BREQ    ??KeyStateProcessing_6
    599              {
    600                  // Включим режим тестирования.
    601                  SetFsmState(TEST_START);
   \   000000C6   E006               LDI     R16, 6
   \   000000C8   ........           CALL    ??SetFsmState_1
    602                  m_xBuzzerNotifyerControl.AlarmSet(BEEP_SIGNAL);
   \   000000CC   E027               LDI     R18, 7
   \   000000CE   ....               LDI     R16, LOW(??m_xBuzzerNotifyerControl)
   \   000000D0   ....               LDI     R17, (??m_xBuzzerNotifyerControl) >> 8
   \   000000D2   ........           CALL    ??AlarmSet
    603              }
    604          
    605              // Кнопки "Квитирование" и "Контроль" нажаты дольше 7 секунд?
    606              if (m_xEventUniteLogicAndOne.IsHappened((m_xReceiptKey.KeyEventHappened(CMultiFunctionKey::KEY_EVENT_PRESSED_SET_DEFAULT)),
    607                                                      (m_xCheckKey.KeyEventHappened(CMultiFunctionKey::KEY_EVENT_PRESSED_SET_DEFAULT))))
   \                     ??KeyStateProcessing_6:
   \   000000D6   E025               LDI     R18, 5
   \   000000D8   ....               LDI     R16, LOW(??m_xCheckKey)
   \   000000DA   ....               LDI     R17, (??m_xCheckKey) >> 8
   \   000000DC   ........           CALL    ??KeyEventHappened
   \   000000E0   2F80               MOV     R24, R16
   \   000000E2   E025               LDI     R18, 5
   \   000000E4   ....               LDI     R16, LOW(??m_xReceiptKey)
   \   000000E6   ....               LDI     R17, (??m_xReceiptKey) >> 8
   \   000000E8   ........           CALL    ??KeyEventHappened
   \   000000EC   2F20               MOV     R18, R16
   \   000000EE   2F38               MOV     R19, R24
   \   000000F0   ....               LDI     R16, LOW(??m_xEventUniteLogicAndOne)
   \   000000F2   ....               LDI     R17, (??m_xEventUniteLogicAndOne) >> 8
   \   000000F4   ........           CALL    ??IsHappened
   \   000000F8   2300               TST     R16
   \   000000FA   F031               BREQ    ??KeyStateProcessing_7
    608              {
    609                  // Устанавливаем настройки Modbus по умолчанию на текущую сессию.
    610                  CPss21::ModbusDefaultInit();
   \   000000FC   ....               RCALL   ??ModbusDefaultInit
    611                  m_xBuzzerNotifyerControl.AlarmSet(BEEP_SIGNAL);
   \   000000FE   E027               LDI     R18, 7
   \   00000100   ....               LDI     R16, LOW(??m_xBuzzerNotifyerControl)
   \   00000102   ....               LDI     R17, (??m_xBuzzerNotifyerControl) >> 8
   \   00000104   ........           CALL    ??AlarmSet
    612              }
    613          }
   \                     ??KeyStateProcessing_7:
   \   00000108   9189               LD      R24, Y+
   \   0000010A   9508               RET
    614          
    615          //-----------------------------------------------------------------------------------------------------

   \                                 In  segment CODE, align 2, keep-with-next
    616          void CPss21::ReceiptResetGlobalFlagsClear(void)
   \                     ??ReceiptResetGlobalFlagsClear:
    617          {
    618              SetPanelReceipt(0);
   \   00000000   E000               LDI     R16, 0
   \   00000002   ........           CALL    ??SetPanelReceipt
    619              SetExternalReceipt(0);
   \   00000006   E000               LDI     R16, 0
   \   00000008   ........           CALL    ??SetExternalReceipt
    620              SetModbusReceipt(0);
   \   0000000C   E000               LDI     R16, 0
   \   0000000E   ........           CALL    ??SetModbusReceipt_1
    621              SetPanelReset(0);
   \   00000012   E000               LDI     R16, 0
   \   00000014   ........           CALL    ??SetPanelReset
    622              SetExternalReset(0);
   \   00000018   E000               LDI     R16, 0
   \   0000001A   ........           CALL    ??SetExternalReset
    623              SetModbusReset(0);
   \   0000001E   E000               LDI     R16, 0
   \   00000020   ........           CALL    ??SetModbusReset_1
    624          }
   \   00000024   9508               RET
    625          
    626          //-----------------------------------------------------------------------------------------------------

   \                                 In  segment CODE, align 2, keep-with-next
    627          uint8_t CPss21::ModulesInteraction(uint8_t uiModuleIndex)
   \                     ??ModulesInteraction:
    628          {
   \   00000000   938A               ST      -Y, R24
   \   00000002   2F80               MOV     R24, R16
    629              if (uiModuleIndex < (m_xDeviceConfigSearch.uiModulesQuantity))
   \   00000004   9100....           LDS     R16, ??m_xDeviceConfigSearch
   \   00000008   1780               CP      R24, R16
   \   0000000A   F4F0               BRCC    ??ModulesInteraction_1
    630              {
    631                  m_apxDrivers[uiModuleIndex] -> DataExchange();
   \   0000000C   2F08               MOV     R16, R24
   \   0000000E   E010               LDI     R17, 0
   \   00000010   0F00               LSL     R16
   \   00000012   1F11               ROL     R17
   \   00000014   01F8               MOVW    R31:R30, R17:R16
   \   00000016   ....               SUBI    R30, LOW((-(??m_apxDrivers) & 0xFFFF))
   \   00000018   ....               SBCI    R31, (-(??m_apxDrivers) & 0xFFFF) >> 8
   \   0000001A   8100               LD      R16, Z
   \   0000001C   8111               LDD     R17, Z+1
   \   0000001E   2F28               MOV     R18, R24
   \   00000020   E030               LDI     R19, 0
   \   00000022   0F22               LSL     R18
   \   00000024   1F33               ROL     R19
   \   00000026   01F9               MOVW    R31:R30, R19:R18
   \   00000028   ....               SUBI    R30, LOW((-(??m_apxDrivers) & 0xFFFF))
   \   0000002A   ....               SBCI    R31, (-(??m_apxDrivers) & 0xFFFF) >> 8
   \   0000002C   8120               LD      R18, Z
   \   0000002E   8131               LDD     R19, Z+1
   \   00000030   01F9               MOVW    R31:R30, R19:R18
   \   00000032   8127               LDD     R18, Z+7
   \   00000034   8530               LDD     R19, Z+8
   \   00000036   01F9               MOVW    R31:R30, R19:R18
   \   00000038   9632               ADIW    R31:R30, 2
   \   0000003A   9125               LPM     R18, Z+
   \   0000003C   9134               LPM     R19, Z
   \   0000003E   9733               SBIW    R31:R30, 3
   \   00000040   01F9               MOVW    R31:R30, R19:R18
   \   00000042   9509               ICALL
    632                  return 0;
   \   00000044   E000               LDI     R16, 0
   \   00000046   C001               RJMP    ??ModulesInteraction_2
    633              }
    634              else
    635              {
    636                  return 1;
   \                     ??ModulesInteraction_1:
   \   00000048   E001               LDI     R16, 1
   \                     ??ModulesInteraction_2:
   \   0000004A   9189               LD      R24, Y+
   \   0000004C   9508               RET
    637              }
    638          };
    639          
    640          //-----------------------------------------------------------------------------------------------------

   \                                 In  segment CODE, align 2, keep-with-next
    641          void CPss21::ConfigurationInit(void)
   \                     ??ConfigurationInit:
    642          {
   \   00000000   ........           CALL    ?PROLOGUE6_L09
   \   00000004                      REQUIRE ?Register_R4_is_cg_reg
   \   00000004                      REQUIRE ?Register_R5_is_cg_reg
    643              uint8_t* puiTempBuffer = m_auiIntermediateBuff;
   \   00000004   ....               LDI     R26, LOW(??m_auiIntermediateBuff)
   \   00000006   ....               LDI     R27, (??m_auiIntermediateBuff) >> 8
    644              uint8_t* puiAlarmDfaInit = m_auiReceiveMessageBuff;
   \   00000008   ....               LDI     R24, LOW(??m_auiReceiveMessageBuff)
   \   0000000A   ....               LDI     R25, (??m_auiReceiveMessageBuff) >> 8
    645          
    646              memset(puiAlarmDfaInit, 0, DISCRETE_SIGNALS_NUMBER);
   \   0000000C   E640               LDI     R20, 96
   \   0000000E   E050               LDI     R21, 0
   \   00000010   E020               LDI     R18, 0
   \   00000012   E030               LDI     R19, 0
   \   00000014   018C               MOVW    R17:R16, R25:R24
   \   00000016   ........           CALL    memset
    647          
    648              // Установим конфигурацию устройства.
    649              // Считаем во временный буфер блок БД - "Конфигурация устройства".
    650              CDataBase::Read(puiTempBuffer, TDataBase::DEV_CONFIG);
   \   0000001A   E020               LDI     R18, 0
   \   0000001C   018D               MOVW    R17:R16, R27:R26
   \   0000001E   ........           CALL    ??Read
    651              memcpy(reinterpret_cast<uint8_t*>(&m_xDeviceConfiguration),
    652                     puiTempBuffer,
    653                     sizeof(struct TDevConfig));
   \   00000022   E144               LDI     R20, 20
   \   00000024   E050               LDI     R21, 0
   \   00000026   019D               MOVW    R19:R18, R27:R26
   \   00000028   ....               LDI     R16, LOW(??m_xDeviceConfiguration)
   \   0000002A   ....               LDI     R17, (??m_xDeviceConfiguration) >> 8
   \   0000002C   ........           CALL    memcpy
    654          
    655              // Установим параметры интерфейса ModBus.
    656              // Считаем во временный буфер блок БД - "Параметры интерфейса ModBus".
    657              CDataBase::Read(puiTempBuffer, TDataBase::MODBUS_SET);
   \   00000030   E021               LDI     R18, 1
   \   00000032   018D               MOVW    R17:R16, R27:R26
   \   00000034   ........           CALL    ??Read
    658              memcpy(reinterpret_cast<uint8_t*>(&m_xModbusSettings),
    659                     puiTempBuffer,
    660                     sizeof(struct TMBusSetting));
   \   00000038   E047               LDI     R20, 7
   \   0000003A   E050               LDI     R21, 0
   \   0000003C   019D               MOVW    R19:R18, R27:R26
   \   0000003E   ....               LDI     R16, LOW(??m_xModbusSettings)
   \   00000040   ....               LDI     R17, (??m_xModbusSettings) >> 8
   \   00000042   ........           CALL    memcpy
    661          
    662              // Считаем во временный буфер блок БД - "БД модулей вывода".
    663              CDataBase::Read(puiTempBuffer, TDataBase::OUT_BASE);
   \   00000046   E025               LDI     R18, 5
   \   00000048   018D               MOVW    R17:R16, R27:R26
   \   0000004A   ........           CALL    ??Read
    664              memcpy(reinterpret_cast<uint8_t*>(&m_xDiscreteOutputDataBase),
    665                     puiTempBuffer,
    666                     sizeof(struct TOutputData));
   \   0000004E   E148               LDI     R20, 24
   \   00000050   E050               LDI     R21, 0
   \   00000052   019D               MOVW    R19:R18, R27:R26
   \   00000054   ....               LDI     R16, LOW(??m_xDiscreteOutputDataBase)
   \   00000056   ....               LDI     R17, (??m_xDiscreteOutputDataBase) >> 8
   \   00000058   ........           CALL    memcpy
    667          
    668              // Установим уровень дискретного сигнала интерпретируемый как активный.
    669              // Считаем во временный буфер блок БД - "Уровень дискретного сигнала интерпретируемый как активный".
    670              CDataBase::Read(puiTempBuffer, TDataBase::ACTIVITY_LEVEL);
   \   0000005C   E022               LDI     R18, 2
   \   0000005E   018D               MOVW    R17:R16, R27:R26
   \   00000060   ........           CALL    ??Read
    671              for (uint8_t i = 0;
   \   00000064   E020               LDI     R18, 0
    672                      i < DISCRETE_INPUTS_NUMBER;
   \                     ??ConfigurationInit_1:
   \   00000066   3320               CPI     R18, 48
   \   00000068   F500               BRCC    ??ConfigurationInit_2
    673                  )
    674          //    for (uint8_t i = 0;
    675          //            i < DISCRETE_SIGNALS_NUMBER;
    676          //        )
    677              {
    678                  uint8_t uiData = *puiTempBuffer;
   \   0000006A   915C               LD      R21, X
    679                  for (uint8_t j = 0;
   \   0000006C   E030               LDI     R19, 0
    680                          j < 8;
   \                     ??ConfigurationInit_3:
   \   0000006E   3038               CPI     R19, 8
   \   00000070   F4D0               BRCC    ??ConfigurationInit_4
    681                          j++)
    682                  {
    683                      // Установим уровень текущего дискретного сигнала интерпретируемый как активный.
    684                      if (((uiData >> j) & 0x01))
   \   00000072   2F05               MOV     R16, R21
   \   00000074   E010               LDI     R17, 0
   \   00000076   2F43               MOV     R20, R19
   \   00000078   ........           CALL    ?SS_SHR_L02
   \   0000007C   7001               ANDI    R16, 0x01
   \   0000007E   2300               TST     R16
   \   00000080   F041               BREQ    ??ConfigurationInit_5
    685                      {
    686                          puiAlarmDfaInit[i] = 0x80;
   \   00000082   2F02               MOV     R16, R18
   \   00000084   E010               LDI     R17, 0
   \   00000086   01FC               MOVW    R31:R30, R25:R24
   \   00000088   0FE0               ADD     R30, R16
   \   0000008A   1FF1               ADC     R31, R17
   \   0000008C   E800               LDI     R16, 128
   \   0000008E   8300               ST      Z, R16
   \   00000090   C007               RJMP    ??ConfigurationInit_6
    687                      }
    688                      else
    689                      {
    690                          puiAlarmDfaInit[i] = 0;
   \                     ??ConfigurationInit_5:
   \   00000092   2F02               MOV     R16, R18
   \   00000094   E010               LDI     R17, 0
   \   00000096   01FC               MOVW    R31:R30, R25:R24
   \   00000098   0FE0               ADD     R30, R16
   \   0000009A   1FF1               ADC     R31, R17
   \   0000009C   E000               LDI     R16, 0
   \   0000009E   8300               ST      Z, R16
    691                      }
    692                      i++;
   \                     ??ConfigurationInit_6:
   \   000000A0   9523               INC     R18
    693                  }
   \   000000A2   9533               INC     R19
   \   000000A4   CFE4               RJMP    ??ConfigurationInit_3
    694                  puiTempBuffer++;
   \                     ??ConfigurationInit_4:
   \   000000A6   9611               ADIW    R27:R26, 1
   \   000000A8   CFDE               RJMP    ??ConfigurationInit_1
    695              }
    696          
    697              puiTempBuffer = m_auiIntermediateBuff;
   \                     ??ConfigurationInit_2:
   \   000000AA   ....               LDI     R16, LOW(??m_auiIntermediateBuff)
   \   000000AC   ....               LDI     R17, (??m_auiIntermediateBuff) >> 8
   \   000000AE   01D8               MOVW    R27:R26, R17:R16
    698              // Привяжем окна сигнализации к дискретным сигналам.
    699              // Считаем во временный буфер блок БД - "Индекс окна сигнализации которое привязано к текущему дискретному сигналу".
    700              CDataBase::Read(puiTempBuffer, TDataBase::ALARM_WINDOW_INDEX);
   \   000000B0   E023               LDI     R18, 3
   \   000000B2   018D               MOVW    R17:R16, R27:R26
   \   000000B4   ........           CALL    ??Read
    701              for (uint8_t i = 0;
   \   000000B8   E000               LDI     R16, 0
    702                      i < DISCRETE_SIGNALS_NUMBER;
   \                     ??ConfigurationInit_7:
   \   000000BA   3600               CPI     R16, 96
   \   000000BC   F480               BRCC    ??ConfigurationInit_8
    703                      i++)
    704              {
    705                  // Привяжем окно сигнализации к текущему дискретному сигналу.
    706                  puiAlarmDfaInit[i] |= (puiTempBuffer[i] & ~(0x80));
   \   000000BE   E010               LDI     R17, 0
   \   000000C0   01FD               MOVW    R31:R30, R27:R26
   \   000000C2   0FE0               ADD     R30, R16
   \   000000C4   1FF1               ADC     R31, R17
   \   000000C6   8110               LD      R17, Z
   \   000000C8   771F               ANDI    R17, 0x7F
   \   000000CA   2F20               MOV     R18, R16
   \   000000CC   E030               LDI     R19, 0
   \   000000CE   01FC               MOVW    R31:R30, R25:R24
   \   000000D0   0FE2               ADD     R30, R18
   \   000000D2   1FF3               ADC     R31, R19
   \   000000D4   8120               LD      R18, Z
   \   000000D6   2B21               OR      R18, R17
   \   000000D8   8320               ST      Z, R18
    707              }
   \   000000DA   9503               INC     R16
   \   000000DC   CFEE               RJMP    ??ConfigurationInit_7
    708          
    709              // Считаем во временный буфер блок БД - "Тип сигнализации привязанный к окну".
    710              CDataBase::Read(puiTempBuffer, TDataBase::ALARM_TYPE);
   \                     ??ConfigurationInit_8:
   \   000000DE   E024               LDI     R18, 4
   \   000000E0   018D               MOVW    R17:R16, R27:R26
   \   000000E2   ........           CALL    ??Read
    711              for (uint8_t i = 0;
   \   000000E6   E000               LDI     R16, 0
    712                      i < DISCRETE_SIGNALS_NUMBER;
   \                     ??ConfigurationInit_9:
   \   000000E8   3600               CPI     R16, 96
   \   000000EA   F5D8               BRCC    ??ConfigurationInit_10
    713                      i++)
    714              {
    715                  CPss21::m_aucRtuHoldingRegistersArray[i] = ((static_cast<uint16_t>(puiTempBuffer[i] & ~(0x80)) << 8) | i);
   \   000000EC   E010               LDI     R17, 0
   \   000000EE   01FD               MOVW    R31:R30, R27:R26
   \   000000F0   0FE0               ADD     R30, R16
   \   000000F2   1FF1               ADC     R31, R17
   \   000000F4   8120               LD      R18, Z
   \   000000F6   E030               LDI     R19, 0
   \   000000F8   772F               ANDI    R18, 0x7F
   \   000000FA   7F3F               ANDI    R19, 0xFF
   \   000000FC   2F32               MOV     R19, R18
   \   000000FE   E020               LDI     R18, 0
   \   00000100   E010               LDI     R17, 0
   \   00000102   2B20               OR      R18, R16
   \   00000104   2B31               OR      R19, R17
   \   00000106   2F40               MOV     R20, R16
   \   00000108   E050               LDI     R21, 0
   \   0000010A   0F44               LSL     R20
   \   0000010C   1F55               ROL     R21
   \   0000010E   01FA               MOVW    R31:R30, R21:R20
   \   00000110   ....               SUBI    R30, LOW((-(??m_aucRtuHoldingRegistersArray) & 0xFFFF))
   \   00000112   ....               SBCI    R31, (-(??m_aucRtuHoldingRegistersArray) & 0xFFFF) >> 8
   \   00000114   8320               ST      Z, R18
   \   00000116   8331               STD     Z+1, R19
    716                  uint8_t uiWindowIndex = (puiAlarmDfaInit[i] & ~(0x80));
   \   00000118   E010               LDI     R17, 0
   \   0000011A   01FC               MOVW    R31:R30, R25:R24
   \   0000011C   0FE0               ADD     R30, R16
   \   0000011E   1FF1               ADC     R31, R17
   \   00000120   8120               LD      R18, Z
   \   00000122   772F               ANDI    R18, 0x7F
    717                  if (uiWindowIndex < ALARM_WINDOWS_NUMBER)
   \   00000124   3320               CPI     R18, 48
   \   00000126   F4A0               BRCC    ??ConfigurationInit_11
    718                  {
    719                      // Очистим индекс привязанного окна, больше не нужен.
    720                      // Оставим уровень дискретного сигнала интерпретируемый как активный.
    721                      puiAlarmDfaInit[i] &= 0x80;
   \   00000128   E010               LDI     R17, 0
   \   0000012A   01FC               MOVW    R31:R30, R25:R24
   \   0000012C   0FE0               ADD     R30, R16
   \   0000012E   1FF1               ADC     R31, R17
   \   00000130   8110               LD      R17, Z
   \   00000132   7810               ANDI    R17, 0x80
   \   00000134   8310               ST      Z, R17
    722                      // Установим тип сигнализации по привязанному окну.
    723                      puiAlarmDfaInit[i] |= puiTempBuffer[uiWindowIndex];
   \   00000136   E030               LDI     R19, 0
   \   00000138   01FD               MOVW    R31:R30, R27:R26
   \   0000013A   0FE2               ADD     R30, R18
   \   0000013C   1FF3               ADC     R31, R19
   \   0000013E   8120               LD      R18, Z
   \   00000140   E010               LDI     R17, 0
   \   00000142   01FC               MOVW    R31:R30, R25:R24
   \   00000144   0FE0               ADD     R30, R16
   \   00000146   1FF1               ADC     R31, R17
   \   00000148   8110               LD      R17, Z
   \   0000014A   2B12               OR      R17, R18
   \   0000014C   8310               ST      Z, R17
   \   0000014E   C007               RJMP    ??ConfigurationInit_12
    724                  }
    725                  else
    726                  {
    727                      // Очистим индекс привязанного окна, больше не нужен.
    728                      // Оставим уровень дискретного сигнала интерпретируемый как активный.
    729                      puiAlarmDfaInit[i] &= 0x80;
   \                     ??ConfigurationInit_11:
   \   00000150   E010               LDI     R17, 0
   \   00000152   01FC               MOVW    R31:R30, R25:R24
   \   00000154   0FE0               ADD     R30, R16
   \   00000156   1FF1               ADC     R31, R17
   \   00000158   8110               LD      R17, Z
   \   0000015A   7810               ANDI    R17, 0x80
   \   0000015C   8310               ST      Z, R17
    730                  }
    731              }
   \                     ??ConfigurationInit_12:
   \   0000015E   9503               INC     R16
   \   00000160   CFC3               RJMP    ??ConfigurationInit_9
    732          
    733              for (uint8_t i = 0;
   \                     ??ConfigurationInit_10:
   \   00000162   2444               CLR     R4
    734                      i < DISCRETE_SIGNALS_NUMBER;
   \                     ??ConfigurationInit_13:
   \   00000164   E600               LDI     R16, 96
   \   00000166   1640               CP      R4, R16
   \   00000168   F008               BRCS    $+2+2
   \   0000016A   C0D9               RJMP    ??ConfigurationInit_14
    735                      i++)
    736              {
    737                  // Какой тип сигнализации связан с дискретным сигналом?
    738                  switch (puiAlarmDfaInit[i] & 0x03)
   \   0000016C   2455               CLR     R5
   \   0000016E   01FC               MOVW    R31:R30, R25:R24
   \   00000170   0DE4               ADD     R30, R4
   \   00000172   1DF5               ADC     R31, R5
   \   00000174   8100               LD      R16, Z
   \   00000176   E010               LDI     R17, 0
   \   00000178   7003               ANDI    R16, 0x03
   \   0000017A   7010               ANDI    R17, 0x00
   \   0000017C   5000               SUBI    R16, 0
   \   0000017E   F049               BREQ    ??ConfigurationInit_15
   \   00000180   950A               DEC     R16
   \   00000182   F0E9               BREQ    ??ConfigurationInit_16
   \   00000184   950A               DEC     R16
   \   00000186   F409               BRNE    $+2+2
   \   00000188   C04D               RJMP    ??ConfigurationInit_17
   \   0000018A   950A               DEC     R16
   \   0000018C   F409               BRNE    $+2+2
   \   0000018E   C07D               RJMP    ??ConfigurationInit_18
   \   00000190   C0AF               RJMP    ??ConfigurationInit_19
    739                  {
    740                  case NORMAL:
    741                      m_apxAlarmDfa[i] = new CNormalAlarmDfa;
   \                     ??ConfigurationInit_15:
   \   00000192   E006               LDI     R16, 6
   \   00000194   E010               LDI     R17, 0
   \   00000196   ........           CALL    `??operator new`
   \   0000019A   2F20               MOV     R18, R16
   \   0000019C   2B21               OR      R18, R17
   \   0000019E   F019               BREQ    ??ConfigurationInit_20
   \   000001A0   ........           CALL    ??CNormalAlarmDfa
   \   000001A4   C002               RJMP    ??ConfigurationInit_21
   \                     ??ConfigurationInit_20:
   \   000001A6   E000               LDI     R16, 0
   \   000001A8   E010               LDI     R17, 0
   \                     ??ConfigurationInit_21:
   \   000001AA   2D24               MOV     R18, R4
   \   000001AC   E030               LDI     R19, 0
   \   000001AE   0F22               LSL     R18
   \   000001B0   1F33               ROL     R19
   \   000001B2   01F9               MOVW    R31:R30, R19:R18
   \   000001B4   ....               SUBI    R30, LOW((-(??m_apxAlarmDfa) & 0xFFFF))
   \   000001B6   ....               SBCI    R31, (-(??m_apxAlarmDfa) & 0xFFFF) >> 8
   \   000001B8   8300               ST      Z, R16
   \   000001BA   8311               STD     Z+1, R17
    742                      break;
   \   000001BC   C0AE               RJMP    ??ConfigurationInit_22
    743          
    744                  case INDICATION:
    745                      // Уровень дискретного сигнала интерпретируемый как активный - высокий?
    746                      if (puiAlarmDfaInit[i] & 0x80)
   \                     ??ConfigurationInit_16:
   \   000001BE   2455               CLR     R5
   \   000001C0   01FC               MOVW    R31:R30, R25:R24
   \   000001C2   0DE4               ADD     R30, R4
   \   000001C4   1DF5               ADC     R31, R5
   \   000001C6   8100               LD      R16, Z
   \   000001C8   FF07               SBRS    R16, 7
   \   000001CA   C016               RJMP    ??ConfigurationInit_23
    747                      {
    748                          m_apxAlarmDfa[i] = new CIndicationAlarmHighLevelDfa;
   \   000001CC   E006               LDI     R16, 6
   \   000001CE   E010               LDI     R17, 0
   \   000001D0   ........           CALL    `??operator new`
   \   000001D4   2F20               MOV     R18, R16
   \   000001D6   2B21               OR      R18, R17
   \   000001D8   F019               BREQ    ??ConfigurationInit_24
   \   000001DA   ........           CALL    ??CIndicationAlarmHighLevelDfa
   \   000001DE   C002               RJMP    ??ConfigurationInit_25
   \                     ??ConfigurationInit_24:
   \   000001E0   E000               LDI     R16, 0
   \   000001E2   E010               LDI     R17, 0
   \                     ??ConfigurationInit_25:
   \   000001E4   2D24               MOV     R18, R4
   \   000001E6   E030               LDI     R19, 0
   \   000001E8   0F22               LSL     R18
   \   000001EA   1F33               ROL     R19
   \   000001EC   01F9               MOVW    R31:R30, R19:R18
   \   000001EE   ....               SUBI    R30, LOW((-(??m_apxAlarmDfa) & 0xFFFF))
   \   000001F0   ....               SBCI    R31, (-(??m_apxAlarmDfa) & 0xFFFF) >> 8
   \   000001F2   8300               ST      Z, R16
   \   000001F4   8311               STD     Z+1, R17
   \   000001F6   C091               RJMP    ??ConfigurationInit_22
    749                      }
    750                      else
    751                      {
    752                          m_apxAlarmDfa[i] = new CIndicationAlarmLowLevelDfa;
   \                     ??ConfigurationInit_23:
   \   000001F8   E006               LDI     R16, 6
   \   000001FA   E010               LDI     R17, 0
   \   000001FC   ........           CALL    `??operator new`
   \   00000200   2F20               MOV     R18, R16
   \   00000202   2B21               OR      R18, R17
   \   00000204   F019               BREQ    ??ConfigurationInit_26
   \   00000206   ........           CALL    ??CIndicationAlarmLowLevelDfa
   \   0000020A   C002               RJMP    ??ConfigurationInit_27
   \                     ??ConfigurationInit_26:
   \   0000020C   E000               LDI     R16, 0
   \   0000020E   E010               LDI     R17, 0
   \                     ??ConfigurationInit_27:
   \   00000210   2D24               MOV     R18, R4
   \   00000212   E030               LDI     R19, 0
   \   00000214   0F22               LSL     R18
   \   00000216   1F33               ROL     R19
   \   00000218   01F9               MOVW    R31:R30, R19:R18
   \   0000021A   ....               SUBI    R30, LOW((-(??m_apxAlarmDfa) & 0xFFFF))
   \   0000021C   ....               SBCI    R31, (-(??m_apxAlarmDfa) & 0xFFFF) >> 8
   \   0000021E   8300               ST      Z, R16
   \   00000220   8311               STD     Z+1, R17
    753                      }
    754                      break;
   \   00000222   C07B               RJMP    ??ConfigurationInit_22
    755          
    756                  case PREVENTIVE:
    757                      // Уровень дискретного сигнала интерпретируемый как активный - высокий?
    758                      if (puiAlarmDfaInit[i] & 0x80)
   \                     ??ConfigurationInit_17:
   \   00000224   2455               CLR     R5
   \   00000226   01FC               MOVW    R31:R30, R25:R24
   \   00000228   0DE4               ADD     R30, R4
   \   0000022A   1DF5               ADC     R31, R5
   \   0000022C   8100               LD      R16, Z
   \   0000022E   FF07               SBRS    R16, 7
   \   00000230   C016               RJMP    ??ConfigurationInit_28
    759                      {
    760                          m_apxAlarmDfa[i] = new CPreventiveAlarmHighLevelDfa;
   \   00000232   E006               LDI     R16, 6
   \   00000234   E010               LDI     R17, 0
   \   00000236   ........           CALL    `??operator new`
   \   0000023A   2F20               MOV     R18, R16
   \   0000023C   2B21               OR      R18, R17
   \   0000023E   F019               BREQ    ??ConfigurationInit_29
   \   00000240   ........           CALL    ??CPreventiveAlarmHighLevelDfa
   \   00000244   C002               RJMP    ??ConfigurationInit_30
   \                     ??ConfigurationInit_29:
   \   00000246   E000               LDI     R16, 0
   \   00000248   E010               LDI     R17, 0
   \                     ??ConfigurationInit_30:
   \   0000024A   2D24               MOV     R18, R4
   \   0000024C   E030               LDI     R19, 0
   \   0000024E   0F22               LSL     R18
   \   00000250   1F33               ROL     R19
   \   00000252   01F9               MOVW    R31:R30, R19:R18
   \   00000254   ....               SUBI    R30, LOW((-(??m_apxAlarmDfa) & 0xFFFF))
   \   00000256   ....               SBCI    R31, (-(??m_apxAlarmDfa) & 0xFFFF) >> 8
   \   00000258   8300               ST      Z, R16
   \   0000025A   8311               STD     Z+1, R17
   \   0000025C   C05E               RJMP    ??ConfigurationInit_22
    761                      }
    762                      else
    763                      {
    764                          m_apxAlarmDfa[i] = new CPreventiveAlarmLowLevelDfa;
   \                     ??ConfigurationInit_28:
   \   0000025E   E006               LDI     R16, 6
   \   00000260   E010               LDI     R17, 0
   \   00000262   ........           CALL    `??operator new`
   \   00000266   2F20               MOV     R18, R16
   \   00000268   2B21               OR      R18, R17
   \   0000026A   F019               BREQ    ??ConfigurationInit_31
   \   0000026C   ........           CALL    ??CPreventiveAlarmLowLevelDfa
   \   00000270   C002               RJMP    ??ConfigurationInit_32
   \                     ??ConfigurationInit_31:
   \   00000272   E000               LDI     R16, 0
   \   00000274   E010               LDI     R17, 0
   \                     ??ConfigurationInit_32:
   \   00000276   2D24               MOV     R18, R4
   \   00000278   E030               LDI     R19, 0
   \   0000027A   0F22               LSL     R18
   \   0000027C   1F33               ROL     R19
   \   0000027E   01F9               MOVW    R31:R30, R19:R18
   \   00000280   ....               SUBI    R30, LOW((-(??m_apxAlarmDfa) & 0xFFFF))
   \   00000282   ....               SBCI    R31, (-(??m_apxAlarmDfa) & 0xFFFF) >> 8
   \   00000284   8300               ST      Z, R16
   \   00000286   8311               STD     Z+1, R17
    765                      }
    766                      break;
   \   00000288   C048               RJMP    ??ConfigurationInit_22
    767          
    768                  case EMERGENCY:
    769                      // Уровень дискретного сигнала интерпретируемый как активный - высокий?
    770                      if (puiAlarmDfaInit[i] & 0x80)
   \                     ??ConfigurationInit_18:
   \   0000028A   2455               CLR     R5
   \   0000028C   01FC               MOVW    R31:R30, R25:R24
   \   0000028E   0DE4               ADD     R30, R4
   \   00000290   1DF5               ADC     R31, R5
   \   00000292   8100               LD      R16, Z
   \   00000294   FF07               SBRS    R16, 7
   \   00000296   C016               RJMP    ??ConfigurationInit_33
    771                      {
    772                          m_apxAlarmDfa[i] = new CEmergencyAlarmHighLevelDfa;
   \   00000298   E006               LDI     R16, 6
   \   0000029A   E010               LDI     R17, 0
   \   0000029C   ........           CALL    `??operator new`
   \   000002A0   2F20               MOV     R18, R16
   \   000002A2   2B21               OR      R18, R17
   \   000002A4   F019               BREQ    ??ConfigurationInit_34
   \   000002A6   ........           CALL    ??CEmergencyAlarmHighLevelDfa
   \   000002AA   C002               RJMP    ??ConfigurationInit_35
   \                     ??ConfigurationInit_34:
   \   000002AC   E000               LDI     R16, 0
   \   000002AE   E010               LDI     R17, 0
   \                     ??ConfigurationInit_35:
   \   000002B0   2D24               MOV     R18, R4
   \   000002B2   E030               LDI     R19, 0
   \   000002B4   0F22               LSL     R18
   \   000002B6   1F33               ROL     R19
   \   000002B8   01F9               MOVW    R31:R30, R19:R18
   \   000002BA   ....               SUBI    R30, LOW((-(??m_apxAlarmDfa) & 0xFFFF))
   \   000002BC   ....               SBCI    R31, (-(??m_apxAlarmDfa) & 0xFFFF) >> 8
   \   000002BE   8300               ST      Z, R16
   \   000002C0   8311               STD     Z+1, R17
   \   000002C2   C02B               RJMP    ??ConfigurationInit_22
    773                      }
    774                      else
    775                      {
    776                          m_apxAlarmDfa[i] = new CEmergencyAlarmLowLevelDfa;
   \                     ??ConfigurationInit_33:
   \   000002C4   E006               LDI     R16, 6
   \   000002C6   E010               LDI     R17, 0
   \   000002C8   ........           CALL    `??operator new`
   \   000002CC   2F20               MOV     R18, R16
   \   000002CE   2B21               OR      R18, R17
   \   000002D0   F019               BREQ    ??ConfigurationInit_36
   \   000002D2   ........           CALL    ??CEmergencyAlarmLowLevelDfa
   \   000002D6   C002               RJMP    ??ConfigurationInit_37
   \                     ??ConfigurationInit_36:
   \   000002D8   E000               LDI     R16, 0
   \   000002DA   E010               LDI     R17, 0
   \                     ??ConfigurationInit_37:
   \   000002DC   2D24               MOV     R18, R4
   \   000002DE   E030               LDI     R19, 0
   \   000002E0   0F22               LSL     R18
   \   000002E2   1F33               ROL     R19
   \   000002E4   01F9               MOVW    R31:R30, R19:R18
   \   000002E6   ....               SUBI    R30, LOW((-(??m_apxAlarmDfa) & 0xFFFF))
   \   000002E8   ....               SBCI    R31, (-(??m_apxAlarmDfa) & 0xFFFF) >> 8
   \   000002EA   8300               ST      Z, R16
   \   000002EC   8311               STD     Z+1, R17
    777                      }
    778                      break;
   \   000002EE   C015               RJMP    ??ConfigurationInit_22
    779          
    780                  case IND_PREVENTIVE:
    781                      m_apxAlarmDfa[i] = new CNormalAlarmDfa;
    782                      break;
    783          
    784                  case IND_EMERGENCY:
    785                      m_apxAlarmDfa[i] = new CNormalAlarmDfa;
    786                      break;
    787          
    788                  default:
    789                      m_apxAlarmDfa[i] = new CNormalAlarmDfa;
   \                     ??ConfigurationInit_19:
   \   000002F0   E006               LDI     R16, 6
   \   000002F2   E010               LDI     R17, 0
   \   000002F4   ........           CALL    `??operator new`
   \   000002F8   2F20               MOV     R18, R16
   \   000002FA   2B21               OR      R18, R17
   \   000002FC   F019               BREQ    ??ConfigurationInit_38
   \   000002FE   ........           CALL    ??CNormalAlarmDfa
   \   00000302   C002               RJMP    ??ConfigurationInit_39
   \                     ??ConfigurationInit_38:
   \   00000304   E000               LDI     R16, 0
   \   00000306   E010               LDI     R17, 0
   \                     ??ConfigurationInit_39:
   \   00000308   2D24               MOV     R18, R4
   \   0000030A   E030               LDI     R19, 0
   \   0000030C   0F22               LSL     R18
   \   0000030E   1F33               ROL     R19
   \   00000310   01F9               MOVW    R31:R30, R19:R18
   \   00000312   ....               SUBI    R30, LOW((-(??m_apxAlarmDfa) & 0xFFFF))
   \   00000314   ....               SBCI    R31, (-(??m_apxAlarmDfa) & 0xFFFF) >> 8
   \   00000316   8300               ST      Z, R16
   \   00000318   8311               STD     Z+1, R17
    790                      break;
    791                  }
    792              }
   \                     ??ConfigurationInit_22:
   \   0000031A   9443               INC     R4
   \   0000031C   CF23               RJMP    ??ConfigurationInit_13
    793          
    794              // Привяжем окна сигнализации к созданным объектам сигнализаций дискретных сигналов.
    795              // Считаем во временный буфер блок БД - "Индекс окна сигнализации которое привязано к текущему дискретному сигналу".
    796              CDataBase::Read(puiTempBuffer, TDataBase::ALARM_WINDOW_INDEX);
   \                     ??ConfigurationInit_14:
   \   0000031E   E023               LDI     R18, 3
   \   00000320   018D               MOVW    R17:R16, R27:R26
   \   00000322   ........           CALL    ??Read
    797              for (uint8_t i = 0;
   \   00000326   2444               CLR     R4
    798                      i < DISCRETE_SIGNALS_NUMBER;
   \                     ??ConfigurationInit_40:
   \   00000328   E600               LDI     R16, 96
   \   0000032A   1640               CP      R4, R16
   \   0000032C   F530               BRCC    ??ConfigurationInit_41
    799                      i++)
    800              {
    801                  // Привяжем окно сигнализации к текущему дискретному сигналу.
    802                  if (puiTempBuffer[i] < ALARM_WINDOWS_NUMBER)
   \   0000032E   2455               CLR     R5
   \   00000330   01FD               MOVW    R31:R30, R27:R26
   \   00000332   0DE4               ADD     R30, R4
   \   00000334   1DF5               ADC     R31, R5
   \   00000336   8100               LD      R16, Z
   \   00000338   3300               CPI     R16, 48
   \   0000033A   F488               BRCC    ??ConfigurationInit_42
    803                  {
    804                      m_apxAlarmDfa[i] ->
    805                      SetAlarmWindowIndex(puiTempBuffer[i]);
   \   0000033C   2455               CLR     R5
   \   0000033E   01FD               MOVW    R31:R30, R27:R26
   \   00000340   0DE4               ADD     R30, R4
   \   00000342   1DF5               ADC     R31, R5
   \   00000344   8120               LD      R18, Z
   \   00000346   2D04               MOV     R16, R4
   \   00000348   E010               LDI     R17, 0
   \   0000034A   0F00               LSL     R16
   \   0000034C   1F11               ROL     R17
   \   0000034E   01F8               MOVW    R31:R30, R17:R16
   \   00000350   ....               SUBI    R30, LOW((-(??m_apxAlarmDfa) & 0xFFFF))
   \   00000352   ....               SBCI    R31, (-(??m_apxAlarmDfa) & 0xFFFF) >> 8
   \   00000354   8100               LD      R16, Z
   \   00000356   8111               LDD     R17, Z+1
   \   00000358   ........           CALL    ??SetAlarmWindowIndex
   \   0000035C   C00C               RJMP    ??ConfigurationInit_43
    806                  }
    807                  else
    808                  {
    809                      m_apxAlarmDfa[i] ->
    810                      SetAlarmWindowIndex(0);
   \                     ??ConfigurationInit_42:
   \   0000035E   E020               LDI     R18, 0
   \   00000360   2D04               MOV     R16, R4
   \   00000362   E010               LDI     R17, 0
   \   00000364   0F00               LSL     R16
   \   00000366   1F11               ROL     R17
   \   00000368   01F8               MOVW    R31:R30, R17:R16
   \   0000036A   ....               SUBI    R30, LOW((-(??m_apxAlarmDfa) & 0xFFFF))
   \   0000036C   ....               SBCI    R31, (-(??m_apxAlarmDfa) & 0xFFFF) >> 8
   \   0000036E   8100               LD      R16, Z
   \   00000370   8111               LDD     R17, Z+1
   \   00000372   ........           CALL    ??SetAlarmWindowIndex
    811                  }
    812              }
   \                     ??ConfigurationInit_43:
   \   00000376   9443               INC     R4
   \   00000378   CFD7               RJMP    ??ConfigurationInit_40
    813          
    814              // Считаем во временный буфер блок БД - "Выходные реле, сопоставленные физическим входам".
    815              CDataBase::Read(puiTempBuffer, TDataBase::RELAY);
   \                     ??ConfigurationInit_41:
   \   0000037A   E026               LDI     R18, 6
   \   0000037C   018D               MOVW    R17:R16, R27:R26
   \   0000037E   ........           CALL    ??Read
    816              // Получим связанные выходы на МР.
    817              for (uint8_t i = 0;
   \   00000382   2444               CLR     R4
    818                      i < DISCRETE_SIGNALS_NUMBER;
   \                     ??ConfigurationInit_44:
   \   00000384   E600               LDI     R16, 96
   \   00000386   1640               CP      R4, R16
   \   00000388   F4A0               BRCC    ??ConfigurationInit_45
    819                      i++)
    820              {
    821                  *(m_apxAlarmDfa[i] -> GetLinkedDiscreteOutputsPointer()) = puiTempBuffer[i];
   \   0000038A   2D04               MOV     R16, R4
   \   0000038C   E010               LDI     R17, 0
   \   0000038E   0F00               LSL     R16
   \   00000390   1F11               ROL     R17
   \   00000392   01F8               MOVW    R31:R30, R17:R16
   \   00000394   ....               SUBI    R30, LOW((-(??m_apxAlarmDfa) & 0xFFFF))
   \   00000396   ....               SBCI    R31, (-(??m_apxAlarmDfa) & 0xFFFF) >> 8
   \   00000398   8100               LD      R16, Z
   \   0000039A   8111               LDD     R17, Z+1
   \   0000039C   ........           CALL    ??GetLinkedDiscreteOutputsPointer
   \   000003A0   2455               CLR     R5
   \   000003A2   01FD               MOVW    R31:R30, R27:R26
   \   000003A4   0DE4               ADD     R30, R4
   \   000003A6   1DF5               ADC     R31, R5
   \   000003A8   8120               LD      R18, Z
   \   000003AA   01F8               MOVW    R31:R30, R17:R16
   \   000003AC   8320               ST      Z, R18
    822          //        m_apxAlarmDfa[i] -> SetLinkedDiscreteOutputs(puiTempBuffer[i]);
    823              };
   \   000003AE   9443               INC     R4
   \   000003B0   CFE9               RJMP    ??ConfigurationInit_44
    824          
    825              // Получим индексы источников состояния дискретных сигналов - дискретные входы модулей.
    826              for (uint8_t i = 0;
   \                     ??ConfigurationInit_45:
   \   000003B2   2444               CLR     R4
    827                      i < DISCRETE_INPUTS_NUMBER;
   \                     ??ConfigurationInit_46:
   \   000003B4   E300               LDI     R16, 48
   \   000003B6   1640               CP      R4, R16
   \   000003B8   F470               BRCC    ??ConfigurationInit_47
    828                      i++)
    829              {
    830                  m_apxAlarmDfa[i] -> SetDiscreteStateIndex(i);
   \   000003BA   2D24               MOV     R18, R4
   \   000003BC   2D04               MOV     R16, R4
   \   000003BE   E010               LDI     R17, 0
   \   000003C0   0F00               LSL     R16
   \   000003C2   1F11               ROL     R17
   \   000003C4   01F8               MOVW    R31:R30, R17:R16
   \   000003C6   ....               SUBI    R30, LOW((-(??m_apxAlarmDfa) & 0xFFFF))
   \   000003C8   ....               SBCI    R31, (-(??m_apxAlarmDfa) & 0xFFFF) >> 8
   \   000003CA   8100               LD      R16, Z
   \   000003CC   8111               LDD     R17, Z+1
   \   000003CE   ........           CALL    ??SetDiscreteStateIndex
    831              };
   \   000003D2   9443               INC     R4
   \   000003D4   CFEF               RJMP    ??ConfigurationInit_46
    832              // Получим индексы источников состояния дискретных сигналов - состояние ячеек(coils Modbus).
    833              for (uint8_t i = 0;
   \                     ??ConfigurationInit_47:
   \   000003D6   2444               CLR     R4
    834                      i < ALARM_WINDOWS_NUMBER;
   \                     ??ConfigurationInit_48:
   \   000003D8   E300               LDI     R16, 48
   \   000003DA   1640               CP      R4, R16
   \   000003DC   F478               BRCC    ??ConfigurationInit_49
    835                      i++)
    836              {
    837                  m_apxAlarmDfa[DISCRETE_INPUTS_NUMBER + i] -> SetDiscreteStateIndex(DISCRETE_INPUTS_NUMBER + i);;
   \   000003DE   2D24               MOV     R18, R4
   \   000003E0   5D20               SUBI    R18, 208
   \   000003E2   2D04               MOV     R16, R4
   \   000003E4   E010               LDI     R17, 0
   \   000003E6   0F00               LSL     R16
   \   000003E8   1F11               ROL     R17
   \   000003EA   01F8               MOVW    R31:R30, R17:R16
   \   000003EC   ....               SUBI    R30, LOW((-(??m_apxAlarmDfa + 96) & 0xFFFF))
   \   000003EE   ....               SBCI    R31, HIGH((-(??m_apxAlarmDfa + 96) & 0xFFFF))
   \   000003F0   8100               LD      R16, Z
   \   000003F2   8111               LDD     R17, Z+1
   \   000003F4   ........           CALL    ??SetDiscreteStateIndex
    838              };
   \   000003F8   9443               INC     R4
   \   000003FA   CFEE               RJMP    ??ConfigurationInit_48
    839          
    840              // Восстановим  состояние устройства.
    841              // Считаем во временный буфер блок БД - "Состояние устройства хранимое в EEPROM".
    842              CDataBase::Read(puiTempBuffer, TDataBase::DEVICE_STATE);
   \                     ??ConfigurationInit_49:
   \   000003FC   E02A               LDI     R18, 10
   \   000003FE   018D               MOVW    R17:R16, R27:R26
   \   00000400   ........           CALL    ??Read
    843              memcpy(reinterpret_cast<uint8_t*>(&m_xDeviceState),
    844                     puiTempBuffer,
    845                     sizeof(struct TDeviceState));
   \   00000404   E048               LDI     R20, 8
   \   00000406   E050               LDI     R21, 0
   \   00000408   019D               MOVW    R19:R18, R27:R26
   \   0000040A   ....               LDI     R16, LOW(??m_xDeviceState)
   \   0000040C   ....               LDI     R17, (??m_xDeviceState) >> 8
   \   0000040E   ........           CALL    memcpy
    846          }
   \   00000412   E0E6               LDI     R30, 6
   \   00000414   ........           JMP     ?EPILOGUE_B6_L09
    847          
    848          //-----------------------------------------------------------------------------------------------------

   \                                 In  segment CODE, align 2, keep-with-next
    849          void CPss21::DiscreteOutputControlClear(void)
   \                     ??DiscreteOutputControlClear:
    850          {
   \   00000000   ........           CALL    ?PROLOGUE4_L09
    851              // Приведение буферов управления модулями дискретных выходов(реле) в исходное состояние.
    852              for (int j = 0;
   \   00000004   E0E0               LDI     R30, 0
   \   00000006   E0F0               LDI     R31, 0
    853                      j < DISCRETE_OUTPUT_MODULE_MAX_NUMBER;
   \                     ??DiscreteOutputControlClear_1:
   \   00000008   30E1               CPI     R30, 1
   \   0000000A   E000               LDI     R16, 0
   \   0000000C   07F0               CPC     R31, R16
   \   0000000E   F534               BRGE    ??DiscreteOutputControlClear_2
    854                      j++)
    855              {
    856                  // цикл выбора реле.
    857                  for (int k = 0;
   \   00000010   E080               LDI     R24, 0
   \   00000012   E090               LDI     R25, 0
    858                          k < MR_DISCRETE_OUTPUT_NUMBER;
   \                     ??DiscreteOutputControlClear_3:
   \   00000014   3088               CPI     R24, 8
   \   00000016   E000               LDI     R16, 0
   \   00000018   0790               CPC     R25, R16
   \   0000001A   F4F4               BRGE    ??DiscreteOutputControlClear_4
    859                          k++)
    860                  {
    861                      // Сбросим флаг - новое нарушение.
    862                      m_axDiscreteOutputControl[(j * MR_DISCRETE_OUTPUT_NUMBER) + k].uiNewActivation = 0;
   \   0000001C   018F               MOVW    R17:R16, R31:R30
   \   0000001E   E048               LDI     R20, 8
   \   00000020   E050               LDI     R21, 0
   \   00000022   ........           CALL    ?S_EC_MUL_L02
   \   00000026   0F08               ADD     R16, R24
   \   00000028   1F19               ADC     R17, R25
   \   0000002A   0F00               LSL     R16
   \   0000002C   1F11               ROL     R17
   \   0000002E   01D8               MOVW    R27:R26, R17:R16
   \   00000030   ....               SUBI    R26, LOW((-(??m_axDiscreteOutputControl) & 0xFFFF))
   \   00000032   ....               SBCI    R27, (-(??m_axDiscreteOutputControl) & 0xFFFF) >> 8
   \   00000034   E000               LDI     R16, 0
   \   00000036   930C               ST      X, R16
    863                      // Сбросим флаг - требование включения реле.
    864                      m_axDiscreteOutputControl[(j * MR_DISCRETE_OUTPUT_NUMBER) + k].uiRelayActivationRequest = 0;
   \   00000038   018F               MOVW    R17:R16, R31:R30
   \   0000003A   E048               LDI     R20, 8
   \   0000003C   E050               LDI     R21, 0
   \   0000003E   ........           CALL    ?S_EC_MUL_L02
   \   00000042   0F08               ADD     R16, R24
   \   00000044   1F19               ADC     R17, R25
   \   00000046   0F00               LSL     R16
   \   00000048   1F11               ROL     R17
   \   0000004A   01D8               MOVW    R27:R26, R17:R16
   \   0000004C   ....               SUBI    R26, LOW((-(??m_axDiscreteOutputControl + 1) & 0xFFFF))
   \   0000004E   ....               SBCI    R27, HIGH((-(??m_axDiscreteOutputControl + 1) & 0xFFFF))
   \   00000050   E000               LDI     R16, 0
   \   00000052   930C               ST      X, R16
    865                  }
   \   00000054   9601               ADIW    R25:R24, 1
   \   00000056   CFDE               RJMP    ??DiscreteOutputControlClear_3
    866              }
   \                     ??DiscreteOutputControlClear_4:
   \   00000058   9631               ADIW    R31:R30, 1
   \   0000005A   CFD6               RJMP    ??DiscreteOutputControlClear_1
    867          }
   \                     ??DiscreteOutputControlClear_2:
   \   0000005C   E0E4               LDI     R30, 4
   \   0000005E   ........           JMP     ?EPILOGUE_B4_L09
    868          
    869          //-----------------------------------------------------------------------------------------------------

   \                                 In  segment CODE, align 2, keep-with-next
    870          void CPss21::DiscreteOutputsSet(uint8_t *puiLinkedDiscreteOutputs, uint8_t uiNewViolation)
   \                     ??DiscreteOutputsSet:
    871          {
   \   00000000   ........           CALL    ?PROLOGUE4_L09
   \   00000004   01B8               MOVW    R23:R22, R17:R16
    872              // Дискретный сигнал был активен на предыдущем шаге?
    873              if (!uiNewViolation)
   \   00000006   2322               TST     R18
   \   00000008   F559               BRNE    ??DiscreteOutputsSet_1
    874              {
    875                  // Не новое нарушение.
    876                  // установим флаги - требования включения, для запрограммированных реле,
    877                  // в буфере выходов требований включения реле - блокировка.
    878                  // цикл выбора модуля.
    879                  for (int j = 0;
   \   0000000A   E080               LDI     R24, 0
   \   0000000C   E090               LDI     R25, 0
    880                          j < DISCRETE_OUTPUT_MODULE_MAX_NUMBER;
   \                     ??DiscreteOutputsSet_2:
   \   0000000E   3081               CPI     R24, 1
   \   00000010   E000               LDI     R16, 0
   \   00000012   0790               CPC     R25, R16
   \   00000014   F00C               BRLT    $+2+2
   \   00000016   C05C               RJMP    ??DiscreteOutputsSet_3
    881                          j++)
    882                  {
    883                      // цикл выбора реле.
    884                      for (int k = 0;
   \   00000018   E0A0               LDI     R26, 0
   \   0000001A   E0B0               LDI     R27, 0
    885                              k < MR_DISCRETE_OUTPUT_NUMBER;
   \                     ??DiscreteOutputsSet_4:
   \   0000001C   30A8               CPI     R26, 8
   \   0000001E   E000               LDI     R16, 0
   \   00000020   07B0               CPC     R27, R16
   \   00000022   F4E4               BRGE    ??DiscreteOutputsSet_5
    886                              k++)
    887                      {
    888                          // Текущий - (j, k) дискретный выход(реле) привязан?
    889                          if (puiLinkedDiscreteOutputs[j] & (0x01 << k))
   \   00000024   01FB               MOVW    R31:R30, R23:R22
   \   00000026   0FE8               ADD     R30, R24
   \   00000028   1FF9               ADC     R31, R25
   \   0000002A   8130               LD      R19, Z
   \   0000002C   2F4A               MOV     R20, R26
   \   0000002E   E001               LDI     R16, 1
   \   00000030   E010               LDI     R17, 0
   \   00000032   ........           CALL    ?S_SHL_L02
   \   00000036   2330               AND     R19, R16
   \   00000038   2333               TST     R19
   \   0000003A   F071               BREQ    ??DiscreteOutputsSet_6
    890                          {
    891                              // установим флаг - требование включения реле.
    892                              m_axDiscreteOutputControl[(j * MR_DISCRETE_OUTPUT_NUMBER) + k].uiRelayActivationRequest = 1;
   \   0000003C   018C               MOVW    R17:R16, R25:R24
   \   0000003E   E048               LDI     R20, 8
   \   00000040   E050               LDI     R21, 0
   \   00000042   ........           CALL    ?S_EC_MUL_L02
   \   00000046   0F0A               ADD     R16, R26
   \   00000048   1F1B               ADC     R17, R27
   \   0000004A   0F00               LSL     R16
   \   0000004C   1F11               ROL     R17
   \   0000004E   01F8               MOVW    R31:R30, R17:R16
   \   00000050   ....               SUBI    R30, LOW((-(??m_axDiscreteOutputControl) & 0xFFFF))
   \   00000052   ....               SBCI    R31, (-(??m_axDiscreteOutputControl) & 0xFFFF) >> 8
   \   00000054   E001               LDI     R16, 1
   \   00000056   8301               STD     Z+1, R16
    893                          }
    894                      }
   \                     ??DiscreteOutputsSet_6:
   \   00000058   9611               ADIW    R27:R26, 1
   \   0000005A   CFE0               RJMP    ??DiscreteOutputsSet_4
    895                  }
   \                     ??DiscreteOutputsSet_5:
   \   0000005C   9601               ADIW    R25:R24, 1
   \   0000005E   CFD7               RJMP    ??DiscreteOutputsSet_2
    896              }
    897              else
    898              {
    899                  // новое нарушение.
    900                  // установим флаги - новое нарушение, для запрограммированных реле
    901                  // в буфере выходов управления реле - новое нарушение.
    902                  // установим флаги - требования включения, для запрограммированных реле,
    903                  // в буфере выходов требований включения реле - блокировка.
    904                  // цикл выбора модуля.
    905                  for (int j = 0;
   \                     ??DiscreteOutputsSet_1:
   \   00000060   E080               LDI     R24, 0
   \   00000062   E090               LDI     R25, 0
    906                          j < DISCRETE_OUTPUT_MODULE_MAX_NUMBER;
   \                     ??DiscreteOutputsSet_7:
   \   00000064   3081               CPI     R24, 1
   \   00000066   E000               LDI     R16, 0
   \   00000068   0790               CPC     R25, R16
   \   0000006A   F594               BRGE    ??DiscreteOutputsSet_3
    907                          j++)
    908                  {
    909                      // цикл выбора реле.
    910                      for (int k = 0;
   \   0000006C   E0A0               LDI     R26, 0
   \   0000006E   E0B0               LDI     R27, 0
    911                              k < MR_DISCRETE_OUTPUT_NUMBER;
   \                     ??DiscreteOutputsSet_8:
   \   00000070   30A8               CPI     R26, 8
   \   00000072   E000               LDI     R16, 0
   \   00000074   07B0               CPC     R27, R16
   \   00000076   F554               BRGE    ??DiscreteOutputsSet_9
    912                              k++)
    913                      {
    914                          // Текущий - (j, k) дискретный выход(реле) привязан?
    915                          if (puiLinkedDiscreteOutputs[j] & (0x01 << k))
   \   00000078   01FB               MOVW    R31:R30, R23:R22
   \   0000007A   0FE8               ADD     R30, R24
   \   0000007C   1FF9               ADC     R31, R25
   \   0000007E   8130               LD      R19, Z
   \   00000080   2F4A               MOV     R20, R26
   \   00000082   E001               LDI     R16, 1
   \   00000084   E010               LDI     R17, 0
   \   00000086   ........           CALL    ?S_SHL_L02
   \   0000008A   2330               AND     R19, R16
   \   0000008C   2333               TST     R19
   \   0000008E   F0E1               BREQ    ??DiscreteOutputsSet_10
    916                          {
    917                              // установим флаг - новое нарушение.
    918                              m_axDiscreteOutputControl[(j * MR_DISCRETE_OUTPUT_NUMBER) + k].uiNewActivation = 1;
   \   00000090   018C               MOVW    R17:R16, R25:R24
   \   00000092   E048               LDI     R20, 8
   \   00000094   E050               LDI     R21, 0
   \   00000096   ........           CALL    ?S_EC_MUL_L02
   \   0000009A   0F0A               ADD     R16, R26
   \   0000009C   1F1B               ADC     R17, R27
   \   0000009E   0F00               LSL     R16
   \   000000A0   1F11               ROL     R17
   \   000000A2   01F8               MOVW    R31:R30, R17:R16
   \   000000A4   ....               SUBI    R30, LOW((-(??m_axDiscreteOutputControl) & 0xFFFF))
   \   000000A6   ....               SBCI    R31, (-(??m_axDiscreteOutputControl) & 0xFFFF) >> 8
   \   000000A8   E001               LDI     R16, 1
   \   000000AA   8300               ST      Z, R16
    919                              // установим флаг - требование включения реле.
    920                              m_axDiscreteOutputControl[(j * MR_DISCRETE_OUTPUT_NUMBER) + k].uiRelayActivationRequest = 1;
   \   000000AC   018C               MOVW    R17:R16, R25:R24
   \   000000AE   E048               LDI     R20, 8
   \   000000B0   E050               LDI     R21, 0
   \   000000B2   ........           CALL    ?S_EC_MUL_L02
   \   000000B6   0F0A               ADD     R16, R26
   \   000000B8   1F1B               ADC     R17, R27
   \   000000BA   0F00               LSL     R16
   \   000000BC   1F11               ROL     R17
   \   000000BE   01F8               MOVW    R31:R30, R17:R16
   \   000000C0   ....               SUBI    R30, LOW((-(??m_axDiscreteOutputControl) & 0xFFFF))
   \   000000C2   ....               SBCI    R31, (-(??m_axDiscreteOutputControl) & 0xFFFF) >> 8
   \   000000C4   E001               LDI     R16, 1
   \   000000C6   8301               STD     Z+1, R16
    921                          }
    922                      }
   \                     ??DiscreteOutputsSet_10:
   \   000000C8   9611               ADIW    R27:R26, 1
   \   000000CA   CFD2               RJMP    ??DiscreteOutputsSet_8
    923                  }
   \                     ??DiscreteOutputsSet_9:
   \   000000CC   9601               ADIW    R25:R24, 1
   \   000000CE   CFCA               RJMP    ??DiscreteOutputsSet_7
    924              }
    925          }
   \                     ??DiscreteOutputsSet_3:
   \   000000D0   E0E4               LDI     R30, 4
   \   000000D2   ........           JMP     ?EPILOGUE_B4_L09
    926          
    927          //-----------------------------------------------------------------------------------------------------

   \                                 In  segment CODE, align 2, keep-with-next
    928          void CPss21::AlarmsProcessing(void)
   \                     ??AlarmsProcessing:
    929          {
   \   00000000   938A               ST      -Y, R24
    930              // Обработаем все дискретные сигналы.
    931              for (uint8_t i = 0;
   \   00000002   E080               LDI     R24, 0
    932                      i < DISCRETE_SIGNALS_NUMBER;
   \                     ??AlarmsProcessing_1:
   \   00000004   3680               CPI     R24, 96
   \   00000006   F4F0               BRCC    ??AlarmsProcessing_2
    933                      i++)
    934              {
    935                  m_apxAlarmDfa[i] -> Fsm();
   \   00000008   2F08               MOV     R16, R24
   \   0000000A   E010               LDI     R17, 0
   \   0000000C   0F00               LSL     R16
   \   0000000E   1F11               ROL     R17
   \   00000010   01F8               MOVW    R31:R30, R17:R16
   \   00000012   ....               SUBI    R30, LOW((-(??m_apxAlarmDfa) & 0xFFFF))
   \   00000014   ....               SBCI    R31, (-(??m_apxAlarmDfa) & 0xFFFF) >> 8
   \   00000016   8100               LD      R16, Z
   \   00000018   8111               LDD     R17, Z+1
   \   0000001A   2F28               MOV     R18, R24
   \   0000001C   E030               LDI     R19, 0
   \   0000001E   0F22               LSL     R18
   \   00000020   1F33               ROL     R19
   \   00000022   01F9               MOVW    R31:R30, R19:R18
   \   00000024   ....               SUBI    R30, LOW((-(??m_apxAlarmDfa) & 0xFFFF))
   \   00000026   ....               SBCI    R31, (-(??m_apxAlarmDfa) & 0xFFFF) >> 8
   \   00000028   8120               LD      R18, Z
   \   0000002A   8131               LDD     R19, Z+1
   \   0000002C   01F9               MOVW    R31:R30, R19:R18
   \   0000002E   8121               LDD     R18, Z+1
   \   00000030   8132               LDD     R19, Z+2
   \   00000032   01F9               MOVW    R31:R30, R19:R18
   \   00000034   9632               ADIW    R31:R30, 2
   \   00000036   9125               LPM     R18, Z+
   \   00000038   9134               LPM     R19, Z
   \   0000003A   9733               SBIW    R31:R30, 3
   \   0000003C   01F9               MOVW    R31:R30, R19:R18
   \   0000003E   9509               ICALL
    936              }
   \   00000040   9583               INC     R24
   \   00000042   CFE0               RJMP    ??AlarmsProcessing_1
    937          }
   \                     ??AlarmsProcessing_2:
   \   00000044   9189               LD      R24, Y+
   \   00000046   9508               RET
    938          
    939          //-----------------------------------------------------------------------------------------------------

   \                                 In  segment CODE, align 2, keep-with-next
    940          uint8_t CPss21::GetDiscreteInputState(uint8_t uiIndex)
   \                     ??GetDiscreteInputState:
    941          {
    942              if (uiIndex < DISCRETE_INPUTS_NUMBER)
   \   00000000   3300               CPI     R16, 48
   \   00000002   F430               BRCC    ??GetDiscreteInputState_1
    943              {
    944                  // Получим адреса источников состояния дискретных сигналов - дискретные входы модулей.
    945                  return m_aucRtuDiscreteDataArray[DISCRETE_INPUTS_BIT_ARRAY_OFFSET + uiIndex];
   \   00000004   E010               LDI     R17, 0
   \   00000006   01F8               MOVW    R31:R30, R17:R16
   \   00000008   ....               SUBI    R30, LOW((-(??m_aucRtuDiscreteDataArray) & 0xFFFF))
   \   0000000A   ....               SBCI    R31, (-(??m_aucRtuDiscreteDataArray) & 0xFFFF) >> 8
   \   0000000C   8900               LDD     R16, Z+16
   \   0000000E   9508               RET
    946              }
    947              else
    948              {
    949                  // Получим адреса источников состояния дискретных сигналов - состояние ячеек(coils Modbus).
    950                  return m_aucRtuDiscreteDataArray[ALARM_WINDOWS_BIT_ARRAY_OFFSET + uiIndex];
   \                     ??GetDiscreteInputState_1:
   \   00000010   E010               LDI     R17, 0
   \   00000012   01F8               MOVW    R31:R30, R17:R16
   \   00000014   ....               SUBI    R30, LOW((-(??m_aucRtuDiscreteDataArray + 64) & 0xFFFF))
   \   00000016   ....               SBCI    R31, HIGH((-(??m_aucRtuDiscreteDataArray + 64) & 0xFFFF))
   \   00000018   8100               LD      R16, Z
   \   0000001A   9508               RET
    951              }
    952          }
    953          
    954          //-----------------------------------------------------------------------------------------------------

   \                                 In  segment CODE, align 2, keep-with-next
    955          void CPss21::AlarmTypeSet(uint8_t uiAlarmType)
   \                     ??AlarmTypeSet:
    956          {
   \   00000000   938A               ST      -Y, R24
   \   00000002   2F80               MOV     R24, R16
    957              m_xPreventiveAlarmWindowNotifyerControl.AlarmSet(uiAlarmType);
   \   00000004   2F28               MOV     R18, R24
   \   00000006   ....               LDI     R16, LOW(??m_xPreventiveAlarmWindowNotifyerControl)
   \   00000008   ....               LDI     R17, (??m_xPreventiveAlarmWindowNotifyerControl) >> 8
   \   0000000A   ........           CALL    ??AlarmSet_1
    958              m_xEmergencyAlarmWindowNotifyerControl.AlarmSet(uiAlarmType);
   \   0000000E   2F28               MOV     R18, R24
   \   00000010   ....               LDI     R16, LOW(??m_xEmergencyAlarmWindowNotifyerControl)
   \   00000012   ....               LDI     R17, (??m_xEmergencyAlarmWindowNotifyerControl) >> 8
   \   00000014   ........           CALL    ??AlarmSet_2
    959              m_xStatusLedNotifyerControl.AlarmSet(uiAlarmType);
   \   00000018   2F28               MOV     R18, R24
   \   0000001A   ....               LDI     R16, LOW(??m_xStatusLedNotifyerControl)
   \   0000001C   ....               LDI     R17, (??m_xStatusLedNotifyerControl) >> 8
   \   0000001E   ........           CALL    ??AlarmSet_3
    960              m_xBuzzerNotifyerControl.AlarmSet(uiAlarmType);
   \   00000022   2F28               MOV     R18, R24
   \   00000024   ....               LDI     R16, LOW(??m_xBuzzerNotifyerControl)
   \   00000026   ....               LDI     R17, (??m_xBuzzerNotifyerControl) >> 8
   \   00000028   ........           CALL    ??AlarmSet
    961          }
   \   0000002C   9189               LD      R24, Y+
   \   0000002E   9508               RET
    962          
    963          //-----------------------------------------------------------------------------------------------------

   \                                 In  segment CODE, align 2, keep-with-next
    964          void CPss21::AlarmTypeChange(void)
   \                     ??AlarmTypeChange:
    965          {
    966              if (m_uiCommonAlarmType != m_uiCommonAlarmTypePrevious)
   \   00000000   9100....           LDS     R16, ??m_uiCommonAlarmType
   \   00000004   9110....           LDS     R17, ??m_uiCommonAlarmTypePrevious
   \   00000008   1701               CP      R16, R17
   \   0000000A   F039               BREQ    ??AlarmTypeChange_1
    967              {
    968                  m_uiCommonAlarmTypePrevious = m_uiCommonAlarmType;
   \   0000000C   9100....           LDS     R16, ??m_uiCommonAlarmType
   \   00000010   9300....           STS     ??m_uiCommonAlarmTypePrevious, R16
    969                  AlarmTypeSet(m_uiCommonAlarmType);
   \   00000014   9100....           LDS     R16, ??m_uiCommonAlarmType
   \   00000018   ....               RCALL   ??AlarmTypeSet
    970              }
    971          }
   \                     ??AlarmTypeChange_1:
   \   0000001A   9508               RET
    972          
    973          //-----------------------------------------------------------------------------------------------------

   \                                 In  segment CODE, align 2, keep-with-next
    974          void CPss21::AlarmTypeReceipt(void)
   \                     ??AlarmTypeReceipt:
    975          {
    976              m_uiCommonAlarmType = INDICATION;
   \   00000000   E001               LDI     R16, 1
   \   00000002   9300....           STS     ??m_uiCommonAlarmType, R16
    977              m_uiCommonAlarmTypePrevious = INDICATION;
   \   00000006   E001               LDI     R16, 1
   \   00000008   9300....           STS     ??m_uiCommonAlarmTypePrevious, R16
    978              AlarmTypeSet(INDICATION);
   \   0000000C   E001               LDI     R16, 1
   \   0000000E   ....               RCALL   ??AlarmTypeSet
    979          }
   \   00000010   9508               RET
    980          
    981          //-----------------------------------------------------------------------------------------------------

   \                                 In  segment CODE, align 2, keep-with-next
    982          void CPss21::AlarmTypeReset(void)
   \                     ??AlarmTypeReset:
    983          {
    984              m_uiCommonAlarmType = NORMAL;
   \   00000000   E000               LDI     R16, 0
   \   00000002   9300....           STS     ??m_uiCommonAlarmType, R16
    985              m_uiCommonAlarmTypePrevious = NORMAL;
   \   00000006   E000               LDI     R16, 0
   \   00000008   9300....           STS     ??m_uiCommonAlarmTypePrevious, R16
    986              AlarmTypeSet(NORMAL);
   \   0000000C   E000               LDI     R16, 0
   \   0000000E   ....               RCALL   ??AlarmTypeSet
    987          }
   \   00000010   9508               RET
    988          
    989          //-----------------------------------------------------------------------------------------------------

   \                                 In  segment CODE, align 2, keep-with-next
    990          void CPss21::NotifyersControlProcessing(void)
   \                     ??NotifyersControlProcessing:
    991          {
    992              m_xPreventiveAlarmWindowNotifyerControl.Fsm();
   \   00000000   ....               LDI     R16, LOW(??m_xPreventiveAlarmWindowNotifyerControl)
   \   00000002   ....               LDI     R17, (??m_xPreventiveAlarmWindowNotifyerControl) >> 8
   \   00000004   ........           CALL    ??Fsm
    993              m_xEmergencyAlarmWindowNotifyerControl.Fsm();
   \   00000008   ....               LDI     R16, LOW(??m_xEmergencyAlarmWindowNotifyerControl)
   \   0000000A   ....               LDI     R17, (??m_xEmergencyAlarmWindowNotifyerControl) >> 8
   \   0000000C   ........           CALL    ??Fsm
    994              m_xStatusLedNotifyerControl.Fsm();
   \   00000010   ....               LDI     R16, LOW(??m_xStatusLedNotifyerControl)
   \   00000012   ....               LDI     R17, (??m_xStatusLedNotifyerControl) >> 8
   \   00000014   ........           CALL    ??Fsm
    995              m_xBuzzerNotifyerControl.Fsm();
   \   00000018   ....               LDI     R16, LOW(??m_xBuzzerNotifyerControl)
   \   0000001A   ....               LDI     R17, (??m_xBuzzerNotifyerControl) >> 8
   \   0000001C   ........           CALL    ??Fsm
    996          }
   \   00000020   9508               RET
    997          
    998          //-----------------------------------------------------------------------------------------------------

   \                                 In  segment CODE, align 2, keep-with-next
    999          void CPss21::SetAlarmWindowType(uint8_t uiAlarmWindowIndex, uint8_t uiAlarmType)
   \                     ??SetAlarmWindowType:
   1000          {
   \   00000000   939A               ST      -Y, R25
   \   00000002   938A               ST      -Y, R24
   \   00000004   2F80               MOV     R24, R16
   \   00000006   2F91               MOV     R25, R17
   1001              GetAlarmWindowControlPointer(uiAlarmWindowIndex) -> SetAlarmType(uiAlarmType);
   \   00000008   2F08               MOV     R16, R24
   \   0000000A   ........           CALL    ??GetAlarmWindowControlPointer
   \   0000000E   2F29               MOV     R18, R25
   \   00000010   ........           CALL    ??SetAlarmType
   1002          }
   \   00000014   9189               LD      R24, Y+
   \   00000016   9199               LD      R25, Y+
   \   00000018   9508               RET
   1003          
   1004          //-----------------------------------------------------------------------------------------------------

   \                                 In  segment CODE, align 2, keep-with-next
   1005          void CPss21::SaveContextNotifyerControl(void)
   \                     ??SaveContextNotifyerControl:
   1006          {
   \   00000000   938A               ST      -Y, R24
   1007          //    // Сохраним текущее состояние автоматов управления извещателями.
   1008          //    m_xPreventiveAlarmWindowNotifyerControl.SetSavedFsmState(m_xPreventiveAlarmWindowNotifyerControl.GetFsmState());
   1009          //    m_xEmergencyAlarmWindowNotifyerControl.SetSavedFsmState(m_xEmergencyAlarmWindowNotifyerControl.GetFsmState());
   1010          //    m_xStatusLedNotifyerControl.SetSavedFsmState(m_xStatusLedNotifyerControl.GetFsmState());
   1011          //    m_xBuzzerNotifyerControl.SetSavedFsmState(m_xBuzzerNotifyerControl.GetFsmState());
   1012          
   1013              // Сохраним текущее состояние извещателей - окон сигнализации.
   1014              for (uint8_t i = 0;
   \   00000002   E080               LDI     R24, 0
   1015                      i < ALARM_WINDOWS_NUMBER;
   \                     ??SaveContextNotifyerControl_1:
   \   00000004   3380               CPI     R24, 48
   \   00000006   F5C0               BRCC    ??SaveContextNotifyerControl_2
   1016                      i++)
   1017              {
   1018                  m_axAlarmWindowControl[i].SetSavedAlarmType(m_axAlarmWindowControl[i].GetAlarmType());
   \   00000008   2F08               MOV     R16, R24
   \   0000000A   E010               LDI     R17, 0
   \   0000000C   E046               LDI     R20, 6
   \   0000000E   E050               LDI     R21, 0
   \   00000010   ........           CALL    ?S_EC_MUL_L02
   \   00000014   0198               MOVW    R19:R18, R17:R16
   \   00000016   ....               LDI     R16, LOW(??m_axAlarmWindowControl)
   \   00000018   ....               LDI     R17, (??m_axAlarmWindowControl) >> 8
   \   0000001A   0F02               ADD     R16, R18
   \   0000001C   1F13               ADC     R17, R19
   \   0000001E   ........           CALL    ??GetAlarmType
   \   00000022   2F20               MOV     R18, R16
   \   00000024   2F08               MOV     R16, R24
   \   00000026   E010               LDI     R17, 0
   \   00000028   E046               LDI     R20, 6
   \   0000002A   E050               LDI     R21, 0
   \   0000002C   ........           CALL    ?S_EC_MUL_L02
   \   00000030   01A8               MOVW    R21:R20, R17:R16
   \   00000032   ....               LDI     R16, LOW(??m_axAlarmWindowControl)
   \   00000034   ....               LDI     R17, (??m_axAlarmWindowControl) >> 8
   \   00000036   0F04               ADD     R16, R20
   \   00000038   1F15               ADC     R17, R21
   \   0000003A   ........           CALL    ??SetSavedAlarmType
   1019                  m_axAlarmWindowControl[i].SetSavedActivityState(m_axAlarmWindowControl[i].GetActivityState());
   \   0000003E   2F08               MOV     R16, R24
   \   00000040   E010               LDI     R17, 0
   \   00000042   E046               LDI     R20, 6
   \   00000044   E050               LDI     R21, 0
   \   00000046   ........           CALL    ?S_EC_MUL_L02
   \   0000004A   0198               MOVW    R19:R18, R17:R16
   \   0000004C   ....               LDI     R16, LOW(??m_axAlarmWindowControl)
   \   0000004E   ....               LDI     R17, (??m_axAlarmWindowControl) >> 8
   \   00000050   0F02               ADD     R16, R18
   \   00000052   1F13               ADC     R17, R19
   \   00000054   ........           CALL    ??GetActivityState
   \   00000058   2F20               MOV     R18, R16
   \   0000005A   2F08               MOV     R16, R24
   \   0000005C   E010               LDI     R17, 0
   \   0000005E   E046               LDI     R20, 6
   \   00000060   E050               LDI     R21, 0
   \   00000062   ........           CALL    ?S_EC_MUL_L02
   \   00000066   01A8               MOVW    R21:R20, R17:R16
   \   00000068   ....               LDI     R16, LOW(??m_axAlarmWindowControl)
   \   0000006A   ....               LDI     R17, (??m_axAlarmWindowControl) >> 8
   \   0000006C   0F04               ADD     R16, R20
   \   0000006E   1F15               ADC     R17, R21
   \   00000070   ........           CALL    ??SetSavedActivityState
   1020              };
   \   00000074   9583               INC     R24
   \   00000076   CFC6               RJMP    ??SaveContextNotifyerControl_1
   1021          }
   \                     ??SaveContextNotifyerControl_2:
   \   00000078   9189               LD      R24, Y+
   \   0000007A   9508               RET
   1022          
   1023          //-----------------------------------------------------------------------------------------------------

   \                                 In  segment CODE, align 2, keep-with-next
   1024          void CPss21::RestoreContextNotifyerControl(void)
   \                     ??RestoreContextNotifyerControl:
   1025          {
   \   00000000   938A               ST      -Y, R24
   1026          //    // Восстановим предыдущее состояние автоматов управления извещателями.
   1027          //    m_xPreventiveAlarmWindowNotifyerControl.SetFsmState(m_xPreventiveAlarmWindowNotifyerControl.GetSavedFsmState());
   1028          //    m_xEmergencyAlarmWindowNotifyerControl.SetFsmState(m_xEmergencyAlarmWindowNotifyerControl.GetSavedFsmState());
   1029          //    m_xStatusLedNotifyerControl.SetFsmState(m_xStatusLedNotifyerControl.GetSavedFsmState());
   1030          //    m_xBuzzerNotifyerControl.SetFsmState(m_xBuzzerNotifyerControl.GetSavedFsmState());
   1031              AlarmTypeSet(GetCommonAlarmType());
   \   00000002   ........           CALL    ??GetCommonAlarmType
   \   00000006   ....               RCALL   ??AlarmTypeSet
   1032          
   1033              // Восстановим предыдущее состояние извещателей - окон сигнализации.
   1034              for (uint8_t i = 0;
   \   00000008   E080               LDI     R24, 0
   1035                      i < ALARM_WINDOWS_NUMBER;
   \                     ??RestoreContextNotifyerControl_1:
   \   0000000A   3380               CPI     R24, 48
   \   0000000C   F5C0               BRCC    ??RestoreContextNotifyerControl_2
   1036                      i++)
   1037              {
   1038                  m_axAlarmWindowControl[i].SetAlarmType(m_axAlarmWindowControl[i].GetSavedAlarmType());
   \   0000000E   2F08               MOV     R16, R24
   \   00000010   E010               LDI     R17, 0
   \   00000012   E046               LDI     R20, 6
   \   00000014   E050               LDI     R21, 0
   \   00000016   ........           CALL    ?S_EC_MUL_L02
   \   0000001A   0198               MOVW    R19:R18, R17:R16
   \   0000001C   ....               LDI     R16, LOW(??m_axAlarmWindowControl)
   \   0000001E   ....               LDI     R17, (??m_axAlarmWindowControl) >> 8
   \   00000020   0F02               ADD     R16, R18
   \   00000022   1F13               ADC     R17, R19
   \   00000024   ........           CALL    ??GetSavedAlarmType
   \   00000028   2F20               MOV     R18, R16
   \   0000002A   2F08               MOV     R16, R24
   \   0000002C   E010               LDI     R17, 0
   \   0000002E   E046               LDI     R20, 6
   \   00000030   E050               LDI     R21, 0
   \   00000032   ........           CALL    ?S_EC_MUL_L02
   \   00000036   01A8               MOVW    R21:R20, R17:R16
   \   00000038   ....               LDI     R16, LOW(??m_axAlarmWindowControl)
   \   0000003A   ....               LDI     R17, (??m_axAlarmWindowControl) >> 8
   \   0000003C   0F04               ADD     R16, R20
   \   0000003E   1F15               ADC     R17, R21
   \   00000040   ........           CALL    ??SetAlarmType
   1039                  m_axAlarmWindowControl[i].SetActivityState(m_axAlarmWindowControl[i].GetSavedActivityState());
   \   00000044   2F08               MOV     R16, R24
   \   00000046   E010               LDI     R17, 0
   \   00000048   E046               LDI     R20, 6
   \   0000004A   E050               LDI     R21, 0
   \   0000004C   ........           CALL    ?S_EC_MUL_L02
   \   00000050   0198               MOVW    R19:R18, R17:R16
   \   00000052   ....               LDI     R16, LOW(??m_axAlarmWindowControl)
   \   00000054   ....               LDI     R17, (??m_axAlarmWindowControl) >> 8
   \   00000056   0F02               ADD     R16, R18
   \   00000058   1F13               ADC     R17, R19
   \   0000005A   ........           CALL    ??GetSavedActivityState
   \   0000005E   2F20               MOV     R18, R16
   \   00000060   2F08               MOV     R16, R24
   \   00000062   E010               LDI     R17, 0
   \   00000064   E046               LDI     R20, 6
   \   00000066   E050               LDI     R21, 0
   \   00000068   ........           CALL    ?S_EC_MUL_L02
   \   0000006C   01A8               MOVW    R21:R20, R17:R16
   \   0000006E   ....               LDI     R16, LOW(??m_axAlarmWindowControl)
   \   00000070   ....               LDI     R17, (??m_axAlarmWindowControl) >> 8
   \   00000072   0F04               ADD     R16, R20
   \   00000074   1F15               ADC     R17, R21
   \   00000076   ........           CALL    ??SetActivityState
   1040              };
   \   0000007A   9583               INC     R24
   \   0000007C   CFC6               RJMP    ??RestoreContextNotifyerControl_1
   1041          }
   \                     ??RestoreContextNotifyerControl_2:
   \   0000007E   9189               LD      R24, Y+
   \   00000080   9508               RET
   1042          
   1043          //-----------------------------------------------------------------------------------------------------

   \                                 In  segment CODE, align 2, keep-with-next
   1044          void CPss21::DiscreteSignalsProcessing(void)
   \                     ??DiscreteSignalsProcessing:
   1045          {
   1046              DiscreteOutputControlClear();
   \   00000000   ....               RCALL   ??DiscreteOutputControlClear
   1047              AlarmsProcessing();
   \   00000002   ....               RCALL   ??AlarmsProcessing
   1048              SetDiscreteSignalsReceipt(0);
   \   00000004   E000               LDI     R16, 0
   \   00000006   ........           CALL    ??SetDiscreteSignalsReceipt
   1049              SetDiscreteSignalsReset(0);
   \   0000000A   E000               LDI     R16, 0
   \   0000000C   ........           CALL    ??SetDiscreteSignalsReset
   1050          }
   \   00000010   9508               RET
   1051          
   1052          //-----------------------------------------------------------------------------------------------------

   \                                 In  segment CODE, align 2, keep-with-next
   1053          void CPss21::ActiveAlarmWindowOn(uint8_t uiAlarmType)
   \                     ??ActiveAlarmWindowOn:
   1054          {
   \   00000000   939A               ST      -Y, R25
   \   00000002   938A               ST      -Y, R24
   \   00000004   2F90               MOV     R25, R16
   1055              for (uint8_t i = 0;
   \   00000006   E080               LDI     R24, 0
   1056                      i < ALARM_WINDOWS_NUMBER;
   \                     ??ActiveAlarmWindowOn_1:
   \   00000008   3380               CPI     R24, 48
   \   0000000A   F4F8               BRCC    ??ActiveAlarmWindowOn_2
   1057                      i++)
   1058              {
   1059                  // Тип сигнализации окна и тип сигнализации извещателя совпадают?
   1060                  if (m_axAlarmWindowControl[i].GetAlarmType() == uiAlarmType)
   \   0000000C   2F08               MOV     R16, R24
   \   0000000E   E010               LDI     R17, 0
   \   00000010   E046               LDI     R20, 6
   \   00000012   E050               LDI     R21, 0
   \   00000014   ........           CALL    ?S_EC_MUL_L02
   \   00000018   0198               MOVW    R19:R18, R17:R16
   \   0000001A   ....               LDI     R16, LOW(??m_axAlarmWindowControl)
   \   0000001C   ....               LDI     R17, (??m_axAlarmWindowControl) >> 8
   \   0000001E   0F02               ADD     R16, R18
   \   00000020   1F13               ADC     R17, R19
   \   00000022   ........           CALL    ??GetAlarmType
   \   00000026   1709               CP      R16, R25
   \   00000028   F471               BRNE    ??ActiveAlarmWindowOn_3
   1061                  {
   1062                      // Актмвизируем окно сигнализации, для отображения извещателем.
   1063                      m_axAlarmWindowControl[i].SetActivityState(1);
   \   0000002A   E021               LDI     R18, 1
   \   0000002C   2F08               MOV     R16, R24
   \   0000002E   E010               LDI     R17, 0
   \   00000030   E046               LDI     R20, 6
   \   00000032   E050               LDI     R21, 0
   \   00000034   ........           CALL    ?S_EC_MUL_L02
   \   00000038   01A8               MOVW    R21:R20, R17:R16
   \   0000003A   ....               LDI     R16, LOW(??m_axAlarmWindowControl)
   \   0000003C   ....               LDI     R17, (??m_axAlarmWindowControl) >> 8
   \   0000003E   0F04               ADD     R16, R20
   \   00000040   1F15               ADC     R17, R21
   \   00000042   ........           CALL    ??SetActivityState
   1064                  }
   1065              };
   \                     ??ActiveAlarmWindowOn_3:
   \   00000046   9583               INC     R24
   \   00000048   CFDF               RJMP    ??ActiveAlarmWindowOn_1
   1066          
   1067              m_xLightBoard.Set();
   \                     ??ActiveAlarmWindowOn_2:
   \   0000004A   ....               LDI     R16, LOW(??m_xLightBoard)
   \   0000004C   ....               LDI     R17, (??m_xLightBoard) >> 8
   \   0000004E   ........           CALL    ??Set
   1068          }
   \   00000052   9189               LD      R24, Y+
   \   00000054   9199               LD      R25, Y+
   \   00000056   9508               RET
   1069          
   1070          //-----------------------------------------------------------------------------------------------------

   \                                 In  segment CODE, align 2, keep-with-next
   1071          void CPss21::ActiveAlarmWindowOff(uint8_t uiAlarmType)
   \                     ??ActiveAlarmWindowOff:
   1072          {
   \   00000000   939A               ST      -Y, R25
   \   00000002   938A               ST      -Y, R24
   \   00000004   2F90               MOV     R25, R16
   1073              for (uint8_t i = 0;
   \   00000006   E080               LDI     R24, 0
   1074                      i < ALARM_WINDOWS_NUMBER;
   \                     ??ActiveAlarmWindowOff_1:
   \   00000008   3380               CPI     R24, 48
   \   0000000A   F5E8               BRCC    ??ActiveAlarmWindowOff_2
   1075                      i++)
   1076              {
   1077                  // Тип сигнализации окна и тип сигнализации извещателя совпадают?
   1078                  if (m_axAlarmWindowControl[i].GetAlarmType() == uiAlarmType)
   \   0000000C   2F08               MOV     R16, R24
   \   0000000E   E010               LDI     R17, 0
   \   00000010   E046               LDI     R20, 6
   \   00000012   E050               LDI     R21, 0
   \   00000014   ........           CALL    ?S_EC_MUL_L02
   \   00000018   0198               MOVW    R19:R18, R17:R16
   \   0000001A   ....               LDI     R16, LOW(??m_axAlarmWindowControl)
   \   0000001C   ....               LDI     R17, (??m_axAlarmWindowControl) >> 8
   \   0000001E   0F02               ADD     R16, R18
   \   00000020   1F13               ADC     R17, R19
   \   00000022   ........           CALL    ??GetAlarmType
   \   00000026   1709               CP      R16, R25
   \   00000028   F479               BRNE    ??ActiveAlarmWindowOff_3
   1079                  {
   1080                      // Деактмвируем окно сигнализации, для прекращения отображения извещателем.
   1081                      m_axAlarmWindowControl[i].SetActivityState(0);
   \   0000002A   E020               LDI     R18, 0
   \   0000002C   2F08               MOV     R16, R24
   \   0000002E   E010               LDI     R17, 0
   \   00000030   E046               LDI     R20, 6
   \   00000032   E050               LDI     R21, 0
   \   00000034   ........           CALL    ?S_EC_MUL_L02
   \   00000038   01A8               MOVW    R21:R20, R17:R16
   \   0000003A   ....               LDI     R16, LOW(??m_axAlarmWindowControl)
   \   0000003C   ....               LDI     R17, (??m_axAlarmWindowControl) >> 8
   \   0000003E   0F04               ADD     R16, R20
   \   00000040   1F15               ADC     R17, R21
   \   00000042   ........           CALL    ??SetActivityState
   \   00000046   C01D               RJMP    ??ActiveAlarmWindowOff_4
   1082                  }
   1083                  else if (m_axAlarmWindowControl[i].GetAlarmType() == NORMAL)
   \                     ??ActiveAlarmWindowOff_3:
   \   00000048   2F08               MOV     R16, R24
   \   0000004A   E010               LDI     R17, 0
   \   0000004C   E046               LDI     R20, 6
   \   0000004E   E050               LDI     R21, 0
   \   00000050   ........           CALL    ?S_EC_MUL_L02
   \   00000054   0198               MOVW    R19:R18, R17:R16
   \   00000056   ....               LDI     R16, LOW(??m_axAlarmWindowControl)
   \   00000058   ....               LDI     R17, (??m_axAlarmWindowControl) >> 8
   \   0000005A   0F02               ADD     R16, R18
   \   0000005C   1F13               ADC     R17, R19
   \   0000005E   ........           CALL    ??GetAlarmType
   \   00000062   2300               TST     R16
   \   00000064   F471               BRNE    ??ActiveAlarmWindowOff_4
   1084                  {
   1085                      // Деактмвируем окно сигнализации, для прекращения отображения извещателем.
   1086                      m_axAlarmWindowControl[i].SetActivityState(0);
   \   00000066   E020               LDI     R18, 0
   \   00000068   2F08               MOV     R16, R24
   \   0000006A   E010               LDI     R17, 0
   \   0000006C   E046               LDI     R20, 6
   \   0000006E   E050               LDI     R21, 0
   \   00000070   ........           CALL    ?S_EC_MUL_L02
   \   00000074   01A8               MOVW    R21:R20, R17:R16
   \   00000076   ....               LDI     R16, LOW(??m_axAlarmWindowControl)
   \   00000078   ....               LDI     R17, (??m_axAlarmWindowControl) >> 8
   \   0000007A   0F04               ADD     R16, R20
   \   0000007C   1F15               ADC     R17, R21
   \   0000007E   ........           CALL    ??SetActivityState
   1087                  }
   1088              };
   \                     ??ActiveAlarmWindowOff_4:
   \   00000082   9583               INC     R24
   \   00000084   CFC1               RJMP    ??ActiveAlarmWindowOff_1
   1089          
   1090              m_xLightBoard.Set();
   \                     ??ActiveAlarmWindowOff_2:
   \   00000086   ....               LDI     R16, LOW(??m_xLightBoard)
   \   00000088   ....               LDI     R17, (??m_xLightBoard) >> 8
   \   0000008A   ........           CALL    ??Set
   1091          }
   \   0000008E   9189               LD      R24, Y+
   \   00000090   9199               LD      R25, Y+
   \   00000092   9508               RET
   1092          
   1093          //-----------------------------------------------------------------------------------------------------

   \                                 In  segment CODE, align 2, keep-with-next
   1094          void CPss21::AllAlarmWindowOn(uint8_t uiAlarmType)
   \                     ??AllAlarmWindowOn:
   1095          {
   \   00000000   939A               ST      -Y, R25
   \   00000002   938A               ST      -Y, R24
   \   00000004   2F90               MOV     R25, R16
   1096          //    CAlarmWindow axAlarmWindowControl[ALARM_WINDOWS_NUMBER];
   1097          
   1098              for (uint8_t i = 0;
   \   00000006   E080               LDI     R24, 0
   1099                      i < ALARM_WINDOWS_NUMBER;
   \                     ??AllAlarmWindowOn_1:
   \   00000008   3380               CPI     R24, 48
   \   0000000A   F4F0               BRCC    ??AllAlarmWindowOn_2
   1100                      i++)
   1101              {
   1102                  // Актмвизируем окно сигнализации, для отображения извещателем.
   1103                  m_axAlarmWindowControl[i].SetAlarmType(uiAlarmType);
   \   0000000C   2F29               MOV     R18, R25
   \   0000000E   2F08               MOV     R16, R24
   \   00000010   E010               LDI     R17, 0
   \   00000012   E046               LDI     R20, 6
   \   00000014   E050               LDI     R21, 0
   \   00000016   ........           CALL    ?S_EC_MUL_L02
   \   0000001A   01A8               MOVW    R21:R20, R17:R16
   \   0000001C   ....               LDI     R16, LOW(??m_axAlarmWindowControl)
   \   0000001E   ....               LDI     R17, (??m_axAlarmWindowControl) >> 8
   \   00000020   0F04               ADD     R16, R20
   \   00000022   1F15               ADC     R17, R21
   \   00000024   ........           CALL    ??SetAlarmType
   1104                  // Актмвизируем окно сигнализации, для отображения извещателем.
   1105                  m_axAlarmWindowControl[i].SetActivityState(1);
   \   00000028   E021               LDI     R18, 1
   \   0000002A   2F08               MOV     R16, R24
   \   0000002C   E010               LDI     R17, 0
   \   0000002E   E046               LDI     R20, 6
   \   00000030   E050               LDI     R21, 0
   \   00000032   ........           CALL    ?S_EC_MUL_L02
   \   00000036   01A8               MOVW    R21:R20, R17:R16
   \   00000038   ....               LDI     R16, LOW(??m_axAlarmWindowControl)
   \   0000003A   ....               LDI     R17, (??m_axAlarmWindowControl) >> 8
   \   0000003C   0F04               ADD     R16, R20
   \   0000003E   1F15               ADC     R17, R21
   \   00000040   ........           CALL    ??SetActivityState
   1106              };
   \   00000044   9583               INC     R24
   \   00000046   CFE0               RJMP    ??AllAlarmWindowOn_1
   1107          
   1108              m_xLightBoard.Set();
   \                     ??AllAlarmWindowOn_2:
   \   00000048   ....               LDI     R16, LOW(??m_xLightBoard)
   \   0000004A   ....               LDI     R17, (??m_xLightBoard) >> 8
   \   0000004C   ........           CALL    ??Set
   1109          }
   \   00000050   9189               LD      R24, Y+
   \   00000052   9199               LD      R25, Y+
   \   00000054   9508               RET
   1110          
   1111          //-----------------------------------------------------------------------------------------------------

   \                                 In  segment CODE, align 2, keep-with-next
   1112          void CPss21::ErrorWindowOn(uint8_t uiErrorType)
   \                     ??ErrorWindowOn:
   1113          {
   \   00000000   93AA               ST      -Y, R26
   \   00000002   938A               ST      -Y, R24
   \   00000004   2F80               MOV     R24, R16
   1114              // Актмвируем окна сигнализации - ошибка.
   1115              for (uint8_t i = 0;
   \   00000006   E0A0               LDI     R26, 0
   1116                      i < ALARM_WINDOWS_NUMBER;
   \                     ??ErrorWindowOn_1:
   \   00000008   33A0               CPI     R26, 48
   \   0000000A   F4A0               BRCC    ??ErrorWindowOn_2
   1117                      i++)
   1118              {
   1119                  m_axAlarmWindowControl[i].SetActivityState(m_auiErrorLedOn[i]);
   \   0000000C   2FEA               MOV     R30, R26
   \   0000000E   E0F0               LDI     R31, 0
   \   00000010   ....               SUBI    R30, LOW((-(??m_auiErrorLedOn) & 0xFFFF))
   \   00000012   ....               SBCI    R31, (-(??m_auiErrorLedOn) & 0xFFFF) >> 8
   \   00000014   9124               LPM     R18, Z
   \   00000016   2F0A               MOV     R16, R26
   \   00000018   E010               LDI     R17, 0
   \   0000001A   E046               LDI     R20, 6
   \   0000001C   E050               LDI     R21, 0
   \   0000001E   ........           CALL    ?S_EC_MUL_L02
   \   00000022   01A8               MOVW    R21:R20, R17:R16
   \   00000024   ....               LDI     R16, LOW(??m_axAlarmWindowControl)
   \   00000026   ....               LDI     R17, (??m_axAlarmWindowControl) >> 8
   \   00000028   0F04               ADD     R16, R20
   \   0000002A   1F15               ADC     R17, R21
   \   0000002C   ........           CALL    ??SetActivityState
   1120              };
   \   00000030   95A3               INC     R26
   \   00000032   CFEA               RJMP    ??ErrorWindowOn_1
   1121          
   1122              if ((uiErrorType != 0) ||
   1123                      (uiErrorType < ALARM_WINDOWS_NUMBER))
   \                     ??ErrorWindowOn_2:
   \   00000034   2388               TST     R24
   \   00000036   F411               BRNE    ??ErrorWindowOn_3
   \   00000038   3380               CPI     R24, 48
   \   0000003A   F470               BRCC    ??ErrorWindowOn_4
   1124              {
   1125                  m_axAlarmWindowControl[uiErrorType - 1].SetActivityState(0);
   \                     ??ErrorWindowOn_3:
   \   0000003C   E020               LDI     R18, 0
   \   0000003E   ....               LDI     R22, LOW((??m_axAlarmWindowControl - 6))
   \   00000040   ....               LDI     R23, HIGH((??m_axAlarmWindowControl - 6))
   \   00000042   2F08               MOV     R16, R24
   \   00000044   E010               LDI     R17, 0
   \   00000046   E046               LDI     R20, 6
   \   00000048   E050               LDI     R21, 0
   \   0000004A   ........           CALL    ?S_EC_MUL_L02
   \   0000004E   0F60               ADD     R22, R16
   \   00000050   1F71               ADC     R23, R17
   \   00000052   018B               MOVW    R17:R16, R23:R22
   \   00000054   ........           CALL    ??SetActivityState
   1126              }
   1127          
   1128              m_xLightBoard.Set();
   \                     ??ErrorWindowOn_4:
   \   00000058   ....               LDI     R16, LOW(??m_xLightBoard)
   \   0000005A   ....               LDI     R17, (??m_xLightBoard) >> 8
   \   0000005C   ........           CALL    ??Set
   1129          }
   \   00000060   9189               LD      R24, Y+
   \   00000062   91A9               LD      R26, Y+
   \   00000064   9508               RET
   1130          
   1131          //-----------------------------------------------------------------------------------------------------

   \                                 In  segment CODE, align 2, keep-with-next
   1132          void CPss21::AllAlarmWindowOff(void)
   \                     ??AllAlarmWindowOff:
   1133          {
   \   00000000   938A               ST      -Y, R24
   1134              for (uint8_t i = 0;
   \   00000002   E080               LDI     R24, 0
   1135                      i < ALARM_WINDOWS_NUMBER;
   \                     ??AllAlarmWindowOff_1:
   \   00000004   3380               CPI     R24, 48
   \   00000006   F4F0               BRCC    ??AllAlarmWindowOff_2
   1136                      i++)
   1137              {
   1138                  // Деактмвируем окно сигнализации, для прекращения отображения извещателем.
   1139                  m_axAlarmWindowControl[i].SetAlarmType(NORMAL);
   \   00000008   E020               LDI     R18, 0
   \   0000000A   2F08               MOV     R16, R24
   \   0000000C   E010               LDI     R17, 0
   \   0000000E   E046               LDI     R20, 6
   \   00000010   E050               LDI     R21, 0
   \   00000012   ........           CALL    ?S_EC_MUL_L02
   \   00000016   01A8               MOVW    R21:R20, R17:R16
   \   00000018   ....               LDI     R16, LOW(??m_axAlarmWindowControl)
   \   0000001A   ....               LDI     R17, (??m_axAlarmWindowControl) >> 8
   \   0000001C   0F04               ADD     R16, R20
   \   0000001E   1F15               ADC     R17, R21
   \   00000020   ........           CALL    ??SetAlarmType
   1140                  // Деактмвируем окно сигнализации, для прекращения отображения извещателем.
   1141                  m_axAlarmWindowControl[i].SetActivityState(0);
   \   00000024   E020               LDI     R18, 0
   \   00000026   2F08               MOV     R16, R24
   \   00000028   E010               LDI     R17, 0
   \   0000002A   E046               LDI     R20, 6
   \   0000002C   E050               LDI     R21, 0
   \   0000002E   ........           CALL    ?S_EC_MUL_L02
   \   00000032   01A8               MOVW    R21:R20, R17:R16
   \   00000034   ....               LDI     R16, LOW(??m_axAlarmWindowControl)
   \   00000036   ....               LDI     R17, (??m_axAlarmWindowControl) >> 8
   \   00000038   0F04               ADD     R16, R20
   \   0000003A   1F15               ADC     R17, R21
   \   0000003C   ........           CALL    ??SetActivityState
   1142              };
   \   00000040   9583               INC     R24
   \   00000042   CFE0               RJMP    ??AllAlarmWindowOff_1
   1143          
   1144              m_xLightBoard.Set();
   \                     ??AllAlarmWindowOff_2:
   \   00000044   ....               LDI     R16, LOW(??m_xLightBoard)
   \   00000046   ....               LDI     R17, (??m_xLightBoard) >> 8
   \   00000048   ........           CALL    ??Set
   1145          }
   \   0000004C   9189               LD      R24, Y+
   \   0000004E   9508               RET
   1146          
   1147          //-----------------------------------------------------------------------------------------------------

   \                                 In  segment CODE, align 2, keep-with-next
   1148          void CPss21::TestMainCycle(void)
   \                     ??TestMainCycle:
   1149          {
   1150              CPss21::m_xModbusRtuOne.Fsm();
   \   00000000   ....               LDI     R16, LOW(??m_xModbusRtuOne)
   \   00000002   ....               LDI     R17, (??m_xModbusRtuOne) >> 8
   \   00000004   ........           CALL    ??Fsm_1
   1151          
   1152              CPss21::KeyStateProcessing();
   \   00000008   ....               RCALL   ??KeyStateProcessing
   1153          
   1154              NotifyersControlProcessing();
   \   0000000A   ....               RCALL   ??NotifyersControlProcessing
   1155          
   1156              CPss21::ReceiptResetGlobalFlagsClear();
   \   0000000C   ....               RCALL   ??ReceiptResetGlobalFlagsClear
   1157          
   1158              CPlatform::WatchdogReset();
   \   0000000E   ........           CALL    ??WatchdogReset
   1159          }
   \   00000012   9508               RET
   1160          
   1161          //-----------------------------------------------------------------------------------------------------

   \                                 In  segment CODE, align 2, keep-with-next
   1162          void CPss21::ErrorMainCycle(void)
   \                     ??ErrorMainCycle:
   1163          {
   1164              CPss21::m_xModbusRtuOne.Fsm();
   \   00000000   ....               LDI     R16, LOW(??m_xModbusRtuOne)
   \   00000002   ....               LDI     R17, (??m_xModbusRtuOne) >> 8
   \   00000004   ........           CALL    ??Fsm_1
   1165          
   1166              CPss21::KeyStateProcessing();
   \   00000008   ....               RCALL   ??KeyStateProcessing
   1167          
   1168              // Есть команда - "квитировать"?
   1169              if ((GetPanelReceipt()) ||
   1170                      (GetExternalReceipt()) ||
   1171                      (GetModbusReceipt()))
   \   0000000A   ........           CALL    ??GetPanelReceipt
   \   0000000E   2300               TST     R16
   \   00000010   F441               BRNE    ??ErrorMainCycle_1
   \   00000012   ........           CALL    ??GetExternalReceipt
   \   00000016   2300               TST     R16
   \   00000018   F421               BRNE    ??ErrorMainCycle_1
   \   0000001A   ........           CALL    ??GetModbusReceipt
   \   0000001E   2300               TST     R16
   \   00000020   F051               BREQ    ??ErrorMainCycle_2
   1172              {
   1173          //        m_xPreventiveAlarmWindowNotifyerControl.AlarmSet(INDICATION);
   1174          //        m_xEmergencyAlarmWindowNotifyerControl.AlarmSet(INDICATION);
   1175                  m_xStatusLedNotifyerControl.AlarmSet(NORMAL);
   \                     ??ErrorMainCycle_1:
   \   00000022   E020               LDI     R18, 0
   \   00000024   ....               LDI     R16, LOW(??m_xStatusLedNotifyerControl)
   \   00000026   ....               LDI     R17, (??m_xStatusLedNotifyerControl) >> 8
   \   00000028   ........           CALL    ??AlarmSet_3
   1176                  m_xBuzzerNotifyerControl.AlarmSet(NORMAL);
   \   0000002C   E020               LDI     R18, 0
   \   0000002E   ....               LDI     R16, LOW(??m_xBuzzerNotifyerControl)
   \   00000030   ....               LDI     R17, (??m_xBuzzerNotifyerControl) >> 8
   \   00000032   ........           CALL    ??AlarmSet
   1177              }
   1178          
   1179              NotifyersControlProcessing();
   \                     ??ErrorMainCycle_2:
   \   00000036   ....               RCALL   ??NotifyersControlProcessing
   1180          
   1181              CPss21::ReceiptResetGlobalFlagsClear();
   \   00000038   ....               RCALL   ??ReceiptResetGlobalFlagsClear
   1182          
   1183              CPlatform::WatchdogReset();
   \   0000003A   ........           CALL    ??WatchdogReset
   1184          }
   \   0000003E   9508               RET
   1185          
   1186          //-----------------------------------------------------------------------------------------------------

   \                                 In  segment CODE, align 2, keep-with-next
   1187          void CPss21::LinkControlErrorMainCycle(void)
   \                     ??LinkControlErrorMainCycle:
   1188          {
   1189              CPss21::m_xModbusRtuOne.Fsm();
   \   00000000   ....               LDI     R16, LOW(??m_xModbusRtuOne)
   \   00000002   ....               LDI     R17, (??m_xModbusRtuOne) >> 8
   \   00000004   ........           CALL    ??Fsm_1
   1190              CPss21::m_xModbusRtuLinkControl.Fsm();
   \   00000008   ....               LDI     R16, LOW(??m_xModbusRtuLinkControl)
   \   0000000A   ....               LDI     R17, (??m_xModbusRtuLinkControl) >> 8
   \   0000000C   ........           CALL    ??Fsm_2
   1191          
   1192              CPss21::KeyStateProcessing();
   \   00000010   ....               RCALL   ??KeyStateProcessing
   1193          
   1194              NotifyersControlProcessing();
   \   00000012   ....               RCALL   ??NotifyersControlProcessing
   1195          
   1196              CPss21::ReceiptResetGlobalFlagsClear();
   \   00000014   ....               RCALL   ??ReceiptResetGlobalFlagsClear
   1197          
   1198              CPss21::m_xDataStore.Fsm();
   \   00000016   ....               LDI     R16, LOW(??m_xDataStore)
   \   00000018   ....               LDI     R17, (??m_xDataStore) >> 8
   \   0000001A   ........           CALL    ??Fsm_3
   1199          
   1200              CPlatform::WatchdogReset();
   \   0000001E   ........           CALL    ??WatchdogReset
   1201          }
   \   00000022   9508               RET
   1202          
   1203          //-----------------------------------------------------------------------------------------------------

   \                                 In  segment CODE, align 2, keep-with-next
   1204          void CPss21::MainFsm(void)
   \                     ??MainFsm:
   1205          {
   1206              switch (GetFsmState())
   \   00000000   ........           CALL    ??GetFsmState
   \   00000004   ....               LDI     R30, LOW(`?<Jumptable for MainFsm>_0`)
   \   00000006   ....               LDI     R31, (`?<Jumptable for MainFsm>_0`) >> 16
   \   00000008   BFFB               OUT     0x3B, R31
   \   0000000A   ....               LDI     R31, HIGH(`?<Jumptable for MainFsm>_0`)
   \   0000000C   ........           JMP     ?CV_SWITCH_L06
   1207              {
   1208              case START:
   1209                  CPlatform::WatchdogEnable();
   \                     ??MainFsm_1:
   \   00000010   ........           CALL    ??WatchdogEnable
   1210                  CPlatform::Init();
   \   00000014   ........           CALL    ??Init_3
   1211                  CPss21::Init();
   \   00000018   ........           CALL    ??Init
   1212                  CBuzzer::Init();
   \   0000001C   ........           CALL    ??Init_4
   1213                  if (!(CDataBase::Check()))
   \   00000020   ........           CALL    ??Check
   \   00000024   2300               TST     R16
   \   00000026   F421               BRNE    ??MainFsm_2
   1214                  {
   1215                      SetFsmState(ERROR_START);
   \   00000028   E008               LDI     R16, 8
   \   0000002A   ........           CALL    ??SetFsmState_1
   \   0000002E   9508               RET
   1216                  }
   1217                  else
   1218                  {
   1219                      CPss21::ConfigurationInit();
   \                     ??MainFsm_2:
   \   00000030   ....               RCALL   ??ConfigurationInit
   1220                      CPss21::ModbusInit();
   \   00000032   ........           CALL    ??ModbusInit
   1221                      CSpi::Init();
   \   00000036   ........           CALL    ??Init_5
   1222                      CPss21::AddressBusInit();
   \   0000003A   ........           CALL    ??AddressBusInit
   1223                      CPss21::SearchModules();
   \   0000003E   ........           CALL    ??SearchModules
   1224                      CPss21::CreateDevices();
   \   00000042   ....               RCALL   ??CreateDevices
   1225                      m_xBuzzerNotifyerControl.AlarmSet(BEEP_SIGNAL);
   \   00000044   E027               LDI     R18, 7
   \   00000046   ....               LDI     R16, LOW(??m_xBuzzerNotifyerControl)
   \   00000048   ....               LDI     R17, (??m_xBuzzerNotifyerControl) >> 8
   \   0000004A   ........           CALL    ??AlarmSet
   1226                      SetFsmState(MAIN_CYCLE_START_WAITING);
   \   0000004E   E002               LDI     R16, 2
   \   00000050   ........           CALL    ??SetFsmState_1
   1227                  }
   1228                  break;
   \   00000054   9508               RET
   1229          
   1230              case RESTART:
   1231                  break;
   1232          
   1233              case MAIN_CYCLE_START_WAITING:
   1234                  CPss21::m_xModbusRtuOne.Fsm();
   \                     ??MainFsm_3:
   \   00000056   ....               LDI     R16, LOW(??m_xModbusRtuOne)
   \   00000058   ....               LDI     R17, (??m_xModbusRtuOne) >> 8
   \   0000005A   ........           CALL    ??Fsm_1
   1235          
   1236                  CPss21::KeyStateProcessing();
   \   0000005E   ....               RCALL   ??KeyStateProcessing
   1237          
   1238                  NotifyersControlProcessing();
   \   00000060   ....               RCALL   ??NotifyersControlProcessing
   1239          
   1240                  CPss21::m_xDataStore.Fsm();
   \   00000062   ....               LDI     R16, LOW(??m_xDataStore)
   \   00000064   ....               LDI     R17, (??m_xDataStore) >> 8
   \   00000066   ........           CALL    ??Fsm_3
   1241          
   1242                  if (CPss21::m_xMainCycleTimer.IsOverflow())
   \   0000006A   ....               LDI     R16, LOW(??m_xMainCycleTimer)
   \   0000006C   ....               LDI     R17, (??m_xMainCycleTimer) >> 8
   \   0000006E   ........           CALL    ??IsOverflow
   \   00000072   2300               TST     R16
   \   00000074   F061               BREQ    ??MainFsm_4
   1243                  {
   1244                      CPss21::m_xMainCycleTimer.Reset();
   \   00000076   ....               LDI     R16, LOW(??m_xMainCycleTimer)
   \   00000078   ....               LDI     R17, (??m_xMainCycleTimer) >> 8
   \   0000007A   ........           CALL    ??Reset
   1245                      CPlatform::WatchdogReset();
   \   0000007E   ........           CALL    ??WatchdogReset
   1246                      SetModuleIndex(0);
   \   00000082   E000               LDI     R16, 0
   \   00000084   ........           CALL    ??SetModuleIndex
   1247                      SetFsmState(MAIN_CYCLE_MODULES_INTERACTION);
   \   00000088   E003               LDI     R16, 3
   \   0000008A   ........           CALL    ??SetFsmState_1
   1248                  }
   1249          
   1250                  break;
   \                     ??MainFsm_4:
   \   0000008E   9508               RET
   1251          
   1252              case MAIN_CYCLE_MODULES_INTERACTION:
   1253                  CPss21::m_xModbusRtuOne.Fsm();
   \                     ??MainFsm_5:
   \   00000090   ....               LDI     R16, LOW(??m_xModbusRtuOne)
   \   00000092   ....               LDI     R17, (??m_xModbusRtuOne) >> 8
   \   00000094   ........           CALL    ??Fsm_1
   1254                  CPss21::m_xModbusRtuLinkControl.Fsm();
   \   00000098   ....               LDI     R16, LOW(??m_xModbusRtuLinkControl)
   \   0000009A   ....               LDI     R17, (??m_xModbusRtuLinkControl) >> 8
   \   0000009C   ........           CALL    ??Fsm_2
   1255          
   1256                  CPss21::KeyStateProcessing();
   \   000000A0   ....               RCALL   ??KeyStateProcessing
   1257          
   1258                  NotifyersControlProcessing();
   \   000000A2   ....               RCALL   ??NotifyersControlProcessing
   1259          
   1260                  CPss21::m_xDataStore.Fsm();
   \   000000A4   ....               LDI     R16, LOW(??m_xDataStore)
   \   000000A6   ....               LDI     R17, (??m_xDataStore) >> 8
   \   000000A8   ........           CALL    ??Fsm_3
   1261          
   1262                  if (CPss21::ModulesInteraction(GetModuleIndex()))
   \   000000AC   ........           CALL    ??GetModuleIndex
   \   000000B0   ....               RCALL   ??ModulesInteraction
   \   000000B2   2300               TST     R16
   \   000000B4   F021               BREQ    ??MainFsm_6
   1263                  {
   1264                      SetFsmState(MAIN_CYCLE_DISCRETE_SIGNALS_PROCESSING);
   \   000000B6   E004               LDI     R16, 4
   \   000000B8   ........           CALL    ??SetFsmState_1
   \   000000BC   C005               RJMP    ??MainFsm_7
   1265                  }
   1266                  else
   1267                  {
   1268                      SetModuleIndex(GetModuleIndex() + 1);
   \                     ??MainFsm_6:
   \   000000BE   ........           CALL    ??GetModuleIndex
   \   000000C2   9503               INC     R16
   \   000000C4   ........           CALL    ??SetModuleIndex
   1269                  }
   1270          
   1271                  switch (GetErrorCode())
   \                     ??MainFsm_7:
   \   000000C8   ........           CALL    ??GetErrorCode
   \   000000CC   5001               SUBI    R16, 1
   \   000000CE   5004               SUBI    R16, 4
   \   000000D0   F018               BRCS    ??MainFsm_8
   \   000000D2   5000               SUBI    R16, 0
   \   000000D4   F029               BREQ    ??MainFsm_9
   \   000000D6   9508               RET
   1272                  {
   1273                  case IMD_ERROR:
   1274                  case OMD_ERROR:
   1275                  case CFG_ERROR:
   1276                  case DB_ERROR:
   1277                      SetFsmState(ERROR_START);
   \                     ??MainFsm_8:
   \   000000D8   E008               LDI     R16, 8
   \   000000DA   ........           CALL    ??SetFsmState_1
   1278                      break;
   \   000000DE   9508               RET
   1279          
   1280                  case MBS_ERROR:
   1281                      SetFsmState(LINK_CONTROL_ERROR_START);
   \                     ??MainFsm_9:
   \   000000E0   E00A               LDI     R16, 10
   \   000000E2   ........           CALL    ??SetFsmState_1
   1282                      break;
   1283          
   1284                  default:
   1285                      break;
   1286                  }
   1287                  break;
   \   000000E6   9508               RET
   1288          
   1289              case MAIN_CYCLE_DISCRETE_SIGNALS_PROCESSING:
   1290                  CPss21::DiscreteSignalsProcessing();
   \                     ??MainFsm_10:
   \   000000E8   ....               RCALL   ??DiscreteSignalsProcessing
   1291                  SetFsmState(MAIN_CYCLE_END);
   \   000000EA   E005               LDI     R16, 5
   \   000000EC   ........           CALL    ??SetFsmState_1
   1292                  break;
   \   000000F0   9508               RET
   1293          
   1294              case MAIN_CYCLE_END:
   1295                  CPss21::ReceiptResetGlobalFlagsClear();
   \                     ??MainFsm_11:
   \   000000F2   ....               RCALL   ??ReceiptResetGlobalFlagsClear
   1296                  SetFsmState(MAIN_CYCLE_START_WAITING);
   \   000000F4   E002               LDI     R16, 2
   \   000000F6   ........           CALL    ??SetFsmState_1
   1297                  break;
   \   000000FA   9508               RET
   1298          
   1299          //-----------------------------------------------------------------------------------------------------
   1300              case TEST_START:
   1301                  SaveContextNotifyerControl();
   \                     ??MainFsm_12:
   \   000000FC   ....               RCALL   ??SaveContextNotifyerControl
   1302                  AlarmTypeSet(PREVENTIVE);
   \   000000FE   E002               LDI     R16, 2
   \   00000100   ....               RCALL   ??AlarmTypeSet
   1303                  CPss21::AllAlarmWindowOn(PREVENTIVE);
   \   00000102   E002               LDI     R16, 2
   \   00000104   ....               RCALL   ??AllAlarmWindowOn
   1304                  CPss21::m_xMainCycleTimer.Set(TEST_ON_TIME());
   \   00000106   ........           CALL    ??TEST_ON_TIME
   \   0000010A   0198               MOVW    R19:R18, R17:R16
   \   0000010C   ....               LDI     R16, LOW(??m_xMainCycleTimer)
   \   0000010E   ....               LDI     R17, (??m_xMainCycleTimer) >> 8
   \   00000110   ........           CALL    ??Set_1
   1305                  SetFsmState(TEST_ON);
   \   00000114   E007               LDI     R16, 7
   \   00000116   ........           CALL    ??SetFsmState_1
   1306          
   1307                  CPlatform::WatchdogReset();
   \   0000011A   ........           CALL    ??WatchdogReset
   1308                  break;
   \   0000011E   9508               RET
   1309          
   1310              case TEST_ON:
   1311                  if (CPss21::m_xMainCycleTimer.IsOverflow())
   \                     ??MainFsm_13:
   \   00000120   ....               LDI     R16, LOW(??m_xMainCycleTimer)
   \   00000122   ....               LDI     R17, (??m_xMainCycleTimer) >> 8
   \   00000124   ........           CALL    ??IsOverflow
   \   00000128   2300               TST     R16
   \   0000012A   F059               BREQ    ??MainFsm_14
   1312                  {
   1313                      CPss21::AllAlarmWindowOff();
   \   0000012C   ....               RCALL   ??AllAlarmWindowOff
   1314                      RestoreContextNotifyerControl();
   \   0000012E   ....               RCALL   ??RestoreContextNotifyerControl
   1315                      CPss21::m_xMainCycleTimer.Set(MAIN_CYCLE_PERIOD_TIME);
   \   00000130   E624               LDI     R18, 100
   \   00000132   E030               LDI     R19, 0
   \   00000134   ....               LDI     R16, LOW(??m_xMainCycleTimer)
   \   00000136   ....               LDI     R17, (??m_xMainCycleTimer) >> 8
   \   00000138   ........           CALL    ??Set_1
   1316                      SetFsmState(MAIN_CYCLE_START_WAITING);
   \   0000013C   E002               LDI     R16, 2
   \   0000013E   ........           CALL    ??SetFsmState_1
   1317                  }
   1318          
   1319                  TestMainCycle();
   \                     ??MainFsm_14:
   \   00000142   ....               RCALL   ??TestMainCycle
   1320                  break;
   \   00000144   9508               RET
   1321          
   1322          //-----------------------------------------------------------------------------------------------------
   1323              case ERROR_START:
   1324                  // Устанавливаем настройки Modbus по умолчанию на текущую сессию.
   1325                  ModbusDefaultInit();
   \                     ??MainFsm_15:
   \   00000146   ........           CALL    ??ModbusDefaultInit
   1326                  ErrorWindowOn(GetErrorCode());
   \   0000014A   ........           CALL    ??GetErrorCode
   \   0000014E   ....               RCALL   ??ErrorWindowOn
   1327                  SetErrorCode(0);
   \   00000150   E000               LDI     R16, 0
   \   00000152   ........           CALL    ??SetErrorCode
   1328          
   1329                  m_xPreventiveAlarmWindowNotifyerControl.AlarmSet(INDICATION);
   \   00000156   E021               LDI     R18, 1
   \   00000158   ....               LDI     R16, LOW(??m_xPreventiveAlarmWindowNotifyerControl)
   \   0000015A   ....               LDI     R17, (??m_xPreventiveAlarmWindowNotifyerControl) >> 8
   \   0000015C   ........           CALL    ??AlarmSet_1
   1330                  m_xEmergencyAlarmWindowNotifyerControl.AlarmSet(INDICATION);
   \   00000160   E021               LDI     R18, 1
   \   00000162   ....               LDI     R16, LOW(??m_xEmergencyAlarmWindowNotifyerControl)
   \   00000164   ....               LDI     R17, (??m_xEmergencyAlarmWindowNotifyerControl) >> 8
   \   00000166   ........           CALL    ??AlarmSet_2
   1331                  m_xStatusLedNotifyerControl.AlarmSet(ERROR);
   \   0000016A   E026               LDI     R18, 6
   \   0000016C   ....               LDI     R16, LOW(??m_xStatusLedNotifyerControl)
   \   0000016E   ....               LDI     R17, (??m_xStatusLedNotifyerControl) >> 8
   \   00000170   ........           CALL    ??AlarmSet_3
   1332                  m_xBuzzerNotifyerControl.AlarmSet(ERROR);
   \   00000174   E026               LDI     R18, 6
   \   00000176   ....               LDI     R16, LOW(??m_xBuzzerNotifyerControl)
   \   00000178   ....               LDI     R17, (??m_xBuzzerNotifyerControl) >> 8
   \   0000017A   ........           CALL    ??AlarmSet
   1333          
   1334                  SetFsmState(ERROR_ON);
   \   0000017E   E009               LDI     R16, 9
   \   00000180   ........           CALL    ??SetFsmState_1
   1335          
   1336                  CPlatform::WatchdogReset();
   \   00000184   ........           CALL    ??WatchdogReset
   1337                  break;
   \   00000188   9508               RET
   1338          
   1339              case ERROR_ON:
   1340                  ErrorMainCycle();
   \                     ??MainFsm_16:
   \   0000018A   ....               RCALL   ??ErrorMainCycle
   1341                  break;
   \   0000018C   9508               RET
   1342          
   1343          //-----------------------------------------------------------------------------------------------------
   1344              case LINK_CONTROL_ERROR_START:
   1345                  SaveContextNotifyerControl();
   \                     ??MainFsm_17:
   \   0000018E   ....               RCALL   ??SaveContextNotifyerControl
   1346                  ErrorWindowOn(GetErrorCode());
   \   00000190   ........           CALL    ??GetErrorCode
   \   00000194   ....               RCALL   ??ErrorWindowOn
   1347                  SetErrorCode(0);
   \   00000196   E000               LDI     R16, 0
   \   00000198   ........           CALL    ??SetErrorCode
   1348          
   1349                  m_xPreventiveAlarmWindowNotifyerControl.AlarmSet(INDICATION);
   \   0000019C   E021               LDI     R18, 1
   \   0000019E   ....               LDI     R16, LOW(??m_xPreventiveAlarmWindowNotifyerControl)
   \   000001A0   ....               LDI     R17, (??m_xPreventiveAlarmWindowNotifyerControl) >> 8
   \   000001A2   ........           CALL    ??AlarmSet_1
   1350                  m_xEmergencyAlarmWindowNotifyerControl.AlarmSet(INDICATION);
   \   000001A6   E021               LDI     R18, 1
   \   000001A8   ....               LDI     R16, LOW(??m_xEmergencyAlarmWindowNotifyerControl)
   \   000001AA   ....               LDI     R17, (??m_xEmergencyAlarmWindowNotifyerControl) >> 8
   \   000001AC   ........           CALL    ??AlarmSet_2
   1351                  m_xStatusLedNotifyerControl.AlarmSet(ERROR);
   \   000001B0   E026               LDI     R18, 6
   \   000001B2   ....               LDI     R16, LOW(??m_xStatusLedNotifyerControl)
   \   000001B4   ....               LDI     R17, (??m_xStatusLedNotifyerControl) >> 8
   \   000001B6   ........           CALL    ??AlarmSet_3
   1352                  m_xBuzzerNotifyerControl.AlarmSet(ERROR);
   \   000001BA   E026               LDI     R18, 6
   \   000001BC   ....               LDI     R16, LOW(??m_xBuzzerNotifyerControl)
   \   000001BE   ....               LDI     R17, (??m_xBuzzerNotifyerControl) >> 8
   \   000001C0   ........           CALL    ??AlarmSet
   1353          
   1354                  CPlatform::WatchdogReset();
   \   000001C4   ........           CALL    ??WatchdogReset
   1355                  SetFsmState(LINK_CONTROL_ERROR_ON);
   \   000001C8   E00B               LDI     R16, 11
   \   000001CA   ........           CALL    ??SetFsmState_1
   1356                  break;
   \   000001CE   9508               RET
   1357          
   1358              case LINK_CONTROL_ERROR_ON:
   1359                  LinkControlErrorMainCycle();
   \                     ??MainFsm_18:
   \   000001D0   ....               RCALL   ??LinkControlErrorMainCycle
   1360                  break;
   \   000001D2   9508               RET
   1361          
   1362              case LINK_CONTROL_ERROR_OFF:
   1363                  CPss21::AllAlarmWindowOff();
   \                     ??MainFsm_19:
   \   000001D4   ....               RCALL   ??AllAlarmWindowOff
   1364                  RestoreContextNotifyerControl();
   \   000001D6   ....               RCALL   ??RestoreContextNotifyerControl
   1365                  CPss21::m_xMainCycleTimer.Set(MAIN_CYCLE_PERIOD_TIME);
   \   000001D8   E624               LDI     R18, 100
   \   000001DA   E030               LDI     R19, 0
   \   000001DC   ....               LDI     R16, LOW(??m_xMainCycleTimer)
   \   000001DE   ....               LDI     R17, (??m_xMainCycleTimer) >> 8
   \   000001E0   ........           CALL    ??Set_1
   1366          
   1367                  CPlatform::WatchdogReset();
   \   000001E4   ........           CALL    ??WatchdogReset
   1368                  SetFsmState(MAIN_CYCLE_START_WAITING);
   \   000001E8   E002               LDI     R16, 2
   \   000001EA   ........           CALL    ??SetFsmState_1
   1369                  break;
   \   000001EE   9508               RET
   1370          
   1371          //-----------------------------------------------------------------------------------------------------
   1372              case PROGRAMMING_START:
   1373                  // После приёма последнего блока базы данных произойдёт перезагрузка
   1374                  // через "PROGRAMMING_TIME + WDTO_2S", чтобы применить изменения конфигурации.
   1375                  CPss21::m_xMainCycleTimer.Set(PROGRAMMING_TIME);
   \                     ??MainFsm_20:
   \   000001F0   EE28               LDI     R18, 232
   \   000001F2   E033               LDI     R19, 3
   \   000001F4   ....               LDI     R16, LOW(??m_xMainCycleTimer)
   \   000001F6   ....               LDI     R17, (??m_xMainCycleTimer) >> 8
   \   000001F8   ........           CALL    ??Set_1
   1376                  SetFsmState(PROGRAMMING_ON);
   \   000001FC   E00E               LDI     R16, 14
   \   000001FE   ........           CALL    ??SetFsmState_1
   1377          
   1378                  CPlatform::WatchdogReset();
   \   00000202   ........           CALL    ??WatchdogReset
   1379                  break;
   \   00000206   9508               RET
   1380          
   1381              case PROGRAMMING_ON:
   1382                  CPss21::m_xModbusRtuOne.Fsm();
   \                     ??MainFsm_21:
   \   00000208   ....               LDI     R16, LOW(??m_xModbusRtuOne)
   \   0000020A   ....               LDI     R17, (??m_xModbusRtuOne) >> 8
   \   0000020C   ........           CALL    ??Fsm_1
   1383          
   1384                  CPss21::m_xDataStore.Fsm();
   \   00000210   ....               LDI     R16, LOW(??m_xDataStore)
   \   00000212   ....               LDI     R17, (??m_xDataStore) >> 8
   \   00000214   ........           CALL    ??Fsm_3
   1385          
   1386                  if (CPss21::m_xMainCycleTimer.IsOverflow())
   \   00000218   ....               LDI     R16, LOW(??m_xMainCycleTimer)
   \   0000021A   ....               LDI     R17, (??m_xMainCycleTimer) >> 8
   \   0000021C   ........           CALL    ??IsOverflow
   \   00000220   2300               TST     R16
   \   00000222   F019               BREQ    ??MainFsm_22
   1387                  {
   1388                      SetFsmState(REBOOT);
   \   00000224   E00F               LDI     R16, 15
   \   00000226   ........           CALL    ??SetFsmState_1
   1389                  }
   1390          
   1391                  CPlatform::WatchdogReset();
   \                     ??MainFsm_22:
   \   0000022A   ........           CALL    ??WatchdogReset
   1392                  break;
   \   0000022E   9508               RET
   1393          
   1394              case REBOOT:
   1395                  // Через "WDTO_2S" - перезагрузка, чтобы применить изменения конфигурации.
   1396                  CPss21::m_xModbusRtuOne.Fsm();
   \                     ??MainFsm_23:
   \   00000230   ....               LDI     R16, LOW(??m_xModbusRtuOne)
   \   00000232   ....               LDI     R17, (??m_xModbusRtuOne) >> 8
   \   00000234   ........           CALL    ??Fsm_1
   1397          
   1398                  CPss21::m_xDataStore.Fsm();
   \   00000238   ....               LDI     R16, LOW(??m_xDataStore)
   \   0000023A   ....               LDI     R17, (??m_xDataStore) >> 8
   \   0000023C   ........           CALL    ??Fsm_3
   1399                  break;
   1400          
   1401          //-----------------------------------------------------------------------------------------------------
   1402              default:
   1403                  break;
   1404              }
   1405          }
   \                     ??MainFsm_24:
   \   00000240   9508               RET

   \                                 In  segment NEAR_ID, align 1, keep-with-next, root
   \                     `?<Initializer for >`:
   \   00000000   ............       DC16 ?_1, ??m_xUart1, `?<Unnamed 0>`/2

   \                                 In  segment NEAR_ID, align 1, keep-with-next, root
   \                     `?<Initializer for >_1`:
   \   00000000   ............       DC16 ?_3, ??m_xModbusRtuOne, `?<Unnamed 1>`/2

   \                                 In  segment NEAR_ID, align 1, keep-with-next, root
   \                     `?<Initializer for >_2`:
   \   00000000   ............       DC16 ?_5, ??m_xDataStore, `?<Unnamed 2>`/2

   \                                 In  segment NEAR_ID, align 1, keep-with-next, root
   \                     `?<Initializer for >_3`:
   \   00000000   ............       DC16 ?_7, ??m_xReceiptKey, `?<Unnamed 3>`/2

   \                                 In  segment NEAR_ID, align 1, keep-with-next, root
   \                     `?<Initializer for >_4`:
   \   00000000   ............       DC16 ?_9, ??m_xResetKey, `?<Unnamed 3>`/2

   \                                 In  segment NEAR_ID, align 1, keep-with-next, root
   \                     `?<Initializer for >_5`:
   \   00000000   ............       DC16 ?_11, ??m_xCheckKey, `?<Unnamed 3>`/2

   \                                 In  segment NEAR_ID, align 1, keep-with-next, root
   \                     `?<Initializer for >_6`:
   \   00000000   ............       DC16 ?_13, ??m_xExternalKey, `?<Unnamed 3>`/2

   \                                 In  segment NEAR_ID, align 1, keep-with-next, root
   \                     `?<Initializer for >_7`:
   \   00000000   ............       DC16 ?_15, ??m_xEventUniteLogicAndOne, `?<Unnamed 4>`/2

   \                                 In  segment NEAR_ID, align 1, keep-with-next, root
   \                     `?<Initializer for >_8`:
   \   00000000   ............       DC16 ?_17, ??m_xMainCycleTimer, `?<Unnamed 5>`/2

   \                                 In  segment NEAR_ID, align 1, keep-with-next, root
   \                     `?<Initializer for >_9`:
   \   00000000   ............       DC16 ?_19, ??m_xPreventiveAlarmWindowNotifyerControl, `?<Unnamed 6>`/2

   \                                 In  segment NEAR_ID, align 1, keep-with-next, root
   \                     `?<Initializer for >_10`:
   \   00000000   ............       DC16 ?_21, ??m_xEmergencyAlarmWindowNotifyerControl, `?<Unnamed 7>`/2

   \                                 In  segment NEAR_ID, align 1, keep-with-next, root
   \                     `?<Initializer for >_11`:
   \   00000000   ............       DC16 ?_23, ??m_xStatusLedNotifyerControl, `?<Unnamed 8>`/2

   \                                 In  segment NEAR_ID, align 1, keep-with-next, root
   \                     `?<Initializer for >_12`:
   \   00000000   ............       DC16 ?_25, ??m_xBuzzerNotifyerControl, `?<Unnamed 9>`/2

   \                                 In  segment NEAR_ID, align 1, keep-with-next, root
   \                     `?<Initializer for >_13`:
   \   00000000   ............       DC16 ?_27, ??m_xModbusRtuLinkControl, `?<Unnamed 10>`/2

   \                                 In  segment NEAR_ID, align 1, keep-with-next, root
   \                     `?<Initializer for >_14`:
   \   00000000   ............       DC16 ?_29, ??m_xLightBoard, `?<Unnamed 11>`/2

   \                                 In  segment NEAR_ID, align 1, keep-with-next, root
   \                     `?<Initializer for >_15`:
   \   00000000   ....0000....       DC16 ?_31, 0H, `?<Unnamed 12>`/2

   \                                 In  segment DIFUNCT, align 1, keep-with-next, root
   \   00000000                      REQUIRE ?call_ctors
   \   00000000   ....               DW      ??__sti__routine/2

   \                                 In  segment SWITCH, align 2, keep-with-next
   \                     `?<Jumptable for MainFsm>_0`:
   \   00000000   00                 DB      0
   \   00000001   00                 DB      0
   \   00000002   ....               DW      (??MainFsm_24) /2
   \   00000004   0010               DW      16
   \   00000006   ....               DW      (??MainFsm_1) /2
   \   00000008   ....               DW      (??MainFsm_24) /2
   \   0000000A   ....               DW      (??MainFsm_3) /2
   \   0000000C   ....               DW      (??MainFsm_5) /2
   \   0000000E   ....               DW      (??MainFsm_10) /2
   \   00000010   ....               DW      (??MainFsm_11) /2
   \   00000012   ....               DW      (??MainFsm_12) /2
   \   00000014   ....               DW      (??MainFsm_13) /2
   \   00000016   ....               DW      (??MainFsm_15) /2
   \   00000018   ....               DW      (??MainFsm_16) /2
   \   0000001A   ....               DW      (??MainFsm_17) /2
   \   0000001C   ....               DW      (??MainFsm_18) /2
   \   0000001E   ....               DW      (??MainFsm_19) /2
   \   00000020   ....               DW      (??MainFsm_20) /2
   \   00000022   ....               DW      (??MainFsm_21) /2
   \   00000024   ....               DW      (??MainFsm_23) /2

   \                                 In  segment CODE, align 2, keep-with-next
   \                     `?<Unnamed 12>`:
   \   00000000   ....               LDI     R22, LOW(`?<Unnamed 13>`/2)
   \   00000002   ....               LDI     R23, (`?<Unnamed 13>`/2) >> 8
   \   00000004   E046               LDI     R20, 6
   \   00000006   E050               LDI     R21, 0
   \   00000008   E320               LDI     R18, 48
   \   0000000A   E030               LDI     R19, 0
   \   0000000C   ....               LDI     R16, LOW(??m_axAlarmWindowControl)
   \   0000000E   ....               LDI     R17, (??m_axAlarmWindowControl) >> 8
   \   00000010   ........           CALL    __near_vec_destroy
   \   00000014   9508               RET
   1406          

   Maximum stack usage in bytes:

   CSTACK RSTACK Function
   ------ ------ --------
      2      2   <Unnamed 0>
        2      2   -> CUart::~CUart()
      2      2   <Unnamed 10>
        2      2   -> CModbusRtuLinkControl::~CModbusRtuLinkControl()
      2      2   <Unnamed 11>
        2      2   -> CLightBoard::~CLightBoard()
      0      2   <Unnamed 12>
        0      2   -> __near_vec_destroy
      2      2   <Unnamed 13>
        2      2   -> CAlarmWindow::~CAlarmWindow()
      2      2   <Unnamed 1>
        2      2   -> CModbusRTU::~CModbusRTU()
      2      2   <Unnamed 2>
        2      2   -> CDataStore::~CDataStore()
      2      2   <Unnamed 3>
        2      2   -> CMultiFunctionKey::~CMultiFunctionKey()
      2      2   <Unnamed 4>
        2      2   -> CEventUniteLogicAnd::~CEventUniteLogicAnd()
      2      2   <Unnamed 5>
        2      2   -> CTimer::~CTimer()
      2      2   <Unnamed 6>
        2      2   -> CPreventiveAlarmWindowNotifyerControl::~CPreventiveAlarmWindowNotifyerControl()
      2      2   <Unnamed 7>
        2      2   -> CEmergencyAlarmWindowNotifyerControl::~CEmergencyAlarmWindowNotifyerControl()
      2      2   <Unnamed 8>
        2      2   -> CStatusLedNotifyerControl::~CStatusLedNotifyerControl()
      2      2   <Unnamed 9>
        2      2   -> CBuzzerNotifyerControl::~CBuzzerNotifyerControl()
      0      2   CAlarmDfa::GetLinkedDiscreteOutputsPointer()
      0      2   CAlarmDfa::SetAlarmWindowIndex(uint8_t)
      0      2   CAlarmDfa::SetDiscreteStateIndex(uint8_t)
      0      2   CAlarmWindow::GetActivityState()
      0      2   CAlarmWindow::GetAlarmType()
      0      2   CAlarmWindow::GetSavedActivityState()
      0      2   CAlarmWindow::GetSavedAlarmType()
      0      2   CAlarmWindow::SetActivityState(uint8_t)
      0      2   CAlarmWindow::SetAlarmType(uint8_t)
      0      2   CAlarmWindow::SetSavedActivityState(uint8_t)
      0      2   CAlarmWindow::SetSavedAlarmType(uint8_t)
      0      2   CDfa::SetFsmEvent(uint8_t)
      0      2   CDfaLite::SetFsmState(uint8_t)
      0      2   CDriver::SetModbusReceipt(uint8_t)
      0      2   CDriver::SetModbusReset(uint8_t)
      0      2   CDriver::SetReceipt(uint8_t)
      0      2   CDriver::SetReset(uint8_t)
      0      2   CPlatform::ExternalKeyState()
      0      2   CPlatform::KeyOneState()
      0      2   CPlatform::KeyThreeState()
      0      2   CPlatform::KeyTwoState()
      0      2   CPlatform::SpiSlaveSelectAddress0Off()
      0      2   CPlatform::SpiSlaveSelectAddress0On()
      0      2   CPlatform::SpiSlaveSelectAddress0SetPinOutput()
      0      2   CPlatform::SpiSlaveSelectAddress1Off()
      0      2   CPlatform::SpiSlaveSelectAddress1On()
      0      2   CPlatform::SpiSlaveSelectAddress1SetPinOutput()
      0      2   CPlatform::SpiSlaveSelectAddress2Off()
      0      2   CPlatform::SpiSlaveSelectAddress2On()
      0      2   CPlatform::SpiSlaveSelectAddress2SetPinOutput()
      0      2   CPlatform::SpiSlaveSelectAddress3Off()
      0      2   CPlatform::SpiSlaveSelectAddress3On()
      0      2   CPlatform::SpiSlaveSelectAddress3SetPinOutput()
      0      2   CPlatform::SpiSlaveSelectEnableOff()
      0      2   CPlatform::SpiSlaveSelectEnableOn()
      0      2   CPlatform::SpiSlaveSelectEnableSetPinOutput()
      0      2   CPlatform::WatchdogEnable()
      0      2   CPlatform::WatchdogReset()
      2      2   CPss21::ActiveAlarmWindowOff(uint8_t)
        2      2   -> CAlarmWindow::GetAlarmType()
        2      2   -> CAlarmWindow::SetActivityState(uint8_t)
        2      2   -> CLightBoard::Set()
        2      2 ?S_EC_MUL_L02
      2      2   CPss21::ActiveAlarmWindowOn(uint8_t)
        2      2   -> CAlarmWindow::GetAlarmType()
        2      2   -> CAlarmWindow::SetActivityState(uint8_t)
        2      2   -> CLightBoard::Set()
        2      2 ?S_EC_MUL_L02
      0      2   CPss21::AddressBusInit()
        0      2   -> CPlatform::SpiSlaveSelectAddress0On()
        0      2   -> CPlatform::SpiSlaveSelectAddress0SetPinOutput()
        0      2   -> CPlatform::SpiSlaveSelectAddress1On()
        0      2   -> CPlatform::SpiSlaveSelectAddress1SetPinOutput()
        0      2   -> CPlatform::SpiSlaveSelectAddress2On()
        0      2   -> CPlatform::SpiSlaveSelectAddress2SetPinOutput()
        0      2   -> CPlatform::SpiSlaveSelectAddress3On()
        0      2   -> CPlatform::SpiSlaveSelectAddress3SetPinOutput()
        0      2   -> CPlatform::SpiSlaveSelectEnableOff()
        0      2   -> CPlatform::SpiSlaveSelectEnableSetPinOutput()
      0      2   CPss21::AlarmTypeChange()
        0      2   -> CPss21::AlarmTypeSet(uint8_t)
      0      2   CPss21::AlarmTypeReceipt()
        0      2   -> CPss21::AlarmTypeSet(uint8_t)
      0      2   CPss21::AlarmTypeReset()
        0      2   -> CPss21::AlarmTypeSet(uint8_t)
      1      2   CPss21::AlarmTypeSet(uint8_t)
        1      2   -> CBuzzerNotifyerControl::AlarmSet(uint8_t)
        1      2   -> CEmergencyAlarmWindowNotifyerControl::AlarmSet(uint8_t)
        1      2   -> CPreventiveAlarmWindowNotifyerControl::AlarmSet(uint8_t)
        1      2   -> CStatusLedNotifyerControl::AlarmSet(uint8_t)
      1      2   CPss21::AlarmsProcessing()
        1      2   -- Indirect call
      1      2   CPss21::AllAlarmWindowOff()
        1      2   -> CAlarmWindow::SetActivityState(uint8_t)
        1      2   -> CAlarmWindow::SetAlarmType(uint8_t)
        1      2   -> CLightBoard::Set()
        1      2 ?S_EC_MUL_L02
      2      2   CPss21::AllAlarmWindowOn(uint8_t)
        2      2   -> CAlarmWindow::SetActivityState(uint8_t)
        2      2   -> CAlarmWindow::SetAlarmType(uint8_t)
        2      2   -> CLightBoard::Set()
        2      2 ?S_EC_MUL_L02
      6      2   CPss21::ConfigurationInit()
        6      2   -> CAlarmDfa::GetLinkedDiscreteOutputsPointer()
        6      2   -> CAlarmDfa::SetAlarmWindowIndex(uint8_t)
        6      2   -> CAlarmDfa::SetDiscreteStateIndex(uint8_t)
        6      2   -> CDataBase::Read(uint8_t *, uint8_t)
        6      2   -> CEmergencyAlarmHighLevelDfa::CEmergencyAlarmHighLevelDfa()
        6      2   -> CEmergencyAlarmLowLevelDfa::CEmergencyAlarmLowLevelDfa()
        6      2   -> CIndicationAlarmHighLevelDfa::CIndicationAlarmHighLevelDfa()
        6      2   -> CIndicationAlarmLowLevelDfa::CIndicationAlarmLowLevelDfa()
        6      2   -> CNormalAlarmDfa::CNormalAlarmDfa()
        6      2   -> CPreventiveAlarmHighLevelDfa::CPreventiveAlarmHighLevelDfa()
        6      2   -> CPreventiveAlarmLowLevelDfa::CPreventiveAlarmLowLevelDfa()
        6      2   -> memcpy
        6      2   -> memset
        6      2   -> operator new(unsigned int)
        6      2 ?SS_SHR_L02
      1      2   CPss21::ConnectDevice(uint8_t)
        1      2   -> CPlatform::SpiSlaveSelectAddress0Off()
        1      2   -> CPlatform::SpiSlaveSelectAddress0On()
        1      2   -> CPlatform::SpiSlaveSelectAddress1Off()
        1      2   -> CPlatform::SpiSlaveSelectAddress1On()
        1      2   -> CPlatform::SpiSlaveSelectAddress2Off()
        1      2   -> CPlatform::SpiSlaveSelectAddress2On()
        1      2   -> CPlatform::SpiSlaveSelectAddress3Off()
        1      2   -> CPlatform::SpiSlaveSelectAddress3On()
        1      2   -> CPlatform::SpiSlaveSelectEnableOn()
        1      2   -> CSpi::Enable()
     21      2   CPss21::CreateDevices()
       21      2   -- Indirect call
       21      2   -> CModuleMrXXDriver::CModuleMrXXDriver(uint8_t)
       21      2   -> CMvsn21Driver::CMvsn21Driver(uint8_t)
       21      2   -> CPlatform::WatchdogReset()
       21      2   -> CPss21::InitAllocationContext(TMemoryAllocationConext &)
       21      2   -> CPss21::SetErrorCode(uint8_t)
       21      2   -> operator new(unsigned int)
      0      2   CPss21::DestroyDevices(uint8_t)
      0      2   CPss21::DisconnectDevice()
        0      2   -> CPlatform::SpiSlaveSelectAddress0Off()
        0      2   -> CPlatform::SpiSlaveSelectAddress1Off()
        0      2   -> CPlatform::SpiSlaveSelectAddress2Off()
        0      2   -> CPlatform::SpiSlaveSelectAddress3Off()
        0      2   -> CPlatform::SpiSlaveSelectEnableOff()
        0      2   -> CSpi::Disable()
      4      2   CPss21::DiscreteOutputControlClear()
        4      2 ?S_EC_MUL_L02
      4      2   CPss21::DiscreteOutputsSet(uint8_t *, uint8_t)
        4      2 ?S_EC_MUL_L02
        4      2 ?S_SHL_L02
      0      2   CPss21::DiscreteSignalsProcessing()
        0      2   -> CPss21::AlarmsProcessing()
        0      2   -> CPss21::DiscreteOutputControlClear()
        0      2   -> CPss21::SetDiscreteSignalsReceipt(uint8_t)
        0      2   -> CPss21::SetDiscreteSignalsReset(uint8_t)
      0      2   CPss21::ErrorMainCycle()
        0      2   -> CBuzzerNotifyerControl::AlarmSet(uint8_t)
        0      2   -> CModbusRTU::Fsm()
        0      2   -> CPlatform::WatchdogReset()
        0      2   -> CPss21::GetExternalReceipt()
        0      2   -> CPss21::GetModbusReceipt()
        0      2   -> CPss21::GetPanelReceipt()
        0      2   -> CPss21::KeyStateProcessing()
        0      2   -> CPss21::NotifyersControlProcessing()
        0      2   -> CPss21::ReceiptResetGlobalFlagsClear()
        0      2   -> CStatusLedNotifyerControl::AlarmSet(uint8_t)
      2      2   CPss21::ErrorWindowOn(uint8_t)
        2      2   -> CAlarmWindow::SetActivityState(uint8_t)
        2      2   -> CLightBoard::Set()
        2      2 ?S_EC_MUL_L02
      0      2   CPss21::GetAlarmWindowControlPointer(uint8_t)
        0      2 ?S_EC_MUL_L02
      0      2   CPss21::GetCommonAlarmType()
      0      2   CPss21::GetDiscreteInputState(uint8_t)
      0      2   CPss21::GetErrorCode()
      0      2   CPss21::GetExternalReceipt()
      0      2   CPss21::GetFsmState()
      0      2   CPss21::GetModbusReceipt()
      0      2   CPss21::GetModuleIndex()
      0      2   CPss21::GetPanelReceipt()
      0      2   CPss21::GetTimeoutModbusRtuLinkControl()
        0      2 ?S_EC_MUL_L02
      0      2   CPss21::Init()
        0      2   -> CLightBoard::Init(CAlarmWindow *)
        0      2   -> CPss21::SetErrorCode(uint8_t)
      0      2   CPss21::InitAllocationContext(TMemoryAllocationConext &)
      1      2   CPss21::KeyStateProcessing()
        1      2   -> CBuzzerNotifyerControl::AlarmSet(uint8_t)
        1      2   -> CEventUniteLogicAnd::IsHappened(uint8_t, uint8_t)
        1      2   -> CInputDevice::KeyEventHappened(uint8_t)
        1      2   -> CPss21::ModbusDefaultInit()
        1      2   -> CPss21::SendToDevicesReceipt()
        1      2   -> CPss21::SendToDevicesReset()
        1      2   -> CPss21::SetDiscreteSignalsReceipt(uint8_t)
        1      2   -> CPss21::SetDiscreteSignalsReset(uint8_t)
        1      2   -> CPss21::SetExternalReceipt(uint8_t)
        1      2   -> CPss21::SetExternalReset(uint8_t)
        1      2   -> CPss21::SetFsmState(uint8_t)
        1      2   -> CPss21::SetPanelReceipt(uint8_t)
        1      2   -> CPss21::SetPanelReset(uint8_t)
      0      2   CPss21::LinkControlErrorMainCycle()
        0      2   -> CDataStore::Fsm()
        0      2   -> CModbusRTU::Fsm()
        0      2   -> CModbusRtuLinkControl::Fsm()
        0      2   -> CPlatform::WatchdogReset()
        0      2   -> CPss21::KeyStateProcessing()
        0      2   -> CPss21::NotifyersControlProcessing()
        0      2   -> CPss21::ReceiptResetGlobalFlagsClear()
      0      2   CPss21::MainFsm()
        0      2   -> CBuzzer::Init()
        0      2   -> CBuzzerNotifyerControl::AlarmSet(uint8_t)
        0      2   -> CDataBase::Check()
        0      2   -> CDataStore::Fsm()
        0      2   -> CEmergencyAlarmWindowNotifyerControl::AlarmSet(uint8_t)
        0      2   -> CModbusRTU::Fsm()
        0      2   -> CModbusRtuLinkControl::Fsm()
        0      2   -> CPlatform::Init()
        0      2   -> CPlatform::WatchdogEnable()
        0      2   -> CPlatform::WatchdogReset()
        0      2   -> CPreventiveAlarmWindowNotifyerControl::AlarmSet(uint8_t)
        0      2   -> CPss21::AddressBusInit()
        0      2   -> CPss21::AlarmTypeSet(uint8_t)
        0      2   -> CPss21::AllAlarmWindowOff()
        0      2   -> CPss21::AllAlarmWindowOn(uint8_t)
        0      2   -> CPss21::ConfigurationInit()
        0      2   -> CPss21::CreateDevices()
        0      2   -> CPss21::DiscreteSignalsProcessing()
        0      2   -> CPss21::ErrorMainCycle()
        0      2   -> CPss21::ErrorWindowOn(uint8_t)
        0      2   -> CPss21::GetErrorCode()
        0      2   -> CPss21::GetFsmState()
        0      2   -> CPss21::GetModuleIndex()
        0      2   -> CPss21::Init()
        0      2   -> CPss21::KeyStateProcessing()
        0      2   -> CPss21::LinkControlErrorMainCycle()
        0      2   -> CPss21::ModbusDefaultInit()
        0      2   -> CPss21::ModbusInit()
        0      2   -> CPss21::ModulesInteraction(uint8_t)
        0      2   -> CPss21::NotifyersControlProcessing()
        0      2   -> CPss21::ReceiptResetGlobalFlagsClear()
        0      2   -> CPss21::RestoreContextNotifyerControl()
        0      2   -> CPss21::SaveContextNotifyerControl()
        0      2   -> CPss21::SearchModules()
        0      2   -> CPss21::SetErrorCode(uint8_t)
        0      2   -> CPss21::SetFsmState(uint8_t)
        0      2   -> CPss21::SetModuleIndex(uint8_t)
        0      2   -> CPss21::TEST_ON_TIME()
        0      2   -> CPss21::TestMainCycle()
        0      2   -> CSpi::Init()
        0      2   -> CStatusLedNotifyerControl::AlarmSet(uint8_t)
        0      2   -> CTimer::IsOverflow()
        0      2   -> CTimer::Reset()
        0      2   -> CTimer::Set(uint16_t)
        0      2 ?CV_SWITCH_L06
      0      2   CPss21::ModbusDefaultInit()
        0      2   -> CPss21::ModbusInit()
      6      2   CPss21::ModbusDeviceControl(uint8_t *, uint16_t, uint16_t)
        6      2   -> CDfa::SetFsmEvent(uint8_t)
        6      2   -> CPss21::SendToDevicesModbusReceipt()
        6      2   -> CPss21::SendToDevicesModbusReset()
        6      2   -> CPss21::SetBytesFromBits(uint8_t *, uint8_t *, uint16_t)
        6      2   -> CPss21::SetDiscreteSignalsReceipt(uint8_t)
        6      2   -> CPss21::SetDiscreteSignalsReset(uint8_t)
        6      2   -> CPss21::SetModbusReceipt(uint8_t)
        6      2   -> CPss21::SetModbusReset(uint8_t)
      3      2   CPss21::ModbusDeviceControl(uint8_t, uint16_t)
        3      2   -> CPss21::ModbusDeviceControl(uint8_t *, uint16_t, uint16_t)
     23      2   CPss21::ModbusInit()
        0      2   -> CDfaLite::SetFsmState(uint8_t)
        0      2   -> CModbus::SlaveSet(uint8_t)
        0      2   -> CModbusRTU::Init(CUart *, uint32_t, char, uint8_t, uint8_t, uint8_t *, uint8_t *, uint8_t *, uint8_t *, uint16_t *, uint16_t *, uint16_t, uint16_t, uint16_t, uint16_t)
       23      2 ?UL_DIVMOD_L03
       23      2 ?UL_SHR_L03
      0      2   CPss21::ModbusRtuLinkControlInProgress()
      0      2   CPss21::ModbusRtuLinkControlIsOn()
      1      2   CPss21::ModulesInteraction(uint8_t)
        1      2   -- Indirect call
      0      2   CPss21::NotifyersControlProcessing()
        0      2   -> CNotifyerControl::Fsm()
      0      2   CPss21::ReceiptResetGlobalFlagsClear()
        0      2   -> CPss21::SetExternalReceipt(uint8_t)
        0      2   -> CPss21::SetExternalReset(uint8_t)
        0      2   -> CPss21::SetModbusReceipt(uint8_t)
        0      2   -> CPss21::SetModbusReset(uint8_t)
        0      2   -> CPss21::SetPanelReceipt(uint8_t)
        0      2   -> CPss21::SetPanelReset(uint8_t)
      6      2   CPss21::ReportType(uint8_t *, uint16_t)
        6      2   -> CPss21::ConnectDevice(uint8_t)
        6      2   -> CPss21::DisconnectDevice()
        6      2   -> CSpi::Exchange(uint8_t *, uint8_t *, uint16_t)
        6      2   -> memset
      1      2   CPss21::RestoreContextNotifyerControl()
        1      2   -> CAlarmWindow::GetSavedActivityState()
        1      2   -> CAlarmWindow::GetSavedAlarmType()
        1      2   -> CAlarmWindow::SetActivityState(uint8_t)
        1      2   -> CAlarmWindow::SetAlarmType(uint8_t)
        1      2   -> CPss21::AlarmTypeSet(uint8_t)
        1      2   -> CPss21::GetCommonAlarmType()
        1      2 ?S_EC_MUL_L02
      1      2   CPss21::SaveContextNotifyerControl()
        1      2   -> CAlarmWindow::GetActivityState()
        1      2   -> CAlarmWindow::GetAlarmType()
        1      2   -> CAlarmWindow::SetSavedActivityState(uint8_t)
        1      2   -> CAlarmWindow::SetSavedAlarmType(uint8_t)
        1      2 ?S_EC_MUL_L02
      2      2   CPss21::SearchModules()
        2      2   -> CPlatform::WatchdogReset()
        2      2   -> CPss21::ConnectDevice(uint8_t)
        2      2   -> CPss21::DisconnectDevice()
        2      2   -> CSpi::Exchange(uint8_t *, uint8_t *, uint16_t)
        2      2   -> delay_ms(uint16_t)
        2      2   -> iCrcSummOneByteCompare(unsigned char *, unsigned int)
        2      2   -> memset
      1      2   CPss21::SendToDevicesModbusReceipt()
        1      2   -> CDriver::SetModbusReceipt(uint8_t)
      1      2   CPss21::SendToDevicesModbusReset()
        1      2   -> CDriver::SetModbusReset(uint8_t)
      1      2   CPss21::SendToDevicesReceipt()
        1      2   -> CDfa::SetFsmEvent(uint8_t)
        1      2   -> CDriver::SetReceipt(uint8_t)
      1      2   CPss21::SendToDevicesReset()
        1      2   -> CDriver::SetReset(uint8_t)
      2      2   CPss21::SetAlarmWindowType(uint8_t, uint8_t)
        2      2   -> CAlarmWindow::SetAlarmType(uint8_t)
        2      2   -> CPss21::GetAlarmWindowControlPointer(uint8_t)
      4      2   CPss21::SetBytesFromBits(uint8_t *, uint8_t *, uint16_t)
        4      2 ?SS_DIVMOD_L02
        4      2 ?S_SHL_L02
      0      2   CPss21::SetDiscreteSignalsReceipt(uint8_t)
      0      2   CPss21::SetDiscreteSignalsReset(uint8_t)
      0      2   CPss21::SetErrorCode(uint8_t)
      0      2   CPss21::SetExternalReceipt(uint8_t)
      0      2   CPss21::SetExternalReset(uint8_t)
      0      2   CPss21::SetFsmState(uint8_t)
      0      2   CPss21::SetModbusReceipt(uint8_t)
      0      2   CPss21::SetModbusReset(uint8_t)
      1      2   CPss21::SetModeModbusRtuLinkControlInProgress(bool)
        1      2   -> CDataBase::GetBlockLength(uint8_t)
        1      2   -> CDataBase::SignatureCreate()
        1      2   -> CDataBase::Write(uint8_t *, uint16_t, uint8_t)
      0      2   CPss21::SetModuleIndex(uint8_t)
      0      2   CPss21::SetPanelReceipt(uint8_t)
      0      2   CPss21::SetPanelReset(uint8_t)
      0      2   CPss21::TEST_ON_TIME()
      0      2   CPss21::TestMainCycle()
        0      2   -> CModbusRTU::Fsm()
        0      2   -> CPlatform::WatchdogReset()
        0      2   -> CPss21::KeyStateProcessing()
        0      2   -> CPss21::NotifyersControlProcessing()
        0      2   -> CPss21::ReceiptResetGlobalFlagsClear()
     12      2   __sti__routine()
        0      2   -> CBuzzerNotifyerControl::CBuzzerNotifyerControl()
        0      2   -> CDataStore::CDataStore()
        0      2   -> CEmergencyAlarmWindowNotifyerControl::CEmergencyAlarmWindowNotifyerControl()
        0      2   -> CEventUniteLogicAnd::CEventUniteLogicAnd(uint16_t)
        0      2   -> CLightBoard::CLightBoard()
        0      2   -> CModbusRTU::CModbusRTU()
        0      2   -> CModbusRtuLinkControl::CModbusRtuLinkControl()
        0      2   -> CMultiFunctionKey::CMultiFunctionKey(uint8_t (*)())
        0      2   -> CPreventiveAlarmWindowNotifyerControl::CPreventiveAlarmWindowNotifyerControl()
        0      2   -> CStatusLedNotifyerControl::CStatusLedNotifyerControl()
        0      2   -> CTimer::CTimer(uint16_t)
        0      2   -> CUart::CUart(uint8_t volatile *, uint8_t volatile *, uint8_t volatile *, uint8_t volatile *, uint8_t volatile *, uint8_t volatile *, uint8_t volatile *, uint8_t, uint8_t volatile *, uint8_t)
        0      2   -> __near_vec_construct
        0      2   -> __record_needed_destruction


   Segment part sizes:

   Bytes  Function/Label
   -----  --------------
       6  ?<Initializer for >
       6  ?<Initializer for >_1
       6  ?<Initializer for >_10
       6  ?<Initializer for >_11
       6  ?<Initializer for >_12
       6  ?<Initializer for >_13
       6  ?<Initializer for >_14
       6  ?<Initializer for >_15
       6  ?<Initializer for >_2
       6  ?<Initializer for >_3
       6  ?<Initializer for >_4
       6  ?<Initializer for >_5
       6  ?<Initializer for >_6
       6  ?<Initializer for >_7
       6  ?<Initializer for >_8
       6  ?<Initializer for >_9
      38  ?<Jumptable for MainFsm>_0
      22  ?<Unnamed 0>
      22  ?<Unnamed 10>
      22  ?<Unnamed 11>
      22  ?<Unnamed 12>
      22  ?<Unnamed 13>
      22  ?<Unnamed 1>
      22  ?<Unnamed 2>
      22  ?<Unnamed 3>
      22  ?<Unnamed 4>
      22  ?<Unnamed 5>
      22  ?<Unnamed 6>
      22  ?<Unnamed 7>
      22  ?<Unnamed 8>
      22  ?<Unnamed 9>
       6  CAlarmDfa::GetLinkedDiscreteOutputsPointer()
       6  CAlarmDfa::SetAlarmWindowIndex(uint8_t)
       6  CAlarmDfa::SetDiscreteStateIndex(uint8_t)
       6  CAlarmWindow::GetActivityState()
       6  CAlarmWindow::GetAlarmType()
       6  CAlarmWindow::GetSavedActivityState()
       6  CAlarmWindow::GetSavedAlarmType()
       6  CAlarmWindow::SetActivityState(uint8_t)
       6  CAlarmWindow::SetAlarmType(uint8_t)
       6  CAlarmWindow::SetSavedActivityState(uint8_t)
       6  CAlarmWindow::SetSavedAlarmType(uint8_t)
       6  CDfa::SetFsmEvent(uint8_t)
       6  CDfaLite::SetFsmState(uint8_t)
       6  CDriver::SetModbusReceipt(uint8_t)
       6  CDriver::SetModbusReset(uint8_t)
       6  CDriver::SetReceipt(uint8_t)
       6  CDriver::SetReset(uint8_t)
      14  CPlatform::ExternalKeyState()
      12  CPlatform::KeyOneState()
      12  CPlatform::KeyThreeState()
      12  CPlatform::KeyTwoState()
       4  CPlatform::SpiSlaveSelectAddress0Off()
       4  CPlatform::SpiSlaveSelectAddress0On()
       4  CPlatform::SpiSlaveSelectAddress0SetPinOutput()
       4  CPlatform::SpiSlaveSelectAddress1Off()
       4  CPlatform::SpiSlaveSelectAddress1On()
       4  CPlatform::SpiSlaveSelectAddress1SetPinOutput()
       4  CPlatform::SpiSlaveSelectAddress2Off()
       4  CPlatform::SpiSlaveSelectAddress2On()
       4  CPlatform::SpiSlaveSelectAddress2SetPinOutput()
       4  CPlatform::SpiSlaveSelectAddress3Off()
       4  CPlatform::SpiSlaveSelectAddress3On()
       4  CPlatform::SpiSlaveSelectAddress3SetPinOutput()
       4  CPlatform::SpiSlaveSelectEnableOff()
       4  CPlatform::SpiSlaveSelectEnableOn()
       4  CPlatform::SpiSlaveSelectEnableSetPinOutput()
      16  CPlatform::WatchdogEnable()
       4  CPlatform::WatchdogReset()
     148  CPss21::ActiveAlarmWindowOff(uint8_t)
      88  CPss21::ActiveAlarmWindowOn(uint8_t)
      42  CPss21::AddressBusInit()
      28  CPss21::AlarmTypeChange()
      18  CPss21::AlarmTypeReceipt()
      18  CPss21::AlarmTypeReset()
      48  CPss21::AlarmTypeSet(uint8_t)
      72  CPss21::AlarmsProcessing()
      80  CPss21::AllAlarmWindowOff()
      86  CPss21::AllAlarmWindowOn(uint8_t)
    1048  CPss21::ConfigurationInit()
      74  CPss21::ConnectDevice(uint8_t)
     384  CPss21::CreateDevices()
      18  CPss21::DestroyDevices(uint8_t)
      26  CPss21::DisconnectDevice()
      98  CPss21::DiscreteOutputControlClear()
     214  CPss21::DiscreteOutputsSet(uint8_t *, uint8_t)
      18  CPss21::DiscreteSignalsProcessing()
      64  CPss21::ErrorMainCycle()
     102  CPss21::ErrorWindowOn(uint8_t)
      22  CPss21::GetAlarmWindowControlPointer(uint8_t)
       6  CPss21::GetCommonAlarmType()
      28  CPss21::GetDiscreteInputState(uint8_t)
       6  CPss21::GetErrorCode()
       6  CPss21::GetExternalReceipt()
       6  CPss21::GetFsmState()
       6  CPss21::GetModbusReceipt()
       6  CPss21::GetModuleIndex()
       6  CPss21::GetPanelReceipt()
      16  CPss21::GetTimeoutModbusRtuLinkControl()
      32  CPss21::Init()
      96  CPss21::InitAllocationContext(TMemoryAllocationConext &)
     268  CPss21::KeyStateProcessing()
      36  CPss21::LinkControlErrorMainCycle()
     578  CPss21::MainFsm()
      22  CPss21::ModbusDefaultInit()
     114  CPss21::ModbusDeviceControl(uint8_t *, uint16_t, uint16_t)
      28  CPss21::ModbusDeviceControl(uint8_t, uint16_t)
     192  CPss21::ModbusInit()
      18  CPss21::ModbusRtuLinkControlInProgress()
      16  CPss21::ModbusRtuLinkControlIsOn()
      78  CPss21::ModulesInteraction(uint8_t)
      34  CPss21::NotifyersControlProcessing()
      38  CPss21::ReceiptResetGlobalFlagsClear()
     142  CPss21::ReportType(uint8_t *, uint16_t)
     130  CPss21::RestoreContextNotifyerControl()
     124  CPss21::SaveContextNotifyerControl()
     200  CPss21::SearchModules()
      44  CPss21::SendToDevicesModbusReceipt()
      44  CPss21::SendToDevicesModbusReset()
      54  CPss21::SendToDevicesReceipt()
      44  CPss21::SendToDevicesReset()
      26  CPss21::SetAlarmWindowType(uint8_t, uint8_t)
      94  CPss21::SetBytesFromBits(uint8_t *, uint8_t *, uint16_t)
       6  CPss21::SetDiscreteSignalsReceipt(uint8_t)
       6  CPss21::SetDiscreteSignalsReset(uint8_t)
       6  CPss21::SetErrorCode(uint8_t)
       6  CPss21::SetExternalReceipt(uint8_t)
       6  CPss21::SetExternalReset(uint8_t)
       6  CPss21::SetFsmState(uint8_t)
       6  CPss21::SetModbusReceipt(uint8_t)
       6  CPss21::SetModbusReset(uint8_t)
      42  CPss21::SetModeModbusRtuLinkControlInProgress(bool)
       6  CPss21::SetModuleIndex(uint8_t)
       6  CPss21::SetPanelReceipt(uint8_t)
       6  CPss21::SetPanelReset(uint8_t)
       6  CPss21::TEST_ON_TIME()
      20  CPss21::TestMainCycle()
     192  CPss21::m_apxAlarmDfa
       6  CPss21::m_apxDrivers
     120  CPss21::m_aucRtuDiscreteDataArray
      16  CPss21::m_aucRtuHoldingRegistersArray
      16  CPss21::m_aucRtuInputRegistersArray
      48  CPss21::m_auiErrorLedOn
     256  CPss21::m_auiIntermediateBuff
     256  CPss21::m_auiReceiveMessageBuff
      64  CPss21::m_auiSpiRxBuffer
      64  CPss21::m_auiSpiTxBuffer
     288  CPss21::m_axAlarmWindowControl
      16  CPss21::m_axDiscreteOutputControl
       1  CPss21::m_uiCommonAlarmType
       1  CPss21::m_uiCommonAlarmTypePrevious
       1  CPss21::m_uiDiscreteSignalsReceipt
       1  CPss21::m_uiDiscreteSignalsReset
       1  CPss21::m_uiErrorCode
       1  CPss21::m_uiExternalReceipt
       1  CPss21::m_uiExternalReset
       1  CPss21::m_uiFsmState
       1  CPss21::m_uiModbusReceipt
       1  CPss21::m_uiModbusReset
       1  CPss21::m_uiModuleIndex
       1  CPss21::m_uiPanelReceipt
       1  CPss21::m_uiPanelReset
       1  CPss21::m_uiType
      12  CPss21::m_xBuzzerNotifyerControl
      15  CPss21::m_xCheckKey
     137  CPss21::m_xDataStore
       9  CPss21::m_xDeviceConfigSearch
      20  CPss21::m_xDeviceConfiguration
       8  CPss21::m_xDeviceState
      24  CPss21::m_xDiscreteOutputDataBase
      12  CPss21::m_xEmergencyAlarmWindowNotifyerControl
      14  CPss21::m_xEventUniteLogicAndOne
      15  CPss21::m_xExternalKey
      70  CPss21::m_xLightBoard
       6  CPss21::m_xMainCycleTimer
      11  CPss21::m_xModbusRtuLinkControl
      49  CPss21::m_xModbusRtuOne
       7  CPss21::m_xModbusSettings
      12  CPss21::m_xPreventiveAlarmWindowNotifyerControl
      15  CPss21::m_xReceiptKey
      15  CPss21::m_xResetKey
      12  CPss21::m_xStatusLedNotifyerControl
      47  CPss21::m_xUart1
       1  _A_ACSR
       2  _A_ADC
       1  _A_ADCSRA
       1  _A_ADMUX
       1  _A_ASSR
       1  _A_DDRA
       1  _A_DDRB
       1  _A_DDRC
       1  _A_DDRD
       1  _A_DDRE
       1  _A_DDRF
       1  _A_DDRG
       2  _A_EEAR
       1  _A_EECR
       1  _A_EEDR
       1  _A_EICRA
       1  _A_EICRB
       1  _A_EIFR
       1  _A_EIMSK
       1  _A_ETIFR
       1  _A_ETIMSK
       2  _A_ICR1
       2  _A_ICR3
       1  _A_MCUCR
       1  _A_MCUCSR
       1  _A_OCDR
       1  _A_OCR0
       2  _A_OCR1A
       2  _A_OCR1B
       2  _A_OCR1C
       1  _A_OCR2
       2  _A_OCR3A
       2  _A_OCR3B
       2  _A_OCR3C
       1  _A_OSCCAL
       1  _A_PINA
       1  _A_PINB
       1  _A_PINC
       1  _A_PIND
       1  _A_PINE
       1  _A_PINF
       1  _A_PING
       1  _A_PORTA
       1  _A_PORTB
       1  _A_PORTC
       1  _A_PORTD
       1  _A_PORTE
       1  _A_PORTF
       1  _A_PORTG
       1  _A_RAMPZ
       1  _A_SFIOR
       2  _A_SP
       1  _A_SPCR
       1  _A_SPDR
       1  _A_SPMCSR
       1  _A_SPSR
       1  _A_SREG
       1  _A_TCCR0
       1  _A_TCCR1A
       1  _A_TCCR1B
       1  _A_TCCR1C
       1  _A_TCCR2
       1  _A_TCCR3A
       1  _A_TCCR3B
       1  _A_TCCR3C
       1  _A_TCNT0
       2  _A_TCNT1
       1  _A_TCNT2
       2  _A_TCNT3
       1  _A_TIFR
       1  _A_TIMSK
       1  _A_TWAR
       1  _A_TWBR
       1  _A_TWCR
       1  _A_TWDR
       1  _A_TWSR
       1  _A_UBRR0H
       1  _A_UBRR0L
       1  _A_UBRR1H
       1  _A_UBRR1L
       1  _A_UCSR0A
       1  _A_UCSR0B
       1  _A_UCSR0C
       1  _A_UCSR1A
       1  _A_UCSR1B
       1  _A_UCSR1C
       1  _A_UDR0
       1  _A_UDR1
       1  _A_WDTCR
       1  _A_XDIV
       1  _A_XMCRA
       1  _A_XMCRB
     358  __sti__routine()
     180  -- Other

 
   105 bytes in segment ABSOLUTE
 6 266 bytes in segment CODE
     2 bytes in segment DIFUNCT
    14 bytes in segment INITTAB
    84 bytes in segment NEAR_F
    96 bytes in segment NEAR_I
    96 bytes in segment NEAR_ID
 1 850 bytes in segment NEAR_Z
    38 bytes in segment SWITCH
 
 6 118 bytes of CODE memory (+ 382 bytes shared)
 1 946 bytes of DATA memory (+ 105 bytes shared)

Errors: none
Warnings: 2
