###############################################################################
#
# IAR C/C++ Compiler V7.10.6.1378 for Atmel AVR           12/Aug/2022  19:38:24
# Copyright 1996-2018 IAR Systems AB.
#
#    Source file  =  D:\Projects\CautoProjects\PSS48\PSS48\src\Pss21.cpp
#    Command line =  
#        -f C:\Users\ghost\AppData\Local\Temp\EW55AE.tmp
#        (--string_literals_in_flash
#        D:\Projects\CautoProjects\PSS48\PSS48\src\Pss21.cpp --cpu=m128a -ms -o
#        D:\Projects\CautoProjects\PSS48\PSS48\Debug\Obj -lC
#        D:\Projects\CautoProjects\PSS48\PSS48\Debug\List -lB
#        D:\Projects\CautoProjects\PSS48\PSS48\Debug\List -y
#        --initializers_in_flash --root_variables --debug
#        -DENABLE_BIT_DEFINITIONS -e -I
#        D:\Projects\CautoProjects\PSS48\PSS48\include\ -I
#        D:\Projects\CautoProjects\PSS48\PSS48\Modbus\ --eeprom_size 4096
#        --dlib --dlib_config "C:\Program Files (x86)\IAR Systems\Embedded
#        Workbench 8.0\avr\LIB\DLIB\dlAVR-3s-ec_mul-n.h" -Ohz --eec++)
#    Locale       =  Russian_RUS.1251
#    List file    =  D:\Projects\CautoProjects\PSS48\PSS48\Debug\List\Pss21.lst
#    Object file  =  D:\Projects\CautoProjects\PSS48\PSS48\Debug\Obj\Pss21.r90
#
###############################################################################

D:\Projects\CautoProjects\PSS48\PSS48\src\Pss21.cpp
      1          //-----------------------------------------------------------------------------------------------------
      2          //  Sourse      : FileName.cpp
      3          //  Created     : 01.06.2022
      4          //  Author      : Alexandr Volvenkin
      5          //  email       : aav-36@mail.ru
      6          //  GitHub      : https://github.com/AlexandrVolvenkin
      7          //-----------------------------------------------------------------------------------------------------
      8          #include "Pss21.h"

   \                                 In  segment ABSOLUTE, at 0x9d, root
   \   union <unnamed> volatile __io _A_UCSR1C
   \                     _A_UCSR1C:
   \   00000000                      DS8 1

   \                                 In  segment ABSOLUTE, at 0x9c, root
   \   union <unnamed> volatile __io _A_UDR1
   \                     _A_UDR1:
   \   00000000                      DS8 1

   \                                 In  segment ABSOLUTE, at 0x9b, root
   \   union <unnamed> volatile __io _A_UCSR1A
   \                     _A_UCSR1A:
   \   00000000                      DS8 1

   \                                 In  segment ABSOLUTE, at 0x9a, root
   \   union <unnamed> volatile __io _A_UCSR1B
   \                     _A_UCSR1B:
   \   00000000                      DS8 1

   \                                 In  segment ABSOLUTE, at 0x99, root
   \   union <unnamed> volatile __io _A_UBRR1L
   \                     _A_UBRR1L:
   \   00000000                      DS8 1

   \                                 In  segment ABSOLUTE, at 0x98, root
   \   union <unnamed> volatile __io _A_UBRR1H
   \                     _A_UBRR1H:
   \   00000000                      DS8 1

   \                                 In  segment ABSOLUTE, at 0x95, root
   \   union <unnamed> volatile __io _A_UCSR0C
   \                     _A_UCSR0C:
   \   00000000                      DS8 1

   \                                 In  segment ABSOLUTE, at 0x90, root
   \   union <unnamed> volatile __io _A_UBRR0H
   \                     _A_UBRR0H:
   \   00000000                      DS8 1

   \                                 In  segment ABSOLUTE, at 0x8c, root
   \   union <unnamed> volatile __io _A_TCCR3C
   \                     _A_TCCR3C:
   \   00000000                      DS8 1

   \                                 In  segment ABSOLUTE, at 0x8b, root
   \   union <unnamed> volatile __io _A_TCCR3A
   \                     _A_TCCR3A:
   \   00000000                      DS8 1

   \                                 In  segment ABSOLUTE, at 0x8a, root
   \   union <unnamed> volatile __io _A_TCCR3B
   \                     _A_TCCR3B:
   \   00000000                      DS8 1

   \                                 In  segment ABSOLUTE, at 0x88, root
   \   union <unnamed> volatile __io _A_TCNT3
   \                     _A_TCNT3:
   \   00000000                      DS8 2

   \                                 In  segment ABSOLUTE, at 0x86, root
   \   union <unnamed> volatile __io _A_OCR3A
   \                     _A_OCR3A:
   \   00000000                      DS8 2

   \                                 In  segment ABSOLUTE, at 0x84, root
   \   union <unnamed> volatile __io _A_OCR3B
   \                     _A_OCR3B:
   \   00000000                      DS8 2

   \                                 In  segment ABSOLUTE, at 0x82, root
   \   union <unnamed> volatile __io _A_OCR3C
   \                     _A_OCR3C:
   \   00000000                      DS8 2

   \                                 In  segment ABSOLUTE, at 0x80, root
   \   union <unnamed> volatile __io _A_ICR3
   \                     _A_ICR3:
   \   00000000                      DS8 2

   \                                 In  segment ABSOLUTE, at 0x7d, root
   \   union <unnamed> volatile __io _A_ETIMSK
   \                     _A_ETIMSK:
   \   00000000                      DS8 1

   \                                 In  segment ABSOLUTE, at 0x7c, root
   \   union <unnamed> volatile __io _A_ETIFR
   \                     _A_ETIFR:
   \   00000000                      DS8 1

   \                                 In  segment ABSOLUTE, at 0x7a, root
   \   union <unnamed> volatile __io _A_TCCR1C
   \                     _A_TCCR1C:
   \   00000000                      DS8 1

   \                                 In  segment ABSOLUTE, at 0x78, root
   \   union <unnamed> volatile __io _A_OCR1C
   \                     _A_OCR1C:
   \   00000000                      DS8 2

   \                                 In  segment ABSOLUTE, at 0x74, root
   \   union <unnamed> volatile __io _A_TWCR
   \                     _A_TWCR:
   \   00000000                      DS8 1

   \                                 In  segment ABSOLUTE, at 0x73, root
   \   union <unnamed> volatile __io _A_TWDR
   \                     _A_TWDR:
   \   00000000                      DS8 1

   \                                 In  segment ABSOLUTE, at 0x72, root
   \   union <unnamed> volatile __io _A_TWAR
   \                     _A_TWAR:
   \   00000000                      DS8 1

   \                                 In  segment ABSOLUTE, at 0x71, root
   \   union <unnamed> volatile __io _A_TWSR
   \                     _A_TWSR:
   \   00000000                      DS8 1

   \                                 In  segment ABSOLUTE, at 0x70, root
   \   union <unnamed> volatile __io _A_TWBR
   \                     _A_TWBR:
   \   00000000                      DS8 1

   \                                 In  segment ABSOLUTE, at 0x6f, root
   \   union <unnamed> volatile __io _A_OSCCAL
   \                     _A_OSCCAL:
   \   00000000                      DS8 1

   \                                 In  segment ABSOLUTE, at 0x6d, root
   \   union <unnamed> volatile __io _A_XMCRA
   \                     _A_XMCRA:
   \   00000000                      DS8 1

   \                                 In  segment ABSOLUTE, at 0x6c, root
   \   union <unnamed> volatile __io _A_XMCRB
   \                     _A_XMCRB:
   \   00000000                      DS8 1

   \                                 In  segment ABSOLUTE, at 0x6a, root
   \   union <unnamed> volatile __io _A_EICRA
   \                     _A_EICRA:
   \   00000000                      DS8 1

   \                                 In  segment ABSOLUTE, at 0x68, root
   \   union <unnamed> volatile __io _A_SPMCSR
   \                     _A_SPMCSR:
   \   00000000                      DS8 1

   \                                 In  segment ABSOLUTE, at 0x65, root
   \   union <unnamed> volatile __io _A_PORTG
   \                     _A_PORTG:
   \   00000000                      DS8 1

   \                                 In  segment ABSOLUTE, at 0x64, root
   \   union <unnamed> volatile __io _A_DDRG
   \                     _A_DDRG:
   \   00000000                      DS8 1

   \                                 In  segment ABSOLUTE, at 0x63, root
   \   union <unnamed> volatile __io _A_PING
   \                     _A_PING:
   \   00000000                      DS8 1

   \                                 In  segment ABSOLUTE, at 0x62, root
   \   union <unnamed> volatile __io _A_PORTF
   \                     _A_PORTF:
   \   00000000                      DS8 1

   \                                 In  segment ABSOLUTE, at 0x61, root
   \   union <unnamed> volatile __io _A_DDRF
   \                     _A_DDRF:
   \   00000000                      DS8 1

   \                                 In  segment ABSOLUTE, at 0x5f, root
   \   union <unnamed> volatile __io _A_SREG
   \                     _A_SREG:
   \   00000000                      DS8 1

   \                                 In  segment ABSOLUTE, at 0x5d, root
   \   union <unnamed> volatile __io _A_SP
   \                     _A_SP:
   \   00000000                      DS8 2

   \                                 In  segment ABSOLUTE, at 0x5c, root
   \   union <unnamed> volatile __io _A_XDIV
   \                     _A_XDIV:
   \   00000000                      DS8 1

   \                                 In  segment ABSOLUTE, at 0x5b, root
   \   union <unnamed> volatile __io _A_RAMPZ
   \                     _A_RAMPZ:
   \   00000000                      DS8 1

   \                                 In  segment ABSOLUTE, at 0x5a, root
   \   union <unnamed> volatile __io _A_EICRB
   \                     _A_EICRB:
   \   00000000                      DS8 1

   \                                 In  segment ABSOLUTE, at 0x59, root
   \   union <unnamed> volatile __io _A_EIMSK
   \                     _A_EIMSK:
   \   00000000                      DS8 1

   \                                 In  segment ABSOLUTE, at 0x58, root
   \   union <unnamed> volatile __io _A_EIFR
   \                     _A_EIFR:
   \   00000000                      DS8 1

   \                                 In  segment ABSOLUTE, at 0x57, root
   \   union <unnamed> volatile __io _A_TIMSK
   \                     _A_TIMSK:
   \   00000000                      DS8 1

   \                                 In  segment ABSOLUTE, at 0x56, root
   \   union <unnamed> volatile __io _A_TIFR
   \                     _A_TIFR:
   \   00000000                      DS8 1

   \                                 In  segment ABSOLUTE, at 0x55, root
   \   union <unnamed> volatile __io _A_MCUCR
   \                     _A_MCUCR:
   \   00000000                      DS8 1

   \                                 In  segment ABSOLUTE, at 0x54, root
   \   union <unnamed> volatile __io _A_MCUCSR
   \                     _A_MCUCSR:
   \   00000000                      DS8 1

   \                                 In  segment ABSOLUTE, at 0x53, root
   \   union <unnamed> volatile __io _A_TCCR0
   \                     _A_TCCR0:
   \   00000000                      DS8 1

   \                                 In  segment ABSOLUTE, at 0x52, root
   \   union <unnamed> volatile __io _A_TCNT0
   \                     _A_TCNT0:
   \   00000000                      DS8 1

   \                                 In  segment ABSOLUTE, at 0x51, root
   \   union <unnamed> volatile __io _A_OCR0
   \                     _A_OCR0:
   \   00000000                      DS8 1

   \                                 In  segment ABSOLUTE, at 0x50, root
   \   union <unnamed> volatile __io _A_ASSR
   \                     _A_ASSR:
   \   00000000                      DS8 1

   \                                 In  segment ABSOLUTE, at 0x4f, root
   \   union <unnamed> volatile __io _A_TCCR1A
   \                     _A_TCCR1A:
   \   00000000                      DS8 1

   \                                 In  segment ABSOLUTE, at 0x4e, root
   \   union <unnamed> volatile __io _A_TCCR1B
   \                     _A_TCCR1B:
   \   00000000                      DS8 1

   \                                 In  segment ABSOLUTE, at 0x4c, root
   \   union <unnamed> volatile __io _A_TCNT1
   \                     _A_TCNT1:
   \   00000000                      DS8 2

   \                                 In  segment ABSOLUTE, at 0x4a, root
   \   union <unnamed> volatile __io _A_OCR1A
   \                     _A_OCR1A:
   \   00000000                      DS8 2

   \                                 In  segment ABSOLUTE, at 0x48, root
   \   union <unnamed> volatile __io _A_OCR1B
   \                     _A_OCR1B:
   \   00000000                      DS8 2

   \                                 In  segment ABSOLUTE, at 0x46, root
   \   union <unnamed> volatile __io _A_ICR1
   \                     _A_ICR1:
   \   00000000                      DS8 2

   \                                 In  segment ABSOLUTE, at 0x45, root
   \   union <unnamed> volatile __io _A_TCCR2
   \                     _A_TCCR2:
   \   00000000                      DS8 1

   \                                 In  segment ABSOLUTE, at 0x44, root
   \   union <unnamed> volatile __io _A_TCNT2
   \                     _A_TCNT2:
   \   00000000                      DS8 1

   \                                 In  segment ABSOLUTE, at 0x43, root
   \   union <unnamed> volatile __io _A_OCR2
   \                     _A_OCR2:
   \   00000000                      DS8 1

   \                                 In  segment ABSOLUTE, at 0x42, root
   \   union <unnamed> volatile __io _A_OCDR
   \                     _A_OCDR:
   \   00000000                      DS8 1

   \                                 In  segment ABSOLUTE, at 0x41, root
   \   union <unnamed> volatile __io _A_WDTCR
   \                     _A_WDTCR:
   \   00000000                      DS8 1

   \                                 In  segment ABSOLUTE, at 0x40, root
   \   union <unnamed> volatile __io _A_SFIOR
   \                     _A_SFIOR:
   \   00000000                      DS8 1

   \                                 In  segment ABSOLUTE, at 0x3e, root
   \   union <unnamed> volatile __io _A_EEAR
   \                     _A_EEAR:
   \   00000000                      DS8 2

   \                                 In  segment ABSOLUTE, at 0x3d, root
   \   union <unnamed> volatile __io _A_EEDR
   \                     _A_EEDR:
   \   00000000                      DS8 1

   \                                 In  segment ABSOLUTE, at 0x3c, root
   \   union <unnamed> volatile __io _A_EECR
   \                     _A_EECR:
   \   00000000                      DS8 1

   \                                 In  segment ABSOLUTE, at 0x3b, root
   \   union <unnamed> volatile __io _A_PORTA
   \                     _A_PORTA:
   \   00000000                      DS8 1

   \                                 In  segment ABSOLUTE, at 0x3a, root
   \   union <unnamed> volatile __io _A_DDRA
   \                     _A_DDRA:
   \   00000000                      DS8 1

   \                                 In  segment ABSOLUTE, at 0x39, root
   \   union <unnamed> volatile __io _A_PINA
   \                     _A_PINA:
   \   00000000                      DS8 1

   \                                 In  segment ABSOLUTE, at 0x38, root
   \   union <unnamed> volatile __io _A_PORTB
   \                     _A_PORTB:
   \   00000000                      DS8 1

   \                                 In  segment ABSOLUTE, at 0x37, root
   \   union <unnamed> volatile __io _A_DDRB
   \                     _A_DDRB:
   \   00000000                      DS8 1

   \                                 In  segment ABSOLUTE, at 0x36, root
   \   union <unnamed> volatile __io _A_PINB
   \                     _A_PINB:
   \   00000000                      DS8 1

   \                                 In  segment ABSOLUTE, at 0x35, root
   \   union <unnamed> volatile __io _A_PORTC
   \                     _A_PORTC:
   \   00000000                      DS8 1

   \                                 In  segment ABSOLUTE, at 0x34, root
   \   union <unnamed> volatile __io _A_DDRC
   \                     _A_DDRC:
   \   00000000                      DS8 1

   \                                 In  segment ABSOLUTE, at 0x33, root
   \   union <unnamed> volatile __io _A_PINC
   \                     _A_PINC:
   \   00000000                      DS8 1

   \                                 In  segment ABSOLUTE, at 0x32, root
   \   union <unnamed> volatile __io _A_PORTD
   \                     _A_PORTD:
   \   00000000                      DS8 1

   \                                 In  segment ABSOLUTE, at 0x31, root
   \   union <unnamed> volatile __io _A_DDRD
   \                     _A_DDRD:
   \   00000000                      DS8 1

   \                                 In  segment ABSOLUTE, at 0x30, root
   \   union <unnamed> volatile __io _A_PIND
   \                     _A_PIND:
   \   00000000                      DS8 1

   \                                 In  segment ABSOLUTE, at 0x2f, root
   \   union <unnamed> volatile __io _A_SPDR
   \                     _A_SPDR:
   \   00000000                      DS8 1

   \                                 In  segment ABSOLUTE, at 0x2e, root
   \   union <unnamed> volatile __io _A_SPSR
   \                     _A_SPSR:
   \   00000000                      DS8 1

   \                                 In  segment ABSOLUTE, at 0x2d, root
   \   union <unnamed> volatile __io _A_SPCR
   \                     _A_SPCR:
   \   00000000                      DS8 1

   \                                 In  segment ABSOLUTE, at 0x2c, root
   \   union <unnamed> volatile __io _A_UDR0
   \                     _A_UDR0:
   \   00000000                      DS8 1

   \                                 In  segment ABSOLUTE, at 0x2b, root
   \   union <unnamed> volatile __io _A_UCSR0A
   \                     _A_UCSR0A:
   \   00000000                      DS8 1

   \                                 In  segment ABSOLUTE, at 0x2a, root
   \   union <unnamed> volatile __io _A_UCSR0B
   \                     _A_UCSR0B:
   \   00000000                      DS8 1

   \                                 In  segment ABSOLUTE, at 0x29, root
   \   union <unnamed> volatile __io _A_UBRR0L
   \                     _A_UBRR0L:
   \   00000000                      DS8 1

   \                                 In  segment ABSOLUTE, at 0x28, root
   \   union <unnamed> volatile __io _A_ACSR
   \                     _A_ACSR:
   \   00000000                      DS8 1

   \                                 In  segment ABSOLUTE, at 0x27, root
   \   union <unnamed> volatile __io _A_ADMUX
   \                     _A_ADMUX:
   \   00000000                      DS8 1

   \                                 In  segment ABSOLUTE, at 0x26, root
   \   union <unnamed> volatile __io _A_ADCSRA
   \                     _A_ADCSRA:
   \   00000000                      DS8 1

   \                                 In  segment ABSOLUTE, at 0x24, root
   \   union <unnamed> volatile __io _A_ADC
   \                     _A_ADC:
   \   00000000                      DS8 2

   \                                 In  segment ABSOLUTE, at 0x23, root
   \   union <unnamed> volatile __io _A_PORTE
   \                     _A_PORTE:
   \   00000000                      DS8 1

   \                                 In  segment ABSOLUTE, at 0x22, root
   \   union <unnamed> volatile __io _A_DDRE
   \                     _A_DDRE:
   \   00000000                      DS8 1

   \                                 In  segment ABSOLUTE, at 0x21, root
   \   union <unnamed> volatile __io _A_PINE
   \                     _A_PINE:
   \   00000000                      DS8 1

   \                                 In  segment ABSOLUTE, at 0x20, root
   \   union <unnamed> volatile __io _A_PINF
   \                     _A_PINF:
   \   00000000                      DS8 1

      static __flash TDataBase CFlash::xMainDataBase;
                               ^
"D:\Projects\CautoProjects\PSS48\PSS48\include\Platform.h",366  Warning[Pe427]: 
          qualified name is not allowed in member declaration

      static __flash TDataBaseBlockPositionData CFlash::axDataBaseBlocksPositionData[];
                                                ^
"D:\Projects\CautoProjects\PSS48\PSS48\include\Platform.h",367  Warning[Pe427]: 
          qualified name is not allowed in member declaration

   \                                 In  segment CODE, align 2, keep-with-next
   \   __version_3 uint8_t CPlatform::KeyOneState()
   \                     ??KeyOneState:
   \   00000000   E000               LDI     R16, 0
   \   00000002   999A               SBIC    0x13, 0x02
   \   00000004   E001               LDI     R16, 1
   \                     ??KeyOneState_1:
   \   00000006   E011               LDI     R17, 1
   \   00000008   2701               EOR     R16, R17
   \   0000000A   9508               RET
   \   0000000C                      REQUIRE _A_PINC

   \                                 In  segment CODE, align 2, keep-with-next
   \   __version_3 uint8_t CPlatform::KeyTwoState()
   \                     ??KeyTwoState:
   \   00000000   E000               LDI     R16, 0
   \   00000002   9999               SBIC    0x13, 0x01
   \   00000004   E001               LDI     R16, 1
   \                     ??KeyTwoState_1:
   \   00000006   E011               LDI     R17, 1
   \   00000008   2701               EOR     R16, R17
   \   0000000A   9508               RET
   \   0000000C                      REQUIRE _A_PINC

   \                                 In  segment CODE, align 2, keep-with-next
   \   __version_3 uint8_t CPlatform::KeyThreeState()
   \                     ??KeyThreeState:
   \   00000000   E000               LDI     R16, 0
   \   00000002   9998               SBIC    0x13, 0x00
   \   00000004   E001               LDI     R16, 1
   \                     ??KeyThreeState_1:
   \   00000006   E011               LDI     R17, 1
   \   00000008   2701               EOR     R16, R17
   \   0000000A   9508               RET
   \   0000000C                      REQUIRE _A_PINC

   \                                 In  segment CODE, align 2, keep-with-next
   \   __version_3 uint8_t CPlatform::ExternalKeyState()
   \                     ??ExternalKeyState:
   \   00000000   9110....           LDS     R17, _A_PING
   \   00000004   7011               ANDI    R17, 0x01
   \   00000006   2F01               MOV     R16, R17
   \   00000008   E011               LDI     R17, 1
   \   0000000A   2701               EOR     R16, R17
   \   0000000C   9508               RET
   \   0000000E                      REQUIRE _A_PING
      9          #include "Platform.h"
     10          #include "InputDevice.h"
     11          #include "Mvsn21.h"
     12          #include "ModuleMrXX.h"
     13          #include "Crc.h"
     14          #include "ModbusRTU.h"
     15          #include "DataBase.h"
     16          #include "DataTypes.h"
     17          #include "Alarm.h"
     18          #include "NotifyerControl.h"
     19          #include "Buzzer.h"
     20          #include "Event.h"
     21          #include "Dfa.h"
     22          
     23          
     24          //uint8_t CPss21::m_aucRtuCoilsArray[];
     25          //uint8_t CPss21::m_aucRtuDiscreteInputsArray[];

   \                                 In  segment NEAR_Z, align 1, keep-with-next, root
   \   00000000                      REQUIRE `?<Segment init: NEAR_Z>`
     26          uint16_t CPss21::m_aucRtuHoldingRegistersArray[];
   \                     ??m_aucRtuHoldingRegistersArray:
   \   00000000                      DS8 256
     27          uint16_t CPss21::m_aucRtuInputRegistersArray[];
     28          uint8_t CPss21::m_aucRtuDiscreteDataArray[];
     29          uint8_t CPss21::m_auiReceiveMessageBuff[];
     30          //uint8_t CPss21::m_auiTransmitMessageBuff[];
     31          uint8_t CPss21::m_auiIntermediateBuff[];
     32          uint8_t CPss21::m_auiSpiRxBuffer[];
     33          uint8_t CPss21::m_auiSpiTxBuffer[];
     34          
     35          uint8_t CPss21::m_uiFsmState;
     36          uint8_t CPss21::m_uiType;
     37          //CDriver* CPss21::m_pxDriver;
     38          //CDevice* CPss21::m_apxDevices[];
     39          CDriver* CPss21::m_apxDrivers[];
     40          

   \                                 In  segment CODE, align 2, keep-with-next
   \   static __intrinsic __version_3 void __sti__routine()
   \                     ??__sti__routine:
     41          CUart CPss21::m_xUart1(&UBRR1H, &UBRR1L, &UCSR1A, &UCSR1B, &UCSR1C, &UDR1, &DDRC, DDC7, &PORTC, PC7);
   \   00000000   E007               LDI     R16, 7
   \   00000002   930A               ST      -Y, R16
   \   00000004   E305               LDI     R16, LOW(53)
   \   00000006   E010               LDI     R17, (53) >> 8
   \   00000008   ....               RCALL   ?Subroutine72
   \                     ??CrossCallReturnLabel_93:
   \   0000000A   E007               LDI     R16, 7
   \   0000000C   930A               ST      -Y, R16
   \   0000000E   E304               LDI     R16, LOW(52)
   \   00000010   ....               RCALL   ?Subroutine72
   \                     ??CrossCallReturnLabel_94:
   \   00000012   E90C               LDI     R16, LOW(156)
   \   00000014   ....               RCALL   ?Subroutine72
   \                     ??CrossCallReturnLabel_95:
   \   00000016   E90D               LDI     R16, LOW(157)
   \   00000018   ....               RCALL   ?Subroutine72
   \                     ??CrossCallReturnLabel_96:
   \   0000001A   E90A               LDI     R16, LOW(154)
   \   0000001C   ....               RCALL   ?Subroutine72
   \                     ??CrossCallReturnLabel_97:
   \   0000001E   E96B               LDI     R22, LOW(155)
   \   00000020   E070               LDI     R23, (53) >> 8
   \   00000022   E949               LDI     R20, LOW(153)
   \   00000024   E050               LDI     R21, (53) >> 8
   \   00000026   E928               LDI     R18, LOW(152)
   \   00000028   E030               LDI     R19, (53) >> 8
   \   0000002A   ....               LDI     R16, LOW(??m_xUart1)
   \   0000002C   ....               LDI     R17, (??m_xUart1) >> 8
   \   0000002E   ........           CALL    ??CUart
   \   00000032   ....               LDI     R16, LOW(?_0)
   \   00000034   ....               LDI     R17, (?_0) >> 8
   \   00000036   ....               RCALL   ?Subroutine70
     42          CModbusRTU CPss21::m_xModbusRtuOne;
   \                     ??CrossCallReturnLabel_81:
   \   00000038   ....               RCALL   ??Subroutine90_0
   \                     ??CrossCallReturnLabel_154:
   \   0000003A   ....               LDI     R16, LOW(??m_xModbusRtuOne)
   \   0000003C   ....               LDI     R17, (??m_xModbusRtuOne) >> 8
   \   0000003E   ........           CALL    ??CModbusRTU
   \   00000042   ....               LDI     R16, LOW((?_0 + 6))
   \   00000044   ....               LDI     R17, HIGH((?_0 + 6))
   \   00000046   ....               RCALL   ?Subroutine70
     43          
     44          //CDataBase CPss21::m_xDataBase;
     45          //CDataBase* CPss21::m_pxDataBase;
     46          //CDataStore CPss21::m_xDataStore;
     47          
     48          CMultiFunctionKey CPss21::m_xReceiptKey(CPlatform::KeyOneState);
   \                     ??CrossCallReturnLabel_82:
   \   00000048   ....               LDI     R18, LOW(??KeyOneState/2)
   \   0000004A   ....               LDI     R19, (??KeyOneState/2) >> 8
   \   0000004C   ....               LDI     R16, LOW((??m_xDeviceConfigSearch + 59))
   \   0000004E   ....               LDI     R17, HIGH((??m_xDeviceConfigSearch + 59))
   \   00000050   ....               RCALL   ?Subroutine12
   \                     ??CrossCallReturnLabel_5:
   \   00000052   ....               LDI     R16, LOW((?_0 + 12))
   \   00000054   ....               LDI     R17, HIGH((?_0 + 12))
   \   00000056   ....               RCALL   ?Subroutine70
     49          CMultiFunctionKey CPss21::m_xResetKey(CPlatform::KeyTwoState);
   \                     ??CrossCallReturnLabel_83:
   \   00000058   ....               LDI     R18, LOW(??KeyTwoState/2)
   \   0000005A   ....               LDI     R19, (??KeyTwoState/2) >> 8
   \   0000005C   ....               LDI     R16, LOW((??m_xDeviceConfigSearch + 72))
   \   0000005E   ....               LDI     R17, HIGH((??m_xDeviceConfigSearch + 72))
   \   00000060   ....               RCALL   ?Subroutine12
   \                     ??CrossCallReturnLabel_4:
   \   00000062   ....               LDI     R16, LOW((?_0 + 18))
   \   00000064   ....               LDI     R17, HIGH((?_0 + 18))
   \   00000066   ....               RCALL   ?Subroutine70
     50          CMultiFunctionKey CPss21::m_xCheckKey(CPlatform::KeyThreeState);
   \                     ??CrossCallReturnLabel_84:
   \   00000068   ....               LDI     R18, LOW(??KeyThreeState/2)
   \   0000006A   ....               LDI     R19, (??KeyThreeState/2) >> 8
   \   0000006C   ....               LDI     R16, LOW((??m_xDeviceConfigSearch + 85))
   \   0000006E   ....               LDI     R17, HIGH((??m_xDeviceConfigSearch + 85))
   \   00000070   ....               RCALL   ?Subroutine12
   \                     ??CrossCallReturnLabel_3:
   \   00000072   ....               LDI     R16, LOW((?_0 + 24))
   \   00000074   ....               LDI     R17, HIGH((?_0 + 24))
   \   00000076   ....               RCALL   ?Subroutine70
     51          CMultiFunctionKey CPss21::m_xExternalKey(CPlatform::ExternalKeyState);
   \                     ??CrossCallReturnLabel_85:
   \   00000078   ....               LDI     R18, LOW(??ExternalKeyState/2)
   \   0000007A   ....               LDI     R19, (??ExternalKeyState/2) >> 8
   \   0000007C   ....               LDI     R16, LOW((??m_xDeviceConfigSearch + 98))
   \   0000007E   ....               LDI     R17, HIGH((??m_xDeviceConfigSearch + 98))
   \   00000080   ....               RCALL   ?Subroutine12
   \                     ??CrossCallReturnLabel_2:
   \   00000082   ....               LDI     R16, LOW((?_0 + 30))
   \   00000084   ....               LDI     R17, HIGH((?_0 + 30))
   \   00000086   ....               RCALL   ?Subroutine70
     52          
     53          uint8_t CPss21::m_uiPanelReceipt;
     54          uint8_t CPss21::m_uiPanelReset;
     55          uint8_t CPss21::m_uiExternalReceipt;
     56          uint8_t CPss21::m_uiExternalReset;
     57          uint8_t CPss21::m_uiModbusReceipt;
     58          uint8_t CPss21::m_uiModbusReset;
     59          uint8_t CPss21::m_uiDiscreteSignalsReceipt;
     60          uint8_t CPss21::m_uiDiscreteSignalsReset;
     61          uint8_t CPss21::m_uiErrorCode;
     62          uint8_t CPss21::m_uiModuleIndex;
     63          CEventUniteLogicAnd CPss21::m_xEventUniteLogicAndOne(500);
   \                     ??CrossCallReturnLabel_86:
   \   00000088   EF24               LDI     R18, 244
   \   0000008A   E031               LDI     R19, 1
   \   0000008C   ....               LDI     R16, LOW((??m_xDeviceConfigSearch + 111))
   \   0000008E   ....               LDI     R17, HIGH((??m_xDeviceConfigSearch + 111))
   \   00000090   ........           CALL    ??CEventUniteLogicAnd
   \   00000094   ....               LDI     R16, LOW((?_0 + 36))
   \   00000096   ....               LDI     R17, HIGH((?_0 + 36))
   \   00000098   ....               RCALL   ?Subroutine70
     64          CTimer CPss21::m_xMainCycleTimer(MAIN_CYCLE_PERIOD_TIME);
   \                     ??CrossCallReturnLabel_87:
   \   0000009A   E624               LDI     R18, 100
   \   0000009C   E030               LDI     R19, 0
   \   0000009E   ....               RCALL   ?Subroutine59
   \                     ??CrossCallReturnLabel_229:
   \   000000A0   ........           CALL    ??CTimer
     65          //CTimer CPss21::m_xPeripheryTimer(PERIPHERY_SCAN_TIME);
     66          
     67          CPreventiveAlarmWindowNotifyerControl CPss21::m_xPreventiveAlarmWindowNotifyerControl;
   \   000000A4   ....               LDI     R16, LOW((??m_xDeviceConfigSearch + 127))
   \   000000A6   ....               LDI     R17, HIGH((??m_xDeviceConfigSearch + 127))
   \   000000A8   ........           CALL    ??CPreventiveAlarmWindowNotifyerControl
   \   000000AC   ....               LDI     R16, LOW((?_0 + 42))
   \   000000AE   ....               LDI     R17, HIGH((?_0 + 42))
   \   000000B0   ....               RCALL   ?Subroutine70
     68          CEmergencyAlarmWindowNotifyerControl CPss21::m_xEmergencyAlarmWindowNotifyerControl;
   \                     ??CrossCallReturnLabel_88:
   \   000000B2   ....               LDI     R16, LOW((??m_xDeviceConfigSearch + 137))
   \   000000B4   ....               LDI     R17, HIGH((??m_xDeviceConfigSearch + 137))
   \   000000B6   ........           CALL    ??CEmergencyAlarmWindowNotifyerControl
   \   000000BA   ....               LDI     R16, LOW((?_0 + 48))
   \   000000BC   ....               LDI     R17, HIGH((?_0 + 48))
   \   000000BE   ....               RCALL   ?Subroutine70
     69          CStatusLedNotifyerControl CPss21::m_xStatusLedNotifyerControl;
   \                     ??CrossCallReturnLabel_89:
   \   000000C0   ....               LDI     R16, LOW((??m_xDeviceConfigSearch + 147))
   \   000000C2   ....               LDI     R17, HIGH((??m_xDeviceConfigSearch + 147))
   \   000000C4   ........           CALL    ??CStatusLedNotifyerControl
   \   000000C8   ....               LDI     R16, LOW((?_0 + 54))
   \   000000CA   ....               LDI     R17, HIGH((?_0 + 54))
   \   000000CC   ....               RCALL   ?Subroutine70
     70          CBuzzerNotifyerControl CPss21::m_xBuzzerNotifyerControl;
   \                     ??CrossCallReturnLabel_90:
   \   000000CE   ....               LDI     R16, LOW((??m_xDeviceConfigSearch + 157))
   \   000000D0   ....               LDI     R17, HIGH((??m_xDeviceConfigSearch + 157))
   \   000000D2   ........           CALL    ??CBuzzerNotifyerControl
   \   000000D6   ....               LDI     R16, LOW((?_0 + 60))
   \   000000D8   ....               LDI     R17, HIGH((?_0 + 60))
   \   000000DA   ....               RCALL   ?Subroutine70
     71          CModbusRtuLinkControl CPss21::m_xModbusRtuLinkControl;
   \                     ??CrossCallReturnLabel_91:
   \   000000DC   ....               LDI     R16, LOW((??m_xDeviceConfigSearch + 9))
   \   000000DE   ....               LDI     R17, HIGH((??m_xDeviceConfigSearch + 9))
   \   000000E0   ........           CALL    ??CModbusRtuLinkControl
   \   000000E4   ....               LDI     R16, LOW((?_0 + 66))
   \   000000E6   ....               LDI     R17, HIGH((?_0 + 66))
   \   000000E8   ....               RCALL   ?Subroutine70
     72          
     73          uint8_t CPss21::m_uiCommonAlarmType;
     74          uint8_t CPss21::m_uiCommonAlarmTypePrevious;
     75          //CLightBoard CPss21::m_xLightBoard;
     76          TConfigDataPackOne CPss21::m_xDeviceConfigSearch;
     77          TDevConfig CPss21::m_xDeviceConfiguration;
     78          TDeviceState CPss21::m_xDeviceState;
     79          TMBusSetting CPss21::m_xModbusSettings;
     80          CAlarmDfa *CPss21::m_apxAlarmDfa[];
     81          
     82          CErrorAlarmDfa *CPss21::m_apxErrorAlarmDfa[];
     83          uint8_t CPss21::m_auiErrorAlarmDataArray[];
     84          
     85          TDiscreteOutputControl CPss21::m_axDiscreteOutputControl[];
     86          TOutputData CPss21::m_xDiscreteOutputDataBase;
     87          CAlarmWindow CPss21::m_axAlarmWindowControl[];
   \                     ??CrossCallReturnLabel_92:
   \   000000EA   ....               LDI     R22, LOW(??CAlarmWindow/2)
   \   000000EC   ....               LDI     R23, (??CAlarmWindow/2) >> 8
   \   000000EE   ....               RCALL   ?Subroutine16
   \                     ??CrossCallReturnLabel_8:
   \   000000F0   ........           CALL    __near_vec_construct
   \   000000F4   ....               LDI     R16, LOW((?_0 + 72))
   \   000000F6   ....               LDI     R17, HIGH((?_0 + 72))
   \   000000F8                      REQUIRE ?Subroutine70
   \   000000F8                      REQUIRE _A_UBRR1H
   \   000000F8                      REQUIRE _A_UBRR1L
   \   000000F8                      REQUIRE _A_UCSR1A
   \   000000F8                      REQUIRE _A_UCSR1B
   \   000000F8                      REQUIRE _A_UCSR1C
   \   000000F8                      REQUIRE _A_UDR1
   \   000000F8                      REQUIRE _A_DDRC
   \   000000F8                      REQUIRE _A_PORTC
   \   000000F8                      ;               // Fall through to label ?Subroutine70

   \                                 In  segment CODE, align 2, keep-with-next
   \                     `?<Unnamed 0>`:
   \   00000000   ....               RCALL   ?Subroutine18
   \                     ??CrossCallReturnLabel_143:
   \   00000002   ........           JMP     `?~CUart`

   \                                 In  segment CODE, align 2, keep-with-next
   \                     `?<Unnamed 1>`:
   \   00000000   ....               RCALL   ?Subroutine18
   \                     ??CrossCallReturnLabel_144:
   \   00000002   ........           JMP     `?~CModbusRTU`

   \                                 In  segment CODE, align 2, keep-with-next
   \                     ?Subroutine12:
   \   00000000   ........           JMP     ??CMultiFunctionKey

   \                                 In  segment CODE, align 2, keep-with-next
   \                     `?<Unnamed 2>`:
   \   00000000   ....               RCALL   ?Subroutine18
   \                     ??CrossCallReturnLabel_145:
   \   00000002   ........           JMP     `?~CMultiFunctionKey`

   \                                 In  segment CODE, align 2, keep-with-next
   \                     `?<Unnamed 3>`:
   \   00000000   ....               RCALL   ?Subroutine18
   \                     ??CrossCallReturnLabel_146:
   \   00000002   ........           JMP     `?~CEventUniteLogicAnd`

   \                                 In  segment CODE, align 2, keep-with-next
   \                     `?<Unnamed 4>`:
   \   00000000   ....               RCALL   ?Subroutine18
   \                     ??CrossCallReturnLabel_147:
   \   00000002   ........           JMP     `?~CPreventiveAlarmWindowNotifyerControl`

   \                                 In  segment CODE, align 2, keep-with-next
   \                     `?<Unnamed 5>`:
   \   00000000   ....               RCALL   ?Subroutine18
   \                     ??CrossCallReturnLabel_148:
   \   00000002   ........           JMP     `?~CEmergencyAlarmWindowNotifyerControl`

   \                                 In  segment CODE, align 2, keep-with-next
   \                     `?<Unnamed 6>`:
   \   00000000   ....               RCALL   ?Subroutine18
   \                     ??CrossCallReturnLabel_149:
   \   00000002   ........           JMP     `?~CStatusLedNotifyerControl`

   \                                 In  segment CODE, align 2, keep-with-next
   \                     `?<Unnamed 7>`:
   \   00000000   ....               RCALL   ?Subroutine18
   \                     ??CrossCallReturnLabel_150:
   \   00000002   ........           JMP     `?~CBuzzerNotifyerControl`

   \                                 In  segment CODE, align 2, keep-with-next
   \                     `?<Unnamed 8>`:
   \   00000000   ....               RCALL   ?Subroutine18
   \                     ??CrossCallReturnLabel_151:
   \   00000002   ........           JMP     `?~CModbusRtuLinkControl`

   \                                 In  segment NEAR_Z, align 1, keep-with-next, root
   \   00000000                      REQUIRE `?<Segment init: NEAR_Z>`
   \                     ??m_xDeviceConfiguration:
   \   00000000                      DS8 20
   \                     ??m_xModbusSettings:
   \   00000014                      DS8 7
   \                     ??m_xDeviceState:
   \   0000001B                      DS8 8
   \                     ??m_aucRtuInputRegistersArray:
   \   00000023                      DS8 16

   \                                 In  segment NEAR_Z, align 1, keep-with-next, root
   \   00000000                      REQUIRE `?<Segment init: NEAR_Z>`
   \                     ??m_aucRtuDiscreteDataArray:
   \   00000000                      DS8 120

   \                                 In  segment NEAR_Z, align 1, keep-with-next, root
   \   00000000                      REQUIRE `?<Segment init: NEAR_Z>`
   \                     ??m_auiReceiveMessageBuff:
   \   00000000                      DS8 256

   \                                 In  segment NEAR_Z, align 1, keep-with-next, root
   \   00000000                      REQUIRE `?<Segment init: NEAR_Z>`
   \                     ??m_auiIntermediateBuff:
   \   00000000                      DS8 256

   \                                 In  segment NEAR_Z, align 1, keep-with-next, root
   \   00000000                      REQUIRE `?<Segment init: NEAR_Z>`
   \                     ??m_auiSpiRxBuffer:
   \   00000000                      DS8 64

   \                                 In  segment NEAR_Z, align 1, keep-with-next, root
   \   00000000                      REQUIRE `?<Segment init: NEAR_Z>`
   \                     ??m_auiSpiTxBuffer:
   \   00000000                      DS8 64

   \                                 In  segment NEAR_Z, align 1, keep-with-next, root
   \   00000000                      REQUIRE `?<Segment init: NEAR_Z>`
   \                     ??m_xDeviceConfigSearch:
   \   00000000                      DS8 9
   \                     ??m_xModbusRtuLinkControl:
   \   00000009                      DS8 9
   \                     ??m_apxDrivers:
   \   00000012                      DS8 6
   \                     ??m_apxErrorAlarmDfa:
   \   00000018                      DS8 4
   \                     ??m_axDiscreteOutputControl:
   \   0000001C                      DS8 16
   \                     ??m_uiFsmState:
   \   0000002C                      DS8 1
   \                     ??m_uiPanelReceipt:
   \   0000002D                      DS8 1
   \                     ??m_uiPanelReset:
   \   0000002E                      DS8 1
   \                     ??m_uiExternalReceipt:
   \   0000002F                      DS8 1
   \                     ??m_uiExternalReset:
   \   00000030                      DS8 1
   \                     ??m_uiModbusReceipt:
   \   00000031                      DS8 1
   \                     ??m_uiModbusReset:
   \   00000032                      DS8 1
   \                     ??m_uiDiscreteSignalsReceipt:
   \   00000033                      DS8 1
   \                     ??m_uiDiscreteSignalsReset:
   \   00000034                      DS8 1
   \                     ??m_uiErrorCode:
   \   00000035                      DS8 1
   \                     ??m_uiModuleIndex:
   \   00000036                      DS8 1
   \                     ??m_uiCommonAlarmType:
   \   00000037                      DS8 1
   \                     ??m_uiCommonAlarmTypePrevious:
   \   00000038                      DS8 1
   \                     ??m_auiErrorAlarmDataArray:
   \   00000039                      DS8 2
   \                     ??m_xReceiptKey:
   \   0000003B                      DS8 13
   \                     ??m_xResetKey:
   \   00000048                      DS8 13
   \                     ??m_xCheckKey:
   \   00000055                      DS8 13
   \                     ??m_xExternalKey:
   \   00000062                      DS8 13
   \                     ??m_xEventUniteLogicAndOne:
   \   0000006F                      DS8 12
   \                     ??m_xMainCycleTimer:
   \   0000007B                      DS8 4
   \                     ??m_xPreventiveAlarmWindowNotifyerControl:
   \   0000007F                      DS8 10
   \                     ??m_xEmergencyAlarmWindowNotifyerControl:
   \   00000089                      DS8 10
   \                     ??m_xStatusLedNotifyerControl:
   \   00000093                      DS8 10
   \                     ??m_xBuzzerNotifyerControl:
   \   0000009D                      DS8 10
   \                     ??m_xDiscreteOutputDataBase:
   \   000000A7                      DS8 24

   \                                 In  segment NEAR_Z, align 1, keep-with-next, root
   \   00000000                      REQUIRE `?<Segment init: NEAR_Z>`
   \                     ??m_uiType:
   \   00000000                      DS8 1

   \                                 In  segment NEAR_Z, align 1, keep-with-next, root
   \   00000000                      REQUIRE `?<Segment init: NEAR_Z>`
   \                     ??m_xUart1:
   \   00000000                      DS8 47

   \                                 In  segment NEAR_Z, align 1, keep-with-next, root
   \   00000000                      REQUIRE `?<Segment init: NEAR_Z>`
   \                     ??m_xModbusRtuOne:
   \   00000000                      DS8 49

   \                                 In  segment NEAR_Z, align 1, keep-with-next, root
   \   00000000                      REQUIRE `?<Segment init: NEAR_Z>`
   \                     ??m_apxAlarmDfa:
   \   00000000                      DS8 192

   \                                 In  segment CODE, align 2, keep-with-next
   \                     `?<Unnamed 10>`:
   \   00000000   ....               RCALL   ?Subroutine18
   \                     ??CrossCallReturnLabel_152:
   \   00000002   ........           JMP     `?~CAlarmWindow`

   \                                 In  segment NEAR_I, align 1, keep-with-next, root
   \   00000000                      REQUIRE `?<Segment init: NEAR_I>`
   \                     ?_0:
   \   00000000                      DS8 6
   \   00000006                      REQUIRE `?<Initializer for >`
   \   00000006                      DS8 6
   \   0000000C                      REQUIRE `?<Initializer for >_1`
   \   0000000C                      DS8 6
   \   00000012                      REQUIRE `?<Initializer for >_2`
   \   00000012                      DS8 6
   \   00000018                      REQUIRE `?<Initializer for >_3`
   \   00000018                      DS8 6
   \   0000001E                      REQUIRE `?<Initializer for >_4`
   \   0000001E                      DS8 6
   \   00000024                      REQUIRE `?<Initializer for >_5`
   \   00000024                      DS8 6
   \   0000002A                      REQUIRE `?<Initializer for >_6`
   \   0000002A                      DS8 6
   \   00000030                      REQUIRE `?<Initializer for >_7`
   \   00000030                      DS8 6
   \   00000036                      REQUIRE `?<Initializer for >_8`
   \   00000036                      DS8 6
   \   0000003C                      REQUIRE `?<Initializer for >_9`
   \   0000003C                      DS8 6
   \   00000042                      REQUIRE `?<Initializer for >_10`
   \   00000042                      DS8 6
   \   00000048                      REQUIRE `?<Initializer for >_11`
   \   00000048                      DS8 6
   \   0000004E                      REQUIRE `?<Initializer for >_12`

   \                                 In  segment NEAR_Z, align 1, keep-with-next, root
   \   00000000                      REQUIRE `?<Segment init: NEAR_Z>`
   \                     ??m_axAlarmWindowControl:
   \   00000000                      DS8 288
     88          

   \                                 In  segment NEAR_F, align 1, keep-with-next, root
     89          __flash uint8_t CPss21::m_auiErrorLedOn[] =
   \                     ??m_auiErrorLedOn:
   \   00000000   010101010101       DC8 1, 1, 1, 1, 1, 1, 1, 1, 1, 0, 0, 0, 0, 0, 0, 1, 1, 0, 0, 0, 0, 0, 0
   \              010100010000
   \              000001000001
   \              0000000000  
   \   00000017   010100000000       DC8 1, 1, 0, 0, 0, 0, 0, 0, 1, 1, 0, 0, 0, 0, 0, 0, 1, 1, 1, 1, 1, 1, 1
   \              000001010000
   \              000000000101
   \              0101010101  
   \   0000002E   0101               DC8 1, 1
     90          {
     91              1, 1, 1, 1,    1, 1, 1, 1,
     92              1, 0, 0, 0,    0, 0, 0, 1,
     93              1, 0, 0, 0,    0, 0, 0, 1,
     94              1, 0, 0, 0,    0, 0, 0, 1,
     95              1, 0, 0, 0,    0, 0, 0, 1,
     96              1, 1, 1, 1,    1, 1, 1, 1,
     97          };
     98          
     99          ////-----------------------------------------------------------------------------------------------------
    100          //CPss21::CPss21(uint8_t uiType, CDriver* pxDriver)// :
    101          ////    m_uiType(uiType),
    102          ////    m_pxDriver(pxDriver)
    103          //{
    104          //
    105          //}
    106          //
    107          ////-----------------------------------------------------------------------------------------------------
    108          //CPss21::~CPss21()
    109          //{
    110          //
    111          //}
    112          
    113          //-----------------------------------------------------------------------------------------------------

   \                                 In  segment CODE, align 2, keep-with-next
    114          void CPss21::ModbusInit(void)
   \                     ??ModbusInit:
    115          {
   \   00000000   93BA               ST      -Y, R27
   \   00000002   93AA               ST      -Y, R26
    116              CPlatform::m_pxUart1 = &m_xUart1;
   \   00000004   ....               LDI     R16, LOW(??m_xUart1)
   \   00000006   ....               LDI     R17, (??m_xUart1) >> 8
   \   00000008   ....               LDI     R30, LOW(??m_pxUart1)
   \   0000000A   ....               LDI     R31, (??m_pxUart1) >> 8
   \   0000000C   8300               ST      Z, R16
   \   0000000E   8311               STD     Z+1, R17
    117              m_xModbusRtuOne.Init(CPlatform::m_pxUart1,
    118                                   static_cast<uint32_t>((F_CPU / ((CPss21::m_xModbusSettings.BaudRate) + 1)) / 16UL),
    119                                   'N',
    120                                   8,
    121                                   1,
    122                                   CPss21::m_auiReceiveMessageBuff,
    123                                   CPss21::m_auiReceiveMessageBuff,//reinterpret_cast<uint8_t*>(CPss21::m_aucRtuHoldingRegistersArray),//m_auiTransmitMessageBuff,//
    124                                   CPss21::m_aucRtuDiscreteDataArray,//CPss21::m_aucRtuCoilsArray,
    125                                   CPss21::m_aucRtuDiscreteDataArray,//CPss21::m_aucRtuDiscreteInputsArray,
    126                                   CPss21::m_aucRtuHoldingRegistersArray,
    127                                   CPss21::m_aucRtuInputRegistersArray,
    128                                   DISCRETE_DATA_ARRAY_LENGTH,
    129                                   DISCRETE_DATA_ARRAY_LENGTH,
    130                                   HOLDING_REGISTERS_ARRAY_LENGTH,
    131                                   INPUT_REGISTERS_ARRAY_LENGTH);
   \   00000010   E008               LDI     R16, 8
   \   00000012   E010               LDI     R17, 0
   \   00000014   ....               RCALL   ?Subroutine72
   \                     ??CrossCallReturnLabel_98:
   \   00000016   E800               LDI     R16, 128
   \   00000018   ....               RCALL   ?Subroutine72
   \                     ??CrossCallReturnLabel_99:
   \   0000001A   E708               LDI     R16, 120
   \   0000001C   ....               RCALL   ?Subroutine2
   \                     ??CrossCallReturnLabel_102:
   \   0000001E   ....               LDI     R16, LOW((??m_xDeviceConfiguration + 35))
   \   00000020   ....               LDI     R17, HIGH((??m_xDeviceConfiguration + 35))
   \   00000022   ....               RCALL   ?Subroutine72
   \                     ??CrossCallReturnLabel_100:
   \   00000024   ....               LDI     R16, LOW(??m_aucRtuHoldingRegistersArray)
   \   00000026   ....               LDI     R17, (??m_aucRtuHoldingRegistersArray) >> 8
   \   00000028   ....               RCALL   ?Subroutine72
   \                     ??CrossCallReturnLabel_101:
   \   0000002A   ....               LDI     R16, LOW(??m_aucRtuDiscreteDataArray)
   \   0000002C   ....               LDI     R17, (??m_aucRtuDiscreteDataArray) >> 8
   \   0000002E   ....               RCALL   ?Subroutine2
   \                     ??CrossCallReturnLabel_103:
   \   00000030   ....               LDI     R16, LOW(??m_auiReceiveMessageBuff)
   \   00000032   ....               LDI     R17, (??m_auiReceiveMessageBuff) >> 8
   \   00000034   ....               RCALL   ?Subroutine2
   \                     ??CrossCallReturnLabel_104:
   \   00000036   E001               LDI     R16, 1
   \   00000038   930A               ST      -Y, R16
   \   0000003A   E008               LDI     R16, 8
   \   0000003C   930A               ST      -Y, R16
   \   0000003E   E40E               LDI     R16, 78
   \   00000040   930A               ST      -Y, R16
   \   00000042   9140....           LDS     R20, (??m_xDeviceConfiguration + 21)
   \   00000046   E050               LDI     R21, 0
   \   00000048   5F4F               SUBI    R20, 255
   \   0000004A   4F5F               SBCI    R21, 255
   \   0000004C   2F65               MOV     R22, R21
   \   0000004E   0F66               LSL     R22
   \   00000050   0B66               SBC     R22, R22
   \   00000052   2F76               MOV     R23, R22
   \   00000054   E000               LDI     R16, 0
   \   00000056   E810               LDI     R17, 128
   \   00000058   E720               LDI     R18, 112
   \   0000005A   E030               LDI     R19, 0
   \   0000005C   ........           CALL    ?UL_DIVMOD_L03
   \   00000060   E044               LDI     R20, 4
   \   00000062   ........           CALL    ?UL_SHR_L03
   \   00000066   01A8               MOVW    R21:R20, R17:R16
   \   00000068   01B9               MOVW    R23:R22, R19:R18
   \   0000006A   ....               LDI     R18, LOW(??m_xUart1)
   \   0000006C   ....               LDI     R19, (??m_xUart1) >> 8
   \   0000006E   ....               LDI     R16, LOW(??m_xModbusRtuOne)
   \   00000070   ....               LDI     R17, (??m_xModbusRtuOne) >> 8
   \   00000072   ........           CALL    ??Init_1
    132              m_xModbusRtuOne.SlaveSet(CPss21::m_xModbusSettings.NetAddress);
   \   00000076   9120....           LDS     R18, (??m_xDeviceConfiguration + 20)
   \   0000007A   ....               LDI     R30, LOW(??m_xModbusRtuOne)
   \   0000007C   ....               LDI     R31, (??m_xModbusRtuOne) >> 8
   \   0000007E   8505               LDD     R16, Z+13
   \   00000080   8516               LDD     R17, Z+14
   \   00000082   ........           CALL    ??SlaveSet
    133              m_xModbusRtuOne.SetFsmState(CModbus::START_REQUEST);
   \   00000086   ....               LDI     R26, LOW((??m_xModbusRtuOne + 13))
   \   00000088   ....               LDI     R27, HIGH((??m_xModbusRtuOne + 13))
   \   0000008A   91ED               LD      R30, X+
   \   0000008C   91FC               LD      R31, X
   \   0000008E   E002               LDI     R16, 2
   \   00000090   8300               ST      Z, R16
    134          }
   \   00000092                      REQUIRE ?Subroutine71
   \   00000092                      ;               // Fall through to label ?Subroutine71

   \                                 In  segment CODE, align 2, keep-with-next
   \                     ?Subroutine71:
   \   00000000   91A9               LD      R26, Y+
   \   00000002   91B9               LD      R27, Y+
   \   00000004   9508               RET

   \                                 In  segment CODE, align 2, keep-with-next
   \                     ?Subroutine72:
   \   00000000   931A               ST      -Y, R17
   \   00000002   930A               ST      -Y, R16
   \   00000004   9508               RET

   \                                 In  segment CODE, align 2, keep-with-next
   \                     ?Subroutine2:
   \   00000000   931A               ST      -Y, R17
   \   00000002   930A               ST      -Y, R16
   \   00000004   ....               RJMP    ?Subroutine72
    135          
    136          //-----------------------------------------------------------------------------------------------------

   \                                 In  segment CODE, align 2, keep-with-next
    137          void CPss21::ModbusDefaultInit(void)
   \                     ??ModbusDefaultInit:
    138          {
    139              CPss21::m_xModbusSettings.NetAddress = 1;
   \   00000000   ....               LDI     R30, LOW(??m_xDeviceConfiguration)
   \   00000002   ....               LDI     R31, (??m_xDeviceConfiguration) >> 8
   \   00000004   E001               LDI     R16, 1
   \   00000006   8B04               STD     Z+20, R16
    140              // 9600 baud.
    141              CPss21::m_xModbusSettings.BaudRate = 47;
   \   00000008   E20F               LDI     R16, 47
   \   0000000A   8B05               STD     Z+21, R16
    142              // Äâŕ ńňîď áčňŕ.
    143              CPss21::m_xModbusSettings.LinkParam = 0x08;
   \   0000000C   E008               LDI     R16, 8
   \   0000000E   8B06               STD     Z+22, R16
    144          
    145              ModbusInit();
   \   00000010   ....               RJMP    ??ModbusInit
    146          }
    147          
    148          //-----------------------------------------------------------------------------------------------------

   \                                 In  segment CODE, align 2, keep-with-next
   \                     ?Subroutine75:
   \   00000000   E030               LDI     R19, 0
   \   00000002   9508               RET

   \                                 In  segment CODE, align 2, keep-with-next
    149          void CPss21::Init(void)
   \                     ??Init:
    150          {
    151              CLightBoard::Init(m_axAlarmWindowControl);
   \   00000000   ....               LDI     R16, LOW(??m_axAlarmWindowControl)
   \   00000002   ....               LDI     R17, (??m_axAlarmWindowControl) >> 8
   \   00000004   ........           CALL    ??Init_2
    152              m_uiCommonAlarmType = NORMAL;
   \   00000008   ....               RCALL   ?Subroutine65
   \                     ??CrossCallReturnLabel_70:
   \   0000000A   E000               LDI     R16, 0
   \   0000000C   AB07               STD     Z+55, R16
    153              m_uiCommonAlarmTypePrevious = NORMAL;
   \   0000000E   AF00               STD     Z+56, R16
    154              SetErrorCode(0);
   \   00000010   AB05               STD     Z+53, R16
    155              // Ńáđîńčě âńĺ îřčáęč.
    156              memset(CPss21::m_auiErrorAlarmDataArray, 0, HANDLED_ERROR_NUMBER);
   \   00000012   E042               LDI     R20, 2
   \   00000014   ....               RCALL   ?Subroutine4
   \                     ??CrossCallReturnLabel_155:
   \   00000016   ....               LDI     R16, LOW((??m_xDeviceConfigSearch + 57))
   \   00000018   ....               LDI     R17, HIGH((??m_xDeviceConfigSearch + 57))
   \   0000001A                      REQUIRE ?Subroutine83
   \   0000001A                      ;               // Fall through to label ?Subroutine83
    157          }

   \                                 In  segment CODE, align 2, keep-with-next
   \                     ?Subroutine83:
   \   00000000   ........           JMP     memset

   \                                 In  segment CODE, align 2, keep-with-next
   \                     ?Subroutine4:
   \   00000000   E050               LDI     R21, 0
   \   00000002                      REQUIRE ??Subroutine90_0
   \   00000002                      ;               // Fall through to label ??Subroutine90_0

   \                                 In  segment CODE, align 2, keep-with-next
   \                     ??Subroutine90_0:
   \   00000000   E020               LDI     R18, 0
   \   00000002   ....               RJMP    ?Subroutine75

   \                                 In  segment CODE, align 2, keep-with-next
   \                     ?Subroutine65:
   \   00000000   ....               LDI     R30, LOW(??m_xDeviceConfigSearch)
   \   00000002   ....               LDI     R31, (??m_xDeviceConfigSearch) >> 8
   \   00000004   9508               RET
    158          
    159          //-----------------------------------------------------------------------------------------------------

   \                                 In  segment CODE, align 2, keep-with-next
    160          void CPss21::AddressBusInit(void)
   \                     ??AddressBusInit:
    161          {
    162              CPlatform::SpiSlaveSelectAddress0SetPinOutput();
   \   00000000   9A8F               SBI     0x11, 0x07
    163              CPlatform::SpiSlaveSelectAddress1SetPinOutput();
   \   00000002   9A8E               SBI     0x11, 0x06
    164              CPlatform::SpiSlaveSelectAddress2SetPinOutput();
   \   00000004   9A8D               SBI     0x11, 0x05
    165              CPlatform::SpiSlaveSelectAddress3SetPinOutput();
   \   00000006   9A8C               SBI     0x11, 0x04
    166              CPlatform::SpiSlaveSelectEnableSetPinOutput();
   \   00000008   9A89               SBI     0x11, 0x01
    167              CPlatform::SpiSlaveSelectAddress0On();
   \   0000000A   9A97               SBI     0x12, 0x07
    168              CPlatform::SpiSlaveSelectAddress1On();
   \   0000000C   9A96               SBI     0x12, 0x06
    169              CPlatform::SpiSlaveSelectAddress2On();
   \   0000000E   9A95               SBI     0x12, 0x05
    170              CPlatform::SpiSlaveSelectAddress3On();
   \   00000010   9A94               SBI     0x12, 0x04
    171              CPlatform::SpiSlaveSelectEnableOff();
   \   00000012   9891               CBI     0x12, 0x01
    172          };
   \   00000014   9508               RET
   \   00000016                      REQUIRE _A_DDRD
   \   00000016                      REQUIRE _A_PORTD
    173          
    174          //-----------------------------------------------------------------------------------------------------

   \                                 In  segment CODE, align 2, keep-with-next
    175          void CPss21::ConnectDevice(uint8_t uiAddress)
   \                     ??ConnectDevice:
    176          {
    177              uiAddress &= 0x0F;
    178          
    179              if (uiAddress &  BIT(0))
   \   00000000   FB00               BST     R16, 0
   \   00000002   F416               BRTC    ??ConnectDevice_1
    180              {
    181                  CPlatform::SpiSlaveSelectAddress0Off();
   \   00000004   9897               CBI     0x12, 0x07
    182              }
   \   00000006   C001               RJMP    ??ConnectDevice_2
    183              else
    184              {
    185                  CPlatform::SpiSlaveSelectAddress0On();
   \                     ??ConnectDevice_1:
   \   00000008   9A97               SBI     0x12, 0x07
    186              }
    187              if (uiAddress &  BIT(1))
   \                     ??ConnectDevice_2:
   \   0000000A   FB01               BST     R16, 1
   \   0000000C   F416               BRTC    ??ConnectDevice_3
    188              {
    189                  CPlatform::SpiSlaveSelectAddress1Off();
   \   0000000E   9896               CBI     0x12, 0x06
    190              }
   \   00000010   C001               RJMP    ??ConnectDevice_4
    191              else
    192              {
    193                  CPlatform::SpiSlaveSelectAddress1On();
   \                     ??ConnectDevice_3:
   \   00000012   9A96               SBI     0x12, 0x06
    194              }
    195              if (uiAddress &  BIT(2))
   \                     ??ConnectDevice_4:
   \   00000014   FB02               BST     R16, 2
   \   00000016   F416               BRTC    ??ConnectDevice_5
    196              {
    197                  CPlatform::SpiSlaveSelectAddress2Off();
   \   00000018   9895               CBI     0x12, 0x05
    198              }
   \   0000001A   C001               RJMP    ??ConnectDevice_6
    199              else
    200              {
    201                  CPlatform::SpiSlaveSelectAddress2On();
   \                     ??ConnectDevice_5:
   \   0000001C   9A95               SBI     0x12, 0x05
    202              }
    203              if (uiAddress &  BIT(3))
   \                     ??ConnectDevice_6:
   \   0000001E   FB03               BST     R16, 3
   \   00000020   F416               BRTC    ??ConnectDevice_7
    204              {
    205                  CPlatform::SpiSlaveSelectAddress3Off();
   \   00000022   9894               CBI     0x12, 0x04
    206              }
   \   00000024   C001               RJMP    ??ConnectDevice_8
    207              else
    208              {
    209                  CPlatform::SpiSlaveSelectAddress3On();
   \                     ??ConnectDevice_7:
   \   00000026   9A94               SBI     0x12, 0x04
    210              }
    211          
    212              CPlatform::SpiSlaveSelectEnableOn();
   \                     ??ConnectDevice_8:
   \   00000028   9A91               SBI     0x12, 0x01
    213              CSpi::Enable();
   \   0000002A   ........           JMP     ??Enable
   \   0000002E                      REQUIRE _A_PORTD
    214          };
    215          
    216          //-----------------------------------------------------------------------------------------------------

   \                                 In  segment CODE, align 2, keep-with-next
    217          void CPss21::DisconnectDevice(void)
   \                     ??DisconnectDevice:
    218          {
    219              CSpi::Disable();
   \   00000000   ........           CALL    ??Disable
    220              CPlatform::SpiSlaveSelectEnableOff();
   \   00000004   9891               CBI     0x12, 0x01
    221              CPlatform::SpiSlaveSelectAddress0Off();
   \   00000006   9897               CBI     0x12, 0x07
    222              CPlatform::SpiSlaveSelectAddress1Off();
   \   00000008   9896               CBI     0x12, 0x06
    223              CPlatform::SpiSlaveSelectAddress2Off();
   \   0000000A   9895               CBI     0x12, 0x05
    224              CPlatform::SpiSlaveSelectAddress3Off();
   \   0000000C   9894               CBI     0x12, 0x04
    225          };
   \   0000000E   9508               RET
   \   00000010                      REQUIRE _A_PORTD
    226          
    227          //-----------------------------------------------------------------------------------------------------

   \                                 In  segment CODE, align 2, keep-with-next
   \                     ?Subroutine18:
   \   00000000   E022               LDI     R18, 2
   \   00000002                      REQUIRE ?Subroutine75
   \   00000002                      ;               // Fall through to label ?Subroutine75

   \                                 In  segment CODE, align 2, keep-with-next
    228          void CPss21::SearchModules(void)
   \                     ??SearchModules:
    229          {
   \   00000000   ........           CALL    ?PROLOGUE5_L09
   \   00000004                      REQUIRE ?Register_R4_is_cg_reg
    230              delay_ms(500);
   \   00000004   EF04               LDI     R16, 244
   \   00000006   E011               LDI     R17, 1
   \   00000008   ........           CALL    ??delay_ms
    231              CPlatform::WatchdogReset();
   \   0000000C   95A8               WDR
    232          
    233              memset(reinterpret_cast<uint8_t*>(&m_xDeviceConfigSearch),
    234                     0,
    235                     sizeof(struct TConfigDataPackOne));
   \   0000000E   E049               LDI     R20, 9
   \   00000010   ....               RCALL   ?Subroutine4
   \                     ??CrossCallReturnLabel_156:
   \   00000012   ....               LDI     R16, LOW(??m_xDeviceConfigSearch)
   \   00000014   ....               LDI     R17, (??m_xDeviceConfigSearch) >> 8
   \   00000016   ....               RCALL   ?Subroutine83
    236          
    237              // îďđîńčě číňĺđôĺéń SPI. ęŕęčĺ ěîäóëč ďđčńóňńňâóţň?
    238              for (uint8_t i = 0; i < SPI_MAX_BUS_ADDRESS; i++)
   \                     ??CrossCallReturnLabel_129:
   \   00000018   E080               LDI     R24, 0
   \   0000001A   E190               LDI     R25, 16
   \   0000001C   ....               LDI     R26, LOW(??m_xDeviceConfigSearch)
   \   0000001E   ....               LDI     R27, (??m_xDeviceConfigSearch) >> 8
    239              {
    240                  // ĺńëč ěîäóëü íĺ îňâĺňčë MODULE_REQUEST_QUANTITY đŕç,
    241                  // ňî ĺăî íĺň čëč îí íĺčńďđŕâĺí.
    242                  for (uint8_t j = 0; j < MODULE_REQUEST_QUANTITY; j++)
   \                     ??SearchModules_1:
   \   00000020   E005               LDI     R16, 5
   \   00000022   2E40               MOV     R4, R16
    243                  {
    244                      CPlatform::WatchdogReset();
   \                     ??SearchModules_2:
   \   00000024   95A8               WDR
    245                      delay_ms(5);
    246          
    247                      m_auiSpiTxBuffer[0] = GET_MODULE_TYPE_COMMAND;
    248                      ConnectDevice(i);
    249                      delay_us(500);
    250                      CSpi::Exchange(m_auiSpiRxBuffer,
    251                                     m_auiSpiTxBuffer,
    252                                     GET_MODULE_TYPE_REQUEST_LENGTH);
    253                      DisconnectDevice();
    254          
    255                      // ěîäóëü îňâĺ÷ŕĺň?
    256                      if (m_auiSpiRxBuffer[SPI_COMMAND_BYTE_OFFSET] ==
    257                              GET_MODULE_TYPE_COMMAND)
    258                      {
    259                          // îáěĺí äŕííűěč ďđîř¸ë áĺç îřčáîę?
    260                          if (iCrcSummOneByteCompare(&m_auiSpiRxBuffer[SPI_COMMAND_BYTE_OFFSET], 2))
    261                          {
    262                              // ńîőđŕíčě ňčď ěîäóë˙ â ěŕńńčâĺ äë˙ óďîđ˙äî÷čâŕíč˙ ńëĺäîâŕíč˙ ěîäóëĺé ďđč ďîčńęĺ íŕ SPI.
    263                              m_xDeviceConfigSearch.axModulesContext[m_xDeviceConfigSearch.uiModulesQuantity].uiType =
    264                                  m_auiSpiRxBuffer[MODULE_TYPE_OFFSET];
    265                              // ńîőđŕíčě ŕäđĺń ěîäóë˙ â ěŕńńčâĺ äë˙ óďîđ˙äî÷čâŕíč˙ ńëĺäîâŕíč˙ ěîäóëĺé ďđč ďîčńęĺ íŕ SPI.
    266                              m_xDeviceConfigSearch.axModulesContext[m_xDeviceConfigSearch.uiModulesQuantity].uiAddress = i;
    267                              // ěîäóëü ďđčńóňńňâóĺň. óâĺëč÷čě çíŕ÷ĺíčĺ ďĺđĺěĺííîé -
    268                              // ôŕęňč÷ĺńęîĺ ęîëč÷ĺńňâî ěîäóëĺé â ńčńňĺěĺ.
    269                              (m_xDeviceConfigSearch.uiModulesQuantity)++;
    270          
    271                              if (m_xDeviceConfigSearch.uiModulesQuantity >=
    272                                      INTERNAL_MODULE_QUANTITY)
    273                              {
    274                                  return;
    275                              }
    276                              // ďĺđĺéä¸ě ę îďđîńó ńëĺäóţůĺăî ŕäđĺńŕ.
    277                              break;
    278                          }
    279                      }
    280                  }
    281              }
   \   00000026   E005               LDI     R16, 5
   \   00000028   E010               LDI     R17, 0
   \   0000002A   ........           CALL    ??delay_ms
   \   0000002E   E901               LDI     R16, 145
   \   00000030   9300....           STS     ??m_auiSpiTxBuffer, R16
   \   00000034   2F08               MOV     R16, R24
   \   00000036   ....               RCALL   ?Subroutine29
   \                     ??CrossCallReturnLabel_21:
   \   00000038   E044               LDI     R20, 4
   \   0000003A   ....               RCALL   ?Subroutine19
   \                     ??CrossCallReturnLabel_11:
   \   0000003C   9100....           LDS     R16, (??m_auiSpiRxBuffer + 1)
   \   00000040   3901               CPI     R16, 145
   \   00000042   F4F1               BRNE    ??SearchModules_3
   \   00000044   ....               RCALL   ?Subroutine18
   \                     ??CrossCallReturnLabel_153:
   \   00000046   ....               LDI     R16, LOW((??m_auiSpiRxBuffer + 1))
   \   00000048   ....               LDI     R17, HIGH((??m_auiSpiRxBuffer + 1))
   \   0000004A   ........           CALL    ??iCrcSummOneByteCompare
   \   0000004E   2B01               OR      R16, R17
   \   00000050   F0B9               BREQ    ??SearchModules_3
   \   00000052   9100....           LDS     R16, (??m_auiSpiRxBuffer + 2)
   \   00000056   9110....           LDS     R17, ??m_xDeviceConfigSearch
   \   0000005A   E022               LDI     R18, 2
   \   0000005C   9F12               MUL     R17, R18
   \   0000005E   01FD               MOVW    R31:R30, R27:R26
   \   00000060   0DE0               ADD     R30, R0
   \   00000062   1DF1               ADC     R31, R1
   \   00000064   8301               STD     Z+1, R16
   \   00000066   9100....           LDS     R16, ??m_xDeviceConfigSearch
   \   0000006A   9F02               MUL     R16, R18
   \   0000006C   01FD               MOVW    R31:R30, R27:R26
   \   0000006E   0DE0               ADD     R30, R0
   \   00000070   1DF1               ADC     R31, R1
   \   00000072   8382               STD     Z+2, R24
   \   00000074   910C               LD      R16, X
   \   00000076   9503               INC     R16
   \   00000078   930C               ST      X, R16
   \   0000007A   3003               CPI     R16, 3
   \   0000007C   F018               BRCS    ??SearchModules_4
   \   0000007E   C018               RJMP    ??SearchModules_5
   \                     ??SearchModules_3:
   \   00000080   944A               DEC     R4
   \   00000082   F681               BRNE    ??SearchModules_2
   \                     ??SearchModules_4:
   \   00000084   9583               INC     R24
   \   00000086   959A               DEC     R25
   \   00000088   F659               BRNE    ??SearchModules_1
    282          
    283              if(m_xDeviceConfiguration.FixConfig)
   \   0000008A   9100....           LDS     R16, (??m_xDeviceConfiguration + 3)
   \   0000008E   FF00               SBRS    R16, 0
   \   00000090   C00F               RJMP    ??SearchModules_5
    284              {
    285                  // Ďđĺäűäóůŕ˙ ńîőđŕí¸ííŕ˙ č ňĺęóůŕ˙ ęîíôčăóđŕöčč íĺ ńîâďŕäŕţň?
    286                  if((m_xDeviceConfiguration.ICount != m_xDeviceConfigSearch.uiDiscreteInputQuantity) ||
    287                          (m_xDeviceConfiguration.OCount != m_xDeviceConfigSearch.uiDiscreteOutputQuantity))
   \   00000092   9100....           LDS     R16, ??m_xDeviceConfiguration
   \   00000096   9110....           LDS     R17, (??m_xDeviceConfigSearch + 8)
   \   0000009A   1701               CP      R16, R17
   \   0000009C   F431               BRNE    ??SearchModules_6
   \   0000009E   9100....           LDS     R16, (??m_xDeviceConfiguration + 1)
   \   000000A2   9110....           LDS     R17, (??m_xDeviceConfigSearch + 7)
   \   000000A6   1701               CP      R16, R17
   \   000000A8   F019               BREQ    ??SearchModules_5
    288                  {
    289                      SetErrorCode(CFG_ERROR);
   \                     ??SearchModules_6:
   \   000000AA   E003               LDI     R16, 3
   \   000000AC   9300....           STS     (??m_xDeviceConfigSearch + 53), R16
    290                  }
    291              }
    292          };
   \                     ??SearchModules_5:
   \   000000B0   E0E5               LDI     R30, 5
   \   000000B2   ........           JMP     ?EPILOGUE_B5_L09

   \                                 In  segment CODE, align 2, keep-with-next
   \                     ?Subroutine29:
   \   00000000   ....               RCALL   ??ConnectDevice
   \   00000002   E60A               LDI     R16, 106
   \   00000004   E013               LDI     R17, 3
   \   00000006   5001               SUBI    R16, 1
   \   00000008   4010               SBCI    R17, 0
   \   0000000A   F7E9               BRNE    $-4
   \   0000000C   C000               RJMP    $+2
   \   0000000E   0000               NOP
   \   00000010   9508               RET

   \                                 In  segment CODE, align 2, keep-with-next
   \                     ?Subroutine19:
   \   00000000   E050               LDI     R21, 0
   \   00000002   ....               LDI     R18, LOW(??m_auiSpiTxBuffer)
   \   00000004   ....               LDI     R19, (??m_auiSpiTxBuffer) >> 8
   \   00000006   ....               LDI     R16, LOW(??m_auiSpiRxBuffer)
   \   00000008   ....               LDI     R17, (??m_auiSpiRxBuffer) >> 8
   \   0000000A   ........           CALL    ??Exchange
   \   0000000E   ....               RJMP    ??DisconnectDevice
    293          
    294          //-----------------------------------------------------------------------------------------------------

   \                                 In  segment CODE, align 2, keep-with-next
    295          void CPss21::InitAllocationContext(TMemoryAllocationConext &xMemoryAllocationConext)
   \                     ??InitAllocationContext:
    296          {
    297              // Ďîäăîňîâčě ę îňďđŕâęĺ ňĺęóůčĺ ŕäđĺńŕ îáúĺęňîâ ńčńňĺěű čńďîëüçóĺěűő äđŕéâĺđŕěč óńňđîéńňâ.
    298          
    299              xMemoryAllocationConext.puiRxBuffer = m_auiSpiRxBuffer;
   \   00000000   ....               LDI     R18, LOW(??m_auiSpiRxBuffer)
   \   00000002   ....               LDI     R19, (??m_auiSpiRxBuffer) >> 8
   \   00000004   01F8               MOVW    R31:R30, R17:R16
   \   00000006   8321               STD     Z+1, R18
   \   00000008   8332               STD     Z+2, R19
    300              xMemoryAllocationConext.puiTxBuffer = m_auiSpiTxBuffer;
   \   0000000A   ....               LDI     R18, LOW(??m_auiSpiTxBuffer)
   \   0000000C   ....               LDI     R19, (??m_auiSpiTxBuffer) >> 8
   \   0000000E   8323               STD     Z+3, R18
   \   00000010   8334               STD     Z+4, R19
    301              xMemoryAllocationConext.puiErrorCode = &m_uiErrorCode;
   \   00000012   ....               LDI     R18, LOW((??m_xDeviceConfigSearch + 53))
   \   00000014   ....               LDI     R19, HIGH((??m_xDeviceConfigSearch + 53))
   \   00000016   8325               STD     Z+5, R18
   \   00000018   8336               STD     Z+6, R19
    302          
    303              // Îáíóëčě îáůčé îáú¸ě âűäĺëĺííîé ďŕě˙ňč.
    304              xMemoryAllocationConext.uiUsedDiscreteInputs = 0;
   \   0000001A   E020               LDI     R18, 0
   \   0000001C   8721               STD     Z+9, R18
    305              // Ďîäęëţ÷čě áóôĺđ äë˙ őđŕíĺíč˙ ńîńňî˙íčé äčńęđĺňíűő âőîäîâ.
    306              xMemoryAllocationConext.puiDiscreteInputs =
    307                  &m_aucRtuDiscreteDataArray[DISCRETE_INPUTS_BIT_ARRAY_OFFSET];
   \   0000001E   ....               LDI     R18, LOW((??m_aucRtuDiscreteDataArray + 16))
   \   00000020   ....               LDI     R19, HIGH((??m_aucRtuDiscreteDataArray + 16))
   \   00000022   8327               STD     Z+7, R18
   \   00000024   8730               STD     Z+8, R19
    308          
    309              // Îáíóëčě îáůčé îáú¸ě âűäĺëĺííîé ďŕě˙ňč.
    310              xMemoryAllocationConext.uiUsedDiscreteOutputState = 0;
   \   00000026   E020               LDI     R18, 0
   \   00000028   8724               STD     Z+12, R18
    311              // Ďîäęëţ÷čě áóôĺđ äë˙ őđŕíĺíč˙ ńîńňî˙íčé äčńęđĺňíűő âűőîäîâ.
    312              xMemoryAllocationConext.puiDiscreteOutputState =
    313                  &m_aucRtuDiscreteDataArray[DISCRETE_OUTPUT_BIT_ARRAY_OFFSET];
   \   0000002A   ....               LDI     R18, LOW((??m_aucRtuDiscreteDataArray + 112))
   \   0000002C   ....               LDI     R19, HIGH((??m_aucRtuDiscreteDataArray + 112))
   \   0000002E   8722               STD     Z+10, R18
   \   00000030   8733               STD     Z+11, R19
    314          
    315              // Îáíóëčě îáůčé îáú¸ě âűäĺëĺííîé ďŕě˙ňč.
    316              xMemoryAllocationConext.uiUsedDiscreteOutputs = 0;
   \   00000032   E020               LDI     R18, 0
   \   00000034   8727               STD     Z+15, R18
    317              // Ďîäęëţ÷čě áóôĺđ äë˙ óďđŕâëĺíč˙ äčńęđĺňíűěč âűőîäîâ.
    318              xMemoryAllocationConext.pxDiscreteOutputControl = m_axDiscreteOutputControl;
   \   00000036   ....               LDI     R18, LOW((??m_xDeviceConfigSearch + 28))
   \   00000038   ....               LDI     R19, HIGH((??m_xDeviceConfigSearch + 28))
   \   0000003A   8725               STD     Z+13, R18
   \   0000003C   8736               STD     Z+14, R19
    319          
    320              // Îáíóëčě îáůčé îáú¸ě âűäĺëĺííîé ďŕě˙ňč.
    321              xMemoryAllocationConext.uiUsedDiscreteOutputDataBase = 0;
   \   0000003E   E020               LDI     R18, 0
   \   00000040   8B22               STD     Z+18, R18
    322              // Ďîäęëţ÷čě áóôĺđ ń áŕçîé äŕííűő ěîäóëĺé äčńęđĺňíűő âűőîäîâ.
    323              xMemoryAllocationConext.pxDiscreteOutputDataBase = &m_xDiscreteOutputDataBase;
   \   00000042   ....               LDI     R18, LOW((??m_xDeviceConfigSearch + 167))
   \   00000044   ....               LDI     R19, HIGH((??m_xDeviceConfigSearch + 167))
   \   00000046   8B20               STD     Z+16, R18
   \   00000048   8B31               STD     Z+17, R19
    324          
    325              // Îáíóëčě îáůčé îáú¸ě âűäĺëĺííîé ďŕě˙ňč.
    326              xMemoryAllocationConext.uiUsedErrorAlarmDataArray = 0;
   \   0000004A   E020               LDI     R18, 0
   \   0000004C   8B25               STD     Z+21, R18
    327              // Ďîäęëţ÷čě áóôĺđ äë˙ őđŕíĺíč˙ ńîńňî˙íčé îřčáîę.
    328              xMemoryAllocationConext.puiErrorAlarmDataArray = m_auiErrorAlarmDataArray;
   \   0000004E   ....               LDI     R18, LOW((??m_xDeviceConfigSearch + 57))
   \   00000050   ....               LDI     R19, HIGH((??m_xDeviceConfigSearch + 57))
   \   00000052   8B23               STD     Z+19, R18
   \   00000054   8B34               STD     Z+20, R19
    329          };
   \   00000056   9508               RET
    330          
    331          //-----------------------------------------------------------------------------------------------------

   \                                 In  segment CODE, align 2, keep-with-next
    332          void CPss21::CreateDevices(void)
   \                     ??CreateDevices:
    333          {
   \   00000000   ....               RCALL   ?Subroutine35
   \                     ??CrossCallReturnLabel_32:
   \   00000002   9766               SBIW    R29:R28, 22
    334              TMemoryAllocationConext xMemoryAllocationConext;
    335              InitAllocationContext(xMemoryAllocationConext);
   \   00000004   018E               MOVW    R17:R16, R29:R28
   \   00000006   ....               RCALL   ??InitAllocationContext
    336          
    337              for (uint8_t i = 0;
   \   00000008   E080               LDI     R24, 0
   \   0000000A   C007               RJMP    ??CreateDevices_1
    338                      i < (m_xDeviceConfigSearch.uiModulesQuantity);
    339                      i++)
    340              {
    341                  CPlatform::WatchdogReset();
    342          
    343                  uint8_t uiType = m_xDeviceConfigSearch.axModulesContext[i].uiType;
    344                  switch (uiType)
    345                  {
    346                  case MODULE_TYPE_MVSN:
    347          //        case MODULE_TYPE_MVDI:
    348          //        case MODULE_TYPE_MVDS9:
    349          //            m_apxDevices[i] = new CMvsn21;
    350          //            m_apxDevices[i] -> m_pxDriver = new CMvsn21Driver(uiType);
    351                      m_apxDrivers[i] = new CMvsn21Driver(uiType);
    352                      xMemoryAllocationConext.uiAddress = m_xDeviceConfigSearch.axModulesContext[i].uiAddress;
    353          //            m_apxDevices[i] -> m_pxDriver -> Allocate(xMemoryAllocationConext);
    354                      m_apxDrivers[i] -> Allocate(xMemoryAllocationConext);
    355                      m_xDeviceConfigSearch.uiDiscreteInputQuantity += 1;
    356                      break;
    357          
    358                  case MODULE_TYPE_MVDO5:
    359                      break;
    360          
    361                  case MODULE_TYPE_MR53:
    362                  case MODULE_TYPE_MR54:
    363          //            m_apxDevices[i] = new CModuleMrXX;
    364          //            m_apxDevices[i] -> m_pxDriver = new CModuleMrXXDriver(uiType);
    365                      m_apxDrivers[i] = new CModuleMrXXDriver(uiType);
   \                     ??CreateDevices_2:
   \   0000000C   ........           CALL    `??new CModuleMrXXDriver`
   \   00000010   ....               RCALL   ?Subroutine28
    366                      xMemoryAllocationConext.uiAddress = m_xDeviceConfigSearch.axModulesContext[i].uiAddress;
    367          //            m_apxDevices[i] -> m_pxDriver -> Allocate(xMemoryAllocationConext);
    368                      m_apxDrivers[i] -> Allocate(xMemoryAllocationConext);
    369                      m_xDeviceConfigSearch.uiDiscreteOutputQuantity += 1;
   \                     ??CrossCallReturnLabel_20:
   \   00000012   8107               LDD     R16, Z+7
   \   00000014   9503               INC     R16
   \   00000016   8307               STD     Z+7, R16
    370                      break;
   \                     ??CreateDevices_3:
   \   00000018   9583               INC     R24
   \                     ??CreateDevices_1:
   \   0000001A   9100....           LDS     R16, ??m_xDeviceConfigSearch
   \   0000001E   1780               CP      R24, R16
   \   00000020   F4B0               BRCC    ??CreateDevices_4
   \   00000022   95A8               WDR
   \   00000024   E002               LDI     R16, 2
   \   00000026   9F80               MUL     R24, R16
   \   00000028   ....               RCALL   ?Subroutine33
   \                     ??CrossCallReturnLabel_30:
   \   0000002A   01FD               MOVW    R31:R30, R27:R26
   \   0000002C   8101               LDD     R16, Z+1
   \   0000002E   2F10               MOV     R17, R16
   \   00000030   951A               DEC     R17
   \   00000032   F029               BREQ    ??CreateDevices_5
   \   00000034   5012               SUBI    R17, 2
   \   00000036   F351               BREQ    ??CreateDevices_2
   \   00000038   951A               DEC     R17
   \   0000003A   F341               BREQ    ??CreateDevices_2
   \   0000003C   CFED               RJMP    ??CreateDevices_3
   \                     ??CreateDevices_5:
   \   0000003E   E001               LDI     R16, 1
   \   00000040   ........           CALL    `??new CMvsn21Driver`
   \   00000044   ....               RCALL   ?Subroutine28
   \                     ??CrossCallReturnLabel_19:
   \   00000046   8500               LDD     R16, Z+8
   \   00000048   9503               INC     R16
   \   0000004A   8700               STD     Z+8, R16
   \   0000004C   CFE5               RJMP    ??CreateDevices_3
    371          
    372                  case MODULE_TYPE_MVI:
    373                      break;
    374          
    375                  default:
    376                      break;
    377                  }
    378              }
    379          };
   \                     ??CreateDevices_4:
   \   0000004E   9666               ADIW    R29:R28, 22
   \   00000050   ....               RJMP    ?Subroutine84

   \                                 In  segment CODE, align 2, keep-with-next
   \                     ?Subroutine33:
   \   00000000   ....               LDI     R26, LOW(??m_xDeviceConfigSearch)
   \   00000002   ....               LDI     R27, (??m_xDeviceConfigSearch) >> 8
   \   00000004   0DA0               ADD     R26, R0
   \   00000006   1DB1               ADC     R27, R1
   \   00000008   9508               RET

   \                                 In  segment CODE, align 2, keep-with-next
   \                     ?Subroutine84:
   \   00000000   E0E4               LDI     R30, 4
   \   00000002   ........           JMP     ?EPILOGUE_B4_L09

   \                                 In  segment CODE, align 2, keep-with-next
   \                     ?Subroutine35:
   \   00000000   ........           JMP     ?PROLOGUE4_L09

   \                                 In  segment CODE, align 2, keep-with-next
   \                     ?Subroutine28:
   \   00000000   2F40               MOV     R20, R16
   \   00000002   01FD               MOVW    R31:R30, R27:R26
   \   00000004   8B02               STD     Z+18, R16
   \   00000006   8B13               STD     Z+19, R17
   \   00000008   8102               LDD     R16, Z+2
   \   0000000A   8308               ST      Y, R16
   \   0000000C   019E               MOVW    R19:R18, R29:R28
   \   0000000E   2F04               MOV     R16, R20
   \   00000010   2FE4               MOV     R30, R20
   \   00000012   2FF1               MOV     R31, R17
   \   00000014   8541               LDD     R20, Z+9
   \   00000016   85F2               LDD     R31, Z+10
   \   00000018   2FE4               MOV     R30, R20
   \   0000001A   9145               LPM     R20, Z+
   \   0000001C   91F4               LPM     R31, Z
   \   0000001E   2FE4               MOV     R30, R20
   \   00000020   9509               ICALL
   \   00000022                      REQUIRE ?Subroutine65
   \   00000022                      ;               // Fall through to label ?Subroutine65
    380          
    381          //-----------------------------------------------------------------------------------------------------

   \                                 In  segment CODE, align 2, keep-with-next
    382          void CPss21::DestroyDevices(uint8_t uiLength)
   \                     ??DestroyDevices:
    383          {
    384              for (uint16_t i = 0; i < uiLength; i++)
   \   00000000   E0E0               LDI     R30, 0
   \   00000002   E0F0               LDI     R31, 0
   \   00000004   E010               LDI     R17, 0
   \   00000006   C001               RJMP    ??DestroyDevices_1
   \                     ??DestroyDevices_2:
   \   00000008   9631               ADIW    R31:R30, 1
   \                     ??DestroyDevices_1:
   \   0000000A   17E0               CP      R30, R16
   \   0000000C   07F1               CPC     R31, R17
   \   0000000E   F3E0               BRCS    ??DestroyDevices_2
    385              {
    386          //        delete m_apxDevices[i];
    387          //        delete m_apxDrivers[i];
    388              }
    389          };
   \   00000010   9508               RET
    390          
    391          //-----------------------------------------------------------------------------------------------------

   \                                 In  segment CODE, align 2, keep-with-next
    392          uint16_t CPss21::ReportType(uint8_t *puiDestination, uint16_t uiLength)
   \                     ??ReportType:
    393          {
    394              memset(m_auiSpiTxBuffer, 0, 6);
   \   00000000   E046               LDI     R20, 6
   \   00000002   ....               RCALL   ?Subroutine4
   \                     ??CrossCallReturnLabel_157:
   \   00000004   ....               LDI     R16, LOW(??m_auiSpiTxBuffer)
   \   00000006   ....               LDI     R17, (??m_auiSpiTxBuffer) >> 8
   \   00000008   ....               RCALL   ?Subroutine83
    395              uint8_t uiLengthLocal = 0;
    396              m_auiSpiTxBuffer[uiLengthLocal++] = GET_MODULE_TYPE_COMMAND;
   \                     ??CrossCallReturnLabel_128:
   \   0000000A   ....               LDI     R30, LOW(??m_auiSpiTxBuffer)
   \   0000000C   ....               LDI     R31, (??m_auiSpiTxBuffer) >> 8
   \   0000000E   E901               LDI     R16, 145
   \   00000010   8300               ST      Z, R16
    397              m_auiSpiTxBuffer[uiLengthLocal++] = 0;
   \   00000012   E000               LDI     R16, 0
   \   00000014   8301               STD     Z+1, R16
    398              m_auiSpiTxBuffer[uiLengthLocal++] = 0;
   \   00000016   8302               STD     Z+2, R16
    399              m_auiSpiTxBuffer[uiLengthLocal++] = 0;
   \   00000018   8303               STD     Z+3, R16
    400              m_auiSpiTxBuffer[uiLengthLocal++] = 0;
   \   0000001A   8304               STD     Z+4, R16
    401          
    402              ConnectDevice(0);
   \   0000001C   ....               RCALL   ?Subroutine29
    403              delay_us(500);
    404              CSpi::Exchange(m_auiSpiRxBuffer,
    405                             m_auiSpiTxBuffer,
    406                             uiLengthLocal);
   \                     ??CrossCallReturnLabel_22:
   \   0000001E   E045               LDI     R20, 5
   \   00000020   ....               RCALL   ?Subroutine19
    407              DisconnectDevice();
    408          
    409              return 1;
   \                     ??CrossCallReturnLabel_10:
   \   00000022   E001               LDI     R16, 1
   \   00000024   E010               LDI     R17, 0
   \   00000026   9508               RET
    410          }
    411          
    412          //-----------------------------------------------------------------------------------------------------

   \                                 In  segment CODE, align 2, keep-with-next
    413          void CPss21::SetBytesFromBits(uint8_t *uiDestination,
   \                     ??SetBytesFromBits:
    414                                        uint8_t *uiSourse,
    415                                        uint16_t uiLength)
    416          {
   \   00000000   ....               RCALL   ?Subroutine35
   \                     ??CrossCallReturnLabel_33:
   \   00000002   01B8               MOVW    R23:R22, R17:R16
   \   00000004   011A               MOVW    R3:R2, R21:R20
    417              int16_t shift = 0;
   \   00000006   E0A0               LDI     R26, 0
   \   00000008   E0B0               LDI     R27, 0
    418          
    419              for (int16_t i = 0; i < uiLength; i++)
   \   0000000A   ....               RCALL   ?Subroutine32
   \                     ??CrossCallReturnLabel_26:
   \   0000000C   C010               RJMP    ??SetBytesFromBits_1
    420              {
    421                  uiDestination[i] = uiSourse[(i) / 8] & (1 << shift) ? 1 : 0;
   \                     ??SetBytesFromBits_2:
   \   0000000E   E000               LDI     R16, 0
   \                     ??SetBytesFromBits_3:
   \   00000010   01FB               MOVW    R31:R30, R23:R22
   \   00000012   0FE8               ADD     R30, R24
   \   00000014   1FF9               ADC     R31, R25
   \   00000016   8300               ST      Z, R16
    422                  /* gcc doesn't like: shift = (++shift) % 8; */
    423                  shift++;
    424                  shift %= 8;
   \   00000018   9611               ADIW    R27:R26, 1
   \   0000001A   E048               LDI     R20, 8
   \   0000001C   E050               LDI     R21, 0
   \   0000001E   018D               MOVW    R17:R16, R27:R26
   \   00000020   ........           CALL    ?SS_DIVMOD_L02
   \   00000024   E043               LDI     R20, 3
   \   00000026   ....               RCALL   ?Subroutine62
   \                     ??CrossCallReturnLabel_176:
   \   00000028   1BA0               SUB     R26, R16
   \   0000002A   0BB1               SBC     R27, R17
   \   0000002C   9601               ADIW    R25:R24, 1
   \                     ??SetBytesFromBits_1:
   \   0000002E   1582               CP      R24, R2
   \   00000030   0593               CPC     R25, R3
   \   00000032   F468               BRCC    ??SetBytesFromBits_4
   \   00000034   E048               LDI     R20, 8
   \   00000036   E050               LDI     R21, 0
   \   00000038   018C               MOVW    R17:R16, R25:R24
   \   0000003A   ........           CALL    ?SS_DIVMOD_L02
   \   0000003E   01F9               MOVW    R31:R30, R19:R18
   \   00000040   ....               RCALL   ?Subroutine69
    425              }
   \                     ??CrossCallReturnLabel_189:
   \   00000042   8150               LD      R21, Z
   \   00000044   2F4A               MOV     R20, R26
   \   00000046   ....               RCALL   ??Subroutine93_0
   \                     ??CrossCallReturnLabel_173:
   \   00000048   F311               BREQ    ??SetBytesFromBits_2
   \   0000004A   E001               LDI     R16, 1
   \   0000004C   CFE1               RJMP    ??SetBytesFromBits_3
    426          }
   \                     ??SetBytesFromBits_4:
   \   0000004E   ....               RJMP    ?Subroutine84

   \                                 In  segment CODE, align 2, keep-with-next
   \                     ?Subroutine32:
   \   00000000   E080               LDI     R24, 0
   \   00000002   E090               LDI     R25, 0
   \   00000004   9508               RET

   \                                 In  segment CODE, align 2, keep-with-next
   \                     ?Subroutine62:
   \   00000000   ........           JMP     ?S_SHL_L02

   \                                 In  segment CODE, align 2, keep-with-next
   \                     ??Subroutine93_0:
   \   00000000   E001               LDI     R16, 1
   \   00000002   E010               LDI     R17, 0
   \   00000004   ....               RCALL   ?Subroutine62
   \                     ??CrossCallReturnLabel_178:
   \   00000006   2350               AND     R21, R16
   \   00000008   9508               RET

   \                                 In  segment CODE, align 2, keep-with-next
   \                     ?Subroutine69:
   \   00000000   0FE0               ADD     R30, R16
   \   00000002   1FF1               ADC     R31, R17
   \   00000004   9508               RET
    427          
    428          //-----------------------------------------------------------------------------------------------------

   \                                 In  segment CODE, align 2, keep-with-next
    429          void CPss21::ModbusDeviceControl(uint8_t* puiData, uint16_t uiLength, uint16_t uiAddress)
   \                     ??ModbusDeviceControl:
    430          {
   \   00000000   01BA               MOVW    R23:R22, R21:R20
    431              // Ęîěŕíäŕ - "Ęâčňčđîâŕíčĺ"?
    432              if (uiAddress == MODBUS_RECEIPT_ADDRESS)
   \   00000002   2B47               OR      R20, R23
   \   00000004   F441               BRNE    ??ModbusDeviceControl_2
    433              {
    434                  if (*puiData)
   \   00000006   01F8               MOVW    R31:R30, R17:R16
   \   00000008   8100               LD      R16, Z
   \   0000000A   2300               TST     R16
   \   0000000C   F101               BREQ    ??ModbusDeviceControl_3
    435                  {
    436                      CPss21::SetModbusReceipt(1);
   \   0000000E   ....               RCALL   ?Subroutine24
   \                     ??CrossCallReturnLabel_112:
   \   00000010   AB01               STD     Z+49, R16
    437                      SetDiscreteSignalsReceipt(1);
   \   00000012   AB03               STD     Z+51, R16
    438                      SendToDevicesModbusReceipt();
   \   00000014   ....               RJMP    ??SendToDevicesModbusReceipt
    439                  }
    440              }
    441              // Ęîěŕíäŕ - "Ńáđîń"?
    442              else if (uiAddress == MODBUS_RESET_ADDRESS)
   \                     ??ModbusDeviceControl_2:
   \   00000016   3061               CPI     R22, 1
   \   00000018   E040               LDI     R20, 0
   \   0000001A   0754               CPC     R21, R20
   \   0000001C   F441               BRNE    ??ModbusDeviceControl_4
    443              {
    444                  if (*puiData)
   \   0000001E   01F8               MOVW    R31:R30, R17:R16
   \   00000020   8100               LD      R16, Z
   \   00000022   2300               TST     R16
   \   00000024   F0A1               BREQ    ??ModbusDeviceControl_3
    445                  {
    446                      CPss21::SetModbusReset(1);
   \   00000026   ....               RCALL   ?Subroutine24
   \                     ??CrossCallReturnLabel_113:
   \   00000028   AB02               STD     Z+50, R16
    447                      SetDiscreteSignalsReset(1);
   \   0000002A   AB04               STD     Z+52, R16
    448                      SendToDevicesModbusReset();
   \   0000002C   ....               RJMP    ??SendToDevicesModbusReset
    449                  }
    450              }
    451              // Čçěĺíĺíčĺ ńîńňî˙íč˙ îęîí ńčăíŕëčçŕöčč?
    452              else if ((uiAddress >= ALARM_WINDOWS_BIT_ARRAY_OFFSET) &&
    453                       (uiAddress < (ALARM_WINDOWS_BIT_ARRAY_OFFSET +
    454                                     ALARM_WINDOWS_ARRAY_LENGTH)))
   \                     ??ModbusDeviceControl_4:
   \   0000002E   2FE6               MOV     R30, R22
   \   00000030   2FF5               MOV     R31, R21
   \   00000032   54E0               SUBI    R30, 64
   \   00000034   40F0               SBCI    R31, 0
   \   00000036   97F0               SBIW    R31:R30, 48
   \   00000038   F450               BRCC    ??ModbusDeviceControl_3
    455              {
    456                  SetBytesFromBits(&m_aucRtuDiscreteDataArray[uiAddress],
    457                                   puiData,
    458                                   uiLength);
   \   0000003A   01A9               MOVW    R21:R20, R19:R18
   \   0000003C   0198               MOVW    R19:R18, R17:R16
   \   0000003E   ....               LDI     R16, LOW(??m_aucRtuDiscreteDataArray)
   \   00000040   ....               LDI     R17, (??m_aucRtuDiscreteDataArray) >> 8
   \   00000042   0F06               ADD     R16, R22
   \   00000044   1F17               ADC     R17, R23
   \   00000046   ....               RCALL   ??SetBytesFromBits
    459                  // Ńîîáůčě ŕâňîěŕňó î ńîńňî˙âřĺěń˙ ńĺŕíńĺ ńâ˙çč.
    460                  m_xModbusRtuLinkControl.SetFsmEvent(CModbusRtuLinkControl::LINK_SESSION_HAPPENED_FSM_EVENT);
   \   00000048   E001               LDI     R16, 1
   \   0000004A   9300....           STS     (??m_xDeviceConfigSearch + 13), R16
    461              }
    462          ////    // Čçěĺíĺíčĺ ńîńňî˙íč˙ îęîí ńčăíŕëčçŕöčč?
    463          //    else if ((uiAddress >= DISCRETE_INPUTS_BIT_ARRAY_OFFSET) &&//debag//
    464          //             (uiAddress < (ALARM_WINDOWS_BIT_ARRAY_OFFSET +
    465          //                           ALARM_WINDOWS_ARRAY_LENGTH)))
    466          //    {
    467          //        SetBytesFromBits(&m_aucRtuDiscreteDataArray[uiAddress],
    468          //                         puiData,
    469          //                         uiLength);
    470          //        // Ńîîáůčě ŕâňîěŕňó î ńîńňî˙âřĺěń˙ ńĺŕíńĺ ńâ˙çč.
    471          //        m_xModbusRtuLinkControl.SetFsmEvent(CModbusRtuLinkControl::LINK_SESSION_HAPPENED_FSM_EVENT);
    472          //    }
    473          }
   \                     ??ModbusDeviceControl_3:
   \   0000004E   9508               RET
    474          
    475          //-----------------------------------------------------------------------------------------------------

   \                                 In  segment CODE, align 2, keep-with-next
    476          void CPss21::ModbusDeviceControl(uint8_t uiData, uint16_t uiAddress)
   \                     ??ModbusDeviceControl_1:
    477          {
   \   00000000   9721               SBIW    R29:R28, 1
   \   00000002   8308               ST      Y, R16
    478              ModbusDeviceControl(&uiData, 1, uiAddress);
   \   00000004   01A9               MOVW    R21:R20, R19:R18
   \   00000006   E021               LDI     R18, 1
   \   00000008   E030               LDI     R19, 0
   \   0000000A   018E               MOVW    R17:R16, R29:R28
   \   0000000C   ....               RCALL   ??ModbusDeviceControl
    479          }
   \   0000000E   9621               ADIW    R29:R28, 1
   \   00000010   9508               RET
    480          
    481          //-----------------------------------------------------------------------------------------------------

   \                                 In  segment CODE, align 2, keep-with-next
    482          bool CPss21::ModbusRtuLinkControlIsOn(void)
   \                     ??ModbusRtuLinkControlIsOn:
    483          {
    484              if (m_xDeviceConfiguration.MBTimeout != 0)
   \   00000000   9100....           LDS     R16, (??m_xDeviceConfiguration + 5)
   \   00000004   2300               TST     R16
   \   00000006   F009               BREQ    ??ModbusRtuLinkControlIsOn_1
    485              {
    486                  return true;
   \   00000008   ....               RJMP    ?Subroutine78
    487              }
    488              else
    489              {
    490                  return false;
   \                     ??ModbusRtuLinkControlIsOn_1:
   \   0000000A                      REQUIRE ?Subroutine77
   \   0000000A                      ;               // Fall through to label ?Subroutine77
    491              }
    492          }

   \                                 In  segment CODE, align 2, keep-with-next
   \                     ?Subroutine77:
   \   00000000   E000               LDI     R16, 0
   \   00000002   9508               RET

   \                                 In  segment CODE, align 2, keep-with-next
   \                     ?Subroutine78:
   \   00000000   E001               LDI     R16, 1
   \   00000002   9508               RET
    493          
    494          //-----------------------------------------------------------------------------------------------------

   \                                 In  segment CODE, align 2, keep-with-next
    495          uint16_t CPss21::GetTimeoutModbusRtuLinkControl(void)
   \                     ??GetTimeoutModbusRtuLinkControl:
    496          {
    497              return (m_xDeviceConfiguration.MBTimeout * 1000);
   \   00000000   9100....           LDS     R16, (??m_xDeviceConfiguration + 5)
   \   00000004   E010               LDI     R17, 0
   \   00000006   EE48               LDI     R20, 232
   \   00000008   E053               LDI     R21, 3
   \   0000000A                      REQUIRE ?Subroutine85
   \   0000000A                      ;               // Fall through to label ?Subroutine85
    498          }

   \                                 In  segment CODE, align 2, keep-with-next
   \                     ?Subroutine85:
   \   00000000   ........           JMP     ?S_EC_MUL_L02
    499          
    500          //-----------------------------------------------------------------------------------------------------

   \                                 In  segment CODE, align 2, keep-with-next
    501          bool CPss21::ModbusRtuLinkControlInProgress(void)
   \                     ??ModbusRtuLinkControlInProgress:
    502          {
    503              if (m_xDeviceState.ModbusRtuLinkControlInProgress)
   \   00000000   9100....           LDS     R16, (??m_xDeviceConfiguration + 27)
   \   00000004   FD00               SBRC    R16, 0
    504              {
    505                  return true;
   \   00000006   ....               RJMP    ?Subroutine78
    506              }
    507              else
    508              {
    509                  return false;
   \                     ??ModbusRtuLinkControlInProgress_1:
   \   00000008   ....               RJMP    ?Subroutine77
    510              }
    511          }
    512          
    513          //-----------------------------------------------------------------------------------------------------

   \                                 In  segment CODE, align 2, keep-with-next
    514          void CPss21::SetModeModbusRtuLinkControlInProgress(bool bData)
   \                     ??SetModeModbusRtuLinkControlInProgress:
    515          {
    516              m_xDeviceState.ModbusRtuLinkControlInProgress = bData;
   \   00000000   ....               LDI     R30, LOW(??m_xDeviceConfiguration)
   \   00000002   ....               LDI     R31, (??m_xDeviceConfiguration) >> 8
   \   00000004   FB00               BST     R16, 0
   \   00000006   8D03               LDD     R16, Z+27
   \   00000008   F900               BLD     R16, 0
   \   0000000A   8F03               STD     Z+27, R16
    517              // Ńîőđŕíčě ňĺęóůóţ ęîíôčăóđŕöčţ.
    518              CDataBase::WriteBlock(reinterpret_cast<uint8_t*>(&m_xDeviceState),
    519                                    TDataBase::DEVICE_STATE);
   \   0000000C   E02A               LDI     R18, 10
   \   0000000E   ....               LDI     R16, LOW((??m_xDeviceConfiguration + 27))
   \   00000010   ....               LDI     R17, HIGH((??m_xDeviceConfiguration + 27))
   \   00000012   ........           CALL    ??WriteBlock
    520              // Áŕçŕ äŕííűő čçěĺíĺíŕ ďđč çŕďčńč áëîęŕ.
    521              // Ďîńňŕâčě ďîäňâĺđćäŕţůóţ ďîäďčńü.
    522              CDataBase::SignatureCreate();
   \   00000016   ........           JMP     ??SignatureCreate
    523          }
    524          
    525          //-----------------------------------------------------------------------------------------------------

   \                                 In  segment CODE, align 2, keep-with-next
    526          void CPss21::SendToDevicesReceipt(void)
   \                     ??SendToDevicesReceipt:
    527          {
   \   00000000   ....               RCALL   ?Subroutine42
    528              for (uint8_t i = 0;
   \                     ??CrossCallReturnLabel_110:
   \   00000002   C009               RJMP    ??SendToDevicesReceipt_1
    529                      i < (m_xDeviceConfigSearch.uiModulesQuantity);
    530                      i++)
    531              {
    532                  m_apxDrivers[i] -> SetReceipt(1);
   \                     ??SendToDevicesReceipt_2:
   \   00000004   E012               LDI     R17, 2
   \   00000006   9F01               MUL     R16, R17
   \   00000008   ....               RCALL   ?Subroutine33
   \                     ??CrossCallReturnLabel_31:
   \   0000000A   9652               ADIW    R27:R26, 18
   \   0000000C   91ED               LD      R30, X+
   \   0000000E   91FC               LD      R31, X
   \   00000010   E011               LDI     R17, 1
   \   00000012   8311               STD     Z+1, R17
    533              }
   \   00000014   9503               INC     R16
   \                     ??SendToDevicesReceipt_1:
   \   00000016   ....               RCALL   ?Subroutine34
   \                     ??CrossCallReturnLabel_122:
   \   00000018   F3A8               BRCS    ??SendToDevicesReceipt_2
    534          
    535              // Ńîîáůčě ŕâňîěŕňó î ńîńňî˙âřĺěń˙ ęâčňčđîâŕíčč.
    536              m_xModbusRtuLinkControl.SetFsmEvent(CModbusRtuLinkControl::RECEIPT_HAPPENED_FSM_EVENT);
   \   0000001A   E002               LDI     R16, 2
   \   0000001C   9300....           STS     (??m_xDeviceConfigSearch + 13), R16
    537          }
   \   00000020                      REQUIRE ?Subroutine76
   \   00000020                      ;               // Fall through to label ?Subroutine76

   \                                 In  segment CODE, align 2, keep-with-next
   \                     ?Subroutine76:
   \   00000000   01D9               MOVW    R27:R26, R19:R18
   \   00000002   9508               RET

   \                                 In  segment CODE, align 2, keep-with-next
   \                     ?Subroutine42:
   \   00000000   019D               MOVW    R19:R18, R27:R26
   \   00000002   ....               RJMP    ?Subroutine77

   \                                 In  segment CODE, align 2, keep-with-next
   \                     ?Subroutine34:
   \   00000000   9110....           LDS     R17, ??m_xDeviceConfigSearch
   \   00000004                      REQUIRE ?Subroutine79
   \   00000004                      ;               // Fall through to label ?Subroutine79

   \                                 In  segment CODE, align 2, keep-with-next
   \                     ?Subroutine79:
   \   00000000   1701               CP      R16, R17
   \   00000002   9508               RET
    538          
    539          //-----------------------------------------------------------------------------------------------------

   \                                 In  segment CODE, align 2, keep-with-next
   \                     ?Subroutine30:
   \   00000000   E011               LDI     R17, 1
   \   00000002   931C               ST      X, R17
   \   00000004   9503               INC     R16
   \   00000006   9508               RET

   \                                 In  segment CODE, align 2, keep-with-next
    540          void CPss21::SendToDevicesReset(void)
   \                     ??SendToDevicesReset:
    541          {
   \   00000000   ....               RCALL   ?Subroutine42
    542              for (uint8_t i = 0;
   \                     ??CrossCallReturnLabel_111:
   \   00000002   C003               RJMP    ??CrossCallReturnLabel_25
    543                      i < (m_xDeviceConfigSearch.uiModulesQuantity);
    544                      i++)
    545              {
    546                  m_apxDrivers[i] -> SetReset(1);
   \                     ??SendToDevicesReset_1:
   \   00000004   ....               RCALL   ?Subroutine41
    547              }
   \                     ??CrossCallReturnLabel_46:
   \   00000006   9612               ADIW    R27:R26, 2
   \   00000008   ....               RCALL   ?Subroutine30
   \                     ??CrossCallReturnLabel_25:
   \   0000000A   ....               RCALL   ?Subroutine34
   \                     ??CrossCallReturnLabel_123:
   \   0000000C   F3D8               BRCS    ??SendToDevicesReset_1
    548          }
   \   0000000E   ....               RJMP    ?Subroutine76
    549          
    550          //-----------------------------------------------------------------------------------------------------

   \                                 In  segment CODE, align 2, keep-with-next
    551          void CPss21::SendToDevicesModbusReceipt(void)
   \                     ??SendToDevicesModbusReceipt:
    552          {
   \   00000000   ....               RCALL   ?Subroutine42
    553              for (uint8_t i = 0;
   \                     ??CrossCallReturnLabel_109:
   \   00000002   C003               RJMP    ??CrossCallReturnLabel_24
    554                      i < (m_xDeviceConfigSearch.uiModulesQuantity);
    555                      i++)
    556              {
    557                  m_apxDrivers[i] -> SetModbusReceipt(1);
   \                     ??SendToDevicesModbusReceipt_1:
   \   00000004   ....               RCALL   ?Subroutine41
    558              }
   \                     ??CrossCallReturnLabel_45:
   \   00000006   9613               ADIW    R27:R26, 3
   \   00000008   ....               RCALL   ?Subroutine30
   \                     ??CrossCallReturnLabel_24:
   \   0000000A   ....               RCALL   ?Subroutine34
   \                     ??CrossCallReturnLabel_121:
   \   0000000C   F3D8               BRCS    ??SendToDevicesModbusReceipt_1
    559          }
   \   0000000E   ....               RJMP    ?Subroutine76
    560          
    561          //-----------------------------------------------------------------------------------------------------

   \                                 In  segment CODE, align 2, keep-with-next
    562          void CPss21::SendToDevicesModbusReset(void)
   \                     ??SendToDevicesModbusReset:
    563          {
   \   00000000   ....               RCALL   ?Subroutine42
    564              for (uint8_t i = 0;
   \                     ??CrossCallReturnLabel_108:
   \   00000002   C003               RJMP    ??CrossCallReturnLabel_23
    565                      i < (m_xDeviceConfigSearch.uiModulesQuantity);
    566                      i++)
    567              {
    568                  m_apxDrivers[i] -> SetModbusReset(1);
   \                     ??SendToDevicesModbusReset_1:
   \   00000004   ....               RCALL   ?Subroutine41
    569              }
   \                     ??CrossCallReturnLabel_44:
   \   00000006   9614               ADIW    R27:R26, 4
   \   00000008   ....               RCALL   ?Subroutine30
   \                     ??CrossCallReturnLabel_23:
   \   0000000A   ....               RCALL   ?Subroutine34
   \                     ??CrossCallReturnLabel_120:
   \   0000000C   F3D8               BRCS    ??SendToDevicesModbusReset_1
    570          }
   \   0000000E   ....               RJMP    ?Subroutine76
    571          
    572          //-----------------------------------------------------------------------------------------------------

   \                                 In  segment CODE, align 2, keep-with-next
    573          void CPss21::KeyStateProcessing(void)
   \                     ??KeyStateProcessing:
    574          {
   \   00000000   938A               ST      -Y, R24
    575          //    m_xReceiptKey.Fsm();
    576          //    m_xResetKey.Fsm();
    577          //    m_xCheckKey.Fsm();
    578          //    m_xExternalKey.Fsm();
    579          
    580              if (m_xReceiptKey.KeyEventHappened(CMultiFunctionKey::KEY_EVENT_PRESSED_PUSH))
   \   00000002   E022               LDI     R18, 2
   \   00000004   ....               RCALL   ?Subroutine11
   \                     ??CrossCallReturnLabel_67:
   \   00000006   2300               TST     R16
   \   00000008   F019               BREQ    ??CrossCallReturnLabel_171
    581              {
    582                  SetPanelReceipt(1);
   \   0000000A   ....               RCALL   ?Subroutine24
   \                     ??CrossCallReturnLabel_114:
   \   0000000C   A705               STD     Z+45, R16
    583                  SetDiscreteSignalsReceipt(1);
   \   0000000E   ....               RCALL   ?Subroutine15
    584                  SendToDevicesReceipt();
    585                  m_xBuzzerNotifyerControl.AlarmSet(BEEP_SIGNAL);
    586              }
    587          
    588              if (m_xResetKey.KeyEventHappened(CMultiFunctionKey::KEY_EVENT_PRESSED_PUSH))
   \                     ??CrossCallReturnLabel_171:
   \   00000010   E022               LDI     R18, 2
   \   00000012   ....               LDI     R16, LOW((??m_xDeviceConfigSearch + 72))
   \   00000014   ....               LDI     R17, HIGH((??m_xDeviceConfigSearch + 72))
   \   00000016   ....               RCALL   ?Subroutine64
   \                     ??CrossCallReturnLabel_69:
   \   00000018   2300               TST     R16
   \   0000001A   F021               BREQ    ??CrossCallReturnLabel_165
    589              {
    590                  SetPanelReset(1);
   \   0000001C   ....               RCALL   ?Subroutine24
   \                     ??CrossCallReturnLabel_115:
   \   0000001E   A706               STD     Z+46, R16
    591                  SetDiscreteSignalsReset(1);
   \   00000020   ....               RCALL   ?Subroutine43
    592                  SendToDevicesReset();
    593                  m_xBuzzerNotifyerControl.AlarmSet(BEEP_SIGNAL);
   \                     ??CrossCallReturnLabel_48:
   \   00000022   ....               RCALL   ??Subroutine92_0
    594              }
    595          
    596              if (m_xCheckKey.KeyEventHappened(CMultiFunctionKey::KEY_EVENT_PRESSED_PUSH))
   \                     ??CrossCallReturnLabel_165:
   \   00000024   E022               LDI     R18, 2
   \   00000026   ....               RCALL   ?Subroutine13
   \                     ??CrossCallReturnLabel_6:
   \   00000028   2300               TST     R16
   \   0000002A   F011               BREQ    ??CrossCallReturnLabel_166
    597              {
    598                  // Âęëţ÷čě đĺćčě ňĺńňčđîâŕíč˙.
    599                  SetFsmState(TEST_START);
   \   0000002C   ....               RCALL   ?Subroutine44
    600                  m_xBuzzerNotifyerControl.AlarmSet(BEEP_SIGNAL);
   \                     ??CrossCallReturnLabel_163:
   \   0000002E   ....               RCALL   ??Subroutine92_0
    601              }
    602          
    603              if (m_xExternalKey.KeyEventHappened(CMultiFunctionKey::KEY_EVENT_PRESSED_RECEIPT))
   \                     ??CrossCallReturnLabel_166:
   \   00000030   E022               LDI     R18, 2
   \   00000032   ....               RCALL   ?Subroutine8
   \                     ??CrossCallReturnLabel_222:
   \   00000034   F019               BREQ    ??CrossCallReturnLabel_172
    604              {
    605                  SetExternalReceipt(1);
   \   00000036   ....               RCALL   ?Subroutine24
   \                     ??CrossCallReturnLabel_116:
   \   00000038   A707               STD     Z+47, R16
    606                  SetDiscreteSignalsReceipt(1);
   \   0000003A   ....               RCALL   ?Subroutine15
    607                  SendToDevicesReceipt();
    608                  m_xBuzzerNotifyerControl.AlarmSet(BEEP_SIGNAL);
    609              }
    610          
    611              if (m_xExternalKey.KeyEventHappened(CMultiFunctionKey::KEY_EVENT_PRESSED_RESET))
   \                     ??CrossCallReturnLabel_172:
   \   0000003C   E023               LDI     R18, 3
   \   0000003E   ....               RCALL   ?Subroutine8
   \                     ??CrossCallReturnLabel_223:
   \   00000040   F021               BREQ    ??CrossCallReturnLabel_167
    612              {
    613                  SetExternalReset(1);
   \   00000042   ....               RCALL   ?Subroutine24
   \                     ??CrossCallReturnLabel_117:
   \   00000044   AB00               STD     Z+48, R16
    614                  SetDiscreteSignalsReset(1);
   \   00000046   ....               RCALL   ?Subroutine43
    615                  SendToDevicesReset();
    616                  m_xBuzzerNotifyerControl.AlarmSet(BEEP_SIGNAL);
   \                     ??CrossCallReturnLabel_47:
   \   00000048   ....               RCALL   ??Subroutine92_0
    617              }
    618          
    619              if (m_xExternalKey.KeyEventHappened(CMultiFunctionKey::KEY_EVENT_PRESSED_CHECK))
   \                     ??CrossCallReturnLabel_167:
   \   0000004A   E024               LDI     R18, 4
   \   0000004C   ....               RCALL   ?Subroutine8
   \                     ??CrossCallReturnLabel_224:
   \   0000004E   F011               BREQ    ??CrossCallReturnLabel_168
    620              {
    621                  // Âęëţ÷čě đĺćčě ňĺńňčđîâŕíč˙.
    622                  SetFsmState(TEST_START);
   \   00000050   ....               RCALL   ?Subroutine44
    623                  m_xBuzzerNotifyerControl.AlarmSet(BEEP_SIGNAL);
   \                     ??CrossCallReturnLabel_164:
   \   00000052   ....               RCALL   ??Subroutine92_0
    624              }
    625          
    626              // Ęíîďęč "Ęâčňčđîâŕíčĺ" č "Ęîíňđîëü" íŕćŕňű äîëüřĺ 7 ńĺęóíä?
    627              if (m_xEventUniteLogicAndOne.IsHappened((m_xReceiptKey.KeyEventHappened(CMultiFunctionKey::KEY_EVENT_PRESSED_SET_DEFAULT)),
    628                                                      (m_xCheckKey.KeyEventHappened(CMultiFunctionKey::KEY_EVENT_PRESSED_SET_DEFAULT))))
   \                     ??CrossCallReturnLabel_168:
   \   00000054   E025               LDI     R18, 5
   \   00000056   ....               RCALL   ?Subroutine13
   \                     ??CrossCallReturnLabel_7:
   \   00000058   2F80               MOV     R24, R16
   \   0000005A   E025               LDI     R18, 5
   \   0000005C   ....               RCALL   ?Subroutine11
   \                     ??CrossCallReturnLabel_68:
   \   0000005E   2F20               MOV     R18, R16
   \   00000060   2F38               MOV     R19, R24
   \   00000062   ....               LDI     R16, LOW((??m_xDeviceConfigSearch + 111))
   \   00000064   ....               LDI     R17, HIGH((??m_xDeviceConfigSearch + 111))
   \   00000066   ........           CALL    ??IsHappened
   \   0000006A   2300               TST     R16
   \   0000006C   F011               BREQ    ??CrossCallReturnLabel_169
    629              {
    630                  // Óńňŕíŕâëčâŕĺě íŕńňđîéęč Modbus ďî óěîë÷ŕíčţ íŕ ňĺęóůóţ ńĺńńčţ.
    631                  CPss21::ModbusDefaultInit();
   \   0000006E   ....               RCALL   ??ModbusDefaultInit
    632                  m_xBuzzerNotifyerControl.AlarmSet(BEEP_SIGNAL);
   \   00000070   ....               RCALL   ??Subroutine92_0
    633              }
    634          }
   \                     ??CrossCallReturnLabel_169:
   \   00000072                      REQUIRE ?Subroutine80
   \   00000072                      ;               // Fall through to label ?Subroutine80

   \                                 In  segment CODE, align 2, keep-with-next
   \                     ?Subroutine80:
   \   00000000   9189               LD      R24, Y+
   \   00000002   9508               RET

   \                                 In  segment CODE, align 2, keep-with-next
   \                     ?Subroutine43:
   \   00000000   AB04               STD     Z+52, R16
   \   00000002   ....               RJMP    ??SendToDevicesReset

   \                                 In  segment CODE, align 2, keep-with-next
   \                     ?Subroutine15:
   \   00000000   AB03               STD     Z+51, R16
   \   00000002   ....               RCALL   ??SendToDevicesReceipt
   \   00000004                      REQUIRE ??Subroutine92_0
   \   00000004                      ;               // Fall through to label ??Subroutine92_0

   \                                 In  segment CODE, align 2, keep-with-next
   \                     ??Subroutine92_0:
   \   00000000   E027               LDI     R18, 7
   \   00000002   ....               RJMP    ?Subroutine58

   \                                 In  segment CODE, align 2, keep-with-next
   \                     ?Subroutine13:
   \   00000000   ....               LDI     R16, LOW((??m_xDeviceConfigSearch + 85))
   \   00000002   ....               LDI     R17, HIGH((??m_xDeviceConfigSearch + 85))
   \   00000004   ....               RJMP    ?Subroutine64

   \                                 In  segment CODE, align 2, keep-with-next
   \                     ?Subroutine11:
   \   00000000   ....               LDI     R16, LOW((??m_xDeviceConfigSearch + 59))
   \   00000002   ....               LDI     R17, HIGH((??m_xDeviceConfigSearch + 59))
   \   00000004                      REQUIRE ?Subroutine64
   \   00000004                      ;               // Fall through to label ?Subroutine64

   \                                 In  segment CODE, align 2, keep-with-next
   \                     ?Subroutine64:
   \   00000000   ........           JMP     ??KeyEventHappened

   \                                 In  segment CODE, align 2, keep-with-next
   \                     ?Subroutine8:
   \   00000000   ....               LDI     R16, LOW((??m_xDeviceConfigSearch + 98))
   \   00000002   ....               LDI     R17, HIGH((??m_xDeviceConfigSearch + 98))
   \   00000004   ....               RCALL   ?Subroutine64
   \                     ??CrossCallReturnLabel_66:
   \   00000006                      REQUIRE ?Subroutine81
   \   00000006                      ;               // Fall through to label ?Subroutine81

   \                                 In  segment CODE, align 2, keep-with-next
   \                     ?Subroutine81:
   \   00000000   2300               TST     R16
   \   00000002   9508               RET

   \                                 In  segment CODE, align 2, keep-with-next
   \                     ?Subroutine58:
   \   00000000   ....               LDI     R16, LOW((??m_xDeviceConfigSearch + 157))
   \   00000002   ....               LDI     R17, HIGH((??m_xDeviceConfigSearch + 157))
   \   00000004   ........           JMP     ??AlarmSet
    635          
    636          //-----------------------------------------------------------------------------------------------------

   \                                 In  segment CODE, align 2, keep-with-next
    637          void CPss21::ReceiptResetGlobalFlagsClear(void)
   \                     ??ReceiptResetGlobalFlagsClear:
    638          {
    639              SetPanelReceipt(0);
   \   00000000   ....               RCALL   ?Subroutine65
   \                     ??CrossCallReturnLabel_71:
   \   00000002   E000               LDI     R16, 0
   \   00000004   A705               STD     Z+45, R16
    640              SetExternalReceipt(0);
   \   00000006   A707               STD     Z+47, R16
    641              SetModbusReceipt(0);
   \   00000008   AB01               STD     Z+49, R16
    642              SetPanelReset(0);
   \   0000000A   A706               STD     Z+46, R16
    643              SetExternalReset(0);
   \   0000000C   AB00               STD     Z+48, R16
    644              SetModbusReset(0);
   \   0000000E   AB02               STD     Z+50, R16
    645          }
   \   00000010   9508               RET
    646          
    647          //-----------------------------------------------------------------------------------------------------

   \                                 In  segment CODE, align 2, keep-with-next
    648          uint8_t CPss21::ModulesInteraction(uint8_t uiModuleIndex)
   \                     ??ModulesInteraction:
    649          {
   \   00000000   93BA               ST      -Y, R27
   \   00000002   93AA               ST      -Y, R26
    650              if (uiModuleIndex < (m_xDeviceConfigSearch.uiModulesQuantity))
   \   00000004   ....               RCALL   ?Subroutine34
   \                     ??CrossCallReturnLabel_124:
   \   00000006   F460               BRCC    ??ModulesInteraction_1
   \   00000008   E012               LDI     R17, 2
   \   0000000A   9F01               MUL     R16, R17
   \   0000000C   ....               RCALL   ?Subroutine25
   \                     ??CrossCallReturnLabel_16:
   \   0000000E   89A2               LDD     R26, Z+18
   \   00000010   89B3               LDD     R27, Z+19
   \   00000012   018D               MOVW    R17:R16, R27:R26
   \   00000014   9619               ADIW    R27:R26, 9
   \   00000016   91ED               LD      R30, X+
   \   00000018   91FC               LD      R31, X
   \   0000001A   ....               RCALL   ?Subroutine63
    651              {
    652                  m_apxDrivers[uiModuleIndex] -> DataExchange();
    653                  return 0;
   \                     ??CrossCallReturnLabel_65:
   \   0000001C   E000               LDI     R16, 0
   \   0000001E   C001               RJMP    ??ModulesInteraction_2
    654              }
    655              else
    656              {
    657                  return 1;
   \                     ??ModulesInteraction_1:
   \   00000020   E001               LDI     R16, 1
    658              }
   \                     ??ModulesInteraction_2:
   \   00000022   ....               RJMP    ?Subroutine71
    659          };

   \                                 In  segment CODE, align 2, keep-with-next
   \                     ?Subroutine25:
   \   00000000   ....               RCALL   ?Subroutine65
   \                     ??CrossCallReturnLabel_77:
   \   00000002   0DE0               ADD     R30, R0
   \   00000004   1DF1               ADC     R31, R1
   \   00000006   9508               RET

   \                                 In  segment CODE, align 2, keep-with-next
   \                     ?Subroutine63:
   \   00000000   9632               ADIW    R31:R30, 2
   \   00000002   9125               LPM     R18, Z+
   \   00000004   91F4               LPM     R31, Z
   \   00000006   2FE2               MOV     R30, R18
   \   00000008   9409               IJMP
    660          
    661          //-----------------------------------------------------------------------------------------------------

   \                                 In  segment CODE, align 2, keep-with-next
    662          void CPss21::ConfigurationInit(void)
   \                     ??ConfigurationInit:
    663          {
   \   00000000   ....               RCALL   ?Subroutine35
    664              uint8_t* puiTempBuffer = m_auiIntermediateBuff;
   \                     ??CrossCallReturnLabel_34:
   \   00000002   ....               LDI     R26, LOW(??m_auiIntermediateBuff)
   \   00000004   ....               LDI     R27, (??m_auiIntermediateBuff) >> 8
    665              uint8_t* puiAlarmDfaInit = m_auiReceiveMessageBuff;
    666          
    667              memset(puiAlarmDfaInit, 0, DISCRETE_SIGNALS_NUMBER);
   \   00000006   E640               LDI     R20, 96
   \   00000008   ....               RCALL   ?Subroutine4
   \                     ??CrossCallReturnLabel_158:
   \   0000000A   ....               LDI     R16, LOW(??m_auiReceiveMessageBuff)
   \   0000000C   ....               LDI     R17, (??m_auiReceiveMessageBuff) >> 8
   \   0000000E   ....               RCALL   ?Subroutine83
    668          
    669              // Óńňŕíîâčě ęîíôčăóđŕöčţ óńňđîéńňâŕ.
    670              // Ń÷čňŕĺě âî âđĺěĺííűé áóôĺđ áëîę ÁÄ - "Ęîíôčăóđŕöč˙ óńňđîéńňâŕ".
    671              CDataBase::ReadBlock(puiTempBuffer, TDataBase::DEV_CONFIG);
   \                     ??CrossCallReturnLabel_127:
   \   00000010   E020               LDI     R18, 0
   \   00000012   ....               RCALL   ?Subroutine37
    672              memcpy(reinterpret_cast<uint8_t*>(&m_xDeviceConfiguration),
    673                     puiTempBuffer,
    674                     sizeof(struct TDevConfig));
   \                     ??CrossCallReturnLabel_133:
   \   00000014   E144               LDI     R20, 20
   \   00000016   E050               LDI     R21, 0
   \   00000018   019D               MOVW    R19:R18, R27:R26
   \   0000001A   ....               LDI     R16, LOW(??m_xDeviceConfiguration)
   \   0000001C   ....               LDI     R17, (??m_xDeviceConfiguration) >> 8
   \   0000001E   ....               RCALL   ?Subroutine47
    675          
    676              // Óńňŕíîâčě ďŕđŕěĺňđű číňĺđôĺéńŕ ModBus.
    677              // Ń÷čňŕĺě âî âđĺěĺííűé áóôĺđ áëîę ÁÄ - "Ďŕđŕěĺňđű číňĺđôĺéńŕ ModBus".
    678              CDataBase::ReadBlock(puiTempBuffer, TDataBase::MODBUS_SET);
   \                     ??CrossCallReturnLabel_52:
   \   00000020   E021               LDI     R18, 1
   \   00000022   ....               RCALL   ?Subroutine37
    679              memcpy(reinterpret_cast<uint8_t*>(&m_xModbusSettings),
    680                     puiTempBuffer,
    681                     sizeof(struct TMBusSetting));
   \                     ??CrossCallReturnLabel_132:
   \   00000024   E047               LDI     R20, 7
   \   00000026   E050               LDI     R21, 0
   \   00000028   019D               MOVW    R19:R18, R27:R26
   \   0000002A   ....               LDI     R16, LOW((??m_xDeviceConfiguration + 20))
   \   0000002C   ....               LDI     R17, HIGH((??m_xDeviceConfiguration + 20))
   \   0000002E   ....               RCALL   ?Subroutine47
    682          
    683              // Ń÷čňŕĺě âî âđĺěĺííűé áóôĺđ áëîę ÁÄ - "ÁÄ ěîäóëĺé âűâîäŕ".
    684              CDataBase::ReadBlock(puiTempBuffer, TDataBase::OUT_BASE);
   \                     ??CrossCallReturnLabel_51:
   \   00000030   E025               LDI     R18, 5
   \   00000032   ....               RCALL   ?Subroutine37
    685              memcpy(reinterpret_cast<uint8_t*>(&m_xDiscreteOutputDataBase),
    686                     puiTempBuffer,
    687                     sizeof(struct TOutputData));
   \                     ??CrossCallReturnLabel_131:
   \   00000034   E148               LDI     R20, 24
   \   00000036   E050               LDI     R21, 0
   \   00000038   019D               MOVW    R19:R18, R27:R26
   \   0000003A   ....               LDI     R16, LOW((??m_xDeviceConfigSearch + 167))
   \   0000003C   ....               LDI     R17, HIGH((??m_xDeviceConfigSearch + 167))
   \   0000003E   ....               RCALL   ?Subroutine47
    688          
    689              // Óńňŕíîâčě óđîâĺíü äčńęđĺňíîăî ńčăíŕëŕ číňĺđďđĺňčđóĺěűé ęŕę ŕęňčâíűé.
    690              // Ń÷čňŕĺě âî âđĺěĺííűé áóôĺđ áëîę ÁÄ - "Óđîâĺíü äčńęđĺňíîăî ńčăíŕëŕ číňĺđďđĺňčđóĺěűé ęŕę ŕęňčâíűé".
    691              CDataBase::ReadBlock(puiTempBuffer, TDataBase::ACTIVITY_LEVEL);
   \                     ??CrossCallReturnLabel_50:
   \   00000040   E022               LDI     R18, 2
   \   00000042   ....               RCALL   ?Subroutine37
    692              for (uint8_t i = 0;
   \                     ??CrossCallReturnLabel_130:
   \   00000044   E020               LDI     R18, 0
    693                      i < DISCRETE_INPUTS_NUMBER;
    694                  )
    695              {
    696                  uint8_t uiData = *puiTempBuffer;
   \                     ??ConfigurationInit_1:
   \   00000046   916D               LD      R22, X+
    697                  for (uint8_t j = 0;
   \   00000048   E050               LDI     R21, 0
   \   0000004A   E038               LDI     R19, 8
    698                          j < 8;
    699                          j++)
    700                  {
    701                      // Óńňŕíîâčě óđîâĺíü ňĺęóůĺăî äčńęđĺňíîăî ńčăíŕëŕ číňĺđďđĺňčđóĺěűé ęŕę ŕęňčâíűé.
    702                      if (((uiData >> j) & 0x01))
   \                     ??ConfigurationInit_2:
   \   0000004C   E010               LDI     R17, 0
   \   0000004E   ....               LDI     R30, LOW(??m_auiReceiveMessageBuff)
   \   00000050   ....               LDI     R31, (??m_auiReceiveMessageBuff) >> 8
   \   00000052   0FE2               ADD     R30, R18
   \   00000054   1FF1               ADC     R31, R17
   \   00000056   2F06               MOV     R16, R22
   \   00000058   2F45               MOV     R20, R21
   \   0000005A   ........           CALL    ?SS_SHR_L02
   \   0000005E   7001               ANDI    R16, 0x01
   \   00000060   F011               BREQ    ??ConfigurationInit_3
    703                      {
    704                          puiAlarmDfaInit[i] = 0x80;
   \   00000062   E800               LDI     R16, 128
   \   00000064   C001               RJMP    ??ConfigurationInit_4
    705                      }
    706                      else
    707                      {
    708                          puiAlarmDfaInit[i] = 0;
   \                     ??ConfigurationInit_3:
   \   00000066   E000               LDI     R16, 0
   \                     ??ConfigurationInit_4:
   \   00000068   8300               ST      Z, R16
    709                      }
    710                      i++;
   \   0000006A   9523               INC     R18
    711                  }
   \   0000006C   9553               INC     R21
   \   0000006E   953A               DEC     R19
   \   00000070   F769               BRNE    ??ConfigurationInit_2
    712                  puiTempBuffer++;
    713              }
   \   00000072   3320               CPI     R18, 48
   \   00000074   F340               BRCS    ??ConfigurationInit_1
    714          
    715              puiTempBuffer = m_auiIntermediateBuff;
    716              // Ďđčâ˙ćĺě îęíŕ ńčăíŕëčçŕöčč ę äčńęđĺňíűě ńčăíŕëŕě.
    717              // Ń÷čňŕĺě âî âđĺěĺííűé áóôĺđ áëîę ÁÄ - "Číäĺęń îęíŕ ńčăíŕëčçŕöčč ęîňîđîĺ ďđčâ˙çŕíî ę ňĺęóůĺěó äčńęđĺňíîěó ńčăíŕëó".
    718              CDataBase::ReadBlock(puiTempBuffer, TDataBase::ALARM_WINDOW_INDEX);
   \   00000076   ....               RCALL   ?Subroutine46
    719              for (uint8_t i = 0;
   \                     ??CrossCallReturnLabel_134:
   \   00000078   E020               LDI     R18, 0
   \   0000007A   E600               LDI     R16, 96
    720                      i < DISCRETE_SIGNALS_NUMBER;
    721                      i++)
    722              {
    723                  // Ďđčâ˙ćĺě îęíî ńčăíŕëčçŕöčč ę ňĺęóůĺěó äčńęđĺňíîěó ńčăíŕëó.
    724                  puiAlarmDfaInit[i] |= (puiTempBuffer[i] & ~(0x80));
   \                     ??ConfigurationInit_5:
   \   0000007C   2FE2               MOV     R30, R18
   \   0000007E   E0F0               LDI     R31, 0
   \   00000080   ....               SUBI    R30, LOW((-(??m_auiIntermediateBuff) & 0xFFFF))
   \   00000082   ....               SBCI    R31, (-(??m_auiIntermediateBuff) & 0xFFFF) >> 8
   \   00000084   8110               LD      R17, Z
   \   00000086   771F               ANDI    R17, 0x7F
   \   00000088   2FE2               MOV     R30, R18
   \   0000008A   E0F0               LDI     R31, 0
   \   0000008C   ....               SUBI    R30, LOW((-(??m_auiReceiveMessageBuff) & 0xFFFF))
   \   0000008E   ....               SBCI    R31, (-(??m_auiReceiveMessageBuff) & 0xFFFF) >> 8
   \   00000090   8130               LD      R19, Z
   \   00000092   2B31               OR      R19, R17
   \   00000094   8330               ST      Z, R19
    725              }
   \   00000096   9523               INC     R18
   \   00000098   950A               DEC     R16
   \   0000009A   F781               BRNE    ??ConfigurationInit_5
    726          
    727              // Ń÷čňŕĺě âî âđĺěĺííűé áóôĺđ áëîę ÁÄ - "Ňčď ńčăíŕëčçŕöčč ďđčâ˙çŕííűé ę îęíó".
    728              CDataBase::ReadBlock(puiTempBuffer, TDataBase::ALARM_TYPE);
   \   0000009C   E024               LDI     R18, 4
   \   0000009E   ....               RCALL   ?Subroutine66
    729              for (uint8_t i = 0;
   \                     ??CrossCallReturnLabel_136:
   \   000000A0   E020               LDI     R18, 0
   \   000000A2   E610               LDI     R17, 96
    730                      i < DISCRETE_SIGNALS_NUMBER;
    731                      i++)
    732              {
    733          //        CPss21::m_aucRtuHoldingRegistersArray[i] = ((static_cast<uint16_t>(puiTempBuffer[i] & ~(0x80)) << 8) | i);
    734          
    735                  uint8_t uiWindowIndex = (puiAlarmDfaInit[i] & ~(0x80));
   \                     ??ConfigurationInit_6:
   \   000000A4   E030               LDI     R19, 0
   \   000000A6   ....               LDI     R30, LOW(??m_auiReceiveMessageBuff)
   \   000000A8   ....               LDI     R31, (??m_auiReceiveMessageBuff) >> 8
   \   000000AA   0FE2               ADD     R30, R18
   \   000000AC   1FF3               ADC     R31, R19
   \   000000AE   8130               LD      R19, Z
   \   000000B0   2F03               MOV     R16, R19
   \   000000B2   770F               ANDI    R16, 0x7F
    736                  if (uiWindowIndex < ALARM_WINDOWS_NUMBER)
   \   000000B4   3300               CPI     R16, 48
   \   000000B6   7830               ANDI    R19, 0x80
   \   000000B8   F430               BRCC    ??ConfigurationInit_7
    737                  {
    738                      // Î÷čńňčě číäĺęń ďđčâ˙çŕííîăî îęíŕ, áîëüřĺ íĺ íóćĺí.
    739                      // Îńňŕâčě óđîâĺíü äčńęđĺňíîăî ńčăíŕëŕ číňĺđďđĺňčđóĺěűé ęŕę ŕęňčâíűé.
    740                      puiAlarmDfaInit[i] &= 0x80;
    741                      // Óńňŕíîâčě ňčď ńčăíŕëčçŕöčč ďî ďđčâ˙çŕííîěó îęíó.
    742                      puiAlarmDfaInit[i] |= puiTempBuffer[uiWindowIndex];
   \   000000BA   E0B0               LDI     R27, 0
   \   000000BC   ....               SUBI    R16, LOW((-(??m_auiIntermediateBuff) & 0xFFFF))
   \   000000BE   2FA0               MOV     R26, R16
   \   000000C0   ....               SBCI    R27, (-(??m_auiIntermediateBuff) & 0xFFFF) >> 8
   \   000000C2   910C               LD      R16, X
   \   000000C4   2B30               OR      R19, R16
    743                  }
    744                  else
    745                  {
    746                      // Î÷čńňčě číäĺęń ďđčâ˙çŕííîăî îęíŕ, áîëüřĺ íĺ íóćĺí.
    747                      // Îńňŕâčě óđîâĺíü äčńęđĺňíîăî ńčăíŕëŕ číňĺđďđĺňčđóĺěűé ęŕę ŕęňčâíűé.
    748                      puiAlarmDfaInit[i] &= 0x80;
   \                     ??ConfigurationInit_7:
   \   000000C6   8330               ST      Z, R19
    749                  }
    750          //        CPss21::m_aucRtuHoldingRegistersArray[i] = ((static_cast<uint16_t>(puiAlarmDfaInit[i] & ~(0x80)) << 8) | i);
    751              }
   \   000000C8   9523               INC     R18
   \   000000CA   951A               DEC     R17
   \   000000CC   F759               BRNE    ??ConfigurationInit_6
    752          
    753              for (uint8_t i = 0;
   \   000000CE   E080               LDI     R24, 0
   \   000000D0   E690               LDI     R25, 96
    754                      i < DISCRETE_SIGNALS_NUMBER;
    755                      i++)
    756              {
    757                  // Ęŕęîé ňčď ńčăíŕëčçŕöčč ńâ˙çŕí ń äčńęđĺňíűě ńčăíŕëîě?
    758                  switch (puiAlarmDfaInit[i] & 0x03)
   \                     ??ConfigurationInit_8:
   \   000000D2   E002               LDI     R16, 2
   \   000000D4   9F80               MUL     R24, R16
   \   000000D6   ....               LDI     R26, LOW(??m_apxAlarmDfa)
   \   000000D8   ....               LDI     R27, (??m_apxAlarmDfa) >> 8
   \   000000DA   0DA0               ADD     R26, R0
   \   000000DC   1DB1               ADC     R27, R1
   \   000000DE   E010               LDI     R17, 0
   \   000000E0   ....               LDI     R30, LOW(??m_auiReceiveMessageBuff)
   \   000000E2   ....               LDI     R31, (??m_auiReceiveMessageBuff) >> 8
   \   000000E4   0FE8               ADD     R30, R24
   \   000000E6   1FF1               ADC     R31, R17
   \   000000E8   8100               LD      R16, Z
   \   000000EA   7003               ANDI    R16, 0x03
   \   000000EC   F111               BREQ    ??ConfigurationInit_9
   \   000000EE   950A               DEC     R16
   \   000000F0   F029               BREQ    ??ConfigurationInit_10
   \   000000F2   950A               DEC     R16
   \   000000F4   F061               BREQ    ??ConfigurationInit_11
   \   000000F6   950A               DEC     R16
   \   000000F8   F099               BREQ    ??ConfigurationInit_12
   \   000000FA   C01B               RJMP    ??ConfigurationInit_9
    759                  {
    760                  case NORMAL:
    761                      m_apxAlarmDfa[i] = new CNormalAlarmDfa;
    762                      break;
    763          
    764                  case INDICATION:
    765                      // Óđîâĺíü äčńęđĺňíîăî ńčăíŕëŕ číňĺđďđĺňčđóĺěűé ęŕę ŕęňčâíűé - âűńîęčé?
    766                      if (puiAlarmDfaInit[i] & 0x80)
   \                     ??ConfigurationInit_10:
   \   000000FC   8100               LD      R16, Z
   \   000000FE   FF07               SBRS    R16, 7
   \   00000100   C003               RJMP    ??ConfigurationInit_13
    767                      {
    768                          m_apxAlarmDfa[i] = new CIndicationAlarmHighLevelDfa;
   \   00000102   ........           CALL    `??new CIndicationAlarmHighLevelDfa`
   \   00000106   C017               RJMP    ??ConfigurationInit_14
    769                      }
    770                      else
    771                      {
    772                          m_apxAlarmDfa[i] = new CIndicationAlarmLowLevelDfa;
   \                     ??ConfigurationInit_13:
   \   00000108   ........           CALL    `??new CIndicationAlarmLowLevelDfa`
   \   0000010C   C014               RJMP    ??ConfigurationInit_14
    773                      }
    774                      break;
    775          
    776                  case PREVENTIVE:
    777                      // Óđîâĺíü äčńęđĺňíîăî ńčăíŕëŕ číňĺđďđĺňčđóĺěűé ęŕę ŕęňčâíűé - âűńîęčé?
    778                      if (puiAlarmDfaInit[i] & 0x80)
   \                     ??ConfigurationInit_11:
   \   0000010E   8100               LD      R16, Z
   \   00000110   FF07               SBRS    R16, 7
   \   00000112   C003               RJMP    ??ConfigurationInit_15
    779                      {
    780                          m_apxAlarmDfa[i] = new CPreventiveAlarmHighLevelDfa;
   \   00000114   ........           CALL    `??new CPreventiveAlarmHighLevelDfa`
   \   00000118   C00E               RJMP    ??ConfigurationInit_14
    781                      }
    782                      else
    783                      {
    784                          m_apxAlarmDfa[i] = new CPreventiveAlarmLowLevelDfa;
   \                     ??ConfigurationInit_15:
   \   0000011A   ........           CALL    `??new CPreventiveAlarmLowLevelDfa`
   \   0000011E   C00B               RJMP    ??ConfigurationInit_14
    785                      }
    786                      break;
    787          
    788                  case EMERGENCY:
    789                      // Óđîâĺíü äčńęđĺňíîăî ńčăíŕëŕ číňĺđďđĺňčđóĺěűé ęŕę ŕęňčâíűé - âűńîęčé?
    790                      if (puiAlarmDfaInit[i] & 0x80)
   \                     ??ConfigurationInit_12:
   \   00000120   8100               LD      R16, Z
   \   00000122   FF07               SBRS    R16, 7
   \   00000124   C003               RJMP    ??ConfigurationInit_16
    791                      {
    792                          m_apxAlarmDfa[i] = new CEmergencyAlarmHighLevelDfa;
   \   00000126   ........           CALL    `??new CEmergencyAlarmHighLevelDfa`
   \   0000012A   C005               RJMP    ??ConfigurationInit_14
    793                      }
    794                      else
    795                      {
    796                          m_apxAlarmDfa[i] = new CEmergencyAlarmLowLevelDfa;
   \                     ??ConfigurationInit_16:
   \   0000012C   ........           CALL    `??new CEmergencyAlarmLowLevelDfa`
   \   00000130   C002               RJMP    ??ConfigurationInit_14
    797                      }
    798                      break;
    799          
    800                  case IND_PREVENTIVE:
    801                      m_apxAlarmDfa[i] = new CNormalAlarmDfa;
    802                      break;
    803          
    804                  case IND_EMERGENCY:
    805                      m_apxAlarmDfa[i] = new CNormalAlarmDfa;
    806                      break;
    807          
    808                  default:
    809                      m_apxAlarmDfa[i] = new CNormalAlarmDfa;
   \                     ??ConfigurationInit_9:
   \   00000132   ........           CALL    `??new CNormalAlarmDfa`
   \                     ??ConfigurationInit_14:
   \   00000136   930D               ST      X+, R16
   \   00000138   931C               ST      X, R17
    810                      break;
    811                  }
    812              }
   \   0000013A   9583               INC     R24
   \   0000013C   959A               DEC     R25
   \   0000013E   F649               BRNE    ??ConfigurationInit_8
    813          
    814              // Ďđčâ˙ćĺě îęíŕ ńčăíŕëčçŕöčč ę ńîçäŕííűě îáúĺęňŕě ńčăíŕëčçŕöčé äčńęđĺňíűő ńčăíŕëîâ.
    815              // Ń÷čňŕĺě âî âđĺěĺííűé áóôĺđ áëîę ÁÄ - "Číäĺęń îęíŕ ńčăíŕëčçŕöčč ęîňîđîĺ ďđčâ˙çŕíî ę ňĺęóůĺěó äčńęđĺňíîěó ńčăíŕëó".
    816              CDataBase::ReadBlock(puiTempBuffer, TDataBase::ALARM_WINDOW_INDEX);
   \   00000140   ....               RCALL   ?Subroutine46
    817              for (uint8_t i = 0;
   \                     ??CrossCallReturnLabel_135:
   \   00000142   E040               LDI     R20, 0
   \   00000144   E620               LDI     R18, 96
    818                      i < DISCRETE_SIGNALS_NUMBER;
    819                      i++)
    820              {
    821                  // Ďđčâ˙ćĺě îęíî ńčăíŕëčçŕöčč ę ňĺęóůĺěó äčńęđĺňíîěó ńčăíŕëó.
    822                  if (puiTempBuffer[i] < ALARM_WINDOWS_NUMBER)
   \                     ??ConfigurationInit_17:
   \   00000146   ....               RCALL   ?Subroutine26
   \                     ??CrossCallReturnLabel_125:
   \   00000148   8111               LDD     R17, Z+1
   \   0000014A   ....               RCALL   ?Subroutine36
   \                     ??CrossCallReturnLabel_36:
   \   0000014C   3330               CPI     R19, 48
   \   0000014E   01F8               MOVW    R31:R30, R17:R16
   \   00000150   F410               BRCC    ??ConfigurationInit_18
    823                  {
    824                      m_apxAlarmDfa[i] ->
    825                      SetAlarmWindowIndex(puiTempBuffer[i]);
   \   00000152   8333               STD     Z+3, R19
    826                  }
   \   00000154   C002               RJMP    ??ConfigurationInit_19
    827                  else
    828                  {
    829                      m_apxAlarmDfa[i] ->
    830                      SetAlarmWindowIndex(0);
   \                     ??ConfigurationInit_18:
   \   00000156   E000               LDI     R16, 0
   \   00000158   8303               STD     Z+3, R16
    831                  }
    832              }
   \                     ??ConfigurationInit_19:
   \   0000015A   9543               INC     R20
   \   0000015C   952A               DEC     R18
   \   0000015E   F799               BRNE    ??ConfigurationInit_17
    833          
    834              // Ń÷čňŕĺě âî âđĺěĺííűé áóôĺđ áëîę ÁÄ - "Âűőîäíűĺ đĺëĺ, ńîďîńňŕâëĺííűĺ ôčçč÷ĺńęčě âőîäŕě".
    835              CDataBase::ReadBlock(puiTempBuffer, TDataBase::RELAY);
   \   00000160   E026               LDI     R18, 6
   \   00000162   ....               RCALL   ?Subroutine66
    836              // Ďîëó÷čě ńâ˙çŕííűĺ âűőîäű íŕ ĚĐ.
    837              for (uint8_t i = 0;
   \                     ??CrossCallReturnLabel_137:
   \   00000164   E040               LDI     R20, 0
   \   00000166   E620               LDI     R18, 96
    838                      i < DISCRETE_SIGNALS_NUMBER;
    839                      i++)
    840              {
    841                  *(m_apxAlarmDfa[i] -> GetLinkedDiscreteOutputsPointer()) = puiTempBuffer[i];
   \                     ??ConfigurationInit_20:
   \   00000168   ....               RCALL   ?Subroutine36
   \                     ??CrossCallReturnLabel_37:
   \   0000016A   ....               RCALL   ?Subroutine26
   \                     ??CrossCallReturnLabel_126:
   \   0000016C   81F1               LDD     R31, Z+1
   \   0000016E   2FE0               MOV     R30, R16
   \   00000170   8334               STD     Z+4, R19
   \   00000172   9543               INC     R20
   \   00000174   952A               DEC     R18
   \   00000176   F7C1               BRNE    ??ConfigurationInit_20
    842              };
    843          
    844              // Ďîëó÷čě číäĺęńű čńňî÷íčęîâ ńîńňî˙íč˙ äčńęđĺňíűő ńčăíŕëîâ - äčńęđĺňíűĺ âőîäű ěîäóëĺé.
    845              for (uint8_t i = 0;
   \   00000178   E010               LDI     R17, 0
   \   0000017A   E300               LDI     R16, 48
   \   0000017C   E022               LDI     R18, 2
    846                      i < DISCRETE_INPUTS_NUMBER;
    847                      i++)
    848              {
    849                  m_apxAlarmDfa[i] -> SetDiscreteStateIndex(i);
   \                     ??ConfigurationInit_21:
   \   0000017E   9F12               MUL     R17, R18
   \   00000180   ....               RCALL   ?Subroutine61
   \                     ??CrossCallReturnLabel_61:
   \   00000182   81A0               LD      R26, Z
   \   00000184   81B1               LDD     R27, Z+1
   \   00000186   9615               ADIW    R27:R26, 5
   \   00000188   931C               ST      X, R17
    850              };
   \   0000018A   9513               INC     R17
   \   0000018C   950A               DEC     R16
   \   0000018E   F7B9               BRNE    ??ConfigurationInit_21
    851              // Ďîëó÷čě číäĺęńű čńňî÷íčęîâ ńîńňî˙íč˙ äčńęđĺňíűő ńčăíŕëîâ - ńîńňî˙íčĺ ˙÷ĺĺę(coils Modbus).
    852              for (uint8_t i = 0;
   \   00000190   E010               LDI     R17, 0
   \   00000192   E300               LDI     R16, 48
   \   00000194   E032               LDI     R19, 2
    853                      i < ALARM_WINDOWS_NUMBER;
    854                      i++)
    855              {
    856                  m_apxAlarmDfa[DISCRETE_INPUTS_NUMBER + i] -> SetDiscreteStateIndex(DISCRETE_INPUTS_NUMBER + i);
   \                     ??ConfigurationInit_22:
   \   00000196   2F21               MOV     R18, R17
   \   00000198   5D20               SUBI    R18, 208
   \   0000019A   9F13               MUL     R17, R19
   \   0000019C   01F0               MOVW    R31:R30, R1:R0
   \   0000019E   ....               SUBI    R30, LOW((-(??m_apxAlarmDfa + 96) & 0xFFFF))
   \   000001A0   ....               SBCI    R31, HIGH((-(??m_apxAlarmDfa + 96) & 0xFFFF))
   \   000001A2   81A0               LD      R26, Z
   \   000001A4   81B1               LDD     R27, Z+1
   \   000001A6   9615               ADIW    R27:R26, 5
   \   000001A8   932C               ST      X, R18
    857              };
   \   000001AA   9513               INC     R17
   \   000001AC   950A               DEC     R16
   \   000001AE   F799               BRNE    ??ConfigurationInit_22
    858          
    859              // Âîńńňŕíîâčě  ńîńňî˙íčĺ óńňđîéńňâŕ.
    860              // Ń÷čňŕĺě âî âđĺěĺííűé áóôĺđ áëîę ÁÄ - "Ńîńňî˙íčĺ óńňđîéńňâŕ őđŕíčěîĺ â EEPROM".
    861              CDataBase::ReadBlock(puiTempBuffer, TDataBase::DEVICE_STATE);
   \   000001B0   E02A               LDI     R18, 10
   \   000001B2   ....               RCALL   ?Subroutine66
    862              memcpy(reinterpret_cast<uint8_t*>(&m_xDeviceState),
    863                     puiTempBuffer,
    864                     sizeof(struct TDeviceState));
   \                     ??CrossCallReturnLabel_138:
   \   000001B4   E048               LDI     R20, 8
   \   000001B6   E050               LDI     R21, 0
   \   000001B8   ....               LDI     R18, LOW(??m_auiIntermediateBuff)
   \   000001BA   ....               LDI     R19, (??m_auiIntermediateBuff) >> 8
   \   000001BC   ....               LDI     R16, LOW((??m_xDeviceConfiguration + 27))
   \   000001BE   ....               LDI     R17, HIGH((??m_xDeviceConfiguration + 27))
   \   000001C0   ....               RCALL   ?Subroutine47
    865          
    866          //    // Ńîçäŕäčě ŕâňîěŕňű îáđŕáîňęč îřčáîę.
    867          //    uint8_t uiIndex = 0;
    868          //
    869          //    m_apxErrorAlarmDfa[uiIndex] = new CErrorAlarmDfa;
    870          //    // Ďđčâ˙ćĺě îęíî ńčăíŕëčçŕöčč ę ńîçäŕííîěó îáúĺęňó ńčăíŕëčçŕöčč îřčáęč.
    871          //    m_apxErrorAlarmDfa[uiIndex] -> SetAlarmWindowIndex(IMD_ERROR);
    872          //    // Óńňŕíîâčě číäĺęń čńňî÷íčęŕ ńîńňî˙íč˙ îřčáęč.
    873          //    m_apxErrorAlarmDfa[uiIndex] -> SetDiscreteStateIndex(IMD_ERROR);
    874          //    uiIndex++;
    875          //
    876          //    m_apxErrorAlarmDfa[uiIndex] = new CErrorAlarmDfa;
    877          //    // Ďđčâ˙ćĺě îęíî ńčăíŕëčçŕöčč ę ńîçäŕííîěó îáúĺęňó ńčăíŕëčçŕöčč îřčáęč.
    878          //    m_apxErrorAlarmDfa[uiIndex] -> SetAlarmWindowIndex(OMD_ERROR);
    879          //    // Óńňŕíîâčě číäĺęń čńňî÷íčęŕ ńîńňî˙íč˙ îřčáęč.
    880          //    m_apxErrorAlarmDfa[uiIndex] -> SetDiscreteStateIndex(OMD_ERROR);
    881          //    uiIndex++;
    882          //
    883          //    m_apxErrorAlarmDfa[uiIndex] = new CErrorAlarmDfa;
    884          //    // Ďđčâ˙ćĺě îęíî ńčăíŕëčçŕöčč ę ńîçäŕííîěó îáúĺęňó ńčăíŕëčçŕöčč îřčáęč.
    885          //    m_apxErrorAlarmDfa[uiIndex] -> SetAlarmWindowIndex(CFG_ERROR);
    886          //    // Óńňŕíîâčě číäĺęń čńňî÷íčęŕ ńîńňî˙íč˙ îřčáęč.
    887          //    m_apxErrorAlarmDfa[uiIndex] -> SetDiscreteStateIndex(CFG_ERROR);
    888          //    uiIndex++;
    889          //
    890          //    m_apxErrorAlarmDfa[uiIndex] = new CErrorAlarmDfa;
    891          //    // Ďđčâ˙ćĺě îęíî ńčăíŕëčçŕöčč ę ńîçäŕííîěó îáúĺęňó ńčăíŕëčçŕöčč îřčáęč.
    892          //    m_apxErrorAlarmDfa[uiIndex] -> SetAlarmWindowIndex(DB_ERROR);
    893          //    // Óńňŕíîâčě číäĺęń čńňî÷íčęŕ ńîńňî˙íč˙ îřčáęč.
    894          //    m_apxErrorAlarmDfa[uiIndex] -> SetDiscreteStateIndex(DB_ERROR);
    895          //    uiIndex++;
    896          //
    897          //    m_apxErrorAlarmDfa[uiIndex] = new CErrorAlarmDfa;
    898          //    // Ďđčâ˙ćĺě îęíî ńčăíŕëčçŕöčč ę ńîçäŕííîěó îáúĺęňó ńčăíŕëčçŕöčč îřčáęč.
    899          //    m_apxErrorAlarmDfa[uiIndex] -> SetAlarmWindowIndex(MBS_ERROR);
    900          //    // Óńňŕíîâčě číäĺęń čńňî÷íčęŕ ńîńňî˙íč˙ îřčáęč.
    901          //    m_apxErrorAlarmDfa[uiIndex] -> SetDiscreteStateIndex(MBS_ERROR);
    902          //    uiIndex++;
    903          
    904              // Ńîçäŕäčě ŕâňîěŕňű îáđŕáîňęč îřčáîę.
    905              for (uint8_t i = 0;
   \                     ??CrossCallReturnLabel_49:
   \   000001C2   E090               LDI     R25, 0
   \   000001C4   E082               LDI     R24, 2
    906                      i < HANDLED_ERROR_NUMBER;
    907                      i++)
    908              {
    909                  m_apxErrorAlarmDfa[i] = new CErrorAlarmDfa;
   \                     ??ConfigurationInit_23:
   \   000001C6   ........           CALL    `??new CErrorAlarmDfa`
   \   000001CA   E022               LDI     R18, 2
   \   000001CC   9F92               MUL     R25, R18
   \   000001CE   ....               RCALL   ?Subroutine25
   \                     ??CrossCallReturnLabel_17:
   \   000001D0   8F00               STD     Z+24, R16
   \   000001D2   8F11               STD     Z+25, R17
    910                  // Ďđčâ˙ćĺě îęíî ńčăíŕëčçŕöčč ę ńîçäŕííîěó îáúĺęňó ńčăíŕëčçŕöčč îřčáęč.
    911                  m_apxErrorAlarmDfa[i] -> SetAlarmWindowIndex(i);
   \   000001D4   01D8               MOVW    R27:R26, R17:R16
   \   000001D6   9613               ADIW    R27:R26, 3
   \   000001D8   939C               ST      X, R25
    912                  // Óńňŕíîâčě číäĺęń čńňî÷íčęŕ ńîńňî˙íč˙ îřčáęč.
    913                  m_apxErrorAlarmDfa[i] -> SetDiscreteStateIndex(i);
   \   000001DA   8D00               LDD     R16, Z+24
   \   000001DC   8DF1               LDD     R31, Z+25
   \   000001DE   2FE0               MOV     R30, R16
   \   000001E0   8394               STD     Z+4, R25
    914              };
   \   000001E2   9593               INC     R25
   \   000001E4   958A               DEC     R24
   \   000001E6   F779               BRNE    ??ConfigurationInit_23
    915          }
   \   000001E8                      REQUIRE ?Subroutine84
   \   000001E8                      ;               // Fall through to label ?Subroutine84

   \                                 In  segment CODE, align 2, keep-with-next
   \                     ?Subroutine47:
   \   00000000   ........           JMP     memcpy

   \                                 In  segment CODE, align 2, keep-with-next
   \                     ?Subroutine46:
   \   00000000   E023               LDI     R18, 3
   \   00000002                      REQUIRE ?Subroutine66
   \   00000002                      ;               // Fall through to label ?Subroutine66

   \                                 In  segment CODE, align 2, keep-with-next
   \                     ?Subroutine66:
   \   00000000   ....               LDI     R16, LOW(??m_auiIntermediateBuff)
   \   00000002   ....               LDI     R17, (??m_auiIntermediateBuff) >> 8
   \   00000004                      REQUIRE ?Subroutine86
   \   00000004                      ;               // Fall through to label ?Subroutine86

   \                                 In  segment CODE, align 2, keep-with-next
   \                     ?Subroutine86:
   \   00000000   ........           JMP     ??ReadBlock

   \                                 In  segment CODE, align 2, keep-with-next
   \                     ?Subroutine37:
   \   00000000   018D               MOVW    R17:R16, R27:R26
   \   00000002   ....               RJMP    ?Subroutine86

   \                                 In  segment CODE, align 2, keep-with-next
   \                     ?Subroutine36:
   \   00000000   E0F0               LDI     R31, 0
   \   00000002   2FE4               MOV     R30, R20
   \   00000004   ....               SUBI    R30, LOW((-(??m_auiIntermediateBuff) & 0xFFFF))
   \   00000006   ....               SBCI    R31, (-(??m_auiIntermediateBuff) & 0xFFFF) >> 8
   \   00000008   8130               LD      R19, Z
   \   0000000A   9508               RET

   \                                 In  segment CODE, align 2, keep-with-next
   \                     ?Subroutine26:
   \   00000000   E002               LDI     R16, 2
   \   00000002   9F40               MUL     R20, R16
   \   00000004   ....               RCALL   ?Subroutine61
   \                     ??CrossCallReturnLabel_63:
   \   00000006                      REQUIRE ?Subroutine82
   \   00000006                      ;               // Fall through to label ?Subroutine82

   \                                 In  segment CODE, align 2, keep-with-next
   \                     ?Subroutine82:
   \   00000000   8100               LD      R16, Z
   \   00000002   9508               RET

   \                                 In  segment CODE, align 2, keep-with-next
   \                     ?Subroutine61:
   \   00000000   01F0               MOVW    R31:R30, R1:R0
   \   00000002   ....               SUBI    R30, LOW((-(??m_apxAlarmDfa) & 0xFFFF))
   \   00000004   ....               SBCI    R31, (-(??m_apxAlarmDfa) & 0xFFFF) >> 8
   \   00000006   9508               RET
    916          
    917          //-----------------------------------------------------------------------------------------------------

   \                                 In  segment CODE, align 2, keep-with-next
    918          void CPss21::DiscreteOutputControlClear(void)
   \                     ??DiscreteOutputControlClear:
    919          {
   \   00000000   01AC               MOVW    R21:R20, R25:R24
    920              // Ďđčâĺäĺíčĺ áóôĺđîâ óďđŕâëĺíč˙ ěîäóë˙ěč äčńęđĺňíűő âűőîäîâ(đĺëĺ) â čńőîäíîĺ ńîńňî˙íčĺ.
    921              for (int j = 0;
    922                      j < DISCRETE_OUTPUT_MODULE_MAX_NUMBER;
    923                      j++)
    924              {
    925                  // öčęë âűáîđŕ đĺëĺ.
    926                  for (int k = 0;
   \   00000002   ....               RCALL   ?Subroutine32
   \                     ??CrossCallReturnLabel_27:
   \   00000004   E008               LDI     R16, 8
   \   00000006   E010               LDI     R17, 0
    927                          k < MR_DISCRETE_OUTPUT_NUMBER;
    928                          k++)
    929                  {
    930                      // Ńáđîńčě ôëŕă - íîâîĺ íŕđóřĺíčĺ.
    931                      m_axDiscreteOutputControl[(j * MR_DISCRETE_OUTPUT_NUMBER) + k].uiNewActivation = 0;
   \                     ??DiscreteOutputControlClear_1:
   \   00000008   019C               MOVW    R19:R18, R25:R24
   \   0000000A   0F22               LSL     R18
   \   0000000C   1F33               ROL     R19
   \   0000000E   ....               RCALL   ?Subroutine65
   \                     ??CrossCallReturnLabel_72:
   \   00000010   0FE2               ADD     R30, R18
   \   00000012   1FF3               ADC     R31, R19
   \   00000014   8F14               STD     Z+28, R17
    932                      // Ńáđîńčě ôëŕă - ňđĺáîâŕíčĺ âęëţ÷ĺíč˙ đĺëĺ.
    933                      m_axDiscreteOutputControl[(j * MR_DISCRETE_OUTPUT_NUMBER) + k].uiRelayActivationRequest = 0;
   \   00000016   8F15               STD     Z+29, R17
    934                  }
   \   00000018   9601               ADIW    R25:R24, 1
   \   0000001A   950A               DEC     R16
   \   0000001C   F7A9               BRNE    ??DiscreteOutputControlClear_1
    935              }
    936          }
   \   0000001E   01CA               MOVW    R25:R24, R21:R20
   \   00000020   9508               RET
    937          
    938          //-----------------------------------------------------------------------------------------------------

   \                                 In  segment CODE, align 2, keep-with-next
    939          void CPss21::DiscreteOutputsSet(uint8_t *puiLinkedDiscreteOutputs, uint8_t uiNewViolation)
   \                     ??DiscreteOutputsSet:
    940          {
   \   00000000   ....               RCALL   ?Subroutine35
   \                     ??CrossCallReturnLabel_35:
   \   00000002   01B8               MOVW    R23:R22, R17:R16
    941              // Äčńęđĺňíűé ńčăíŕë áűë ŕęňčâĺí íŕ ďđĺäűäóůĺě řŕăĺ?
    942              if (!uiNewViolation)
   \   00000004   2322               TST     R18
   \   00000006   E0A0               LDI     R26, 0
   \   00000008   E0B0               LDI     R27, 0
   \   0000000A   E031               LDI     R19, 1
   \   0000000C   F489               BRNE    ??DiscreteOutputsSet_1
    943              {
    944                  // Íĺ íîâîĺ íŕđóřĺíčĺ.
    945                  // óńňŕíîâčě ôëŕăč - ňđĺáîâŕíč˙ âęëţ÷ĺíč˙, äë˙ çŕďđîăđŕěěčđîâŕííűő đĺëĺ,
    946                  // â áóôĺđĺ âűőîäîâ ňđĺáîâŕíčé âęëţ÷ĺíč˙ đĺëĺ - áëîęčđîâęŕ.
    947                  // öčęë âűáîđŕ ěîäóë˙.
    948                  for (int j = 0;
    949                          j < DISCRETE_OUTPUT_MODULE_MAX_NUMBER;
    950                          j++)
    951                  {
    952                      // öčęë âűáîđŕ đĺëĺ.
    953                      for (int k = 0;
   \                     ??DiscreteOutputsSet_2:
   \   0000000E   ....               RCALL   ?Subroutine32
   \                     ??CrossCallReturnLabel_28:
   \   00000010   E028               LDI     R18, 8
    954                              k < MR_DISCRETE_OUTPUT_NUMBER;
    955                              k++)
    956                      {
    957                          // Ňĺęóůčé - (j, k) äčńęđĺňíűé âűőîä(đĺëĺ) ďđčâ˙çŕí?
    958                          if (puiLinkedDiscreteOutputs[j] & (0x01 << k))
   \                     ??DiscreteOutputsSet_3:
   \   00000012   ....               RCALL   ?Subroutine23
   \                     ??CrossCallReturnLabel_174:
   \   00000014   F031               BREQ    ??DiscreteOutputsSet_4
    959                          {
    960                              // óńňŕíîâčě ôëŕă - ňđĺáîâŕíčĺ âęëţ÷ĺíč˙ đĺëĺ.
    961                              m_axDiscreteOutputControl[(j * MR_DISCRETE_OUTPUT_NUMBER) + k].uiRelayActivationRequest = 1;
   \   00000016   ....               RCALL   ?Subroutine38
    962                          }
    963                      }
   \                     ??CrossCallReturnLabel_38:
   \   00000018   01F8               MOVW    R31:R30, R17:R16
   \   0000001A   ....               SUBI    R30, LOW((-(??m_xDeviceConfigSearch) & 0xFFFF))
   \   0000001C   ....               SBCI    R31, (-(??m_xDeviceConfigSearch) & 0xFFFF) >> 8
   \   0000001E   E001               LDI     R16, 1
   \   00000020   8F05               STD     Z+29, R16
   \                     ??DiscreteOutputsSet_4:
   \   00000022   9601               ADIW    R25:R24, 1
   \   00000024   952A               DEC     R18
   \   00000026   F7A9               BRNE    ??DiscreteOutputsSet_3
    964                  }
   \   00000028   9611               ADIW    R27:R26, 1
   \   0000002A   953A               DEC     R19
   \   0000002C   F089               BREQ    ??DiscreteOutputsSet_5
   \   0000002E   CFEF               RJMP    ??DiscreteOutputsSet_2
    965              }
    966              else
    967              {
    968                  // íîâîĺ íŕđóřĺíčĺ.
    969                  // óńňŕíîâčě ôëŕăč - íîâîĺ íŕđóřĺíčĺ, äë˙ çŕďđîăđŕěěčđîâŕííűő đĺëĺ
    970                  // â áóôĺđĺ âűőîäîâ óďđŕâëĺíč˙ đĺëĺ - íîâîĺ íŕđóřĺíčĺ.
    971                  // óńňŕíîâčě ôëŕăč - ňđĺáîâŕíč˙ âęëţ÷ĺíč˙, äë˙ çŕďđîăđŕěěčđîâŕííűő đĺëĺ,
    972                  // â áóôĺđĺ âűőîäîâ ňđĺáîâŕíčé âęëţ÷ĺíč˙ đĺëĺ - áëîęčđîâęŕ.
    973                  // öčęë âűáîđŕ ěîäóë˙.
    974                  for (int j = 0;
    975                          j < DISCRETE_OUTPUT_MODULE_MAX_NUMBER;
    976                          j++)
    977                  {
    978                      // öčęë âűáîđŕ đĺëĺ.
    979                      for (int k = 0;
   \                     ??DiscreteOutputsSet_1:
   \   00000030   ....               RCALL   ?Subroutine32
   \                     ??CrossCallReturnLabel_29:
   \   00000032   E028               LDI     R18, 8
    980                              k < MR_DISCRETE_OUTPUT_NUMBER;
    981                              k++)
    982                      {
    983                          // Ňĺęóůčé - (j, k) äčńęđĺňíűé âűőîä(đĺëĺ) ďđčâ˙çŕí?
    984                          if (puiLinkedDiscreteOutputs[j] & (0x01 << k))
   \                     ??DiscreteOutputsSet_6:
   \   00000034   ....               RCALL   ?Subroutine23
   \                     ??CrossCallReturnLabel_175:
   \   00000036   F031               BREQ    ??DiscreteOutputsSet_7
    985                          {
    986                              // óńňŕíîâčě ôëŕă - íîâîĺ íŕđóřĺíčĺ.
    987                              m_axDiscreteOutputControl[(j * MR_DISCRETE_OUTPUT_NUMBER) + k].uiNewActivation = 1;
   \   00000038   ....               RCALL   ?Subroutine38
   \                     ??CrossCallReturnLabel_39:
   \   0000003A   ....               RCALL   ?Subroutine65
   \                     ??CrossCallReturnLabel_73:
   \   0000003C   ....               RCALL   ?Subroutine69
   \                     ??CrossCallReturnLabel_190:
   \   0000003E   E001               LDI     R16, 1
   \   00000040   8F04               STD     Z+28, R16
    988                              // óńňŕíîâčě ôëŕă - ňđĺáîâŕíčĺ âęëţ÷ĺíč˙ đĺëĺ.
    989                              m_axDiscreteOutputControl[(j * MR_DISCRETE_OUTPUT_NUMBER) + k].uiRelayActivationRequest = 1;
   \   00000042   8F05               STD     Z+29, R16
    990                          }
    991                      }
   \                     ??DiscreteOutputsSet_7:
   \   00000044   9601               ADIW    R25:R24, 1
   \   00000046   952A               DEC     R18
   \   00000048   F7A9               BRNE    ??DiscreteOutputsSet_6
    992                  }
   \   0000004A   9611               ADIW    R27:R26, 1
   \   0000004C   953A               DEC     R19
   \   0000004E   F781               BRNE    ??DiscreteOutputsSet_1
    993              }
    994          }
   \                     ??DiscreteOutputsSet_5:
   \   00000050   ....               RJMP    ?Subroutine84

   \                                 In  segment CODE, align 2, keep-with-next
   \                     ?Subroutine38:
   \   00000000   E043               LDI     R20, 3
   \   00000002   018D               MOVW    R17:R16, R27:R26
   \   00000004   ....               RCALL   ?Subroutine62
   \                     ??CrossCallReturnLabel_177:
   \   00000006   0F08               ADD     R16, R24
   \   00000008   1F19               ADC     R17, R25
   \   0000000A   0F00               LSL     R16
   \   0000000C   1F11               ROL     R17
   \   0000000E   9508               RET

   \                                 In  segment CODE, align 2, keep-with-next
   \                     ?Subroutine23:
   \   00000000   01FB               MOVW    R31:R30, R23:R22
   \   00000002   0FEA               ADD     R30, R26
   \   00000004   1FFB               ADC     R31, R27
   \   00000006   8150               LD      R21, Z
   \   00000008   2F48               MOV     R20, R24
   \   0000000A                      REQUIRE ??Subroutine93_0
   \   0000000A                      ;               // Fall through to label ??Subroutine93_0
    995          
    996          //-----------------------------------------------------------------------------------------------------

   \                                 In  segment CODE, align 2, keep-with-next
    997          void CPss21::AlarmsProcessing(void)
   \                     ??AlarmsProcessing:
    998          {
   \   00000000   939A               ST      -Y, R25
   \   00000002   938A               ST      -Y, R24
    999              // Îáđŕáîňŕĺě âńĺ äčńęđĺňíűĺ ńčăíŕëű.
   1000              for (uint8_t i = 0;
   \   00000004   E090               LDI     R25, 0
   \   00000006   E680               LDI     R24, 96
   1001                      i < DISCRETE_SIGNALS_NUMBER;
   1002                      i++)
   1003              {
   1004                  m_apxAlarmDfa[i] -> Fsm();
   \                     ??AlarmsProcessing_1:
   \   00000008   E002               LDI     R16, 2
   \   0000000A   9F90               MUL     R25, R16
   \   0000000C   ....               RCALL   ?Subroutine61
   1005              }
   \                     ??CrossCallReturnLabel_62:
   \   0000000E   8120               LD      R18, Z
   \   00000010   8131               LDD     R19, Z+1
   \   00000012   ....               RCALL   ?Subroutine39
   \                     ??CrossCallReturnLabel_40:
   \   00000014   F7C9               BRNE    ??AlarmsProcessing_1
   1006          }
   \   00000016                      REQUIRE ?Subroutine73
   \   00000016                      ;               // Fall through to label ?Subroutine73

   \                                 In  segment CODE, align 2, keep-with-next
   \                     ?Subroutine73:
   \   00000000   9189               LD      R24, Y+
   \   00000002   9199               LD      R25, Y+
   \   00000004   9508               RET

   \                                 In  segment CODE, align 2, keep-with-next
   \                     ?Subroutine39:
   \   00000000   0189               MOVW    R17:R16, R19:R18
   \   00000002   01F9               MOVW    R31:R30, R19:R18
   \   00000004   8121               LDD     R18, Z+1
   \   00000006   81F2               LDD     R31, Z+2
   \   00000008   2FE2               MOV     R30, R18
   \   0000000A   ....               RCALL   ?Subroutine63
   \                     ??CrossCallReturnLabel_64:
   \   0000000C   9593               INC     R25
   \   0000000E   958A               DEC     R24
   \   00000010   9508               RET
   1007          
   1008          //-----------------------------------------------------------------------------------------------------

   \                                 In  segment CODE, align 2, keep-with-next
   1009          void CPss21::ErrorAlarmsProcessing(void)
   \                     ??ErrorAlarmsProcessing:
   1010          {
   \   00000000   939A               ST      -Y, R25
   \   00000002   938A               ST      -Y, R24
   1011              // Îáđŕáîňŕĺě âńĺ äčńęđĺňíűĺ ńčăíŕëű.
   1012              for (uint8_t i = 0;
   \   00000004   E090               LDI     R25, 0
   \   00000006   E082               LDI     R24, 2
   \                     ??ErrorAlarmsProcessing_1:
   \   00000008   E002               LDI     R16, 2
   \   0000000A   9F90               MUL     R25, R16
   \   0000000C   ....               RCALL   ?Subroutine25
   1013                      i < HANDLED_ERROR_NUMBER;
   1014                      i++)
   1015              {
   1016                  m_apxErrorAlarmDfa[i] -> Fsm();
   1017              }
   \                     ??CrossCallReturnLabel_18:
   \   0000000E   8D20               LDD     R18, Z+24
   \   00000010   8D31               LDD     R19, Z+25
   \   00000012   ....               RCALL   ?Subroutine39
   \                     ??CrossCallReturnLabel_41:
   \   00000014   F7C9               BRNE    ??ErrorAlarmsProcessing_1
   1018          }
   \   00000016   ....               RJMP    ?Subroutine73
   1019          
   1020          //-----------------------------------------------------------------------------------------------------

   \                                 In  segment CODE, align 2, keep-with-next
   1021          uint8_t CPss21::GetDiscreteInputState(uint8_t uiIndex)
   \                     ??GetDiscreteInputState:
   1022          {
   1023              if (uiIndex < DISCRETE_INPUTS_NUMBER)
   \   00000000   E010               LDI     R17, 0
   \   00000002   ....               LDI     R30, LOW(??m_aucRtuDiscreteDataArray)
   \   00000004   ....               LDI     R31, (??m_aucRtuDiscreteDataArray) >> 8
   \   00000006   ....               RCALL   ?Subroutine69
   \                     ??CrossCallReturnLabel_191:
   \   00000008   3300               CPI     R16, 48
   \   0000000A   F410               BRCC    ??GetDiscreteInputState_1
   1024              {
   1025                  // Ďîëó÷čě ńîńňî˙íčĺ äčńęđĺňíîăî ńčăíŕëŕ - äčńęđĺňíűĺ âőîäű ěîäóëĺé.
   1026                  return m_aucRtuDiscreteDataArray[DISCRETE_INPUTS_BIT_ARRAY_OFFSET + uiIndex];
   \   0000000C   8900               LDD     R16, Z+16
   \   0000000E   9508               RET
   1027              }
   1028              else
   1029              {
   1030                  // Ďîëó÷čě ńîńňî˙íčĺ äčńęđĺňíîăî ńčăíŕëŕ - ńîńňî˙íčĺ ˙÷ĺĺę(coils Modbus).
   1031                  return m_aucRtuDiscreteDataArray[ALARM_WINDOWS_BIT_ARRAY_OFFSET + uiIndex];
   \                     ??GetDiscreteInputState_1:
   \   00000010   5CE0               SUBI    R30, 192
   \   00000012   4FFF               SBCI    R31, 255
   \   00000014   ....               RJMP    ?Subroutine82
   1032              }
   1033          }
   1034          
   1035          //-----------------------------------------------------------------------------------------------------

   \                                 In  segment CODE, align 2, keep-with-next
   1036          void CPss21::SetErrorAlarmState(uint8_t uiIndex, uint8_t uiData)
   \                     ??SetErrorAlarmState:
   1037          {
   1038              // Óńňŕíîâčě ńîńňî˙íčĺ čńňî÷íčęŕ îřčáęč.
   1039              m_auiErrorAlarmDataArray[uiIndex] = uiData;
   \   00000000   ....               RCALL   ?Subroutine40
   \                     ??CrossCallReturnLabel_42:
   \   00000002   AF11               STD     Z+57, R17
   1040          }
   \   00000004   9508               RET

   \                                 In  segment CODE, align 2, keep-with-next
   \                     ?Subroutine40:
   \   00000000   E0F0               LDI     R31, 0
   \   00000002   2FE0               MOV     R30, R16
   \   00000004   ....               SUBI    R30, LOW((-(??m_xDeviceConfigSearch) & 0xFFFF))
   \   00000006   ....               SBCI    R31, (-(??m_xDeviceConfigSearch) & 0xFFFF) >> 8
   \   00000008   9508               RET
   1041          
   1042          //-----------------------------------------------------------------------------------------------------

   \                                 In  segment CODE, align 2, keep-with-next
   1043          uint8_t CPss21::GetErrorAlarmState(uint8_t uiIndex)
   \                     ??GetErrorAlarmState:
   1044          {
   1045              // Ďîëó÷čě ńîńňî˙íčĺ čńňî÷íčęŕ îřčáęč.
   1046              return m_auiErrorAlarmDataArray[uiIndex];
   \   00000000   ....               RCALL   ?Subroutine40
   \                     ??CrossCallReturnLabel_43:
   \   00000002   AD01               LDD     R16, Z+57
   \   00000004   9508               RET
   1047          }
   1048          
   1049          //-----------------------------------------------------------------------------------------------------

   \                                 In  segment CODE, align 2, keep-with-next
   1050          void CPss21::AlarmTypeSet(uint8_t uiAlarmType)
   \                     ??AlarmTypeSet:
   1051          {
   \   00000000   938A               ST      -Y, R24
   \   00000002   2F80               MOV     R24, R16
   1052              m_xPreventiveAlarmWindowNotifyerControl.AlarmSet(uiAlarmType);
   \   00000004   2F20               MOV     R18, R16
   \   00000006   ....               RCALL   ?Subroutine55
   1053              m_xEmergencyAlarmWindowNotifyerControl.AlarmSet(uiAlarmType);
   \                     ??CrossCallReturnLabel_208:
   \   00000008   2F28               MOV     R18, R24
   \   0000000A   ....               RCALL   ?Subroutine56
   1054              m_xStatusLedNotifyerControl.AlarmSet(uiAlarmType);
   \                     ??CrossCallReturnLabel_210:
   \   0000000C   2F28               MOV     R18, R24
   \   0000000E   ....               RCALL   ?Subroutine57
   1055              m_xBuzzerNotifyerControl.AlarmSet(uiAlarmType);
   \                     ??CrossCallReturnLabel_212:
   \   00000010   2F28               MOV     R18, R24
   \   00000012   ....               RCALL   ?Subroutine58
   1056          }
   \                     ??CrossCallReturnLabel_217:
   \   00000014   ....               RJMP    ?Subroutine80

   \                                 In  segment CODE, align 2, keep-with-next
   \                     ?Subroutine57:
   \   00000000   ....               LDI     R16, LOW((??m_xDeviceConfigSearch + 147))
   \   00000002   ....               LDI     R17, HIGH((??m_xDeviceConfigSearch + 147))
   \   00000004   ........           JMP     ??AlarmSet_3

   \                                 In  segment CODE, align 2, keep-with-next
   \                     ?Subroutine56:
   \   00000000   ....               LDI     R16, LOW((??m_xDeviceConfigSearch + 137))
   \   00000002   ....               LDI     R17, HIGH((??m_xDeviceConfigSearch + 137))
   \   00000004   ........           JMP     ??AlarmSet_2

   \                                 In  segment CODE, align 2, keep-with-next
   \                     ?Subroutine55:
   \   00000000   ....               LDI     R16, LOW((??m_xDeviceConfigSearch + 127))
   \   00000002   ....               LDI     R17, HIGH((??m_xDeviceConfigSearch + 127))
   \   00000004   ........           JMP     ??AlarmSet_1
   1057          
   1058          //-----------------------------------------------------------------------------------------------------

   \                                 In  segment CODE, align 2, keep-with-next
   1059          void CPss21::AlarmTypeChange(void)
   \                     ??AlarmTypeChange:
   1060          {
   1061              if (m_uiCommonAlarmType != m_uiCommonAlarmTypePrevious)
   \   00000000   ....               RCALL   ?Subroutine27
   \                     ??CrossCallReturnLabel_118:
   \   00000002   F011               BREQ    ??CrossCallReturnLabel_181
   1062              {
   1063                  m_uiCommonAlarmTypePrevious = m_uiCommonAlarmType;
   \   00000004   AF00               STD     Z+56, R16
   1064                  AlarmTypeSet(m_uiCommonAlarmType);
   \   00000006   ....               RCALL   ??Subroutine94_0
   1065              }
   1066          }
   \                     ??CrossCallReturnLabel_181:
   \   00000008   9508               RET

   \                                 In  segment CODE, align 2, keep-with-next
   \                     ?Subroutine27:
   \   00000000   ....               RCALL   ?Subroutine65
   \                     ??CrossCallReturnLabel_78:
   \   00000002   A907               LDD     R16, Z+55
   \   00000004   AD10               LDD     R17, Z+56
   \   00000006   ....               RJMP    ?Subroutine79

   \                                 In  segment CODE, align 2, keep-with-next
   \                     ??Subroutine94_0:
   \   00000000   ....               RJMP    ??AlarmTypeSet
   1067          
   1068          //-----------------------------------------------------------------------------------------------------

   \                                 In  segment CODE, align 2, keep-with-next
   1069          void CPss21::AlarmTypeErrorChange(void)
   \                     ??AlarmTypeErrorChange:
   1070          {
   1071              if (m_uiCommonAlarmType != m_uiCommonAlarmTypePrevious)
   \   00000000   ....               RCALL   ?Subroutine27
   \                     ??CrossCallReturnLabel_119:
   \   00000002   F011               BREQ    ??CrossCallReturnLabel_216
   1072              {
   1073                  m_uiCommonAlarmTypePrevious = m_uiCommonAlarmType;
   \   00000004   AF00               STD     Z+56, R16
   1074          
   1075                  m_xPreventiveAlarmWindowNotifyerControl.AlarmSet(INDICATION);
   \   00000006   ....               RCALL   ??Subroutine99_0
   1076                  m_xEmergencyAlarmWindowNotifyerControl.AlarmSet(INDICATION);
   1077                  m_xStatusLedNotifyerControl.AlarmSet(ERROR);
   1078                  m_xBuzzerNotifyerControl.AlarmSet(ERROR);
   1079              }
   1080          }
   \                     ??CrossCallReturnLabel_216:
   \   00000008   9508               RET

   \                                 In  segment CODE, align 2, keep-with-next
   \                     ??Subroutine99_0:
   \   00000000   E021               LDI     R18, 1
   \   00000002   ....               RCALL   ?Subroutine55
   \                     ??CrossCallReturnLabel_207:
   \   00000004   E021               LDI     R18, 1
   \   00000006   ....               RCALL   ?Subroutine56
   \                     ??CrossCallReturnLabel_209:
   \   00000008   E026               LDI     R18, 6
   \   0000000A   ....               RCALL   ?Subroutine57
   \                     ??CrossCallReturnLabel_211:
   \   0000000C   E026               LDI     R18, 6
   \   0000000E                      REQUIRE ?Subroutine58
   \   0000000E                      ;               // Fall through to label ?Subroutine58
   1081          
   1082          //-----------------------------------------------------------------------------------------------------

   \                                 In  segment CODE, align 2, keep-with-next
   1083          void CPss21::AlarmTypeReceipt(void)
   \                     ??AlarmTypeReceipt:
   1084          {
   1085              m_uiCommonAlarmType = INDICATION;
   \   00000000   E001               LDI     R16, 1
   \   00000002                      REQUIRE ?Subroutine87
   \   00000002                      ;               // Fall through to label ?Subroutine87
   1086              m_uiCommonAlarmTypePrevious = INDICATION;
   1087              AlarmTypeSet(INDICATION);
   1088          }

   \                                 In  segment CODE, align 2, keep-with-next
   \                     ?Subroutine87:
   \   00000000   ....               RCALL   ?Subroutine50
   \                     ??CrossCallReturnLabel_139:
   \   00000002                      REQUIRE ??Subroutine94_0
   \   00000002                      ;               // Fall through to label ??Subroutine94_0

   \                                 In  segment CODE, align 2, keep-with-next
   \                     ?Subroutine50:
   \   00000000   9300....           STS     (??m_xDeviceConfigSearch + 55), R16
   \   00000004   9300....           STS     (??m_xDeviceConfigSearch + 56), R16
   \   00000008   9508               RET
   1089          
   1090          //-----------------------------------------------------------------------------------------------------

   \                                 In  segment CODE, align 2, keep-with-next
   1091          void CPss21::AlarmTypeReset(void)
   \                     ??AlarmTypeReset:
   1092          {
   1093              m_uiCommonAlarmType = NORMAL;
   \   00000000   E000               LDI     R16, 0
   \   00000002   ....               RJMP    ?Subroutine87
   1094              m_uiCommonAlarmTypePrevious = NORMAL;
   1095              AlarmTypeSet(NORMAL);
   1096          }
   1097          
   1098          //-----------------------------------------------------------------------------------------------------

   \                                 In  segment CODE, align 2, keep-with-next
   1099          void CPss21::NotifyersControlProcessing(void)
   \                     ??NotifyersControlProcessing:
   1100          {
   1101              m_xPreventiveAlarmWindowNotifyerControl.Fsm();
   \   00000000   ....               LDI     R16, LOW((??m_xDeviceConfigSearch + 127))
   \   00000002   ....               LDI     R17, HIGH((??m_xDeviceConfigSearch + 127))
   \   00000004   ....               RCALL   ?Subroutine88
   1102              m_xEmergencyAlarmWindowNotifyerControl.Fsm();
   \                     ??CrossCallReturnLabel_142:
   \   00000006   ....               LDI     R16, LOW((??m_xDeviceConfigSearch + 137))
   \   00000008   ....               LDI     R17, HIGH((??m_xDeviceConfigSearch + 137))
   \   0000000A   ....               RCALL   ?Subroutine88
   1103              m_xStatusLedNotifyerControl.Fsm();
   \                     ??CrossCallReturnLabel_141:
   \   0000000C   ....               LDI     R16, LOW((??m_xDeviceConfigSearch + 147))
   \   0000000E   ....               LDI     R17, HIGH((??m_xDeviceConfigSearch + 147))
   \   00000010   ....               RCALL   ?Subroutine88
   1104              m_xBuzzerNotifyerControl.Fsm();
   \                     ??CrossCallReturnLabel_140:
   \   00000012   ....               LDI     R16, LOW((??m_xDeviceConfigSearch + 157))
   \   00000014   ....               LDI     R17, HIGH((??m_xDeviceConfigSearch + 157))
   \   00000016                      REQUIRE ?Subroutine88
   \   00000016                      ;               // Fall through to label ?Subroutine88
   1105          }

   \                                 In  segment CODE, align 2, keep-with-next
   \                     ?Subroutine88:
   \   00000000   ........           JMP     ??Fsm
   1106          
   1107          //-----------------------------------------------------------------------------------------------------

   \                                 In  segment CODE, align 2, keep-with-next
   1108          void CPss21::SetAlarmWindowType(uint8_t uiAlarmWindowIndex, uint8_t uiAlarmType)
   \                     ??SetAlarmWindowType:
   1109          {
   \   00000000   2F21               MOV     R18, R17
   1110              GetAlarmWindowControlPointer(uiAlarmWindowIndex) -> SetAlarmType(uiAlarmType);
   \   00000002   E010               LDI     R17, 0
   \   00000004   E046               LDI     R20, 6
   \   00000006   ....               RCALL   ?Subroutine68
   \                     ??CrossCallReturnLabel_198:
   \   00000008   01F8               MOVW    R31:R30, R17:R16
   \   0000000A   ....               SUBI    R30, LOW((-(??m_axAlarmWindowControl) & 0xFFFF))
   \   0000000C   ....               SBCI    R31, (-(??m_axAlarmWindowControl) & 0xFFFF) >> 8
   \   0000000E   8322               STD     Z+2, R18
   1111          }
   \   00000010   9508               RET
   1112          
   1113          //-----------------------------------------------------------------------------------------------------

   \                                 In  segment CODE, align 2, keep-with-next
   1114          void CPss21::SaveContextNotifyerControl(void)
   \                     ??SaveContextNotifyerControl:
   1115          {
   1116          //    // Ńîőđŕíčě ňĺęóůĺĺ ńîńňî˙íčĺ ŕâňîěŕňîâ óďđŕâëĺíč˙ čçâĺůŕňĺë˙ěč.
   1117          //    m_xPreventiveAlarmWindowNotifyerControl.SetSavedFsmState(m_xPreventiveAlarmWindowNotifyerControl.GetFsmState());
   1118          //    m_xEmergencyAlarmWindowNotifyerControl.SetSavedFsmState(m_xEmergencyAlarmWindowNotifyerControl.GetFsmState());
   1119          //    m_xStatusLedNotifyerControl.SetSavedFsmState(m_xStatusLedNotifyerControl.GetFsmState());
   1120          //    m_xBuzzerNotifyerControl.SetSavedFsmState(m_xBuzzerNotifyerControl.GetFsmState());
   1121          
   1122              // Ńîőđŕíčě ňĺęóůĺĺ ńîńňî˙íčĺ čçâĺůŕňĺëĺé - îęîí ńčăíŕëčçŕöčč.
   1123              for (uint8_t i = 0;
   \   00000000   ....               RCALL   ??Subroutine95_0
   1124                      i < ALARM_WINDOWS_NUMBER;
   1125                      i++)
   1126              {
   1127                  m_axAlarmWindowControl[i].SetSavedAlarmType(m_axAlarmWindowControl[i].GetAlarmType());
   \                     ??CrossCallReturnLabel_186:
   \   00000002   ....               RCALL   ?Subroutine60
   \                     ??CrossCallReturnLabel_193:
   \   00000004   8102               LDD     R16, Z+2
   \   00000006   8303               STD     Z+3, R16
   1128                  m_axAlarmWindowControl[i].SetSavedActivityState(m_axAlarmWindowControl[i].GetActivityState());
   \   00000008   8100               LD      R16, Z
   \   0000000A   8301               STD     Z+1, R16
   1129              };
   \   0000000C   ....               RCALL   ??Subroutine97_0
   \                     ??CrossCallReturnLabel_202:
   \   0000000E   F7C9               BRNE    ??CrossCallReturnLabel_186
   1130          }
   \   00000010   9508               RET

   \                                 In  segment CODE, align 2, keep-with-next
   \                     ??Subroutine95_0:
   \   00000000   E020               LDI     R18, 0
   \   00000002   E330               LDI     R19, 48
   \   00000004   E046               LDI     R20, 6
   \   00000006   9508               RET

   \                                 In  segment CODE, align 2, keep-with-next
   \                     ??Subroutine97_0:
   \   00000000   9523               INC     R18
   \   00000002   953A               DEC     R19
   \   00000004   9508               RET
   1131          
   1132          //-----------------------------------------------------------------------------------------------------

   \                                 In  segment CODE, align 2, keep-with-next
   1133          void CPss21::RestoreContextNotifyerControl(void)
   \                     ??RestoreContextNotifyerControl:
   1134          {
   1135          //    // Âîńńňŕíîâčě ďđĺäűäóůĺĺ ńîńňî˙íčĺ ŕâňîěŕňîâ óďđŕâëĺíč˙ čçâĺůŕňĺë˙ěč.
   1136          //    m_xPreventiveAlarmWindowNotifyerControl.SetFsmState(m_xPreventiveAlarmWindowNotifyerControl.GetSavedFsmState());
   1137          //    m_xEmergencyAlarmWindowNotifyerControl.SetFsmState(m_xEmergencyAlarmWindowNotifyerControl.GetSavedFsmState());
   1138          //    m_xStatusLedNotifyerControl.SetFsmState(m_xStatusLedNotifyerControl.GetSavedFsmState());
   1139          //    m_xBuzzerNotifyerControl.SetFsmState(m_xBuzzerNotifyerControl.GetSavedFsmState());
   1140              AlarmTypeSet(GetCommonAlarmType());
   \   00000000   9100....           LDS     R16, (??m_xDeviceConfigSearch + 55)
   \   00000004   ....               RCALL   ??Subroutine94_0
   1141          
   1142              // Âîńńňŕíîâčě ďđĺäűäóůĺĺ ńîńňî˙íčĺ čçâĺůŕňĺëĺé - îęîí ńčăíŕëčçŕöčč.
   1143              for (uint8_t i = 0;
   \                     ??CrossCallReturnLabel_180:
   \   00000006   ....               RCALL   ??Subroutine95_0
   1144                      i < ALARM_WINDOWS_NUMBER;
   1145                      i++)
   1146              {
   1147                  m_axAlarmWindowControl[i].SetAlarmType(m_axAlarmWindowControl[i].GetSavedAlarmType());
   \                     ??CrossCallReturnLabel_187:
   \   00000008   ....               RCALL   ?Subroutine60
   \                     ??CrossCallReturnLabel_194:
   \   0000000A   8103               LDD     R16, Z+3
   \   0000000C   8302               STD     Z+2, R16
   1148                  m_axAlarmWindowControl[i].SetActivityState(m_axAlarmWindowControl[i].GetSavedActivityState());
   \   0000000E   8101               LDD     R16, Z+1
   \   00000010   ....               RCALL   ?Subroutine45
   1149              };
   \                     ??CrossCallReturnLabel_200:
   \   00000012   F7D1               BRNE    ??CrossCallReturnLabel_187
   1150          }
   \   00000014   9508               RET

   \                                 In  segment CODE, align 2, keep-with-next
   \                     ?Subroutine45:
   \   00000000   8300               ST      Z, R16
   \   00000002                      REQUIRE ??Subroutine97_0
   \   00000002                      ;               // Fall through to label ??Subroutine97_0
   1151          
   1152          //-----------------------------------------------------------------------------------------------------

   \                                 In  segment CODE, align 2, keep-with-next
   1153          void CPss21::DiscreteSignalsProcessing(void)
   \                     ??DiscreteSignalsProcessing:
   1154          {
   1155              DiscreteOutputControlClear();
   \   00000000   ....               RCALL   ??DiscreteOutputControlClear
   1156              AlarmsProcessing();
   \   00000002   ....               RCALL   ??AlarmsProcessing
   1157              ErrorAlarmsProcessing();
   \   00000004   ....               RCALL   ??ErrorAlarmsProcessing
   1158              SetDiscreteSignalsReceipt(0);
   \   00000006   E000               LDI     R16, 0
   \   00000008   9300....           STS     (??m_xDeviceConfigSearch + 51), R16
   1159              SetDiscreteSignalsReset(0);
   \   0000000C   9300....           STS     (??m_xDeviceConfigSearch + 52), R16
   1160          }
   \   00000010   9508               RET
   1161          
   1162          //-----------------------------------------------------------------------------------------------------

   \                                 In  segment CODE, align 2, keep-with-next
   1163          void CPss21::ActiveAlarmWindowOn(uint8_t uiAlarmType)
   \                     ??ActiveAlarmWindowOn:
   1164          {
   \   00000000   ....               RCALL   ?Subroutine1
   1165              for (uint8_t i = 0;
   1166                      i < ALARM_WINDOWS_NUMBER;
   1167                      i++)
   1168              {
   1169                  // Ňčď ńčăíŕëčçŕöčč îęíŕ č ňčď ńčăíŕëčçŕöčč čçâĺůŕňĺë˙ ńîâďŕäŕţň?
   1170                  if (m_axAlarmWindowControl[i].GetAlarmType() == uiAlarmType)
   \                     ??CrossCallReturnLabel_182:
   \   00000002   ....               RCALL   ?Subroutine20
   \                     ??CrossCallReturnLabel_12:
   \   00000004   F411               BRNE    ??ActiveAlarmWindowOn_1
   1171                  {
   1172                      // Ŕęňěâčçčđóĺě îęíî ńčăíŕëčçŕöčč, äë˙ îňîáđŕćĺíč˙ čçâĺůŕňĺëĺě.
   1173                      m_axAlarmWindowControl[i].SetActivityState(1);
   \   00000006   E001               LDI     R16, 1
   \   00000008   8300               ST      Z, R16
   1174                  }
   1175              };
   \                     ??ActiveAlarmWindowOn_1:
   \   0000000A   ....               RCALL   ??Subroutine97_0
   \                     ??CrossCallReturnLabel_203:
   \   0000000C   F7D1               BRNE    ??CrossCallReturnLabel_182
   1176          
   1177              CLightBoard::Set();
   \   0000000E   ....               RJMP    ?Subroutine89
   1178          }

   \                                 In  segment CODE, align 2, keep-with-next
   \                     ?Subroutine1:
   \   00000000   2F60               MOV     R22, R16
   \   00000002                      REQUIRE ??Subroutine95_0
   \   00000002                      ;               // Fall through to label ??Subroutine95_0

   \                                 In  segment CODE, align 2, keep-with-next
   \                     ?Subroutine20:
   \   00000000   ....               RCALL   ?Subroutine60
   \                     ??CrossCallReturnLabel_197:
   \   00000002   8102               LDD     R16, Z+2
   \   00000004   1706               CP      R16, R22
   \   00000006   9508               RET

   \                                 In  segment CODE, align 2, keep-with-next
   \                     ?Subroutine89:
   \   00000000   ........           JMP     ??Set

   \                                 In  segment CODE, align 2, keep-with-next
   \                     ?Subroutine60:
   \   00000000   2F02               MOV     R16, R18
   \   00000002                      REQUIRE ?Subroutine69
   \   00000002                      REQUIRE ??Subroutine96_0
   \   00000002                      ;               // Fall through to label ??Subroutine96_0

   \                                 In  segment CODE, align 2, keep-with-next
   \                     ??Subroutine96_0:
   \   00000000   E010               LDI     R17, 0
   \   00000002   ....               RCALL   ?Subroutine68
   \                     ??CrossCallReturnLabel_199:
   \   00000004   ....               LDI     R30, LOW(??m_axAlarmWindowControl)
   \   00000006   ....               LDI     R31, (??m_axAlarmWindowControl) >> 8
   \   00000008                      REQUIRE ?Subroutine69
   \   00000008                      ;               // Fall through to label ?Subroutine69

   \                                 In  segment CODE, align 2, keep-with-next
   \                     ?Subroutine68:
   \   00000000   E050               LDI     R21, 0
   \   00000002   ....               RJMP    ?Subroutine85
   1179          
   1180          //-----------------------------------------------------------------------------------------------------

   \                                 In  segment CODE, align 2, keep-with-next
   1181          void CPss21::ActiveAlarmWindowOff(uint8_t uiAlarmType)
   \                     ??ActiveAlarmWindowOff:
   1182          {
   \   00000000   ....               RCALL   ?Subroutine1
   1183              for (uint8_t i = 0;
   1184                      i < ALARM_WINDOWS_NUMBER;
   1185                      i++)
   1186              {
   1187                  // Ňčď ńčăíŕëčçŕöčč îęíŕ č ňčď ńčăíŕëčçŕöčč čçâĺůŕňĺë˙ ńîâďŕäŕţň?
   1188                  if (m_axAlarmWindowControl[i].GetAlarmType() == uiAlarmType)
   \                     ??CrossCallReturnLabel_183:
   \   00000002   ....               RCALL   ?Subroutine20
   \                     ??CrossCallReturnLabel_13:
   \   00000004   F011               BREQ    ??ActiveAlarmWindowOff_1
   1189                  {
   1190                      // Äĺŕęňěâčđóĺě îęíî ńčăíŕëčçŕöčč, äë˙ ďđĺęđŕůĺíč˙ îňîáđŕćĺíč˙ čçâĺůŕňĺëĺě.
   1191                      m_axAlarmWindowControl[i].SetActivityState(0);
   1192                  }
   1193                  else if (m_axAlarmWindowControl[i].GetAlarmType() == NORMAL)
   \   00000006   2300               TST     R16
   \   00000008   F409               BRNE    ??ActiveAlarmWindowOff_2
   1194                  {
   1195                      // Äĺŕęňěâčđóĺě îęíî ńčăíŕëčçŕöčč, äë˙ ďđĺęđŕůĺíč˙ îňîáđŕćĺíč˙ čçâĺůŕňĺëĺě.
   1196                      m_axAlarmWindowControl[i].SetActivityState(0);
   \                     ??ActiveAlarmWindowOff_1:
   \   0000000A   8350               ST      Z, R21
   1197                  }
   1198              };
   \                     ??ActiveAlarmWindowOff_2:
   \   0000000C   ....               RCALL   ??Subroutine97_0
   \                     ??CrossCallReturnLabel_204:
   \   0000000E   F7C9               BRNE    ??CrossCallReturnLabel_183
   1199          
   1200              CLightBoard::Set();
   \   00000010   ....               RJMP    ?Subroutine89
   1201          }
   1202          
   1203          //-----------------------------------------------------------------------------------------------------

   \                                 In  segment CODE, align 2, keep-with-next
   1204          void CPss21::AllAlarmWindowOn(uint8_t uiAlarmType)
   \                     ??AllAlarmWindowOn:
   1205          {
   \   00000000   ....               RCALL   ?Subroutine1
   1206          //    CAlarmWindow axAlarmWindowControl[ALARM_WINDOWS_NUMBER];
   1207          
   1208              for (uint8_t i = 0;
   1209                      i < ALARM_WINDOWS_NUMBER;
   1210                      i++)
   1211              {
   1212                  // Ŕęňěâčçčđóĺě îęíî ńčăíŕëčçŕöčč, äë˙ îňîáđŕćĺíč˙ čçâĺůŕňĺëĺě.
   1213                  m_axAlarmWindowControl[i].SetAlarmType(uiAlarmType);
   \                     ??CrossCallReturnLabel_184:
   \   00000002   ....               RCALL   ?Subroutine60
   \                     ??CrossCallReturnLabel_195:
   \   00000004   8362               STD     Z+2, R22
   1214                  // Ŕęňěâčçčđóĺě îęíî ńčăíŕëčçŕöčč, äë˙ îňîáđŕćĺíč˙ čçâĺůŕňĺëĺě.
   1215                  m_axAlarmWindowControl[i].SetActivityState(1);
   \   00000006   E001               LDI     R16, 1
   \   00000008   ....               RCALL   ?Subroutine45
   1216              };
   \                     ??CrossCallReturnLabel_201:
   \   0000000A   F7D9               BRNE    ??CrossCallReturnLabel_184
   1217          
   1218              CLightBoard::Set();
   \   0000000C                      REQUIRE ?Subroutine89
   \   0000000C                      ;               // Fall through to label ?Subroutine89
   1219          }
   1220          
   1221          //-----------------------------------------------------------------------------------------------------

   \                                 In  segment CODE, align 2, keep-with-next
   1222          void CPss21::ErrorWindowOn(uint8_t uiIndex)
   \                     ??ErrorWindowOn:
   1223          {
   \   00000000   ....               RCALL   ?Subroutine1
   1224              // Ŕęňěâčđóĺě îęíŕ ńčăíŕëčçŕöčč - îřčáęŕ.
   1225              for (uint8_t i = 0;
   1226                      i < ALARM_WINDOWS_NUMBER;
   1227                      i++)
   1228              {
   1229                  if (m_auiErrorLedOn[i])
   \                     ??CrossCallReturnLabel_185:
   \   00000002   2FE2               MOV     R30, R18
   \   00000004   E0F0               LDI     R31, 0
   \   00000006   ....               SUBI    R30, LOW((-(??m_auiErrorLedOn) & 0xFFFF))
   \   00000008   ....               SBCI    R31, (-(??m_auiErrorLedOn) & 0xFFFF) >> 8
   \   0000000A   9104               LPM     R16, Z
   \   0000000C   2300               TST     R16
   \   0000000E   F021               BREQ    ??ErrorWindowOn_1
   1230                  {
   1231                      // Ŕęňěâčçčđóĺě îęíî ńčăíŕëčçŕöčč, äë˙ îňîáđŕćĺíč˙ čçâĺůŕňĺëĺě.
   1232                      m_axAlarmWindowControl[i].SetAlarmType(INDICATION);
   \   00000010   ....               RCALL   ?Subroutine60
   \                     ??CrossCallReturnLabel_196:
   \   00000012   E001               LDI     R16, 1
   \   00000014   8302               STD     Z+2, R16
   1233                      m_axAlarmWindowControl[i].SetActivityState(1);
   \   00000016   8300               ST      Z, R16
   1234                  }
   1235              };
   \                     ??ErrorWindowOn_1:
   \   00000018   ....               RCALL   ??Subroutine97_0
   \                     ??CrossCallReturnLabel_205:
   \   0000001A   F799               BRNE    ??CrossCallReturnLabel_185
   1236          
   1237              if (uiIndex < ALARM_WINDOWS_NUMBER)
   \   0000001C   3360               CPI     R22, 48
   \   0000001E   F410               BRCC    ??CrossCallReturnLabel_14
   1238              {
   1239                  m_axAlarmWindowControl[uiIndex].SetAlarmType(NORMAL);
   \   00000020   2F06               MOV     R16, R22
   \   00000022   ....               RCALL   ?Subroutine21
   1240                  m_axAlarmWindowControl[uiIndex].SetActivityState(0);
   1241              }
   1242          
   1243              CLightBoard::Set();
   \                     ??CrossCallReturnLabel_14:
   \   00000024   ....               RJMP    ?Subroutine89
   1244          }

   \                                 In  segment CODE, align 2, keep-with-next
   \                     ?Subroutine21:
   \   00000000   ....               RCALL   ??Subroutine96_0
   \                     ??CrossCallReturnLabel_192:
   \   00000002   8352               STD     Z+2, R21
   \   00000004   8350               ST      Z, R21
   \   00000006   9508               RET
   1245          
   1246          //-----------------------------------------------------------------------------------------------------

   \                                 In  segment CODE, align 2, keep-with-next
   1247          void CPss21::AllAlarmWindowOff(void)
   \                     ??AllAlarmWindowOff:
   1248          {
   1249              for (uint8_t i = 0;
   \   00000000   ....               RCALL   ??Subroutine95_0
   1250                      i < ALARM_WINDOWS_NUMBER;
   1251                      i++)
   1252              {
   1253                  // Äĺŕęňěâčđóĺě îęíî ńčăíŕëčçŕöčč, äë˙ ďđĺęđŕůĺíč˙ îňîáđŕćĺíč˙ čçâĺůŕňĺëĺě.
   1254                  m_axAlarmWindowControl[i].SetAlarmType(NORMAL);
   \                     ??CrossCallReturnLabel_188:
   \   00000002   2F02               MOV     R16, R18
   \   00000004   ....               RCALL   ?Subroutine21
   1255                  // Äĺŕęňěâčđóĺě îęíî ńčăíŕëčçŕöčč, äë˙ ďđĺęđŕůĺíč˙ îňîáđŕćĺíč˙ čçâĺůŕňĺëĺě.
   1256                  m_axAlarmWindowControl[i].SetActivityState(0);
   1257              };
   \                     ??CrossCallReturnLabel_15:
   \   00000006   ....               RCALL   ??Subroutine97_0
   \                     ??CrossCallReturnLabel_206:
   \   00000008   F7E1               BRNE    ??CrossCallReturnLabel_188
   1258          
   1259              CLightBoard::Set();
   \   0000000A   ....               RJMP    ?Subroutine89
   1260          }
   1261          
   1262          //-----------------------------------------------------------------------------------------------------

   \                                 In  segment CODE, align 2, keep-with-next
   1263          void CPss21::TestMainCycle(void)
   \                     ??TestMainCycle:
   1264          {
   1265              CPss21::m_xModbusRtuOne.Fsm();
   \   00000000   ....               RCALL   ?Subroutine7
   1266          
   1267              CPss21::KeyStateProcessing();
   1268          
   1269              NotifyersControlProcessing();
   1270          
   1271              CPss21::ReceiptResetGlobalFlagsClear();
   \                     ??CrossCallReturnLabel_0:
   \   00000002                      REQUIRE ?Subroutine74
   \   00000002                      ;               // Fall through to label ?Subroutine74
   1272          
   1273              CPlatform::WatchdogReset();
   1274          }

   \                                 In  segment CODE, align 2, keep-with-next
   \                     ?Subroutine74:
   \   00000000   ....               RCALL   ?Subroutine52
   \                     ??CrossCallReturnLabel_107:
   \   00000002                      REQUIRE ??Subroutine98_0
   \   00000002                      ;               // Fall through to label ??Subroutine98_0

   \                                 In  segment CODE, align 2, keep-with-next
   \                     ??Subroutine98_0:
   \   00000000   95A8               WDR
   \   00000002   9508               RET

   \                                 In  segment CODE, align 2, keep-with-next
   \                     ?Subroutine52:
   \   00000000   ....               RJMP    ??ReceiptResetGlobalFlagsClear

   \                                 In  segment CODE, align 2, keep-with-next
   \                     ?Subroutine54:
   \   00000000   ....               LDI     R16, LOW(??m_xModbusRtuOne)
   \   00000002   ....               LDI     R17, (??m_xModbusRtuOne) >> 8
   \   00000004   ........           JMP     ??Fsm_1

   \                                 In  segment CODE, align 2, keep-with-next
   \                     ?Subroutine7:
   \   00000000   ....               RCALL   ?Subroutine54
   \                     ??CrossCallReturnLabel_57:
   \   00000002   ....               RJMP    ?Subroutine67

   \                                 In  segment CODE, align 2, keep-with-next
   \                     ?Subroutine67:
   \   00000000   ....               RCALL   ??KeyStateProcessing
   \   00000002   ....               RJMP    ??NotifyersControlProcessing
   1275          
   1276          //-----------------------------------------------------------------------------------------------------

   \                                 In  segment CODE, align 2, keep-with-next
   1277          void CPss21::ErrorMainCycle(void)
   \                     ??ErrorMainCycle:
   1278          {
   1279              CPss21::m_xModbusRtuOne.Fsm();
   \   00000000   ....               RCALL   ?Subroutine54
   1280          
   1281              CPss21::KeyStateProcessing();
   \                     ??CrossCallReturnLabel_58:
   \   00000002   ....               RCALL   ??KeyStateProcessing
   1282          
   1283              // Ĺńňü ęîěŕíäŕ - "ęâčňčđîâŕňü"?
   1284              if ((GetPanelReceipt()) ||
   1285                      (GetExternalReceipt()) ||
   1286                      (GetModbusReceipt()))
   \   00000004   ....               RCALL   ?Subroutine65
   \                     ??CrossCallReturnLabel_74:
   \   00000006   A505               LDD     R16, Z+45
   \   00000008   2300               TST     R16
   \   0000000A   F431               BRNE    ??ErrorMainCycle_1
   \   0000000C   A507               LDD     R16, Z+47
   \   0000000E   2300               TST     R16
   \   00000010   F419               BRNE    ??ErrorMainCycle_1
   \   00000012   A901               LDD     R16, Z+49
   \   00000014   2300               TST     R16
   \   00000016   F021               BREQ    ??CrossCallReturnLabel_218
   1287              {
   1288          //        m_xPreventiveAlarmWindowNotifyerControl.AlarmSet(INDICATION);
   1289          //        m_xEmergencyAlarmWindowNotifyerControl.AlarmSet(INDICATION);
   1290                  m_xStatusLedNotifyerControl.AlarmSet(NORMAL);
   \                     ??ErrorMainCycle_1:
   \   00000018   E020               LDI     R18, 0
   \   0000001A   ....               RCALL   ?Subroutine57
   1291                  m_xBuzzerNotifyerControl.AlarmSet(NORMAL);
   \                     ??CrossCallReturnLabel_213:
   \   0000001C   E020               LDI     R18, 0
   \   0000001E   ....               RCALL   ?Subroutine58
   1292              }
   1293          
   1294              NotifyersControlProcessing();
   \                     ??CrossCallReturnLabel_218:
   \   00000020   ....               RCALL   ??NotifyersControlProcessing
   1295          
   1296              CPss21::ReceiptResetGlobalFlagsClear();
   \   00000022   ....               RJMP    ?Subroutine74
   1297          
   1298              CPlatform::WatchdogReset();
   1299          }
   1300          
   1301          //-----------------------------------------------------------------------------------------------------

   \                                 In  segment CODE, align 2, keep-with-next
   1302          void CPss21::LinkControlErrorMainCycle(void)
   \                     ??LinkControlErrorMainCycle:
   1303          {
   1304              CPss21::m_xModbusRtuOne.Fsm();
   \   00000000   ....               RCALL   ?Subroutine5
   1305              CPss21::m_xModbusRtuLinkControl.Fsm();
   1306          
   1307              CPss21::KeyStateProcessing();
   1308          
   1309              NotifyersControlProcessing();
   1310          
   1311              CPss21::ReceiptResetGlobalFlagsClear();
   \                     ??CrossCallReturnLabel_79:
   \   00000002   ....               RCALL   ?Subroutine52
   1312          
   1313              CDataStore::Fsm();
   \                     ??CrossCallReturnLabel_106:
   \   00000004   ....               RCALL   ?Subroutine53
   1314          
   1315              CPlatform::WatchdogReset();
   \                     ??CrossCallReturnLabel_55:
   \   00000006   ....               RJMP    ??Subroutine98_0
   1316          }

   \                                 In  segment CODE, align 2, keep-with-next
   \                     ?Subroutine53:
   \   00000000   ........           JMP     ??Fsm_3

   \                                 In  segment CODE, align 2, keep-with-next
   \                     ?Subroutine5:
   \   00000000   ....               RCALL   ?Subroutine54
   \                     ??CrossCallReturnLabel_56:
   \   00000002   ....               LDI     R16, LOW((??m_xDeviceConfigSearch + 9))
   \   00000004   ....               LDI     R17, HIGH((??m_xDeviceConfigSearch + 9))
   \   00000006   ........           CALL    ??Fsm_2
   \   0000000A                      REQUIRE ?Subroutine67
   \   0000000A                      ;               // Fall through to label ?Subroutine67
   1317          
   1318          //-----------------------------------------------------------------------------------------------------

   \                                 In  segment CODE, align 2, keep-with-next
   1319          void CPss21::MainFsm(void)
   \                     ??MainFsm:
   1320          {
   \   00000000   9100....           LDS     R16, (??m_xDeviceConfigSearch + 44)
   \   00000004   ....               LDI     R30, LOW(`?<Jumptable for MainFsm>_0`)
   \   00000006   ....               LDI     R31, (`?<Jumptable for MainFsm>_0`) >> 16
   \   00000008   BFFB               OUT     0x3B, R31
   \   0000000A   ....               LDI     R31, HIGH(`?<Jumptable for MainFsm>_0`)
   \   0000000C   ........           JMP     ?CV_SWITCH_L06
   1321              switch (GetFsmState())
   1322              {
   1323              case START:
   1324                  CPlatform::WatchdogEnable();
   \                     ??MainFsm_1:
   \   00000010   95A8               WDR
   \   00000012   B501               IN      R16, 0x21
   \   00000014   6108               ORI     R16, 0x18
   \   00000016   BD01               OUT     0x21, R16
   \   00000018   B501               IN      R16, 0x21
   \   0000001A   6007               ORI     R16, 0x07
   \   0000001C   BD01               OUT     0x21, R16
   1325                  CPlatform::Init();
   \   0000001E   ........           CALL    ??Init_3
   1326                  CPss21::Init();
   \   00000022   ....               RCALL   ??Init
   1327                  CBuzzer::Init();
   \   00000024   ........           CALL    ??Init_4
   1328                  if (!(CDataBase::Check()))
   \   00000028   ........           CALL    ??Check
   \   0000002C   2300               TST     R16
   \   0000002E   F169               BREQ    ??MainFsm_2
   1329                  {
   1330                      SetFsmState(ERROR_START);
   1331                  }
   1332                  else
   1333                  {
   1334                      CPss21::ConfigurationInit();
   \   00000030   ....               RCALL   ??ConfigurationInit
   1335                      CPss21::ModbusInit();
   \   00000032   ....               RCALL   ??ModbusInit
   1336                      CSpi::Init();
   \   00000034   ........           CALL    ??Init_5
   1337                      CPss21::AddressBusInit();
   \   00000038   ....               RCALL   ??AddressBusInit
   1338                      CPss21::SearchModules();
   \   0000003A   ....               RCALL   ??SearchModules
   1339                      CPss21::CreateDevices();
   \   0000003C   ....               RCALL   ??CreateDevices
   1340                      m_xBuzzerNotifyerControl.AlarmSet(BEEP_SIGNAL);
   \   0000003E   ....               RCALL   ??Subroutine92_0
   1341                      SetFsmState(MAIN_CYCLE_START_WAITING);
   \                     ??CrossCallReturnLabel_170:
   \   00000040   C02C               RJMP    ??CrossCallReturnLabel_105
   1342                  }
   1343                  break;
   1344          
   1345              case RESTART:
   1346                  break;
   1347          
   1348              case MAIN_CYCLE_START_WAITING:
   1349                  CPss21::m_xModbusRtuOne.Fsm();
   \                     ??MainFsm_3:
   \   00000042   ....               RCALL   ?Subroutine7
   1350          
   1351                  CPss21::KeyStateProcessing();
   1352          
   1353                  NotifyersControlProcessing();
   1354          
   1355                  CDataStore::Fsm();
   \                     ??CrossCallReturnLabel_1:
   \   00000044   ....               RCALL   ?Subroutine9
   1356          
   1357                  if (CPss21::m_xMainCycleTimer.IsOverflow())
   \                     ??CrossCallReturnLabel_219:
   \   00000046   F409               BRNE    $+2+2
   \   00000048   C056               RJMP    ??CrossCallReturnLabel_53
   1358                  {
   1359                      CPss21::m_xMainCycleTimer.Reset();
   \   0000004A   ....               RCALL   ?Subroutine59
   \                     ??CrossCallReturnLabel_230:
   \   0000004C   ........           CALL    ??Reset
   1360                      CPlatform::WatchdogReset();
   \   00000050   95A8               WDR
   1361                      SetModuleIndex(0);
   \   00000052   E000               LDI     R16, 0
   \   00000054   9300....           STS     (??m_xDeviceConfigSearch + 54), R16
   1362                      SetFsmState(MAIN_CYCLE_MODULES_INTERACTION);
   \   00000058   E003               LDI     R16, 3
   \   0000005A   C018               RJMP    ??MainFsm_4
   1363                  }
   1364          
   1365                  break;
   1366          
   1367              case MAIN_CYCLE_MODULES_INTERACTION:
   1368                  CPss21::m_xModbusRtuOne.Fsm();
   \                     ??MainFsm_5:
   \   0000005C   ....               RCALL   ?Subroutine5
   1369                  CPss21::m_xModbusRtuLinkControl.Fsm();
   1370          
   1371                  CPss21::KeyStateProcessing();
   1372          
   1373                  NotifyersControlProcessing();
   1374          
   1375                  CDataStore::Fsm();
   \                     ??CrossCallReturnLabel_80:
   \   0000005E   ....               RCALL   ?Subroutine53
   1376          
   1377                  if (CPss21::ModulesInteraction(GetModuleIndex()))
   \                     ??CrossCallReturnLabel_54:
   \   00000060   9100....           LDS     R16, (??m_xDeviceConfigSearch + 54)
   \   00000064   ....               RCALL   ??ModulesInteraction
   \   00000066   2300               TST     R16
   \   00000068   F019               BREQ    ??MainFsm_6
   1378                  {
   1379                      SetFsmState(MAIN_CYCLE_DISCRETE_SIGNALS_PROCESSING);
   \   0000006A   E004               LDI     R16, 4
   \   0000006C   ....               RCALL   ??Subroutine91_0
   1380                  }
   \                     ??CrossCallReturnLabel_159:
   \   0000006E   C004               RJMP    ??MainFsm_7
   1381                  else
   1382                  {
   1383                      SetModuleIndex(GetModuleIndex() + 1);
   \                     ??MainFsm_6:
   \   00000070   ....               RCALL   ?Subroutine65
   \                     ??CrossCallReturnLabel_75:
   \   00000072   A906               LDD     R16, Z+54
   \   00000074   9503               INC     R16
   \   00000076   AB06               STD     Z+54, R16
   1384                  }
   1385          
   1386                  switch (GetErrorCode())
   \                     ??MainFsm_7:
   \   00000078   9100....           LDS     R16, (??m_xDeviceConfigSearch + 53)
   \   0000007C   5003               SUBI    R16, 3
   \   0000007E   F029               BREQ    ??MainFsm_2
   \   00000080   950A               DEC     R16
   \   00000082   F019               BREQ    ??MainFsm_2
   \   00000084   950A               DEC     R16
   \   00000086   F019               BREQ    ??MainFsm_8
   \   00000088   9508               RET
   1387                  {
   1388          //        case IMD_ERROR:
   1389          //        case OMD_ERROR:
   1390                  case CFG_ERROR:
   1391                  case DB_ERROR:
   1392                      SetFsmState(ERROR_START);
   \                     ??MainFsm_2:
   \   0000008A   E008               LDI     R16, 8
   \                     ??MainFsm_4:
   \   0000008C   ....               RJMP    ??Subroutine91_0
   1393                      break;
   1394          
   1395                  case MBS_ERROR:
   1396                      SetFsmState(LINK_CONTROL_ERROR_START);
   \                     ??MainFsm_8:
   \   0000008E   E00A               LDI     R16, 10
   \   00000090   CFFD               RJMP    ??MainFsm_4
   1397                      break;
   1398          
   1399                  default:
   1400                      break;
   1401                  }
   1402                  break;
   1403          
   1404              case MAIN_CYCLE_DISCRETE_SIGNALS_PROCESSING:
   1405                  CPss21::DiscreteSignalsProcessing();
   \                     ??MainFsm_9:
   \   00000092   ....               RCALL   ??DiscreteSignalsProcessing
   1406                  SetFsmState(MAIN_CYCLE_END);
   \   00000094   E005               LDI     R16, 5
   \   00000096   CFFA               RJMP    ??MainFsm_4
   1407                  break;
   1408          
   1409              case MAIN_CYCLE_END:
   1410                  CPss21::ReceiptResetGlobalFlagsClear();
   \                     ??MainFsm_10:
   \   00000098   ....               RCALL   ?Subroutine52
   1411                  SetFsmState(MAIN_CYCLE_START_WAITING);
   \                     ??CrossCallReturnLabel_105:
   \   0000009A   E002               LDI     R16, 2
   \   0000009C   CFF7               RJMP    ??MainFsm_4
   1412                  break;
   1413          
   1414          //-----------------------------------------------------------------------------------------------------
   1415              case TEST_START:
   1416                  SaveContextNotifyerControl();
   \                     ??MainFsm_11:
   \   0000009E   ....               RCALL   ??SaveContextNotifyerControl
   1417                  AlarmTypeSet(PREVENTIVE);
   \   000000A0   E002               LDI     R16, 2
   \   000000A2   ....               RCALL   ??Subroutine94_0
   1418                  CPss21::AllAlarmWindowOn(PREVENTIVE);
   \                     ??CrossCallReturnLabel_179:
   \   000000A4   E002               LDI     R16, 2
   \   000000A6   ....               RCALL   ??AllAlarmWindowOn
   1419                  CPss21::m_xMainCycleTimer.Set(TEST_ON_TIME());
   \   000000A8   E828               LDI     R18, 136
   \   000000AA   E133               LDI     R19, 19
   \   000000AC   ....               RCALL   ??Subroutine101_0
   1420                  SetFsmState(TEST_ON);
   \                     ??CrossCallReturnLabel_226:
   \   000000AE   E007               LDI     R16, 7
   \   000000B0   C009               RJMP    ??MainFsm_12
   1421          
   1422                  CPlatform::WatchdogReset();
   1423                  break;
   1424          
   1425              case TEST_ON:
   1426                  if (CPss21::m_xMainCycleTimer.IsOverflow())
   \                     ??MainFsm_13:
   \   000000B2   ....               RCALL   ??Subroutine100_0
   \                     ??CrossCallReturnLabel_221:
   \   000000B4   F019               BREQ    ??CrossCallReturnLabel_160
   1427                  {
   1428                      CPss21::AllAlarmWindowOff();
   \   000000B6   ....               RCALL   ?Subroutine6
   1429                      RestoreContextNotifyerControl();
   1430                      CPss21::m_xMainCycleTimer.Set(MAIN_CYCLE_PERIOD_TIME);
   1431                      SetFsmState(MAIN_CYCLE_START_WAITING);
   \                     ??CrossCallReturnLabel_228:
   \   000000B8   E002               LDI     R16, 2
   \   000000BA   ....               RCALL   ??Subroutine91_0
   1432                  }
   1433          
   1434                  TestMainCycle();
   \                     ??CrossCallReturnLabel_160:
   \   000000BC   ....               RJMP    ??TestMainCycle
   1435                  break;
   1436          
   1437          //-----------------------------------------------------------------------------------------------------
   1438              case ERROR_START:
   1439                  // Óńňŕíŕâëčâŕĺě íŕńňđîéęč Modbus ďî óěîë÷ŕíčţ íŕ ňĺęóůóţ ńĺńńčţ.
   1440                  ModbusDefaultInit();
   \                     ??MainFsm_14:
   \   000000BE   ....               RCALL   ??ModbusDefaultInit
   1441                  ErrorWindowOn(GetErrorCode() - 1);
   \   000000C0   ....               RCALL   ?Subroutine14
   1442                  SetErrorCode(0);
   1443          
   1444                  m_xPreventiveAlarmWindowNotifyerControl.AlarmSet(INDICATION);
   1445                  m_xEmergencyAlarmWindowNotifyerControl.AlarmSet(INDICATION);
   1446                  m_xStatusLedNotifyerControl.AlarmSet(ERROR);
   1447                  m_xBuzzerNotifyerControl.AlarmSet(ERROR);
   1448          
   1449                  SetFsmState(ERROR_ON);
   \                     ??CrossCallReturnLabel_214:
   \   000000C2   E009               LDI     R16, 9
   \                     ??MainFsm_12:
   \   000000C4   ....               RCALL   ??Subroutine91_0
   1450          
   1451                  CPlatform::WatchdogReset();
   \                     ??CrossCallReturnLabel_161:
   \   000000C6   ....               RJMP    ??Subroutine98_0
   1452                  break;
   1453          
   1454              case ERROR_ON:
   1455                  ErrorMainCycle();
   \                     ??MainFsm_15:
   \   000000C8   ....               RJMP    ??ErrorMainCycle
   1456                  break;
   1457          
   1458          //-----------------------------------------------------------------------------------------------------
   1459              case LINK_CONTROL_ERROR_START:
   1460                  SaveContextNotifyerControl();
   \                     ??MainFsm_16:
   \   000000CA   ....               RCALL   ??SaveContextNotifyerControl
   1461                  ErrorWindowOn(GetErrorCode() - 1);
   \   000000CC   ....               RCALL   ?Subroutine14
   1462                  SetErrorCode(0);
   1463          
   1464                  m_xPreventiveAlarmWindowNotifyerControl.AlarmSet(INDICATION);
   1465                  m_xEmergencyAlarmWindowNotifyerControl.AlarmSet(INDICATION);
   1466                  m_xStatusLedNotifyerControl.AlarmSet(ERROR);
   1467                  m_xBuzzerNotifyerControl.AlarmSet(ERROR);
   1468          
   1469                  CPlatform::WatchdogReset();
   \                     ??CrossCallReturnLabel_215:
   \   000000CE   95A8               WDR
   1470                  SetFsmState(LINK_CONTROL_ERROR_ON);
   \   000000D0   E00B               LDI     R16, 11
   \   000000D2   CFDC               RJMP    ??MainFsm_4
   1471                  break;
   1472          
   1473              case LINK_CONTROL_ERROR_ON:
   1474                  LinkControlErrorMainCycle();
   \                     ??MainFsm_17:
   \   000000D4   ....               RJMP    ??LinkControlErrorMainCycle
   1475                  break;
   1476          
   1477              case LINK_CONTROL_ERROR_OFF:
   1478                  CPss21::AllAlarmWindowOff();
   \                     ??MainFsm_18:
   \   000000D6   ....               RCALL   ?Subroutine6
   1479                  RestoreContextNotifyerControl();
   1480                  CPss21::m_xMainCycleTimer.Set(MAIN_CYCLE_PERIOD_TIME);
   1481          
   1482                  CPlatform::WatchdogReset();
   \                     ??CrossCallReturnLabel_227:
   \   000000D8   95A8               WDR
   1483                  SetFsmState(MAIN_CYCLE_START_WAITING);
   \   000000DA   CFDF               RJMP    ??CrossCallReturnLabel_105
   1484                  break;
   1485          
   1486          //-----------------------------------------------------------------------------------------------------
   1487              case PROGRAMMING_START:
   1488                  // Ďîńëĺ ďđč¸ěŕ ďîńëĺäíĺăî áëîęŕ áŕçű äŕííűő ďđîčçîéä¸ň ďĺđĺçŕăđóçęŕ
   1489                  // ÷ĺđĺç "PROGRAMMING_TIME + WDTO_2S", ÷ňîáű ďđčěĺíčňü čçěĺíĺíč˙ ęîíôčăóđŕöčč.
   1490                  CPss21::m_xMainCycleTimer.Set(PROGRAMMING_TIME);
   \                     ??MainFsm_19:
   \   000000DC   EE28               LDI     R18, 232
   \   000000DE   E033               LDI     R19, 3
   \   000000E0   ....               RCALL   ??Subroutine101_0
   1491                  SetFsmState(PROGRAMMING_ON);
   \                     ??CrossCallReturnLabel_225:
   \   000000E2   E00E               LDI     R16, 14
   \   000000E4   CFEF               RJMP    ??MainFsm_12
   1492          
   1493                  CPlatform::WatchdogReset();
   1494                  break;
   1495          
   1496              case PROGRAMMING_ON:
   1497                  CPss21::m_xModbusRtuOne.Fsm();
   \                     ??MainFsm_20:
   \   000000E6   ....               RCALL   ?Subroutine54
   1498          
   1499                  CDataStore::Fsm();
   \                     ??CrossCallReturnLabel_59:
   \   000000E8   ....               RCALL   ?Subroutine9
   1500          
   1501                  if (CPss21::m_xMainCycleTimer.IsOverflow())
   \                     ??CrossCallReturnLabel_220:
   \   000000EA   F369               BREQ    ??CrossCallReturnLabel_161
   1502                  {
   1503                      SetFsmState(REBOOT);
   \   000000EC   E00F               LDI     R16, 15
   \   000000EE   ....               RCALL   ??Subroutine91_0
   1504                  }
   1505          
   1506                  CPlatform::WatchdogReset();
   \                     ??CrossCallReturnLabel_162:
   \   000000F0   CFEA               RJMP    ??CrossCallReturnLabel_161
   1507                  break;
   1508          
   1509              case REBOOT:
   1510                  // ×ĺđĺç "WDTO_2S" - ďĺđĺçŕăđóçęŕ, ÷ňîáű ďđčěĺíčňü čçěĺíĺíč˙ ęîíôčăóđŕöčč.
   1511                  CPss21::m_xModbusRtuOne.Fsm();
   \                     ??MainFsm_21:
   \   000000F2   ....               RCALL   ?Subroutine54
   1512          
   1513                  CDataStore::Fsm();
   \                     ??CrossCallReturnLabel_60:
   \   000000F4   ....               RCALL   ?Subroutine53
   1514                  break;
   1515          
   1516          //-----------------------------------------------------------------------------------------------------
   1517              default:
   1518                  break;
   1519              }
   1520          }
   \                     ??CrossCallReturnLabel_53:
   \   000000F6   9508               RET
   \   000000F8                      REQUIRE _A_WDTCR

   \                                 In  segment CODE, align 2, keep-with-next
   \                     ?Subroutine14:
   \   00000000   9100....           LDS     R16, (??m_xDeviceConfigSearch + 53)
   \   00000004   950A               DEC     R16
   \   00000006   ....               RCALL   ??ErrorWindowOn
   \   00000008   E000               LDI     R16, 0
   \   0000000A   9300....           STS     (??m_xDeviceConfigSearch + 53), R16
   \   0000000E                      REQUIRE ?Subroutine58
   \   0000000E                      REQUIRE ??Subroutine99_0
   \   0000000E                      ;               // Fall through to label ??Subroutine99_0

   \                                 In  segment CODE, align 2, keep-with-next
   \                     ?Subroutine9:
   \   00000000   ........           CALL    ??Fsm_3
   \   00000004                      REQUIRE ??Subroutine100_0
   \   00000004                      ;               // Fall through to label ??Subroutine100_0

   \                                 In  segment CODE, align 2, keep-with-next
   \                     ??Subroutine100_0:
   \   00000000   ....               RCALL   ?Subroutine59
   \                     ??CrossCallReturnLabel_231:
   \   00000002   ........           CALL    ??IsOverflow
   \   00000006   ....               RJMP    ?Subroutine81

   \                                 In  segment CODE, align 2, keep-with-next
   \                     ?Subroutine59:
   \   00000000   ....               LDI     R16, LOW((??m_xDeviceConfigSearch + 123))
   \   00000002   ....               LDI     R17, HIGH((??m_xDeviceConfigSearch + 123))
   \   00000004   9508               RET

   \                                 In  segment CODE, align 2, keep-with-next
   \                     ?Subroutine6:
   \   00000000   ....               RCALL   ??AllAlarmWindowOff
   \   00000002   ....               RCALL   ??RestoreContextNotifyerControl
   \   00000004   E624               LDI     R18, 100
   \   00000006   E030               LDI     R19, 0
   \   00000008                      REQUIRE ??Subroutine101_0
   \   00000008                      ;               // Fall through to label ??Subroutine101_0

   \                                 In  segment CODE, align 2, keep-with-next
   \                     ??Subroutine101_0:
   \   00000000   ....               RCALL   ?Subroutine59
   \                     ??CrossCallReturnLabel_232:
   \   00000002   ........           JMP     ??Set_1

   \                                 In  segment CODE, align 2, keep-with-next
   \                     ?Subroutine70:
   \   00000000   ........           JMP     __record_needed_destruction

   \                                 In  segment NEAR_ID, align 1, keep-with-next, root
   \                     `?<Initializer for >`:
   \   00000000   ............       DC16 ?_1, ??m_xUart1, `?<Unnamed 0>`/2
   \                     `?<Initializer for >_1`:
   \   00000006   ............       DC16 ?_3, ??m_xModbusRtuOne, `?<Unnamed 1>`/2
   \                     `?<Initializer for >_2`:
   \   0000000C   ............       DC16 ?_5, ??m_xReceiptKey, `?<Unnamed 2>`/2
   \                     `?<Initializer for >_3`:
   \   00000012   ............       DC16 ?_7, ??m_xResetKey, `?<Unnamed 2>`/2
   \                     `?<Initializer for >_4`:
   \   00000018   ............       DC16 ?_9, ??m_xCheckKey, `?<Unnamed 2>`/2
   \                     `?<Initializer for >_5`:
   \   0000001E   ............       DC16 ?_11, ??m_xExternalKey, `?<Unnamed 2>`/2
   \                     `?<Initializer for >_6`:
   \   00000024   ............       DC16 ?_13, ??m_xEventUniteLogicAndOne, `?<Unnamed 3>`/2
   \                     `?<Initializer for >_7`:
   \   0000002A   ............       DC16 ?_15, ??m_xPreventiveAlarmWindowNotifyerControl, `?<Unnamed 4>`/2
   \                     `?<Initializer for >_8`:
   \   00000030   ............       DC16 ?_17, ??m_xEmergencyAlarmWindowNotifyerControl, `?<Unnamed 5>`/2
   \                     `?<Initializer for >_9`:
   \   00000036   ............       DC16 ?_19, ??m_xStatusLedNotifyerControl, `?<Unnamed 6>`/2
   \                     `?<Initializer for >_10`:
   \   0000003C   ............       DC16 ?_21, ??m_xBuzzerNotifyerControl, `?<Unnamed 7>`/2
   \                     `?<Initializer for >_11`:
   \   00000042   ............       DC16 ?_23, ??m_xModbusRtuLinkControl, `?<Unnamed 8>`/2
   \                     `?<Initializer for >_12`:
   \   00000048   ....0000....       DC16 ?_25, 0H, `?<Unnamed 9>`/2

   \                                 In  segment DIFUNCT, align 1, keep-with-next, root
   \   00000000                      REQUIRE ?call_ctors
   \   00000000   ....               DW      ??__sti__routine/2

   \                                 In  segment SWITCH, align 2, keep-with-next
   \                     `?<Jumptable for MainFsm>_0`:
   \   00000000   00                 DB      0
   \   00000001   00                 DB      0
   \   00000002   ....               DW      (??CrossCallReturnLabel_53) /2
   \   00000004   0010               DW      16
   \   00000006   ....               DW      (??MainFsm_1) /2
   \   00000008   ....               DW      (??CrossCallReturnLabel_53) /2
   \   0000000A   ....               DW      (??MainFsm_3) /2
   \   0000000C   ....               DW      (??MainFsm_5) /2
   \   0000000E   ....               DW      (??MainFsm_9) /2
   \   00000010   ....               DW      (??MainFsm_10) /2
   \   00000012   ....               DW      (??MainFsm_11) /2
   \   00000014   ....               DW      (??MainFsm_13) /2
   \   00000016   ....               DW      (??MainFsm_14) /2
   \   00000018   ....               DW      (??MainFsm_15) /2
   \   0000001A   ....               DW      (??MainFsm_16) /2
   \   0000001C   ....               DW      (??MainFsm_17) /2
   \   0000001E   ....               DW      (??MainFsm_18) /2
   \   00000020   ....               DW      (??MainFsm_19) /2
   \   00000022   ....               DW      (??MainFsm_20) /2
   \   00000024   ....               DW      (??MainFsm_21) /2

   \                                 In  segment CODE, align 2, keep-with-next
   \                     `?<Unnamed 9>`:
   \   00000000   ....               LDI     R22, LOW(`?<Unnamed 10>`/2)
   \   00000002   ....               LDI     R23, (`?<Unnamed 10>`/2) >> 8
   \   00000004   ....               RCALL   ?Subroutine16
   \                     ??CrossCallReturnLabel_9:
   \   00000006   ........           JMP     __near_vec_destroy

   \                                 In  segment CODE, align 2, keep-with-next
   \                     ?Subroutine16:
   \   00000000   E046               LDI     R20, 6
   \   00000002   E050               LDI     R21, 0
   \   00000004   E320               LDI     R18, 48
   \   00000006   E030               LDI     R19, 0
   \   00000008   ....               LDI     R16, LOW(??m_axAlarmWindowControl)
   \   0000000A   ....               LDI     R17, (??m_axAlarmWindowControl) >> 8
   \   0000000C   9508               RET

   \                                 In  segment CODE, align 2, keep-with-next
   \                     ?Subroutine41:
   \   00000000   E012               LDI     R17, 2
   \   00000002   9F01               MUL     R16, R17
   \   00000004   01F0               MOVW    R31:R30, R1:R0
   \   00000006   ....               SUBI    R30, LOW((-(??m_xDeviceConfigSearch) & 0xFFFF))
   \   00000008   ....               SBCI    R31, (-(??m_xDeviceConfigSearch) & 0xFFFF) >> 8
   \   0000000A   89A2               LDD     R26, Z+18
   \   0000000C   89B3               LDD     R27, Z+19
   \   0000000E   9508               RET

   \                                 In  segment CODE, align 2, keep-with-next
   \                     ?Subroutine44:
   \   00000000   E006               LDI     R16, 6
   \   00000002                      REQUIRE ??Subroutine91_0
   \   00000002                      ;               // Fall through to label ??Subroutine91_0

   \                                 In  segment CODE, align 2, keep-with-next
   \                     ??Subroutine91_0:
   \   00000000   9300....           STS     (??m_xDeviceConfigSearch + 44), R16
   \   00000004   9508               RET

   \                                 In  segment CODE, align 2, keep-with-next
   \                     ?Subroutine24:
   \   00000000   ....               RCALL   ?Subroutine65
   \                     ??CrossCallReturnLabel_76:
   \   00000002                      REQUIRE ?Subroutine78
   \   00000002                      ;               // Fall through to label ?Subroutine78
   1521          

   Maximum stack usage in bytes:

   CSTACK RSTACK Function
   ------ ------ --------
      0      2   <Unnamed 0>
        0      2   -> CUart::~CUart()
      0      2   <Unnamed 10>
        0      2   -> CAlarmWindow::~CAlarmWindow()
      0      2   <Unnamed 1>
        0      2   -> CModbusRTU::~CModbusRTU()
      0      2   <Unnamed 2>
        0      2   -> CMultiFunctionKey::~CMultiFunctionKey()
      0      2   <Unnamed 3>
        0      2   -> CEventUniteLogicAnd::~CEventUniteLogicAnd()
      0      2   <Unnamed 4>
        0      2   -> CPreventiveAlarmWindowNotifyerControl::~CPreventiveAlarmWindowNotifyerControl()
      0      2   <Unnamed 5>
        0      2   -> CEmergencyAlarmWindowNotifyerControl::~CEmergencyAlarmWindowNotifyerControl()
      0      2   <Unnamed 6>
        0      2   -> CStatusLedNotifyerControl::~CStatusLedNotifyerControl()
      0      2   <Unnamed 7>
        0      2   -> CBuzzerNotifyerControl::~CBuzzerNotifyerControl()
      0      2   <Unnamed 8>
        0      2   -> CModbusRtuLinkControl::~CModbusRtuLinkControl()
      0      2   <Unnamed 9>
        0      2   -> __near_vec_destroy
      0      2   CPlatform::ExternalKeyState()
      0      2   CPlatform::KeyOneState()
      0      2   CPlatform::KeyThreeState()
      0      2   CPlatform::KeyTwoState()
      0      2   CPss21::ActiveAlarmWindowOff(uint8_t)
        0      2   -> CLightBoard::Set()
        0      6 ?S_EC_MUL_L02
      0      2   CPss21::ActiveAlarmWindowOn(uint8_t)
        0      2   -> CLightBoard::Set()
        0      6 ?S_EC_MUL_L02
      0      2   CPss21::AddressBusInit()
      0      2   CPss21::AlarmTypeChange()
        0      2   -> CPss21::AlarmTypeSet(uint8_t)
      0      2   CPss21::AlarmTypeErrorChange()
        0      2   -> CBuzzerNotifyerControl::AlarmSet(uint8_t)
        0      4   -> CEmergencyAlarmWindowNotifyerControl::AlarmSet(uint8_t)
        0      4   -> CPreventiveAlarmWindowNotifyerControl::AlarmSet(uint8_t)
        0      4   -> CStatusLedNotifyerControl::AlarmSet(uint8_t)
      0      2   CPss21::AlarmTypeReceipt()
        0      2   -> CPss21::AlarmTypeSet(uint8_t)
      0      2   CPss21::AlarmTypeReset()
        0      2   -> CPss21::AlarmTypeSet(uint8_t)
      1      2   CPss21::AlarmTypeSet(uint8_t)
        1      2   -> CBuzzerNotifyerControl::AlarmSet(uint8_t)
        1      2   -> CEmergencyAlarmWindowNotifyerControl::AlarmSet(uint8_t)
        1      2   -> CPreventiveAlarmWindowNotifyerControl::AlarmSet(uint8_t)
        1      2   -> CStatusLedNotifyerControl::AlarmSet(uint8_t)
      2      2   CPss21::AlarmsProcessing()
        2      4   -- Indirect call
      0      2   CPss21::AllAlarmWindowOff()
        0      2   -> CLightBoard::Set()
        0      6 ?S_EC_MUL_L02
      0      2   CPss21::AllAlarmWindowOn(uint8_t)
        0      2   -> CLightBoard::Set()
        0      4 ?S_EC_MUL_L02
      4      2   CPss21::ConfigurationInit()
        4      2   -> CDataBase::ReadBlock(uint8_t *, uint8_t)
        4      2   -> CEmergencyAlarmHighLevelDfa::new CEmergencyAlarmHighLevelDfa()
        4      2   -> CEmergencyAlarmLowLevelDfa::new CEmergencyAlarmLowLevelDfa()
        4      2   -> CErrorAlarmDfa::new CErrorAlarmDfa()
        4      2   -> CIndicationAlarmHighLevelDfa::new CIndicationAlarmHighLevelDfa()
        4      2   -> CIndicationAlarmLowLevelDfa::new CIndicationAlarmLowLevelDfa()
        4      2   -> CNormalAlarmDfa::new CNormalAlarmDfa()
        4      2   -> CPreventiveAlarmHighLevelDfa::new CPreventiveAlarmHighLevelDfa()
        4      2   -> CPreventiveAlarmLowLevelDfa::new CPreventiveAlarmLowLevelDfa()
        4      2   -> memcpy
        4      2   -> memset
        4      2 ?SS_SHR_L02
      0      2   CPss21::ConnectDevice(uint8_t)
        0      2   -> CSpi::Enable()
     26      2   CPss21::CreateDevices()
       26      4   -- Indirect call
       26      2   -> CModuleMrXXDriver::new CModuleMrXXDriver(uint8_t)
       26      2   -> CMvsn21Driver::new CMvsn21Driver(uint8_t)
       26      2   -> CPss21::InitAllocationContext(TMemoryAllocationConext &)
      0      2   CPss21::DestroyDevices(uint8_t)
      0      2   CPss21::DisconnectDevice()
        0      2   -> CSpi::Disable()
      0      2   CPss21::DiscreteOutputControlClear()
      4      2   CPss21::DiscreteOutputsSet(uint8_t *, uint8_t)
        4      4 ?S_SHL_L02
      0      2   CPss21::DiscreteSignalsProcessing()
        0      2   -> CPss21::AlarmsProcessing()
        0      2   -> CPss21::DiscreteOutputControlClear()
        0      2   -> CPss21::ErrorAlarmsProcessing()
      2      2   CPss21::ErrorAlarmsProcessing()
        2      4   -- Indirect call
      0      2   CPss21::ErrorMainCycle()
        0      2   -> CBuzzerNotifyerControl::AlarmSet(uint8_t)
        0      2   -> CModbusRTU::Fsm()
        0      2   -> CPss21::KeyStateProcessing()
        0      2   -> CPss21::NotifyersControlProcessing()
        0      2   -> CPss21::ReceiptResetGlobalFlagsClear()
        0      2   -> CStatusLedNotifyerControl::AlarmSet(uint8_t)
      0      2   CPss21::ErrorWindowOn(uint8_t)
        0      2   -> CLightBoard::Set()
        0      4 ?S_EC_MUL_L02
        0      6 ?S_EC_MUL_L02
      0      2   CPss21::GetDiscreteInputState(uint8_t)
      0      2   CPss21::GetErrorAlarmState(uint8_t)
      0      2   CPss21::GetTimeoutModbusRtuLinkControl()
        0      2 ?S_EC_MUL_L02
      0      2   CPss21::Init()
        0      2   -> CLightBoard::Init(CAlarmWindow *)
        0      2   -> memset
      0      2   CPss21::InitAllocationContext(TMemoryAllocationConext &)
      1      2   CPss21::KeyStateProcessing()
        1      2   -> CBuzzerNotifyerControl::AlarmSet(uint8_t)
        1      2   -> CEventUniteLogicAnd::IsHappened(uint8_t, uint8_t)
        1      2   -> CMultiFunctionKey::KeyEventHappened(uint8_t)
        1      4   -> CMultiFunctionKey::KeyEventHappened(uint8_t)
        1      2   -> CPss21::ModbusDefaultInit()
        1      4   -> CPss21::SendToDevicesReceipt()
        1      2   -> CPss21::SendToDevicesReset()
      0      2   CPss21::LinkControlErrorMainCycle()
        0      2   -> CDataStore::Fsm()
        0      4   -> CModbusRTU::Fsm()
        0      4   -> CModbusRtuLinkControl::Fsm()
        0      4   -> CPss21::KeyStateProcessing()
        0      2   -> CPss21::NotifyersControlProcessing()
        0      2   -> CPss21::ReceiptResetGlobalFlagsClear()
      0      2   CPss21::MainFsm()
        0      2   -> CBuzzer::Init()
        0      2   -> CBuzzerNotifyerControl::AlarmSet(uint8_t)
        0      2   -> CDataBase::Check()
        0      2   -> CDataStore::Fsm()
        0      4   -> CDataStore::Fsm()
        0      4   -> CEmergencyAlarmWindowNotifyerControl::AlarmSet(uint8_t)
        0      2   -> CModbusRTU::Fsm()
        0      4   -> CModbusRTU::Fsm()
        0      4   -> CModbusRtuLinkControl::Fsm()
        0      2   -> CPlatform::Init()
        0      4   -> CPreventiveAlarmWindowNotifyerControl::AlarmSet(uint8_t)
        0      2   -> CPss21::AddressBusInit()
        0      2   -> CPss21::AlarmTypeSet(uint8_t)
        0      4   -> CPss21::AllAlarmWindowOff()
        0      2   -> CPss21::AllAlarmWindowOn(uint8_t)
        0      2   -> CPss21::ConfigurationInit()
        0      2   -> CPss21::CreateDevices()
        0      2   -> CPss21::DiscreteSignalsProcessing()
        0      2   -> CPss21::ErrorMainCycle()
        0      4   -> CPss21::ErrorWindowOn(uint8_t)
        0      2   -> CPss21::Init()
        0      4   -> CPss21::KeyStateProcessing()
        0      2   -> CPss21::LinkControlErrorMainCycle()
        0      2   -> CPss21::ModbusDefaultInit()
        0      2   -> CPss21::ModbusInit()
        0      2   -> CPss21::ModulesInteraction(uint8_t)
        0      2   -> CPss21::NotifyersControlProcessing()
        0      2   -> CPss21::ReceiptResetGlobalFlagsClear()
        0      4   -> CPss21::RestoreContextNotifyerControl()
        0      2   -> CPss21::SaveContextNotifyerControl()
        0      2   -> CPss21::SearchModules()
        0      2   -> CPss21::TestMainCycle()
        0      2   -> CSpi::Init()
        0      4   -> CStatusLedNotifyerControl::AlarmSet(uint8_t)
        0      4   -> CTimer::IsOverflow()
        0      2   -> CTimer::Reset()
        0      2   -> CTimer::Set(uint16_t)
        0      2 ?CV_SWITCH_L06
      0      2   CPss21::ModbusDefaultInit()
        0      2   -> CPss21::ModbusInit()
      0      2   CPss21::ModbusDeviceControl(uint8_t *, uint16_t, uint16_t)
        0      2   -> CPss21::SendToDevicesModbusReceipt()
        0      2   -> CPss21::SendToDevicesModbusReset()
        0      2   -> CPss21::SetBytesFromBits(uint8_t *, uint8_t *, uint16_t)
      1      2   CPss21::ModbusDeviceControl(uint8_t, uint16_t)
        1      2   -> CPss21::ModbusDeviceControl(uint8_t *, uint16_t, uint16_t)
     25      2   CPss21::ModbusInit()
        2      2   -> CModbus::SlaveSet(uint8_t)
        2      2   -> CModbusRTU::Init(CUart *, uint32_t, char, uint8_t, uint8_t, uint8_t *, uint8_t *, uint8_t *, uint8_t *, uint16_t *, uint16_t *, uint16_t, uint16_t, uint16_t, uint16_t)
       25      2 ?UL_DIVMOD_L03
       25      2 ?UL_SHR_L03
      0      2   CPss21::ModbusRtuLinkControlInProgress()
      0      2   CPss21::ModbusRtuLinkControlIsOn()
      2      2   CPss21::ModulesInteraction(uint8_t)
        2      2   -- Indirect call
      0      2   CPss21::NotifyersControlProcessing()
        0      2   -> CNotifyerControl::Fsm()
      0      2   CPss21::ReceiptResetGlobalFlagsClear()
      0      2   CPss21::ReportType(uint8_t *, uint16_t)
        0      4   -> CPss21::ConnectDevice(uint8_t)
        0      2   -> CPss21::DisconnectDevice()
        0      4   -> CSpi::Exchange(uint8_t *, uint8_t *, uint16_t)
        0      2   -> memset
      0      2   CPss21::RestoreContextNotifyerControl()
        0      2   -> CPss21::AlarmTypeSet(uint8_t)
        0      4 ?S_EC_MUL_L02
      0      2   CPss21::SaveContextNotifyerControl()
        0      4 ?S_EC_MUL_L02
      5      2   CPss21::SearchModules()
        5      4   -> CPss21::ConnectDevice(uint8_t)
        5      2   -> CPss21::DisconnectDevice()
        5      4   -> CSpi::Exchange(uint8_t *, uint8_t *, uint16_t)
        5      2   -> delay_ms(uint16_t)
        5      2   -> iCrcSummOneByteCompare(unsigned char *, unsigned int)
        5      2   -> memset
      0      2   CPss21::SendToDevicesModbusReceipt()
      0      2   CPss21::SendToDevicesModbusReset()
      0      2   CPss21::SendToDevicesReceipt()
      0      2   CPss21::SendToDevicesReset()
      0      2   CPss21::SetAlarmWindowType(uint8_t, uint8_t)
        0      2 ?S_EC_MUL_L02
      4      2   CPss21::SetBytesFromBits(uint8_t *, uint8_t *, uint16_t)
        4      2 ?SS_DIVMOD_L02
        4      2 ?S_SHL_L02
        4      4 ?S_SHL_L02
      0      2   CPss21::SetErrorAlarmState(uint8_t, uint8_t)
      0      2   CPss21::SetModeModbusRtuLinkControlInProgress(bool)
        0      2   -> CDataBase::SignatureCreate()
        0      2   -> CDataBase::WriteBlock(uint8_t *, uint8_t)
      0      2   CPss21::TestMainCycle()
        0      4   -> CModbusRTU::Fsm()
        0      4   -> CPss21::KeyStateProcessing()
        0      2   -> CPss21::NotifyersControlProcessing()
        0      2   -> CPss21::ReceiptResetGlobalFlagsClear()
     12      2   __sti__routine()
        0      2   -> CBuzzerNotifyerControl::CBuzzerNotifyerControl()
        0      2   -> CEmergencyAlarmWindowNotifyerControl::CEmergencyAlarmWindowNotifyerControl()
        0      2   -> CEventUniteLogicAnd::CEventUniteLogicAnd(uint16_t)
        0      2   -> CModbusRTU::CModbusRTU()
        0      2   -> CModbusRtuLinkControl::CModbusRtuLinkControl()
        0      2   -> CMultiFunctionKey::CMultiFunctionKey(uint8_t (*)())
        0      2   -> CPreventiveAlarmWindowNotifyerControl::CPreventiveAlarmWindowNotifyerControl()
        0      2   -> CStatusLedNotifyerControl::CStatusLedNotifyerControl()
        0      2   -> CTimer::CTimer(uint16_t)
        0      2   -> CUart::CUart(uint8_t volatile *, uint8_t volatile *, uint8_t volatile *, uint8_t volatile *, uint8_t volatile *, uint8_t volatile *, uint8_t volatile *, uint8_t, uint8_t volatile *, uint8_t)
        0      2   -> __near_vec_construct
        0      2   -> __record_needed_destruction


   Segment part sizes:

   Bytes  Function/Label
   -----  --------------
      78  ?<Initializer for >
      38  ?<Jumptable for MainFsm>_0
       6  ?<Unnamed 0>
       6  ?<Unnamed 10>
       6  ?<Unnamed 1>
       6  ?<Unnamed 2>
       6  ?<Unnamed 3>
       6  ?<Unnamed 4>
       6  ?<Unnamed 5>
       6  ?<Unnamed 6>
       6  ?<Unnamed 7>
       6  ?<Unnamed 8>
      10  ?<Unnamed 9>
       8  ??Subroutine100_0
       6  ??Subroutine101_0
       4  ??Subroutine90_0
       6  ??Subroutine91_0
       4  ??Subroutine92_0
      10  ??Subroutine93_0
       2  ??Subroutine94_0
       8  ??Subroutine95_0
       8  ??Subroutine96_0
       6  ??Subroutine97_0
       4  ??Subroutine98_0
      14  ??Subroutine99_0
       2  ?Subroutine1
       4  ?Subroutine11
       4  ?Subroutine12
       6  ?Subroutine13
      14  ?Subroutine14
       4  ?Subroutine15
      14  ?Subroutine16
       2  ?Subroutine18
      16  ?Subroutine19
       6  ?Subroutine2
       8  ?Subroutine20
       8  ?Subroutine21
      10  ?Subroutine23
       2  ?Subroutine24
       8  ?Subroutine25
       6  ?Subroutine26
       8  ?Subroutine27
      34  ?Subroutine28
      18  ?Subroutine29
       8  ?Subroutine30
       6  ?Subroutine32
      10  ?Subroutine33
       4  ?Subroutine34
       4  ?Subroutine35
      12  ?Subroutine36
       4  ?Subroutine37
      16  ?Subroutine38
      18  ?Subroutine39
       2  ?Subroutine4
      10  ?Subroutine40
      16  ?Subroutine41
       4  ?Subroutine42
       4  ?Subroutine43
       2  ?Subroutine44
       2  ?Subroutine45
       2  ?Subroutine46
       4  ?Subroutine47
      10  ?Subroutine5
      10  ?Subroutine50
       2  ?Subroutine52
       4  ?Subroutine53
       8  ?Subroutine54
       8  ?Subroutine55
       8  ?Subroutine56
       8  ?Subroutine57
       8  ?Subroutine58
       6  ?Subroutine59
       8  ?Subroutine6
       2  ?Subroutine60
       8  ?Subroutine61
       4  ?Subroutine62
      10  ?Subroutine63
       4  ?Subroutine64
       6  ?Subroutine65
       4  ?Subroutine66
       4  ?Subroutine67
       4  ?Subroutine68
       6  ?Subroutine69
       4  ?Subroutine7
       4  ?Subroutine70
       6  ?Subroutine71
       6  ?Subroutine72
       6  ?Subroutine73
       2  ?Subroutine74
       4  ?Subroutine75
       4  ?Subroutine76
       4  ?Subroutine77
       4  ?Subroutine78
       4  ?Subroutine79
       6  ?Subroutine8
       4  ?Subroutine80
       4  ?Subroutine81
       4  ?Subroutine82
       4  ?Subroutine83
       6  ?Subroutine84
       4  ?Subroutine85
       4  ?Subroutine86
       2  ?Subroutine87
       4  ?Subroutine88
       4  ?Subroutine89
       4  ?Subroutine9
      78  ?_0
      14  CPlatform::ExternalKeyState()
      12  CPlatform::KeyOneState()
      12  CPlatform::KeyThreeState()
      12  CPlatform::KeyTwoState()
      18  CPss21::ActiveAlarmWindowOff(uint8_t)
      16  CPss21::ActiveAlarmWindowOn(uint8_t)
      22  CPss21::AddressBusInit()
      10  CPss21::AlarmTypeChange()
      10  CPss21::AlarmTypeErrorChange()
       2  CPss21::AlarmTypeReceipt()
       4  CPss21::AlarmTypeReset()
      22  CPss21::AlarmTypeSet(uint8_t)
      22  CPss21::AlarmsProcessing()
      12  CPss21::AllAlarmWindowOff()
      12  CPss21::AllAlarmWindowOn(uint8_t)
     488  CPss21::ConfigurationInit()
      46  CPss21::ConnectDevice(uint8_t)
      82  CPss21::CreateDevices()
      18  CPss21::DestroyDevices(uint8_t)
      16  CPss21::DisconnectDevice()
      34  CPss21::DiscreteOutputControlClear()
      82  CPss21::DiscreteOutputsSet(uint8_t *, uint8_t)
      18  CPss21::DiscreteSignalsProcessing()
      24  CPss21::ErrorAlarmsProcessing()
      36  CPss21::ErrorMainCycle()
      38  CPss21::ErrorWindowOn(uint8_t)
      22  CPss21::GetDiscreteInputState(uint8_t)
       6  CPss21::GetErrorAlarmState(uint8_t)
      10  CPss21::GetTimeoutModbusRtuLinkControl()
      26  CPss21::Init()
      88  CPss21::InitAllocationContext(TMemoryAllocationConext &)
     114  CPss21::KeyStateProcessing()
       8  CPss21::LinkControlErrorMainCycle()
     248  CPss21::MainFsm()
      18  CPss21::ModbusDefaultInit()
      80  CPss21::ModbusDeviceControl(uint8_t *, uint16_t, uint16_t)
      18  CPss21::ModbusDeviceControl(uint8_t, uint16_t)
     146  CPss21::ModbusInit()
      10  CPss21::ModbusRtuLinkControlInProgress()
      10  CPss21::ModbusRtuLinkControlIsOn()
      36  CPss21::ModulesInteraction(uint8_t)
      22  CPss21::NotifyersControlProcessing()
      18  CPss21::ReceiptResetGlobalFlagsClear()
      40  CPss21::ReportType(uint8_t *, uint16_t)
      22  CPss21::RestoreContextNotifyerControl()
      18  CPss21::SaveContextNotifyerControl()
     182  CPss21::SearchModules()
      16  CPss21::SendToDevicesModbusReceipt()
      16  CPss21::SendToDevicesModbusReset()
      32  CPss21::SendToDevicesReceipt()
      16  CPss21::SendToDevicesReset()
      18  CPss21::SetAlarmWindowType(uint8_t, uint8_t)
      80  CPss21::SetBytesFromBits(uint8_t *, uint8_t *, uint16_t)
       6  CPss21::SetErrorAlarmState(uint8_t, uint8_t)
      26  CPss21::SetModeModbusRtuLinkControlInProgress(bool)
       2  CPss21::TestMainCycle()
     192  CPss21::m_apxAlarmDfa
     120  CPss21::m_aucRtuDiscreteDataArray
     256  CPss21::m_aucRtuHoldingRegistersArray
      48  CPss21::m_auiErrorLedOn
     256  CPss21::m_auiIntermediateBuff
     256  CPss21::m_auiReceiveMessageBuff
      64  CPss21::m_auiSpiRxBuffer
      64  CPss21::m_auiSpiTxBuffer
     288  CPss21::m_axAlarmWindowControl
       1  CPss21::m_uiType
     191  CPss21::m_xDeviceConfigSearch
          CPss21::m_xModbusRtuLinkControl
          CPss21::m_apxDrivers
          CPss21::m_apxErrorAlarmDfa
          CPss21::m_axDiscreteOutputControl
          CPss21::m_uiFsmState
          CPss21::m_uiPanelReceipt
          CPss21::m_uiPanelReset
          CPss21::m_uiExternalReceipt
          CPss21::m_uiExternalReset
          CPss21::m_uiModbusReceipt
          CPss21::m_uiModbusReset
          CPss21::m_uiDiscreteSignalsReceipt
          CPss21::m_uiDiscreteSignalsReset
          CPss21::m_uiErrorCode
          CPss21::m_uiModuleIndex
          CPss21::m_uiCommonAlarmType
          CPss21::m_uiCommonAlarmTypePrevious
          CPss21::m_auiErrorAlarmDataArray
          CPss21::m_xReceiptKey
          CPss21::m_xResetKey
          CPss21::m_xCheckKey
          CPss21::m_xExternalKey
          CPss21::m_xEventUniteLogicAndOne
          CPss21::m_xMainCycleTimer
          CPss21::m_xPreventiveAlarmWindowNotifyerControl
          CPss21::m_xEmergencyAlarmWindowNotifyerControl
          CPss21::m_xStatusLedNotifyerControl
          CPss21::m_xBuzzerNotifyerControl
          CPss21::m_xDiscreteOutputDataBase
      51  CPss21::m_xDeviceConfiguration
          CPss21::m_xModbusSettings
          CPss21::m_xDeviceState
          CPss21::m_aucRtuInputRegistersArray
      49  CPss21::m_xModbusRtuOne
      47  CPss21::m_xUart1
       1  _A_ACSR
       2  _A_ADC
       1  _A_ADCSRA
       1  _A_ADMUX
       1  _A_ASSR
       1  _A_DDRA
       1  _A_DDRB
       1  _A_DDRC
       1  _A_DDRD
       1  _A_DDRE
       1  _A_DDRF
       1  _A_DDRG
       2  _A_EEAR
       1  _A_EECR
       1  _A_EEDR
       1  _A_EICRA
       1  _A_EICRB
       1  _A_EIFR
       1  _A_EIMSK
       1  _A_ETIFR
       1  _A_ETIMSK
       2  _A_ICR1
       2  _A_ICR3
       1  _A_MCUCR
       1  _A_MCUCSR
       1  _A_OCDR
       1  _A_OCR0
       2  _A_OCR1A
       2  _A_OCR1B
       2  _A_OCR1C
       1  _A_OCR2
       2  _A_OCR3A
       2  _A_OCR3B
       2  _A_OCR3C
       1  _A_OSCCAL
       1  _A_PINA
       1  _A_PINB
       1  _A_PINC
       1  _A_PIND
       1  _A_PINE
       1  _A_PINF
       1  _A_PING
       1  _A_PORTA
       1  _A_PORTB
       1  _A_PORTC
       1  _A_PORTD
       1  _A_PORTE
       1  _A_PORTF
       1  _A_PORTG
       1  _A_RAMPZ
       1  _A_SFIOR
       2  _A_SP
       1  _A_SPCR
       1  _A_SPDR
       1  _A_SPMCSR
       1  _A_SPSR
       1  _A_SREG
       1  _A_TCCR0
       1  _A_TCCR1A
       1  _A_TCCR1B
       1  _A_TCCR1C
       1  _A_TCCR2
       1  _A_TCCR3A
       1  _A_TCCR3B
       1  _A_TCCR3C
       1  _A_TCNT0
       2  _A_TCNT1
       1  _A_TCNT2
       2  _A_TCNT3
       1  _A_TIFR
       1  _A_TIMSK
       1  _A_TWAR
       1  _A_TWBR
       1  _A_TWCR
       1  _A_TWDR
       1  _A_TWSR
       1  _A_UBRR0H
       1  _A_UBRR0L
       1  _A_UBRR1H
       1  _A_UBRR1L
       1  _A_UCSR0A
       1  _A_UCSR0B
       1  _A_UCSR0C
       1  _A_UCSR1A
       1  _A_UCSR1B
       1  _A_UCSR1C
       1  _A_UDR0
       1  _A_UDR1
       1  _A_WDTCR
       1  _A_XDIV
       1  _A_XMCRA
       1  _A_XMCRB
     248  __sti__routine()
      46  -- Other

 
   105 bytes in segment ABSOLUTE
 3 366 bytes in segment CODE
     2 bytes in segment DIFUNCT
    14 bytes in segment INITTAB
    52 bytes in segment NEAR_F
    78 bytes in segment NEAR_I
    78 bytes in segment NEAR_ID
 1 861 bytes in segment NEAR_Z
    38 bytes in segment SWITCH
 
 3 486 bytes of CODE memory (+  64 bytes shared)
 1 939 bytes of DATA memory (+ 105 bytes shared)

Errors: none
Warnings: 2
