###############################################################################
#
# IAR C/C++ Compiler V7.10.6.1378 for Atmel AVR           09/Aug/2022  11:07:08
# Copyright 1996-2018 IAR Systems AB.
#
#    Source file  =  D:\Projects\CautoProjects\PSS48\PSS48\src\Pss21.cpp
#    Command line =  
#        -f C:\Users\ghost\AppData\Local\Temp\EW3BC0.tmp
#        (--string_literals_in_flash
#        D:\Projects\CautoProjects\PSS48\PSS48\src\Pss21.cpp --cpu=m128a -ms -o
#        D:\Projects\CautoProjects\PSS48\PSS48\Debug\Obj -lC
#        D:\Projects\CautoProjects\PSS48\PSS48\Debug\List -lB
#        D:\Projects\CautoProjects\PSS48\PSS48\Debug\List -y
#        --initializers_in_flash --root_variables --debug
#        -DENABLE_BIT_DEFINITIONS -e -I
#        D:\Projects\CautoProjects\PSS48\PSS48\include\ -I
#        D:\Projects\CautoProjects\PSS48\PSS48\Modbus\ --eeprom_size 4096
#        --dlib --dlib_config "C:\Program Files (x86)\IAR Systems\Embedded
#        Workbench 8.0\avr\LIB\DLIB\dlAVR-3s-ec_mul-n.h" -Ohz --eec++)
#    Locale       =  Russian_RUS.1251
#    List file    =  D:\Projects\CautoProjects\PSS48\PSS48\Debug\List\Pss21.lst
#    Object file  =  D:\Projects\CautoProjects\PSS48\PSS48\Debug\Obj\Pss21.r90
#
###############################################################################

D:\Projects\CautoProjects\PSS48\PSS48\src\Pss21.cpp
      1          //-----------------------------------------------------------------------------------------------------
      2          //  Sourse      : FileName.cpp
      3          //  Created     : 01.06.2022
      4          //  Author      : Alexandr Volvenkin
      5          //  email       : aav-36@mail.ru
      6          //  GitHub      : https://github.com/AlexandrVolvenkin
      7          //-----------------------------------------------------------------------------------------------------
      8          #include "Pss21.h"

   \                                 In  segment ABSOLUTE, at 0x9d, root
   \   union <unnamed> volatile __io _A_UCSR1C
   \                     _A_UCSR1C:
   \   00000000                      DS8 1

   \                                 In  segment ABSOLUTE, at 0x9c, root
   \   union <unnamed> volatile __io _A_UDR1
   \                     _A_UDR1:
   \   00000000                      DS8 1

   \                                 In  segment ABSOLUTE, at 0x9b, root
   \   union <unnamed> volatile __io _A_UCSR1A
   \                     _A_UCSR1A:
   \   00000000                      DS8 1

   \                                 In  segment ABSOLUTE, at 0x9a, root
   \   union <unnamed> volatile __io _A_UCSR1B
   \                     _A_UCSR1B:
   \   00000000                      DS8 1

   \                                 In  segment ABSOLUTE, at 0x99, root
   \   union <unnamed> volatile __io _A_UBRR1L
   \                     _A_UBRR1L:
   \   00000000                      DS8 1

   \                                 In  segment ABSOLUTE, at 0x98, root
   \   union <unnamed> volatile __io _A_UBRR1H
   \                     _A_UBRR1H:
   \   00000000                      DS8 1

   \                                 In  segment ABSOLUTE, at 0x95, root
   \   union <unnamed> volatile __io _A_UCSR0C
   \                     _A_UCSR0C:
   \   00000000                      DS8 1

   \                                 In  segment ABSOLUTE, at 0x90, root
   \   union <unnamed> volatile __io _A_UBRR0H
   \                     _A_UBRR0H:
   \   00000000                      DS8 1

   \                                 In  segment ABSOLUTE, at 0x8c, root
   \   union <unnamed> volatile __io _A_TCCR3C
   \                     _A_TCCR3C:
   \   00000000                      DS8 1

   \                                 In  segment ABSOLUTE, at 0x8b, root
   \   union <unnamed> volatile __io _A_TCCR3A
   \                     _A_TCCR3A:
   \   00000000                      DS8 1

   \                                 In  segment ABSOLUTE, at 0x8a, root
   \   union <unnamed> volatile __io _A_TCCR3B
   \                     _A_TCCR3B:
   \   00000000                      DS8 1

   \                                 In  segment ABSOLUTE, at 0x88, root
   \   union <unnamed> volatile __io _A_TCNT3
   \                     _A_TCNT3:
   \   00000000                      DS8 2

   \                                 In  segment ABSOLUTE, at 0x86, root
   \   union <unnamed> volatile __io _A_OCR3A
   \                     _A_OCR3A:
   \   00000000                      DS8 2

   \                                 In  segment ABSOLUTE, at 0x84, root
   \   union <unnamed> volatile __io _A_OCR3B
   \                     _A_OCR3B:
   \   00000000                      DS8 2

   \                                 In  segment ABSOLUTE, at 0x82, root
   \   union <unnamed> volatile __io _A_OCR3C
   \                     _A_OCR3C:
   \   00000000                      DS8 2

   \                                 In  segment ABSOLUTE, at 0x80, root
   \   union <unnamed> volatile __io _A_ICR3
   \                     _A_ICR3:
   \   00000000                      DS8 2

   \                                 In  segment ABSOLUTE, at 0x7d, root
   \   union <unnamed> volatile __io _A_ETIMSK
   \                     _A_ETIMSK:
   \   00000000                      DS8 1

   \                                 In  segment ABSOLUTE, at 0x7c, root
   \   union <unnamed> volatile __io _A_ETIFR
   \                     _A_ETIFR:
   \   00000000                      DS8 1

   \                                 In  segment ABSOLUTE, at 0x7a, root
   \   union <unnamed> volatile __io _A_TCCR1C
   \                     _A_TCCR1C:
   \   00000000                      DS8 1

   \                                 In  segment ABSOLUTE, at 0x78, root
   \   union <unnamed> volatile __io _A_OCR1C
   \                     _A_OCR1C:
   \   00000000                      DS8 2

   \                                 In  segment ABSOLUTE, at 0x74, root
   \   union <unnamed> volatile __io _A_TWCR
   \                     _A_TWCR:
   \   00000000                      DS8 1

   \                                 In  segment ABSOLUTE, at 0x73, root
   \   union <unnamed> volatile __io _A_TWDR
   \                     _A_TWDR:
   \   00000000                      DS8 1

   \                                 In  segment ABSOLUTE, at 0x72, root
   \   union <unnamed> volatile __io _A_TWAR
   \                     _A_TWAR:
   \   00000000                      DS8 1

   \                                 In  segment ABSOLUTE, at 0x71, root
   \   union <unnamed> volatile __io _A_TWSR
   \                     _A_TWSR:
   \   00000000                      DS8 1

   \                                 In  segment ABSOLUTE, at 0x70, root
   \   union <unnamed> volatile __io _A_TWBR
   \                     _A_TWBR:
   \   00000000                      DS8 1

   \                                 In  segment ABSOLUTE, at 0x6f, root
   \   union <unnamed> volatile __io _A_OSCCAL
   \                     _A_OSCCAL:
   \   00000000                      DS8 1

   \                                 In  segment ABSOLUTE, at 0x6d, root
   \   union <unnamed> volatile __io _A_XMCRA
   \                     _A_XMCRA:
   \   00000000                      DS8 1

   \                                 In  segment ABSOLUTE, at 0x6c, root
   \   union <unnamed> volatile __io _A_XMCRB
   \                     _A_XMCRB:
   \   00000000                      DS8 1

   \                                 In  segment ABSOLUTE, at 0x6a, root
   \   union <unnamed> volatile __io _A_EICRA
   \                     _A_EICRA:
   \   00000000                      DS8 1

   \                                 In  segment ABSOLUTE, at 0x68, root
   \   union <unnamed> volatile __io _A_SPMCSR
   \                     _A_SPMCSR:
   \   00000000                      DS8 1

   \                                 In  segment ABSOLUTE, at 0x65, root
   \   union <unnamed> volatile __io _A_PORTG
   \                     _A_PORTG:
   \   00000000                      DS8 1

   \                                 In  segment ABSOLUTE, at 0x64, root
   \   union <unnamed> volatile __io _A_DDRG
   \                     _A_DDRG:
   \   00000000                      DS8 1

   \                                 In  segment ABSOLUTE, at 0x63, root
   \   union <unnamed> volatile __io _A_PING
   \                     _A_PING:
   \   00000000                      DS8 1

   \                                 In  segment ABSOLUTE, at 0x62, root
   \   union <unnamed> volatile __io _A_PORTF
   \                     _A_PORTF:
   \   00000000                      DS8 1

   \                                 In  segment ABSOLUTE, at 0x61, root
   \   union <unnamed> volatile __io _A_DDRF
   \                     _A_DDRF:
   \   00000000                      DS8 1

   \                                 In  segment ABSOLUTE, at 0x5f, root
   \   union <unnamed> volatile __io _A_SREG
   \                     _A_SREG:
   \   00000000                      DS8 1

   \                                 In  segment ABSOLUTE, at 0x5d, root
   \   union <unnamed> volatile __io _A_SP
   \                     _A_SP:
   \   00000000                      DS8 2

   \                                 In  segment ABSOLUTE, at 0x5c, root
   \   union <unnamed> volatile __io _A_XDIV
   \                     _A_XDIV:
   \   00000000                      DS8 1

   \                                 In  segment ABSOLUTE, at 0x5b, root
   \   union <unnamed> volatile __io _A_RAMPZ
   \                     _A_RAMPZ:
   \   00000000                      DS8 1

   \                                 In  segment ABSOLUTE, at 0x5a, root
   \   union <unnamed> volatile __io _A_EICRB
   \                     _A_EICRB:
   \   00000000                      DS8 1

   \                                 In  segment ABSOLUTE, at 0x59, root
   \   union <unnamed> volatile __io _A_EIMSK
   \                     _A_EIMSK:
   \   00000000                      DS8 1

   \                                 In  segment ABSOLUTE, at 0x58, root
   \   union <unnamed> volatile __io _A_EIFR
   \                     _A_EIFR:
   \   00000000                      DS8 1

   \                                 In  segment ABSOLUTE, at 0x57, root
   \   union <unnamed> volatile __io _A_TIMSK
   \                     _A_TIMSK:
   \   00000000                      DS8 1

   \                                 In  segment ABSOLUTE, at 0x56, root
   \   union <unnamed> volatile __io _A_TIFR
   \                     _A_TIFR:
   \   00000000                      DS8 1

   \                                 In  segment ABSOLUTE, at 0x55, root
   \   union <unnamed> volatile __io _A_MCUCR
   \                     _A_MCUCR:
   \   00000000                      DS8 1

   \                                 In  segment ABSOLUTE, at 0x54, root
   \   union <unnamed> volatile __io _A_MCUCSR
   \                     _A_MCUCSR:
   \   00000000                      DS8 1

   \                                 In  segment ABSOLUTE, at 0x53, root
   \   union <unnamed> volatile __io _A_TCCR0
   \                     _A_TCCR0:
   \   00000000                      DS8 1

   \                                 In  segment ABSOLUTE, at 0x52, root
   \   union <unnamed> volatile __io _A_TCNT0
   \                     _A_TCNT0:
   \   00000000                      DS8 1

   \                                 In  segment ABSOLUTE, at 0x51, root
   \   union <unnamed> volatile __io _A_OCR0
   \                     _A_OCR0:
   \   00000000                      DS8 1

   \                                 In  segment ABSOLUTE, at 0x50, root
   \   union <unnamed> volatile __io _A_ASSR
   \                     _A_ASSR:
   \   00000000                      DS8 1

   \                                 In  segment ABSOLUTE, at 0x4f, root
   \   union <unnamed> volatile __io _A_TCCR1A
   \                     _A_TCCR1A:
   \   00000000                      DS8 1

   \                                 In  segment ABSOLUTE, at 0x4e, root
   \   union <unnamed> volatile __io _A_TCCR1B
   \                     _A_TCCR1B:
   \   00000000                      DS8 1

   \                                 In  segment ABSOLUTE, at 0x4c, root
   \   union <unnamed> volatile __io _A_TCNT1
   \                     _A_TCNT1:
   \   00000000                      DS8 2

   \                                 In  segment ABSOLUTE, at 0x4a, root
   \   union <unnamed> volatile __io _A_OCR1A
   \                     _A_OCR1A:
   \   00000000                      DS8 2

   \                                 In  segment ABSOLUTE, at 0x48, root
   \   union <unnamed> volatile __io _A_OCR1B
   \                     _A_OCR1B:
   \   00000000                      DS8 2

   \                                 In  segment ABSOLUTE, at 0x46, root
   \   union <unnamed> volatile __io _A_ICR1
   \                     _A_ICR1:
   \   00000000                      DS8 2

   \                                 In  segment ABSOLUTE, at 0x45, root
   \   union <unnamed> volatile __io _A_TCCR2
   \                     _A_TCCR2:
   \   00000000                      DS8 1

   \                                 In  segment ABSOLUTE, at 0x44, root
   \   union <unnamed> volatile __io _A_TCNT2
   \                     _A_TCNT2:
   \   00000000                      DS8 1

   \                                 In  segment ABSOLUTE, at 0x43, root
   \   union <unnamed> volatile __io _A_OCR2
   \                     _A_OCR2:
   \   00000000                      DS8 1

   \                                 In  segment ABSOLUTE, at 0x42, root
   \   union <unnamed> volatile __io _A_OCDR
   \                     _A_OCDR:
   \   00000000                      DS8 1

   \                                 In  segment ABSOLUTE, at 0x41, root
   \   union <unnamed> volatile __io _A_WDTCR
   \                     _A_WDTCR:
   \   00000000                      DS8 1

   \                                 In  segment ABSOLUTE, at 0x40, root
   \   union <unnamed> volatile __io _A_SFIOR
   \                     _A_SFIOR:
   \   00000000                      DS8 1

   \                                 In  segment ABSOLUTE, at 0x3e, root
   \   union <unnamed> volatile __io _A_EEAR
   \                     _A_EEAR:
   \   00000000                      DS8 2

   \                                 In  segment ABSOLUTE, at 0x3d, root
   \   union <unnamed> volatile __io _A_EEDR
   \                     _A_EEDR:
   \   00000000                      DS8 1

   \                                 In  segment ABSOLUTE, at 0x3c, root
   \   union <unnamed> volatile __io _A_EECR
   \                     _A_EECR:
   \   00000000                      DS8 1

   \                                 In  segment ABSOLUTE, at 0x3b, root
   \   union <unnamed> volatile __io _A_PORTA
   \                     _A_PORTA:
   \   00000000                      DS8 1

   \                                 In  segment ABSOLUTE, at 0x3a, root
   \   union <unnamed> volatile __io _A_DDRA
   \                     _A_DDRA:
   \   00000000                      DS8 1

   \                                 In  segment ABSOLUTE, at 0x39, root
   \   union <unnamed> volatile __io _A_PINA
   \                     _A_PINA:
   \   00000000                      DS8 1

   \                                 In  segment ABSOLUTE, at 0x38, root
   \   union <unnamed> volatile __io _A_PORTB
   \                     _A_PORTB:
   \   00000000                      DS8 1

   \                                 In  segment ABSOLUTE, at 0x37, root
   \   union <unnamed> volatile __io _A_DDRB
   \                     _A_DDRB:
   \   00000000                      DS8 1

   \                                 In  segment ABSOLUTE, at 0x36, root
   \   union <unnamed> volatile __io _A_PINB
   \                     _A_PINB:
   \   00000000                      DS8 1

   \                                 In  segment ABSOLUTE, at 0x35, root
   \   union <unnamed> volatile __io _A_PORTC
   \                     _A_PORTC:
   \   00000000                      DS8 1

   \                                 In  segment ABSOLUTE, at 0x34, root
   \   union <unnamed> volatile __io _A_DDRC
   \                     _A_DDRC:
   \   00000000                      DS8 1

   \                                 In  segment ABSOLUTE, at 0x33, root
   \   union <unnamed> volatile __io _A_PINC
   \                     _A_PINC:
   \   00000000                      DS8 1

   \                                 In  segment ABSOLUTE, at 0x32, root
   \   union <unnamed> volatile __io _A_PORTD
   \                     _A_PORTD:
   \   00000000                      DS8 1

   \                                 In  segment ABSOLUTE, at 0x31, root
   \   union <unnamed> volatile __io _A_DDRD
   \                     _A_DDRD:
   \   00000000                      DS8 1

   \                                 In  segment ABSOLUTE, at 0x30, root
   \   union <unnamed> volatile __io _A_PIND
   \                     _A_PIND:
   \   00000000                      DS8 1

   \                                 In  segment ABSOLUTE, at 0x2f, root
   \   union <unnamed> volatile __io _A_SPDR
   \                     _A_SPDR:
   \   00000000                      DS8 1

   \                                 In  segment ABSOLUTE, at 0x2e, root
   \   union <unnamed> volatile __io _A_SPSR
   \                     _A_SPSR:
   \   00000000                      DS8 1

   \                                 In  segment ABSOLUTE, at 0x2d, root
   \   union <unnamed> volatile __io _A_SPCR
   \                     _A_SPCR:
   \   00000000                      DS8 1

   \                                 In  segment ABSOLUTE, at 0x2c, root
   \   union <unnamed> volatile __io _A_UDR0
   \                     _A_UDR0:
   \   00000000                      DS8 1

   \                                 In  segment ABSOLUTE, at 0x2b, root
   \   union <unnamed> volatile __io _A_UCSR0A
   \                     _A_UCSR0A:
   \   00000000                      DS8 1

   \                                 In  segment ABSOLUTE, at 0x2a, root
   \   union <unnamed> volatile __io _A_UCSR0B
   \                     _A_UCSR0B:
   \   00000000                      DS8 1

   \                                 In  segment ABSOLUTE, at 0x29, root
   \   union <unnamed> volatile __io _A_UBRR0L
   \                     _A_UBRR0L:
   \   00000000                      DS8 1

   \                                 In  segment ABSOLUTE, at 0x28, root
   \   union <unnamed> volatile __io _A_ACSR
   \                     _A_ACSR:
   \   00000000                      DS8 1

   \                                 In  segment ABSOLUTE, at 0x27, root
   \   union <unnamed> volatile __io _A_ADMUX
   \                     _A_ADMUX:
   \   00000000                      DS8 1

   \                                 In  segment ABSOLUTE, at 0x26, root
   \   union <unnamed> volatile __io _A_ADCSRA
   \                     _A_ADCSRA:
   \   00000000                      DS8 1

   \                                 In  segment ABSOLUTE, at 0x24, root
   \   union <unnamed> volatile __io _A_ADC
   \                     _A_ADC:
   \   00000000                      DS8 2

   \                                 In  segment ABSOLUTE, at 0x23, root
   \   union <unnamed> volatile __io _A_PORTE
   \                     _A_PORTE:
   \   00000000                      DS8 1

   \                                 In  segment ABSOLUTE, at 0x22, root
   \   union <unnamed> volatile __io _A_DDRE
   \                     _A_DDRE:
   \   00000000                      DS8 1

   \                                 In  segment ABSOLUTE, at 0x21, root
   \   union <unnamed> volatile __io _A_PINE
   \                     _A_PINE:
   \   00000000                      DS8 1

   \                                 In  segment ABSOLUTE, at 0x20, root
   \   union <unnamed> volatile __io _A_PINF
   \                     _A_PINF:
   \   00000000                      DS8 1

   \                                 In  segment CODE, align 2, keep-with-next
   \   __version_3 uint8_t CPlatform::KeyOneState()
   \                     ??KeyOneState:
   \   00000000   E000               LDI     R16, 0
   \   00000002   999A               SBIC    0x13, 0x02
   \   00000004   E001               LDI     R16, 1
   \                     ??KeyOneState_1:
   \   00000006   E011               LDI     R17, 1
   \   00000008   2701               EOR     R16, R17
   \   0000000A   9508               RET
   \   0000000C                      REQUIRE _A_PINC

   \                                 In  segment CODE, align 2, keep-with-next
   \   __version_3 uint8_t CPlatform::KeyTwoState()
   \                     ??KeyTwoState:
   \   00000000   E000               LDI     R16, 0
   \   00000002   9999               SBIC    0x13, 0x01
   \   00000004   E001               LDI     R16, 1
   \                     ??KeyTwoState_1:
   \   00000006   E011               LDI     R17, 1
   \   00000008   2701               EOR     R16, R17
   \   0000000A   9508               RET
   \   0000000C                      REQUIRE _A_PINC

   \                                 In  segment CODE, align 2, keep-with-next
   \   __version_3 uint8_t CPlatform::KeyThreeState()
   \                     ??KeyThreeState:
   \   00000000   E000               LDI     R16, 0
   \   00000002   9998               SBIC    0x13, 0x00
   \   00000004   E001               LDI     R16, 1
   \                     ??KeyThreeState_1:
   \   00000006   E011               LDI     R17, 1
   \   00000008   2701               EOR     R16, R17
   \   0000000A   9508               RET
   \   0000000C                      REQUIRE _A_PINC

   \                                 In  segment CODE, align 2, keep-with-next
   \   __version_3 uint8_t CPlatform::ExternalKeyState()
   \                     ??ExternalKeyState:
   \   00000000   9110....           LDS     R17, _A_PING
   \   00000004   7011               ANDI    R17, 0x01
   \   00000006   2F01               MOV     R16, R17
   \   00000008   E011               LDI     R17, 1
   \   0000000A   2701               EOR     R16, R17
   \   0000000C   9508               RET
   \   0000000E                      REQUIRE _A_PING
      9          #include "Platform.h"
     10          #include "InputDevice.h"
     11          #include "Mvsn21.h"
     12          #include "ModuleMrXX.h"
     13          #include "Crc.h"
     14          #include "ModbusRTU.h"
     15          #include "DataBase.h"
     16          #include "DataTypes.h"
     17          #include "Alarm.h"
     18          #include "NotifyerControl.h"
     19          #include "Buzzer.h"
     20          #include "Event.h"
     21          #include "Dfa.h"
     22          
     23          
     24          //uint8_t CPss21::m_aucRtuCoilsArray[];
     25          //uint8_t CPss21::m_aucRtuDiscreteInputsArray[];
     26          uint16_t CPss21::m_aucRtuHoldingRegistersArray[];
     27          uint16_t CPss21::m_aucRtuInputRegistersArray[];
     28          uint8_t CPss21::m_aucRtuDiscreteDataArray[];
     29          uint8_t CPss21::m_auiReceiveMessageBuff[];
     30          //uint8_t CPss21::m_auiTransmitMessageBuff[];
     31          uint8_t CPss21::m_auiIntermediateBuff[];
     32          uint8_t CPss21::m_auiSpiRxBuffer[];
     33          uint8_t CPss21::m_auiSpiTxBuffer[];
     34          
     35          uint8_t CPss21::m_uiFsmState;
     36          uint8_t CPss21::m_uiType;
     37          //CDriver* CPss21::m_pxDriver;
     38          //CDevice* CPss21::m_apxDevices[];
     39          CDriver* CPss21::m_apxDrivers[];
     40          

   \                                 In  segment CODE, align 2, keep-with-next
   \   static __intrinsic __version_3 void __sti__routine()
   \                     ??__sti__routine:
     41          CUart CPss21::m_xUart1(&UBRR1H, &UBRR1L, &UCSR1A, &UCSR1B, &UCSR1C, &UDR1, &DDRC, DDC7, &PORTC, PC7);
   \   00000000   E007               LDI     R16, 7
   \   00000002   930A               ST      -Y, R16
   \   00000004   E305               LDI     R16, LOW(53)
   \   00000006   E010               LDI     R17, (53) >> 8
   \   00000008   ....               RCALL   ?Subroutine74
   \                     ??CrossCallReturnLabel_125:
   \   0000000A   E007               LDI     R16, 7
   \   0000000C   930A               ST      -Y, R16
   \   0000000E   E304               LDI     R16, LOW(52)
   \   00000010   ....               RCALL   ?Subroutine74
   \                     ??CrossCallReturnLabel_126:
   \   00000012   E90C               LDI     R16, LOW(156)
   \   00000014   ....               RCALL   ?Subroutine74
   \                     ??CrossCallReturnLabel_127:
   \   00000016   E90D               LDI     R16, LOW(157)
   \   00000018   ....               RCALL   ?Subroutine74
   \                     ??CrossCallReturnLabel_128:
   \   0000001A   E90A               LDI     R16, LOW(154)
   \   0000001C   ....               RCALL   ?Subroutine74
   \                     ??CrossCallReturnLabel_129:
   \   0000001E   E96B               LDI     R22, LOW(155)
   \   00000020   E070               LDI     R23, (53) >> 8
   \   00000022   E949               LDI     R20, LOW(153)
   \   00000024   E050               LDI     R21, (53) >> 8
   \   00000026   E928               LDI     R18, LOW(152)
   \   00000028   E030               LDI     R19, (53) >> 8
   \   0000002A   ....               LDI     R16, LOW(??m_xUart1)
   \   0000002C   ....               LDI     R17, (??m_xUart1) >> 8
   \   0000002E   ........           CALL    ??CUart
   \   00000032   ....               LDI     R16, LOW(?_0)
   \   00000034   ....               LDI     R17, (?_0) >> 8
   \   00000036   ....               RCALL   ?Subroutine72
     42          CModbusRTU CPss21::m_xModbusRtuOne;
   \                     ??CrossCallReturnLabel_110:
   \   00000038   ....               RCALL   ??Subroutine90_0
   \                     ??CrossCallReturnLabel_192:
   \   0000003A   ....               LDI     R16, LOW(??m_xModbusRtuOne)
   \   0000003C   ....               LDI     R17, (??m_xModbusRtuOne) >> 8
   \   0000003E   ........           CALL    ??CModbusRTU
   \   00000042   ....               LDI     R16, LOW((?_0 + 6))
   \   00000044   ....               LDI     R17, HIGH((?_0 + 6))
   \   00000046   ....               RCALL   ?Subroutine72
     43          
     44          //CDataBase CPss21::m_xDataBase;
     45          //CDataBase* CPss21::m_pxDataBase;
     46          CDataStore CPss21::m_xDataStore;
   \                     ??CrossCallReturnLabel_111:
   \   00000048   ....               LDI     R16, LOW(??m_xDataStore)
   \   0000004A   ....               LDI     R17, (??m_xDataStore) >> 8
   \   0000004C   ........           CALL    ??CDataStore
   \   00000050   ....               LDI     R16, LOW((?_0 + 12))
   \   00000052   ....               LDI     R17, HIGH((?_0 + 12))
   \   00000054   ....               RCALL   ?Subroutine72
     47          
     48          CMultiFunctionKey CPss21::m_xReceiptKey(CPlatform::KeyOneState);
   \                     ??CrossCallReturnLabel_112:
   \   00000056   ....               LDI     R18, LOW(??KeyOneState/2)
   \   00000058   ....               LDI     R19, (??KeyOneState/2) >> 8
   \   0000005A   ....               LDI     R16, LOW((??m_xDeviceConfigSearch + 59))
   \   0000005C   ....               LDI     R17, HIGH((??m_xDeviceConfigSearch + 59))
   \   0000005E   ....               RCALL   ?Subroutine12
   \                     ??CrossCallReturnLabel_5:
   \   00000060   ....               LDI     R16, LOW((?_0 + 18))
   \   00000062   ....               LDI     R17, HIGH((?_0 + 18))
   \   00000064   ....               RCALL   ?Subroutine72
     49          CMultiFunctionKey CPss21::m_xResetKey(CPlatform::KeyTwoState);
   \                     ??CrossCallReturnLabel_113:
   \   00000066   ....               LDI     R18, LOW(??KeyTwoState/2)
   \   00000068   ....               LDI     R19, (??KeyTwoState/2) >> 8
   \   0000006A   ....               LDI     R16, LOW((??m_xDeviceConfigSearch + 74))
   \   0000006C   ....               LDI     R17, HIGH((??m_xDeviceConfigSearch + 74))
   \   0000006E   ....               RCALL   ?Subroutine12
   \                     ??CrossCallReturnLabel_4:
   \   00000070   ....               LDI     R16, LOW((?_0 + 24))
   \   00000072   ....               LDI     R17, HIGH((?_0 + 24))
   \   00000074   ....               RCALL   ?Subroutine72
     50          CMultiFunctionKey CPss21::m_xCheckKey(CPlatform::KeyThreeState);
   \                     ??CrossCallReturnLabel_114:
   \   00000076   ....               LDI     R18, LOW(??KeyThreeState/2)
   \   00000078   ....               LDI     R19, (??KeyThreeState/2) >> 8
   \   0000007A   ....               LDI     R16, LOW((??m_xDeviceConfigSearch + 89))
   \   0000007C   ....               LDI     R17, HIGH((??m_xDeviceConfigSearch + 89))
   \   0000007E   ....               RCALL   ?Subroutine12
   \                     ??CrossCallReturnLabel_3:
   \   00000080   ....               LDI     R16, LOW((?_0 + 30))
   \   00000082   ....               LDI     R17, HIGH((?_0 + 30))
   \   00000084   ....               RCALL   ?Subroutine72
     51          CMultiFunctionKey CPss21::m_xExternalKey(CPlatform::ExternalKeyState);
   \                     ??CrossCallReturnLabel_115:
   \   00000086   ....               LDI     R18, LOW(??ExternalKeyState/2)
   \   00000088   ....               LDI     R19, (??ExternalKeyState/2) >> 8
   \   0000008A   ....               LDI     R16, LOW((??m_xDeviceConfigSearch + 104))
   \   0000008C   ....               LDI     R17, HIGH((??m_xDeviceConfigSearch + 104))
   \   0000008E   ....               RCALL   ?Subroutine12
   \                     ??CrossCallReturnLabel_2:
   \   00000090   ....               LDI     R16, LOW((?_0 + 36))
   \   00000092   ....               LDI     R17, HIGH((?_0 + 36))
   \   00000094   ....               RCALL   ?Subroutine72
     52          
     53          uint8_t CPss21::m_uiPanelReceipt;
     54          uint8_t CPss21::m_uiPanelReset;
     55          uint8_t CPss21::m_uiExternalReceipt;
     56          uint8_t CPss21::m_uiExternalReset;
     57          uint8_t CPss21::m_uiModbusReceipt;
     58          uint8_t CPss21::m_uiModbusReset;
     59          uint8_t CPss21::m_uiDiscreteSignalsReceipt;
     60          uint8_t CPss21::m_uiDiscreteSignalsReset;
     61          uint8_t CPss21::m_uiErrorCode;
     62          uint8_t CPss21::m_uiModuleIndex;
     63          CEventUniteLogicAnd CPss21::m_xEventUniteLogicAndOne(500);
   \                     ??CrossCallReturnLabel_116:
   \   00000096   EF24               LDI     R18, 244
   \   00000098   E031               LDI     R19, 1
   \   0000009A   ....               LDI     R16, LOW((??m_xDeviceConfigSearch + 119))
   \   0000009C   ....               LDI     R17, HIGH((??m_xDeviceConfigSearch + 119))
   \   0000009E   ........           CALL    ??CEventUniteLogicAnd
   \   000000A2   ....               LDI     R16, LOW((?_0 + 42))
   \   000000A4   ....               LDI     R17, HIGH((?_0 + 42))
   \   000000A6   ....               RCALL   ?Subroutine72
     64          CTimer CPss21::m_xMainCycleTimer(MAIN_CYCLE_PERIOD_TIME);
   \                     ??CrossCallReturnLabel_117:
   \   000000A8   E624               LDI     R18, 100
   \   000000AA   E030               LDI     R19, 0
   \   000000AC   ....               RCALL   ?Subroutine69
   \                     ??CrossCallReturnLabel_98:
   \   000000AE   ........           CALL    ??CTimer
   \   000000B2   ....               LDI     R16, LOW((?_0 + 48))
   \   000000B4   ....               LDI     R17, HIGH((?_0 + 48))
   \   000000B6   ....               RCALL   ?Subroutine72
     65          //CTimer CPss21::m_xPeripheryTimer(PERIPHERY_SCAN_TIME);
     66          
     67          CPreventiveAlarmWindowNotifyerControl CPss21::m_xPreventiveAlarmWindowNotifyerControl;
   \                     ??CrossCallReturnLabel_118:
   \   000000B8   ....               LDI     R16, LOW((??m_xDeviceConfigSearch + 139))
   \   000000BA   ....               LDI     R17, HIGH((??m_xDeviceConfigSearch + 139))
   \   000000BC   ........           CALL    ??CPreventiveAlarmWindowNotifyerControl
   \   000000C0   ....               LDI     R16, LOW((?_0 + 54))
   \   000000C2   ....               LDI     R17, HIGH((?_0 + 54))
   \   000000C4   ....               RCALL   ?Subroutine72
     68          CEmergencyAlarmWindowNotifyerControl CPss21::m_xEmergencyAlarmWindowNotifyerControl;
   \                     ??CrossCallReturnLabel_119:
   \   000000C6   ....               LDI     R16, LOW((??m_xDeviceConfigSearch + 151))
   \   000000C8   ....               LDI     R17, HIGH((??m_xDeviceConfigSearch + 151))
   \   000000CA   ........           CALL    ??CEmergencyAlarmWindowNotifyerControl
   \   000000CE   ....               LDI     R16, LOW((?_0 + 60))
   \   000000D0   ....               LDI     R17, HIGH((?_0 + 60))
   \   000000D2   ....               RCALL   ?Subroutine72
     69          CStatusLedNotifyerControl CPss21::m_xStatusLedNotifyerControl;
   \                     ??CrossCallReturnLabel_120:
   \   000000D4   ....               LDI     R16, LOW((??m_xDeviceConfigSearch + 163))
   \   000000D6   ....               LDI     R17, HIGH((??m_xDeviceConfigSearch + 163))
   \   000000D8   ........           CALL    ??CStatusLedNotifyerControl
   \   000000DC   ....               LDI     R16, LOW((?_0 + 66))
   \   000000DE   ....               LDI     R17, HIGH((?_0 + 66))
   \   000000E0   ....               RCALL   ?Subroutine72
     70          CBuzzerNotifyerControl CPss21::m_xBuzzerNotifyerControl;
   \                     ??CrossCallReturnLabel_121:
   \   000000E2   ....               LDI     R16, LOW((??m_xDeviceConfigSearch + 175))
   \   000000E4   ....               LDI     R17, HIGH((??m_xDeviceConfigSearch + 175))
   \   000000E6   ........           CALL    ??CBuzzerNotifyerControl
   \   000000EA   ....               LDI     R16, LOW((?_0 + 72))
   \   000000EC   ....               LDI     R17, HIGH((?_0 + 72))
   \   000000EE   ....               RCALL   ?Subroutine72
     71          CModbusRtuLinkControl CPss21::m_xModbusRtuLinkControl;
   \                     ??CrossCallReturnLabel_122:
   \   000000F0   ....               LDI     R16, LOW((??m_xDeviceConfigSearch + 29))
   \   000000F2   ....               LDI     R17, HIGH((??m_xDeviceConfigSearch + 29))
   \   000000F4   ........           CALL    ??CModbusRtuLinkControl
   \   000000F8   ....               LDI     R16, LOW((?_0 + 78))
   \   000000FA   ....               LDI     R17, HIGH((?_0 + 78))
   \   000000FC   ....               RCALL   ?Subroutine72
     72          
     73          uint8_t CPss21::m_uiCommonAlarmType;
     74          uint8_t CPss21::m_uiCommonAlarmTypePrevious;
     75          CLightBoard CPss21::m_xLightBoard;
   \                     ??CrossCallReturnLabel_123:
   \   000000FE   ....               RCALL   ?Subroutine16
   \                     ??CrossCallReturnLabel_175:
   \   00000100   ........           CALL    ??CLightBoard
   \   00000104   ....               LDI     R16, LOW((?_0 + 84))
   \   00000106   ....               LDI     R17, HIGH((?_0 + 84))
   \   00000108   ....               RCALL   ?Subroutine72
     76          TConfigDataPackOne CPss21::m_xDeviceConfigSearch;
     77          TDevConfig CPss21::m_xDeviceConfiguration;
     78          TDeviceState CPss21::m_xDeviceState;
     79          TMBusSetting CPss21::m_xModbusSettings;
     80          CAlarmDfa *CPss21::m_apxAlarmDfa[];
     81          TDiscreteOutputControl CPss21::m_axDiscreteOutputControl[];
     82          TOutputData CPss21::m_xDiscreteOutputDataBase;
     83          CAlarmWindow CPss21::m_axAlarmWindowControl[];
   \                     ??CrossCallReturnLabel_124:
   \   0000010A   ....               LDI     R22, LOW(??CAlarmWindow/2)
   \   0000010C   ....               LDI     R23, (??CAlarmWindow/2) >> 8
   \   0000010E   ....               RCALL   ?Subroutine23
   \                     ??CrossCallReturnLabel_12:
   \   00000110   ........           CALL    __near_vec_construct
   \   00000114   ....               LDI     R16, LOW((?_0 + 90))
   \   00000116   ....               LDI     R17, HIGH((?_0 + 90))
   \   00000118                      REQUIRE ?Subroutine72
   \   00000118                      REQUIRE _A_UBRR1H
   \   00000118                      REQUIRE _A_UBRR1L
   \   00000118                      REQUIRE _A_UCSR1A
   \   00000118                      REQUIRE _A_UCSR1B
   \   00000118                      REQUIRE _A_UCSR1C
   \   00000118                      REQUIRE _A_UDR1
   \   00000118                      REQUIRE _A_DDRC
   \   00000118                      REQUIRE _A_PORTC
   \   00000118                      ;               // Fall through to label ?Subroutine72

   \                                 In  segment CODE, align 2, keep-with-next
   \                     `?<Unnamed 0>`:
   \   00000000   ....               RCALL   ?Subroutine19
   \                     ??CrossCallReturnLabel_178:
   \   00000002   ........           JMP     `?~CUart`

   \                                 In  segment CODE, align 2, keep-with-next
   \                     `?<Unnamed 1>`:
   \   00000000   ....               RCALL   ?Subroutine19
   \                     ??CrossCallReturnLabel_179:
   \   00000002   ........           JMP     `?~CModbusRTU`

   \                                 In  segment CODE, align 2, keep-with-next
   \                     `?<Unnamed 2>`:
   \   00000000   ....               RCALL   ?Subroutine19
   \                     ??CrossCallReturnLabel_180:
   \   00000002   ........           JMP     `?~CDataStore`

   \                                 In  segment CODE, align 2, keep-with-next
   \                     ?Subroutine12:
   \   00000000   ........           JMP     ??CMultiFunctionKey

   \                                 In  segment CODE, align 2, keep-with-next
   \                     `?<Unnamed 3>`:
   \   00000000   ....               RCALL   ?Subroutine19
   \                     ??CrossCallReturnLabel_181:
   \   00000002   ........           JMP     `?~CMultiFunctionKey`

   \                                 In  segment CODE, align 2, keep-with-next
   \                     `?<Unnamed 4>`:
   \   00000000   ....               RCALL   ?Subroutine19
   \                     ??CrossCallReturnLabel_182:
   \   00000002   ........           JMP     `?~CEventUniteLogicAnd`

   \                                 In  segment CODE, align 2, keep-with-next
   \                     `?<Unnamed 5>`:
   \   00000000   ....               RCALL   ?Subroutine19
   \                     ??CrossCallReturnLabel_183:
   \   00000002   ........           JMP     `?~CTimer`

   \                                 In  segment CODE, align 2, keep-with-next
   \                     `?<Unnamed 6>`:
   \   00000000   ....               RCALL   ?Subroutine19
   \                     ??CrossCallReturnLabel_184:
   \   00000002   ........           JMP     `?~CPreventiveAlarmWindowNotifyerControl`

   \                                 In  segment CODE, align 2, keep-with-next
   \                     `?<Unnamed 7>`:
   \   00000000   ....               RCALL   ?Subroutine19
   \                     ??CrossCallReturnLabel_185:
   \   00000002   ........           JMP     `?~CEmergencyAlarmWindowNotifyerControl`

   \                                 In  segment CODE, align 2, keep-with-next
   \                     `?<Unnamed 8>`:
   \   00000000   ....               RCALL   ?Subroutine19
   \                     ??CrossCallReturnLabel_186:
   \   00000002   ........           JMP     `?~CStatusLedNotifyerControl`

   \                                 In  segment CODE, align 2, keep-with-next
   \                     `?<Unnamed 9>`:
   \   00000000   ....               RCALL   ?Subroutine19
   \                     ??CrossCallReturnLabel_187:
   \   00000002   ........           JMP     `?~CBuzzerNotifyerControl`

   \                                 In  segment CODE, align 2, keep-with-next
   \                     `?<Unnamed 10>`:
   \   00000000   ....               RCALL   ?Subroutine19
   \                     ??CrossCallReturnLabel_188:
   \   00000002   ........           JMP     `?~CModbusRtuLinkControl`

   \                                 In  segment CODE, align 2, keep-with-next
   \                     `?<Unnamed 11>`:
   \   00000000   ....               RCALL   ?Subroutine19
   \                     ??CrossCallReturnLabel_189:
   \   00000002   ........           JMP     `?~CLightBoard`

   \                                 In  segment NEAR_Z, align 1, keep-with-next, root
   \   00000000                      REQUIRE `?<Segment init: NEAR_Z>`
   \                     ??m_xModbusSettings:
   \   00000000                      DS8 7
   \                     ??m_aucRtuHoldingRegistersArray:
   \   00000007                      DS8 16
   \                     ??m_axDiscreteOutputControl:
   \   00000017                      DS8 16
   \                     ??m_xDeviceState:
   \   00000027                      DS8 8
   \                     ??m_aucRtuInputRegistersArray:
   \   0000002F                      DS8 16
   \                     ??m_xDiscreteOutputDataBase:
   \   0000003F                      DS8 24

   \                                 In  segment NEAR_Z, align 1, keep-with-next, root
   \   00000000                      REQUIRE `?<Segment init: NEAR_Z>`
   \                     ??m_aucRtuDiscreteDataArray:
   \   00000000                      DS8 120

   \                                 In  segment NEAR_Z, align 1, keep-with-next, root
   \   00000000                      REQUIRE `?<Segment init: NEAR_Z>`
   \                     ??m_auiReceiveMessageBuff:
   \   00000000                      DS8 256

   \                                 In  segment NEAR_Z, align 1, keep-with-next, root
   \   00000000                      REQUIRE `?<Segment init: NEAR_Z>`
   \                     ??m_auiIntermediateBuff:
   \   00000000                      DS8 256

   \                                 In  segment NEAR_Z, align 1, keep-with-next, root
   \   00000000                      REQUIRE `?<Segment init: NEAR_Z>`
   \                     ??m_auiSpiRxBuffer:
   \   00000000                      DS8 64

   \                                 In  segment NEAR_Z, align 1, keep-with-next, root
   \   00000000                      REQUIRE `?<Segment init: NEAR_Z>`
   \                     ??m_auiSpiTxBuffer:
   \   00000000                      DS8 64

   \                                 In  segment NEAR_Z, align 1, keep-with-next, root
   \   00000000                      REQUIRE `?<Segment init: NEAR_Z>`
   \                     ??m_xDeviceConfigSearch:
   \   00000000                      DS8 9
   \                     ??m_xDeviceConfiguration:
   \   00000009                      DS8 20
   \                     ??m_xModbusRtuLinkControl:
   \   0000001D                      DS8 11
   \                     ??m_apxDrivers:
   \   00000028                      DS8 6
   \                     ??m_uiFsmState:
   \   0000002E                      DS8 1
   \                     ??m_uiPanelReceipt:
   \   0000002F                      DS8 1
   \                     ??m_uiPanelReset:
   \   00000030                      DS8 1
   \                     ??m_uiExternalReceipt:
   \   00000031                      DS8 1
   \                     ??m_uiExternalReset:
   \   00000032                      DS8 1
   \                     ??m_uiModbusReceipt:
   \   00000033                      DS8 1
   \                     ??m_uiModbusReset:
   \   00000034                      DS8 1
   \                     ??m_uiDiscreteSignalsReceipt:
   \   00000035                      DS8 1
   \                     ??m_uiDiscreteSignalsReset:
   \   00000036                      DS8 1
   \                     ??m_uiErrorCode:
   \   00000037                      DS8 1
   \                     ??m_uiModuleIndex:
   \   00000038                      DS8 1
   \                     ??m_uiCommonAlarmType:
   \   00000039                      DS8 1
   \                     ??m_uiCommonAlarmTypePrevious:
   \   0000003A                      DS8 1
   \                     ??m_xReceiptKey:
   \   0000003B                      DS8 15
   \                     ??m_xResetKey:
   \   0000004A                      DS8 15
   \                     ??m_xCheckKey:
   \   00000059                      DS8 15
   \                     ??m_xExternalKey:
   \   00000068                      DS8 15
   \                     ??m_xEventUniteLogicAndOne:
   \   00000077                      DS8 14
   \                     ??m_xMainCycleTimer:
   \   00000085                      DS8 6
   \                     ??m_xPreventiveAlarmWindowNotifyerControl:
   \   0000008B                      DS8 12
   \                     ??m_xEmergencyAlarmWindowNotifyerControl:
   \   00000097                      DS8 12
   \                     ??m_xStatusLedNotifyerControl:
   \   000000A3                      DS8 12
   \                     ??m_xBuzzerNotifyerControl:
   \   000000AF                      DS8 12

   \                                 In  segment NEAR_Z, align 1, keep-with-next, root
   \   00000000                      REQUIRE `?<Segment init: NEAR_Z>`
   \                     ??m_uiType:
   \   00000000                      DS8 1

   \                                 In  segment NEAR_Z, align 1, keep-with-next, root
   \   00000000                      REQUIRE `?<Segment init: NEAR_Z>`
   \                     ??m_xUart1:
   \   00000000                      DS8 47

   \                                 In  segment NEAR_Z, align 1, keep-with-next, root
   \   00000000                      REQUIRE `?<Segment init: NEAR_Z>`
   \                     ??m_xModbusRtuOne:
   \   00000000                      DS8 49

   \                                 In  segment NEAR_Z, align 1, keep-with-next, root
   \   00000000                      REQUIRE `?<Segment init: NEAR_Z>`
   \                     ??m_xDataStore:
   \   00000000                      DS8 137

   \                                 In  segment NEAR_Z, align 1, keep-with-next, root
   \   00000000                      REQUIRE `?<Segment init: NEAR_Z>`
   \                     ??m_xLightBoard:
   \   00000000                      DS8 70

   \                                 In  segment NEAR_Z, align 1, keep-with-next, root
   \   00000000                      REQUIRE `?<Segment init: NEAR_Z>`
   \                     ??m_apxAlarmDfa:
   \   00000000                      DS8 192

   \                                 In  segment CODE, align 2, keep-with-next
   \                     `?<Unnamed 13>`:
   \   00000000   ....               RCALL   ?Subroutine19
   \                     ??CrossCallReturnLabel_190:
   \   00000002   ........           JMP     `?~CAlarmWindow`

   \                                 In  segment NEAR_I, align 1, keep-with-next, root
   \   00000000                      REQUIRE `?<Segment init: NEAR_I>`
   \                     ?_0:
   \   00000000                      DS8 6
   \   00000006                      REQUIRE `?<Initializer for >`
   \   00000006                      DS8 6
   \   0000000C                      REQUIRE `?<Initializer for >_1`
   \   0000000C                      DS8 6
   \   00000012                      REQUIRE `?<Initializer for >_2`
   \   00000012                      DS8 6
   \   00000018                      REQUIRE `?<Initializer for >_3`
   \   00000018                      DS8 6
   \   0000001E                      REQUIRE `?<Initializer for >_4`
   \   0000001E                      DS8 6
   \   00000024                      REQUIRE `?<Initializer for >_5`
   \   00000024                      DS8 6
   \   0000002A                      REQUIRE `?<Initializer for >_6`
   \   0000002A                      DS8 6
   \   00000030                      REQUIRE `?<Initializer for >_7`
   \   00000030                      DS8 6
   \   00000036                      REQUIRE `?<Initializer for >_8`
   \   00000036                      DS8 6
   \   0000003C                      REQUIRE `?<Initializer for >_9`
   \   0000003C                      DS8 6
   \   00000042                      REQUIRE `?<Initializer for >_10`
   \   00000042                      DS8 6
   \   00000048                      REQUIRE `?<Initializer for >_11`
   \   00000048                      DS8 6
   \   0000004E                      REQUIRE `?<Initializer for >_12`
   \   0000004E                      DS8 6
   \   00000054                      REQUIRE `?<Initializer for >_13`
   \   00000054                      DS8 6
   \   0000005A                      REQUIRE `?<Initializer for >_14`
   \   0000005A                      DS8 6
   \   00000060                      REQUIRE `?<Initializer for >_15`

   \                                 In  segment NEAR_Z, align 1, keep-with-next, root
   \   00000000                      REQUIRE `?<Segment init: NEAR_Z>`
   \                     ??m_axAlarmWindowControl:
   \   00000000                      DS8 288
     84          

   \                                 In  segment NEAR_F, align 1, keep-with-next, root
     85          __flash uint8_t CPss21::m_auiErrorLedOn[] =
   \                     ??m_auiErrorLedOn:
   \   00000000   010101010101       DC8 1, 1, 1, 1, 1, 1, 1, 1, 1, 0, 0, 0, 0, 0, 0, 1, 1, 0, 0, 0, 0, 0, 0
   \              010100010000
   \              000001000001
   \              0000000000  
   \   00000017   010100000000       DC8 1, 1, 0, 0, 0, 0, 0, 0, 1, 1, 0, 0, 0, 0, 0, 0, 1, 1, 1, 1, 1, 1, 1
   \              000001010000
   \              000000000101
   \              0101010101  
   \   0000002E   0101               DC8 1, 1
     86          {
     87              1, 1, 1, 1,    1, 1, 1, 1,
     88              1, 0, 0, 0,    0, 0, 0, 1,
     89              1, 0, 0, 0,    0, 0, 0, 1,
     90              1, 0, 0, 0,    0, 0, 0, 1,
     91              1, 0, 0, 0,    0, 0, 0, 1,
     92              1, 1, 1, 1,    1, 1, 1, 1,
     93          };
     94          
     95          ////-----------------------------------------------------------------------------------------------------
     96          //CPss21::CPss21(uint8_t uiType, CDriver* pxDriver)// :
     97          ////    m_uiType(uiType),
     98          ////    m_pxDriver(pxDriver)
     99          //{
    100          //
    101          //}
    102          //
    103          ////-----------------------------------------------------------------------------------------------------
    104          //CPss21::~CPss21()
    105          //{
    106          //
    107          //}
    108          
    109          //-----------------------------------------------------------------------------------------------------

   \                                 In  segment CODE, align 2, keep-with-next
    110          void CPss21::ModbusInit(void)
   \                     ??ModbusInit:
    111          {
   \   00000000   93BA               ST      -Y, R27
   \   00000002   93AA               ST      -Y, R26
    112              CPlatform::m_pxUart1 = &m_xUart1;
   \   00000004   ....               LDI     R16, LOW(??m_xUart1)
   \   00000006   ....               LDI     R17, (??m_xUart1) >> 8
   \   00000008   ....               LDI     R30, LOW(??m_pxUart1)
   \   0000000A   ....               LDI     R31, (??m_pxUart1) >> 8
   \   0000000C   8300               ST      Z, R16
   \   0000000E   8311               STD     Z+1, R17
    113              m_xModbusRtuOne.Init(CPlatform::m_pxUart1,
    114                                   static_cast<uint32_t>((F_CPU / ((CPss21::m_xModbusSettings.BaudRate) + 1)) / 16UL),
    115                                   'N',
    116                                   8,
    117                                   1,
    118                                   CPss21::m_auiReceiveMessageBuff,
    119                                   CPss21::m_auiReceiveMessageBuff,//CPss21::m_auiTransmitMessageBuff,
    120                                   CPss21::m_aucRtuDiscreteDataArray,//CPss21::m_aucRtuCoilsArray,
    121                                   CPss21::m_aucRtuDiscreteDataArray,//CPss21::m_aucRtuDiscreteInputsArray,
    122                                   CPss21::m_aucRtuHoldingRegistersArray,
    123                                   CPss21::m_aucRtuInputRegistersArray,
    124                                   DISCRETE_DATA_ARRAY_LENGTH,
    125                                   DISCRETE_DATA_ARRAY_LENGTH,
    126                                   HOLDING_REGISTERS_ARRAY_LENGTH,
    127                                   INPUT_REGISTERS_ARRAY_LENGTH);
   \   00000010   E008               LDI     R16, 8
   \   00000012   E010               LDI     R17, 0
   \   00000014   ....               RCALL   ?Subroutine2
   \                     ??CrossCallReturnLabel_132:
   \   00000016   E708               LDI     R16, 120
   \   00000018   ....               RCALL   ?Subroutine2
   \                     ??CrossCallReturnLabel_133:
   \   0000001A   ....               LDI     R16, LOW((??m_xModbusSettings + 47))
   \   0000001C   ....               LDI     R17, HIGH((??m_xModbusSettings + 47))
   \   0000001E   ....               RCALL   ?Subroutine74
   \                     ??CrossCallReturnLabel_130:
   \   00000020   ....               LDI     R16, LOW((??m_xModbusSettings + 7))
   \   00000022   ....               LDI     R17, HIGH((??m_xModbusSettings + 7))
   \   00000024   ....               RCALL   ?Subroutine74
   \                     ??CrossCallReturnLabel_131:
   \   00000026   ....               LDI     R16, LOW(??m_aucRtuDiscreteDataArray)
   \   00000028   ....               LDI     R17, (??m_aucRtuDiscreteDataArray) >> 8
   \   0000002A   ....               RCALL   ?Subroutine2
   \                     ??CrossCallReturnLabel_134:
   \   0000002C   ....               LDI     R16, LOW(??m_auiReceiveMessageBuff)
   \   0000002E   ....               LDI     R17, (??m_auiReceiveMessageBuff) >> 8
   \   00000030   ....               RCALL   ?Subroutine2
   \                     ??CrossCallReturnLabel_135:
   \   00000032   E001               LDI     R16, 1
   \   00000034   930A               ST      -Y, R16
   \   00000036   E008               LDI     R16, 8
   \   00000038   930A               ST      -Y, R16
   \   0000003A   E40E               LDI     R16, 78
   \   0000003C   930A               ST      -Y, R16
   \   0000003E   9140....           LDS     R20, (??m_xModbusSettings + 1)
   \   00000042   E050               LDI     R21, 0
   \   00000044   5F4F               SUBI    R20, 255
   \   00000046   4F5F               SBCI    R21, 255
   \   00000048   2F65               MOV     R22, R21
   \   0000004A   0F66               LSL     R22
   \   0000004C   0B66               SBC     R22, R22
   \   0000004E   2F76               MOV     R23, R22
   \   00000050   E000               LDI     R16, 0
   \   00000052   E810               LDI     R17, 128
   \   00000054   E720               LDI     R18, 112
   \   00000056   E030               LDI     R19, 0
   \   00000058   ........           CALL    ?UL_DIVMOD_L03
   \   0000005C   E044               LDI     R20, 4
   \   0000005E   ........           CALL    ?UL_SHR_L03
   \   00000062   01A8               MOVW    R21:R20, R17:R16
   \   00000064   01B9               MOVW    R23:R22, R19:R18
   \   00000066   ....               LDI     R18, LOW(??m_xUart1)
   \   00000068   ....               LDI     R19, (??m_xUart1) >> 8
   \   0000006A   ....               LDI     R16, LOW(??m_xModbusRtuOne)
   \   0000006C   ....               LDI     R17, (??m_xModbusRtuOne) >> 8
   \   0000006E   ........           CALL    ??Init_1
    128              m_xModbusRtuOne.SlaveSet(CPss21::m_xModbusSettings.NetAddress);
   \   00000072   9120....           LDS     R18, ??m_xModbusSettings
   \   00000076   ....               LDI     R30, LOW(??m_xModbusRtuOne)
   \   00000078   ....               LDI     R31, (??m_xModbusRtuOne) >> 8
   \   0000007A   8505               LDD     R16, Z+13
   \   0000007C   8516               LDD     R17, Z+14
   \   0000007E   ........           CALL    ??SlaveSet
    129              m_xModbusRtuOne.SetFsmState(CModbus::START_REQUEST);
   \   00000082   ....               LDI     R26, LOW((??m_xModbusRtuOne + 13))
   \   00000084   ....               LDI     R27, HIGH((??m_xModbusRtuOne + 13))
   \   00000086   91ED               LD      R30, X+
   \   00000088   91FC               LD      R31, X
   \   0000008A   E002               LDI     R16, 2
   \   0000008C   8300               ST      Z, R16
    130          }
   \   0000008E                      REQUIRE ?Subroutine73
   \   0000008E                      ;               // Fall through to label ?Subroutine73

   \                                 In  segment CODE, align 2, keep-with-next
   \                     ?Subroutine73:
   \   00000000   91A9               LD      R26, Y+
   \   00000002   91B9               LD      R27, Y+
   \   00000004   9508               RET

   \                                 In  segment CODE, align 2, keep-with-next
   \                     ?Subroutine74:
   \   00000000   931A               ST      -Y, R17
   \   00000002   930A               ST      -Y, R16
   \   00000004   9508               RET

   \                                 In  segment CODE, align 2, keep-with-next
   \                     ?Subroutine2:
   \   00000000   931A               ST      -Y, R17
   \   00000002   930A               ST      -Y, R16
   \   00000004   ....               RJMP    ?Subroutine74
    131          
    132          //-----------------------------------------------------------------------------------------------------

   \                                 In  segment CODE, align 2, keep-with-next
    133          void CPss21::ModbusDefaultInit(void)
   \                     ??ModbusDefaultInit:
    134          {
    135              CPss21::m_xModbusSettings.NetAddress = 1;
   \   00000000   ....               RCALL   ?Subroutine27
   \                     ??CrossCallReturnLabel_16:
   \   00000002   E001               LDI     R16, 1
   \   00000004   8300               ST      Z, R16
    136              // 9600 baud.
    137              CPss21::m_xModbusSettings.BaudRate = 47;
   \   00000006   E20F               LDI     R16, 47
   \   00000008   8301               STD     Z+1, R16
    138              // Два стоп бита.
    139              CPss21::m_xModbusSettings.LinkParam = 0x08;
   \   0000000A   E008               LDI     R16, 8
   \   0000000C   8302               STD     Z+2, R16
    140          
    141              ModbusInit();
   \   0000000E   ....               RJMP    ??ModbusInit
    142          }

   \                                 In  segment CODE, align 2, keep-with-next
   \                     ?Subroutine27:
   \   00000000   ....               LDI     R30, LOW(??m_xModbusSettings)
   \   00000002   ....               LDI     R31, (??m_xModbusSettings) >> 8
   \   00000004   9508               RET
    143          
    144          //-----------------------------------------------------------------------------------------------------

   \                                 In  segment CODE, align 2, keep-with-next
    145          void CPss21::Init(void)
   \                     ??Init:
    146          {
    147              m_xLightBoard.Init(m_axAlarmWindowControl);
   \   00000000   ....               LDI     R18, LOW(??m_axAlarmWindowControl)
   \   00000002   ....               LDI     R19, (??m_axAlarmWindowControl) >> 8
   \   00000004   ....               RCALL   ?Subroutine16
   \                     ??CrossCallReturnLabel_176:
   \   00000006   ........           CALL    ??Init_2
    148              m_uiCommonAlarmType = NORMAL;
   \   0000000A   ....               RCALL   ?Subroutine30
   \                     ??CrossCallReturnLabel_22:
   \   0000000C   E000               LDI     R16, 0
   \   0000000E   AF01               STD     Z+57, R16
    149              m_uiCommonAlarmTypePrevious = NORMAL;
   \   00000010   AF02               STD     Z+58, R16
    150              SetErrorCode(0);
   \   00000012   AB07               STD     Z+55, R16
    151          }
   \   00000014   9508               RET

   \                                 In  segment CODE, align 2, keep-with-next
   \                     ?Subroutine30:
   \   00000000   ....               LDI     R30, LOW(??m_xDeviceConfigSearch)
   \   00000002   ....               LDI     R31, (??m_xDeviceConfigSearch) >> 8
   \   00000004   9508               RET

   \                                 In  segment CODE, align 2, keep-with-next
   \                     ?Subroutine16:
   \   00000000   ....               LDI     R16, LOW(??m_xLightBoard)
   \   00000002   ....               LDI     R17, (??m_xLightBoard) >> 8
   \   00000004   9508               RET
    152          
    153          //-----------------------------------------------------------------------------------------------------

   \                                 In  segment CODE, align 2, keep-with-next
    154          void CPss21::AddressBusInit(void)
   \                     ??AddressBusInit:
    155          {
    156              CPlatform::SpiSlaveSelectAddress0SetPinOutput();
   \   00000000   9A8F               SBI     0x11, 0x07
    157              CPlatform::SpiSlaveSelectAddress1SetPinOutput();
   \   00000002   9A8E               SBI     0x11, 0x06
    158              CPlatform::SpiSlaveSelectAddress2SetPinOutput();
   \   00000004   9A8D               SBI     0x11, 0x05
    159              CPlatform::SpiSlaveSelectAddress3SetPinOutput();
   \   00000006   9A8C               SBI     0x11, 0x04
    160              CPlatform::SpiSlaveSelectEnableSetPinOutput();
   \   00000008   9A89               SBI     0x11, 0x01
    161              CPlatform::SpiSlaveSelectAddress0On();
   \   0000000A   9A97               SBI     0x12, 0x07
    162              CPlatform::SpiSlaveSelectAddress1On();
   \   0000000C   9A96               SBI     0x12, 0x06
    163              CPlatform::SpiSlaveSelectAddress2On();
   \   0000000E   9A95               SBI     0x12, 0x05
    164              CPlatform::SpiSlaveSelectAddress3On();
   \   00000010   9A94               SBI     0x12, 0x04
    165              CPlatform::SpiSlaveSelectEnableOff();
   \   00000012   9891               CBI     0x12, 0x01
    166          };
   \   00000014   9508               RET
   \   00000016                      REQUIRE _A_DDRD
   \   00000016                      REQUIRE _A_PORTD
    167          
    168          //-----------------------------------------------------------------------------------------------------

   \                                 In  segment CODE, align 2, keep-with-next
    169          void CPss21::ConnectDevice(uint8_t uiAddress)
   \                     ??ConnectDevice:
    170          {
    171              uiAddress &= 0x0F;
    172          
    173              if (uiAddress &  BIT(0))
   \   00000000   FB00               BST     R16, 0
   \   00000002   F416               BRTC    ??ConnectDevice_1
    174              {
    175                  CPlatform::SpiSlaveSelectAddress0Off();
   \   00000004   9897               CBI     0x12, 0x07
    176              }
   \   00000006   C001               RJMP    ??ConnectDevice_2
    177              else
    178              {
    179                  CPlatform::SpiSlaveSelectAddress0On();
   \                     ??ConnectDevice_1:
   \   00000008   9A97               SBI     0x12, 0x07
    180              }
    181              if (uiAddress &  BIT(1))
   \                     ??ConnectDevice_2:
   \   0000000A   FB01               BST     R16, 1
   \   0000000C   F416               BRTC    ??ConnectDevice_3
    182              {
    183                  CPlatform::SpiSlaveSelectAddress1Off();
   \   0000000E   9896               CBI     0x12, 0x06
    184              }
   \   00000010   C001               RJMP    ??ConnectDevice_4
    185              else
    186              {
    187                  CPlatform::SpiSlaveSelectAddress1On();
   \                     ??ConnectDevice_3:
   \   00000012   9A96               SBI     0x12, 0x06
    188              }
    189              if (uiAddress &  BIT(2))
   \                     ??ConnectDevice_4:
   \   00000014   FB02               BST     R16, 2
   \   00000016   F416               BRTC    ??ConnectDevice_5
    190              {
    191                  CPlatform::SpiSlaveSelectAddress2Off();
   \   00000018   9895               CBI     0x12, 0x05
    192              }
   \   0000001A   C001               RJMP    ??ConnectDevice_6
    193              else
    194              {
    195                  CPlatform::SpiSlaveSelectAddress2On();
   \                     ??ConnectDevice_5:
   \   0000001C   9A95               SBI     0x12, 0x05
    196              }
    197              if (uiAddress &  BIT(3))
   \                     ??ConnectDevice_6:
   \   0000001E   FB03               BST     R16, 3
   \   00000020   F416               BRTC    ??ConnectDevice_7
    198              {
    199                  CPlatform::SpiSlaveSelectAddress3Off();
   \   00000022   9894               CBI     0x12, 0x04
    200              }
   \   00000024   C001               RJMP    ??ConnectDevice_8
    201              else
    202              {
    203                  CPlatform::SpiSlaveSelectAddress3On();
   \                     ??ConnectDevice_7:
   \   00000026   9A94               SBI     0x12, 0x04
    204              }
    205          
    206              CPlatform::SpiSlaveSelectEnableOn();
   \                     ??ConnectDevice_8:
   \   00000028   9A91               SBI     0x12, 0x01
    207              CSpi::Enable();
   \   0000002A   ........           JMP     ??Enable
   \   0000002E                      REQUIRE _A_PORTD
    208          };
    209          
    210          //-----------------------------------------------------------------------------------------------------

   \                                 In  segment CODE, align 2, keep-with-next
    211          void CPss21::DisconnectDevice(void)
   \                     ??DisconnectDevice:
    212          {
    213              CSpi::Disable();
   \   00000000   ........           CALL    ??Disable
    214              CPlatform::SpiSlaveSelectEnableOff();
   \   00000004   9891               CBI     0x12, 0x01
    215              CPlatform::SpiSlaveSelectAddress0Off();
   \   00000006   9897               CBI     0x12, 0x07
    216              CPlatform::SpiSlaveSelectAddress1Off();
   \   00000008   9896               CBI     0x12, 0x06
    217              CPlatform::SpiSlaveSelectAddress2Off();
   \   0000000A   9895               CBI     0x12, 0x05
    218              CPlatform::SpiSlaveSelectAddress3Off();
   \   0000000C   9894               CBI     0x12, 0x04
    219          };
   \   0000000E   9508               RET
   \   00000010                      REQUIRE _A_PORTD
    220          
    221          //-----------------------------------------------------------------------------------------------------

   \                                 In  segment CODE, align 2, keep-with-next
   \                     ?Subroutine19:
   \   00000000   E022               LDI     R18, 2
   \   00000002                      REQUIRE ?Subroutine76
   \   00000002                      ;               // Fall through to label ?Subroutine76

   \                                 In  segment CODE, align 2, keep-with-next
   \                     ?Subroutine76:
   \   00000000   E030               LDI     R19, 0
   \   00000002   9508               RET

   \                                 In  segment CODE, align 2, keep-with-next
    222          void CPss21::SearchModules(void)
   \                     ??SearchModules:
    223          {
   \   00000000   ........           CALL    ?PROLOGUE3_L09
    224              delay_ms(500);
   \   00000004   EF04               LDI     R16, 244
   \   00000006   E011               LDI     R17, 1
   \   00000008   ........           CALL    ??delay_ms
    225              CPlatform::WatchdogReset();
   \   0000000C   95A8               WDR
    226          
    227              memset(reinterpret_cast<uint8_t*>(&m_xDeviceConfigSearch),
    228                     0,
    229                     sizeof(struct TConfigDataPackOne));
   \   0000000E   E049               LDI     R20, 9
   \   00000010   ....               RCALL   ?Subroutine4
   \                     ??CrossCallReturnLabel_193:
   \   00000012   ....               LDI     R16, LOW(??m_xDeviceConfigSearch)
   \   00000014   ....               LDI     R17, (??m_xDeviceConfigSearch) >> 8
   \   00000016   ....               RCALL   ?Subroutine32
    230          
    231              // опросим интерфейс SPI. какие модули присутствуют?
    232              for (uint8_t i = 0; i < SPI_MAX_BUS_ADDRESS; i++)
   \                     ??CrossCallReturnLabel_34:
   \   00000018   E090               LDI     R25, 0
   \   0000001A   E180               LDI     R24, 16
    233              {
    234                  // если модуль не ответил MODULE_REQUEST_QUANTITY раз,
    235                  // то его нет или он неисправен.
    236                  for (uint8_t j = 0; j < MODULE_REQUEST_QUANTITY; j++)
   \                     ??SearchModules_1:
   \   0000001C   E0A5               LDI     R26, 5
    237                  {
    238                      m_auiSpiTxBuffer[0] = GET_MODULE_TYPE_COMMAND;
   \                     ??SearchModules_2:
   \   0000001E   E901               LDI     R16, 145
   \   00000020   9300....           STS     ??m_auiSpiTxBuffer, R16
    239                      ConnectDevice(i);
   \   00000024   2F09               MOV     R16, R25
   \   00000026   ....               RCALL   ?Subroutine29
    240                      delay_us(500);
    241                      CSpi::Exchange(m_auiSpiRxBuffer,
    242                                     m_auiSpiTxBuffer,
    243                                     GET_MODULE_TYPE_REQUEST_LENGTH);
   \                     ??CrossCallReturnLabel_20:
   \   00000028   E044               LDI     R20, 4
   \   0000002A   ....               RCALL   ?Subroutine20
    244                      DisconnectDevice();
    245          
    246                      // модуль отвечает?
    247                      if (m_auiSpiRxBuffer[SPI_COMMAND_BYTE_OFFSET] ==
    248                              GET_MODULE_TYPE_COMMAND)
   \                     ??CrossCallReturnLabel_9:
   \   0000002C   9100....           LDS     R16, (??m_auiSpiRxBuffer + 1)
   \   00000030   3901               CPI     R16, 145
   \   00000032   F4D9               BRNE    ??SearchModules_3
    249                      {
    250                          // обмен данными прошёл без ошибок?
    251                          if (iCrcSummOneByteCompare(&m_auiSpiRxBuffer[SPI_COMMAND_BYTE_OFFSET], 2))
   \   00000034   ....               RCALL   ?Subroutine19
   \                     ??CrossCallReturnLabel_191:
   \   00000036   ....               LDI     R16, LOW((??m_auiSpiRxBuffer + 1))
   \   00000038   ....               LDI     R17, HIGH((??m_auiSpiRxBuffer + 1))
   \   0000003A   ........           CALL    ??iCrcSummOneByteCompare
   \   0000003E   2B01               OR      R16, R17
   \   00000040   F0A1               BREQ    ??SearchModules_3
    252                          {
    253                              // сохраним тип модуля в массиве для упорядочивания следования модулей при поиске на SPI.
    254                              m_xDeviceConfigSearch.axModulesContext[m_xDeviceConfigSearch.uiModulesQuantity].uiType =
    255                                  m_auiSpiRxBuffer[MODULE_TYPE_OFFSET];
   \   00000042   9100....           LDS     R16, (??m_auiSpiRxBuffer + 2)
   \   00000046   9110....           LDS     R17, ??m_xDeviceConfigSearch
   \   0000004A   E022               LDI     R18, 2
   \   0000004C   9F12               MUL     R17, R18
   \   0000004E   ....               RCALL   ?Subroutine62
   \                     ??CrossCallReturnLabel_82:
   \   00000050   8301               STD     Z+1, R16
    256                              // сохраним адрес модуля в массиве для упорядочивания следования модулей при поиске на SPI.
    257                              m_xDeviceConfigSearch.axModulesContext[m_xDeviceConfigSearch.uiModulesQuantity].uiAddress = i;
   \   00000052   9100....           LDS     R16, ??m_xDeviceConfigSearch
   \   00000056   9F02               MUL     R16, R18
   \   00000058   ....               RCALL   ?Subroutine62
   \                     ??CrossCallReturnLabel_83:
   \   0000005A   8392               STD     Z+2, R25
    258                              // модуль присутствует. увеличим значение переменной -
    259                              // фактическое количество модулей в системе.
    260                              (m_xDeviceConfigSearch.uiModulesQuantity)++;
   \   0000005C   ....               RCALL   ?Subroutine30
   \                     ??CrossCallReturnLabel_23:
   \   0000005E   8100               LD      R16, Z
   \   00000060   9503               INC     R16
   \   00000062   8300               ST      Z, R16
    261          
    262                              if (m_xDeviceConfigSearch.uiModulesQuantity >=
    263                                      INTERNAL_MODULE_QUANTITY)
   \   00000064   3003               CPI     R16, 3
   \   00000066   F020               BRCS    ??SearchModules_4
    264                              {
    265                                  return;
   \   00000068   C006               RJMP    ??SearchModules_5
    266                              }
    267                              // перейдём к опросу следующего адреса.
    268                              break;
    269                          }
    270                      }
    271          
    272                      CPlatform::WatchdogReset();
   \                     ??SearchModules_3:
   \   0000006A   95A8               WDR
    273                  }
    274              }
   \   0000006C   95AA               DEC     R26
   \   0000006E   F6B9               BRNE    ??SearchModules_2
   \                     ??SearchModules_4:
   \   00000070   9593               INC     R25
   \   00000072   958A               DEC     R24
   \   00000074   F699               BRNE    ??SearchModules_1
    275          };
   \                     ??SearchModules_5:
   \   00000076   E0E3               LDI     R30, 3
   \   00000078   ........           JMP     ?EPILOGUE_B3_L09

   \                                 In  segment CODE, align 2, keep-with-next
   \                     ?Subroutine32:
   \   00000000   ........           JMP     memset

   \                                 In  segment CODE, align 2, keep-with-next
   \                     ?Subroutine29:
   \   00000000   ....               RCALL   ??ConnectDevice
   \   00000002   E60A               LDI     R16, 106
   \   00000004   E013               LDI     R17, 3
   \   00000006   5001               SUBI    R16, 1
   \   00000008   4010               SBCI    R17, 0
   \   0000000A   F7E9               BRNE    $-4
   \   0000000C   C000               RJMP    $+2
   \   0000000E   0000               NOP
   \   00000010   9508               RET

   \                                 In  segment CODE, align 2, keep-with-next
   \                     ?Subroutine20:
   \   00000000   E050               LDI     R21, 0
   \   00000002   ....               LDI     R18, LOW(??m_auiSpiTxBuffer)
   \   00000004   ....               LDI     R19, (??m_auiSpiTxBuffer) >> 8
   \   00000006   ....               LDI     R16, LOW(??m_auiSpiRxBuffer)
   \   00000008   ....               LDI     R17, (??m_auiSpiRxBuffer) >> 8
   \   0000000A   ........           CALL    ??Exchange
   \   0000000E   ....               RJMP    ??DisconnectDevice

   \                                 In  segment CODE, align 2, keep-with-next
   \                     ?Subroutine4:
   \   00000000   E050               LDI     R21, 0
   \   00000002                      REQUIRE ??Subroutine90_0
   \   00000002                      ;               // Fall through to label ??Subroutine90_0

   \                                 In  segment CODE, align 2, keep-with-next
   \                     ??Subroutine90_0:
   \   00000000   E020               LDI     R18, 0
   \   00000002   ....               RJMP    ?Subroutine76

   \                                 In  segment CODE, align 2, keep-with-next
   \                     ?Subroutine62:
   \   00000000   01F0               MOVW    R31:R30, R1:R0
   \   00000002   ....               SUBI    R30, LOW((-(??m_xDeviceConfigSearch) & 0xFFFF))
   \   00000004   ....               SBCI    R31, (-(??m_xDeviceConfigSearch) & 0xFFFF) >> 8
   \   00000006   9508               RET
    276          
    277          //-----------------------------------------------------------------------------------------------------

   \                                 In  segment CODE, align 2, keep-with-next
    278          void CPss21::InitAllocationContext(TMemoryAllocationConext &xMemoryAllocationConext)
   \                     ??InitAllocationContext:
    279          {
    280              // Подготовим к отправке текущие адреса объектов системы используемых драйверами устройств.
    281          
    282              xMemoryAllocationConext.puiRxBuffer = m_auiSpiRxBuffer;
   \   00000000   ....               LDI     R18, LOW(??m_auiSpiRxBuffer)
   \   00000002   ....               LDI     R19, (??m_auiSpiRxBuffer) >> 8
   \   00000004   01F8               MOVW    R31:R30, R17:R16
   \   00000006   8321               STD     Z+1, R18
   \   00000008   8332               STD     Z+2, R19
    283              xMemoryAllocationConext.puiTxBuffer = m_auiSpiTxBuffer;
   \   0000000A   ....               LDI     R18, LOW(??m_auiSpiTxBuffer)
   \   0000000C   ....               LDI     R19, (??m_auiSpiTxBuffer) >> 8
   \   0000000E   8323               STD     Z+3, R18
   \   00000010   8334               STD     Z+4, R19
    284              xMemoryAllocationConext.puiErrorCode = &m_uiErrorCode;
   \   00000012   ....               LDI     R18, LOW((??m_xDeviceConfigSearch + 55))
   \   00000014   ....               LDI     R19, HIGH((??m_xDeviceConfigSearch + 55))
   \   00000016   8325               STD     Z+5, R18
   \   00000018   8336               STD     Z+6, R19
    285          
    286              // Обнулим общий объём выделенной памяти.
    287              xMemoryAllocationConext.uiUsedDiscreteInputs = 0;
   \   0000001A   E020               LDI     R18, 0
   \   0000001C   8721               STD     Z+9, R18
    288              // Подключим буфер для хранения состояний дискретных входов.
    289              xMemoryAllocationConext.puiDiscreteInputs =
    290                  &m_aucRtuDiscreteDataArray[DISCRETE_INPUTS_BIT_ARRAY_OFFSET];
   \   0000001E   ....               LDI     R18, LOW((??m_aucRtuDiscreteDataArray + 16))
   \   00000020   ....               LDI     R19, HIGH((??m_aucRtuDiscreteDataArray + 16))
   \   00000022   8327               STD     Z+7, R18
   \   00000024   8730               STD     Z+8, R19
    291          
    292              // Обнулим общий объём выделенной памяти.
    293              xMemoryAllocationConext.uiUsedDiscreteOutputState = 0;
   \   00000026   E020               LDI     R18, 0
   \   00000028   8724               STD     Z+12, R18
    294              // Подключим буфер для хранения состояний дискретных выходов.
    295              xMemoryAllocationConext.puiDiscreteOutputState =
    296                  &m_aucRtuDiscreteDataArray[DISCRETE_OUTPUT_BIT_ARRAY_OFFSET];
   \   0000002A   ....               LDI     R18, LOW((??m_aucRtuDiscreteDataArray + 112))
   \   0000002C   ....               LDI     R19, HIGH((??m_aucRtuDiscreteDataArray + 112))
   \   0000002E   8722               STD     Z+10, R18
   \   00000030   8733               STD     Z+11, R19
    297          
    298              // Обнулим общий объём выделенной памяти.
    299              xMemoryAllocationConext.uiUsedDiscreteOutputs = 0;
   \   00000032   E020               LDI     R18, 0
   \   00000034   8727               STD     Z+15, R18
    300              // Подключим буфер для управления дискретными выходов.
    301              xMemoryAllocationConext.pxDiscreteOutputControl = m_axDiscreteOutputControl;
   \   00000036   ....               LDI     R18, LOW((??m_xModbusSettings + 23))
   \   00000038   ....               LDI     R19, HIGH((??m_xModbusSettings + 23))
   \   0000003A   8725               STD     Z+13, R18
   \   0000003C   8736               STD     Z+14, R19
    302          
    303              // Обнулим общий объём выделенной памяти.
    304              xMemoryAllocationConext.uiUsedDiscreteOutputDataBase = 0;
   \   0000003E   E020               LDI     R18, 0
   \   00000040   8B22               STD     Z+18, R18
    305              // Подключим буфер с базой данных модулей дискретных выходов.
    306              xMemoryAllocationConext.pxDiscreteOutputDataBase = &m_xDiscreteOutputDataBase;
   \   00000042   ....               LDI     R18, LOW((??m_xModbusSettings + 63))
   \   00000044   ....               LDI     R19, HIGH((??m_xModbusSettings + 63))
   \   00000046   8B20               STD     Z+16, R18
   \   00000048   8B31               STD     Z+17, R19
    307          };
   \   0000004A   9508               RET
    308          
    309          //-----------------------------------------------------------------------------------------------------

   \                                 In  segment CODE, align 2, keep-with-next
    310          void CPss21::CreateDevices(void)
   \                     ??CreateDevices:
    311          {
   \   00000000   ........           CALL    ?PROLOGUE5_L09
   \   00000004                      REQUIRE ?Register_R4_is_cg_reg
   \   00000004   9763               SBIW    R29:R28, 19
    312              TMemoryAllocationConext xMemoryAllocationConext;
    313              InitAllocationContext(xMemoryAllocationConext);
   \   00000006   018E               MOVW    R17:R16, R29:R28
   \   00000008   ....               RCALL   ??InitAllocationContext
    314          
    315              for (uint8_t i = 0;
   \   0000000A   2444               CLR     R4
   \   0000000C   ....               LDI     R24, LOW(??m_xDeviceConfigSearch)
   \   0000000E   ....               LDI     R25, (??m_xDeviceConfigSearch) >> 8
   \   00000010   C007               RJMP    ??CreateDevices_1
    316                      i < (m_xDeviceConfigSearch.uiModulesQuantity);
    317                      i++)
    318              {
    319                  CPlatform::WatchdogReset();
    320          
    321                  uint8_t uiType = m_xDeviceConfigSearch.axModulesContext[i].uiType;
    322                  switch (uiType)
    323                  {
    324                  case MODULE_TYPE_MVSN:
    325          //        case MODULE_TYPE_MVDI:
    326          //        case MODULE_TYPE_MVDS9:
    327          //            m_apxDevices[i] = new CMvsn21;
    328          //            m_apxDevices[i] -> m_pxDriver = new CMvsn21Driver(uiType);
    329                      m_apxDrivers[i] = new CMvsn21Driver(uiType);
    330                      xMemoryAllocationConext.uiAddress = m_xDeviceConfigSearch.axModulesContext[i].uiAddress;
    331          //            m_apxDevices[i] -> m_pxDriver -> Allocate(xMemoryAllocationConext);
    332                      m_apxDrivers[i] -> Allocate(xMemoryAllocationConext);
    333                      m_xDeviceConfigSearch.uiDiscreteInputQuantity += 1;
    334                      break;
    335          
    336                  case MODULE_TYPE_MVDO5:
    337                      break;
    338          
    339                  case MODULE_TYPE_MR53:
    340                  case MODULE_TYPE_MR54:
    341          //            m_apxDevices[i] = new CModuleMrXX;
    342          //            m_apxDevices[i] -> m_pxDriver = new CModuleMrXXDriver(uiType);
    343                      m_apxDrivers[i] = new CModuleMrXXDriver(uiType);
   \                     ??CreateDevices_2:
   \   00000012   ........           CALL    `??new CModuleMrXXDriver`
   \   00000016   ....               RCALL   ?Subroutine33
    344                      xMemoryAllocationConext.uiAddress = m_xDeviceConfigSearch.axModulesContext[i].uiAddress;
    345          //            m_apxDevices[i] -> m_pxDriver -> Allocate(xMemoryAllocationConext);
    346                      m_apxDrivers[i] -> Allocate(xMemoryAllocationConext);
    347                      m_xDeviceConfigSearch.uiDiscreteOutputQuantity += 1;
   \                     ??CrossCallReturnLabel_35:
   \   00000018   8107               LDD     R16, Z+7
   \   0000001A   9503               INC     R16
   \   0000001C   8307               STD     Z+7, R16
    348                      break;
   \                     ??CreateDevices_3:
   \   0000001E   9443               INC     R4
   \                     ??CreateDevices_1:
   \   00000020   9100....           LDS     R16, ??m_xDeviceConfigSearch
   \   00000024   1640               CP      R4, R16
   \   00000026   F4C0               BRCC    ??CreateDevices_4
   \   00000028   95A8               WDR
   \   0000002A   E002               LDI     R16, 2
   \   0000002C   9E40               MUL     R4, R16
   \   0000002E   01DC               MOVW    R27:R26, R25:R24
   \   00000030   0DA0               ADD     R26, R0
   \   00000032   1DB1               ADC     R27, R1
   \   00000034   01FD               MOVW    R31:R30, R27:R26
   \   00000036   8101               LDD     R16, Z+1
   \   00000038   2F10               MOV     R17, R16
   \   0000003A   951A               DEC     R17
   \   0000003C   F029               BREQ    ??CreateDevices_5
   \   0000003E   5012               SUBI    R17, 2
   \   00000040   F341               BREQ    ??CreateDevices_2
   \   00000042   951A               DEC     R17
   \   00000044   F331               BREQ    ??CreateDevices_2
   \   00000046   CFEB               RJMP    ??CreateDevices_3
   \                     ??CreateDevices_5:
   \   00000048   E001               LDI     R16, 1
   \   0000004A   ........           CALL    `??new CMvsn21Driver`
   \   0000004E   ....               RCALL   ?Subroutine33
   \                     ??CrossCallReturnLabel_36:
   \   00000050   8500               LDD     R16, Z+8
   \   00000052   9503               INC     R16
   \   00000054   8700               STD     Z+8, R16
   \   00000056   CFE3               RJMP    ??CreateDevices_3
    349          
    350                  case MODULE_TYPE_MVI:
    351                      break;
    352          
    353                  default:
    354                      break;
    355                  }
    356              }
    357          
    358              if(m_xDeviceConfiguration.FixConfig)
   \                     ??CreateDevices_4:
   \   00000058   01FC               MOVW    R31:R30, R25:R24
   \   0000005A   8504               LDD     R16, Z+12
   \   0000005C   FF00               SBRS    R16, 0
   \   0000005E   C00A               RJMP    ??CreateDevices_6
    359              {
    360                  // Предыдущая сохранённая и текущая конфигурации не совпадают?
    361                  if((m_xDeviceConfiguration.ICount != m_xDeviceConfigSearch.uiDiscreteInputQuantity) ||
    362                          (m_xDeviceConfiguration.OCount != m_xDeviceConfigSearch.uiDiscreteOutputQuantity))
   \   00000060   8501               LDD     R16, Z+9
   \   00000062   8510               LDD     R17, Z+8
   \   00000064   1701               CP      R16, R17
   \   00000066   F421               BRNE    ??CreateDevices_7
   \   00000068   8502               LDD     R16, Z+10
   \   0000006A   8117               LDD     R17, Z+7
   \   0000006C   1701               CP      R16, R17
   \   0000006E   F011               BREQ    ??CreateDevices_6
    363                  {
    364                      SetErrorCode(CFG_ERROR);
   \                     ??CreateDevices_7:
   \   00000070   E003               LDI     R16, 3
   \   00000072   AB07               STD     Z+55, R16
    365                  }
    366              }
    367          };
   \                     ??CreateDevices_6:
   \   00000074   9663               ADIW    R29:R28, 19
   \   00000076   E0E5               LDI     R30, 5
   \   00000078   ........           JMP     ?EPILOGUE_B5_L09

   \                                 In  segment CODE, align 2, keep-with-next
   \                     ?Subroutine33:
   \   00000000   2F40               MOV     R20, R16
   \   00000002   01FD               MOVW    R31:R30, R27:R26
   \   00000004   A700               STD     Z+40, R16
   \   00000006   A711               STD     Z+41, R17
   \   00000008   8102               LDD     R16, Z+2
   \   0000000A   8308               ST      Y, R16
   \   0000000C   019E               MOVW    R19:R18, R29:R28
   \   0000000E   2F04               MOV     R16, R20
   \   00000010   2FE4               MOV     R30, R20
   \   00000012   2FF1               MOV     R31, R17
   \   00000014   8147               LDD     R20, Z+7
   \   00000016   85F0               LDD     R31, Z+8
   \   00000018   2FE4               MOV     R30, R20
   \   0000001A   9145               LPM     R20, Z+
   \   0000001C   91F4               LPM     R31, Z
   \   0000001E   2FE4               MOV     R30, R20
   \   00000020   9509               ICALL
   \   00000022   01FC               MOVW    R31:R30, R25:R24
   \   00000024   9508               RET
    368          
    369          //-----------------------------------------------------------------------------------------------------

   \                                 In  segment CODE, align 2, keep-with-next
    370          void CPss21::DestroyDevices(uint8_t uiLength)
   \                     ??DestroyDevices:
    371          {
    372              for (uint16_t i = 0; i < uiLength; i++)
   \   00000000   E0E0               LDI     R30, 0
   \   00000002   E0F0               LDI     R31, 0
   \   00000004   E010               LDI     R17, 0
   \   00000006   C001               RJMP    ??DestroyDevices_1
   \                     ??DestroyDevices_2:
   \   00000008   9631               ADIW    R31:R30, 1
   \                     ??DestroyDevices_1:
   \   0000000A   17E0               CP      R30, R16
   \   0000000C   07F1               CPC     R31, R17
   \   0000000E   F3E0               BRCS    ??DestroyDevices_2
    373              {
    374          //        delete m_apxDevices[i];
    375          //        delete m_apxDrivers[i];
    376              }
    377          };
   \   00000010   9508               RET
    378          
    379          //-----------------------------------------------------------------------------------------------------

   \                                 In  segment CODE, align 2, keep-with-next
    380          uint16_t CPss21::ReportType(uint8_t *puiDestination, uint16_t uiLength)
   \                     ??ReportType:
    381          {
    382              memset(m_auiSpiTxBuffer, 0, 6);
   \   00000000   E046               LDI     R20, 6
   \   00000002   ....               RCALL   ?Subroutine4
   \                     ??CrossCallReturnLabel_194:
   \   00000004   ....               LDI     R16, LOW(??m_auiSpiTxBuffer)
   \   00000006   ....               LDI     R17, (??m_auiSpiTxBuffer) >> 8
   \   00000008   ....               RCALL   ?Subroutine32
    383              uint8_t uiLengthLocal = 0;
    384              m_auiSpiTxBuffer[uiLengthLocal++] = GET_MODULE_TYPE_COMMAND;
   \                     ??CrossCallReturnLabel_33:
   \   0000000A   ....               LDI     R30, LOW(??m_auiSpiTxBuffer)
   \   0000000C   ....               LDI     R31, (??m_auiSpiTxBuffer) >> 8
   \   0000000E   E901               LDI     R16, 145
   \   00000010   8300               ST      Z, R16
    385              m_auiSpiTxBuffer[uiLengthLocal++] = 0;
   \   00000012   E000               LDI     R16, 0
   \   00000014   8301               STD     Z+1, R16
    386              m_auiSpiTxBuffer[uiLengthLocal++] = 0;
   \   00000016   8302               STD     Z+2, R16
    387              m_auiSpiTxBuffer[uiLengthLocal++] = 0;
   \   00000018   8303               STD     Z+3, R16
    388              m_auiSpiTxBuffer[uiLengthLocal++] = 0;
   \   0000001A   8304               STD     Z+4, R16
    389          
    390              ConnectDevice(0);
   \   0000001C   ....               RCALL   ?Subroutine29
    391              delay_us(500);
    392              CSpi::Exchange(m_auiSpiRxBuffer,
    393                             m_auiSpiTxBuffer,
    394                             uiLengthLocal);
   \                     ??CrossCallReturnLabel_21:
   \   0000001E   E045               LDI     R20, 5
   \   00000020   ....               RCALL   ?Subroutine20
    395              DisconnectDevice();
    396          
    397              return 1;
   \                     ??CrossCallReturnLabel_8:
   \   00000022   E001               LDI     R16, 1
   \   00000024   E010               LDI     R17, 0
   \   00000026   9508               RET
    398          }
    399          
    400          //-----------------------------------------------------------------------------------------------------

   \                                 In  segment CODE, align 2, keep-with-next
    401          void CPss21::SetBytesFromBits(uint8_t *uiDestination,
   \                     ??SetBytesFromBits:
    402                                        uint8_t *uiSourse,
    403                                        uint16_t uiLength)
    404          {
   \   00000000   ....               RCALL   ?Subroutine40
   \                     ??CrossCallReturnLabel_51:
   \   00000002   01B8               MOVW    R23:R22, R17:R16
   \   00000004   011A               MOVW    R3:R2, R21:R20
    405              int16_t shift = 0;
   \   00000006   E0A0               LDI     R26, 0
   \   00000008   E0B0               LDI     R27, 0
    406          
    407              for (int16_t i = 0; i < uiLength; i++)
   \   0000000A   ....               RCALL   ?Subroutine41
   \                     ??CrossCallReturnLabel_54:
   \   0000000C   C010               RJMP    ??SetBytesFromBits_1
    408              {
    409                  uiDestination[i] = uiSourse[(i) / 8] & (1 << shift) ? 1 : 0;
   \                     ??SetBytesFromBits_2:
   \   0000000E   E000               LDI     R16, 0
   \                     ??SetBytesFromBits_3:
   \   00000010   01FB               MOVW    R31:R30, R23:R22
   \   00000012   0FE8               ADD     R30, R24
   \   00000014   1FF9               ADC     R31, R25
   \   00000016   8300               ST      Z, R16
    410                  /* gcc doesn't like: shift = (++shift) % 8; */
    411                  shift++;
    412                  shift %= 8;
   \   00000018   9611               ADIW    R27:R26, 1
   \   0000001A   E048               LDI     R20, 8
   \   0000001C   E050               LDI     R21, 0
   \   0000001E   018D               MOVW    R17:R16, R27:R26
   \   00000020   ........           CALL    ?SS_DIVMOD_L02
   \   00000024   E043               LDI     R20, 3
   \   00000026   ....               RCALL   ?Subroutine64
   \                     ??CrossCallReturnLabel_205:
   \   00000028   1BA0               SUB     R26, R16
   \   0000002A   0BB1               SBC     R27, R17
   \   0000002C   9601               ADIW    R25:R24, 1
   \                     ??SetBytesFromBits_1:
   \   0000002E   1582               CP      R24, R2
   \   00000030   0593               CPC     R25, R3
   \   00000032   F468               BRCC    ??SetBytesFromBits_4
   \   00000034   E048               LDI     R20, 8
   \   00000036   E050               LDI     R21, 0
   \   00000038   018C               MOVW    R17:R16, R25:R24
   \   0000003A   ........           CALL    ?SS_DIVMOD_L02
   \   0000003E   01F9               MOVW    R31:R30, R19:R18
   \   00000040   ....               RCALL   ?Subroutine71
    413              }
   \                     ??CrossCallReturnLabel_102:
   \   00000042   8150               LD      R21, Z
   \   00000044   2F4A               MOV     R20, R26
   \   00000046   ....               RCALL   ??Subroutine92_0
   \                     ??CrossCallReturnLabel_202:
   \   00000048   F311               BREQ    ??SetBytesFromBits_2
   \   0000004A   E001               LDI     R16, 1
   \   0000004C   CFE1               RJMP    ??SetBytesFromBits_3
    414          }
   \                     ??SetBytesFromBits_4:
   \   0000004E                      REQUIRE ?Subroutine84
   \   0000004E                      ;               // Fall through to label ?Subroutine84

   \                                 In  segment CODE, align 2, keep-with-next
   \                     ?Subroutine84:
   \   00000000   E0E4               LDI     R30, 4
   \   00000002   ........           JMP     ?EPILOGUE_B4_L09

   \                                 In  segment CODE, align 2, keep-with-next
   \                     ?Subroutine40:
   \   00000000   ........           JMP     ?PROLOGUE4_L09

   \                                 In  segment CODE, align 2, keep-with-next
   \                     ?Subroutine41:
   \   00000000   E080               LDI     R24, 0
   \   00000002   E090               LDI     R25, 0
   \   00000004   9508               RET

   \                                 In  segment CODE, align 2, keep-with-next
   \                     ?Subroutine64:
   \   00000000   ........           JMP     ?S_SHL_L02

   \                                 In  segment CODE, align 2, keep-with-next
   \                     ??Subroutine92_0:
   \   00000000   E001               LDI     R16, 1
   \   00000002   E010               LDI     R17, 0
   \   00000004   ....               RCALL   ?Subroutine64
   \                     ??CrossCallReturnLabel_207:
   \   00000006   2350               AND     R21, R16
   \   00000008   9508               RET

   \                                 In  segment CODE, align 2, keep-with-next
   \                     ?Subroutine71:
   \   00000000   0FE0               ADD     R30, R16
   \   00000002   1FF1               ADC     R31, R17
   \   00000004   9508               RET
    415          
    416          //-----------------------------------------------------------------------------------------------------

   \                                 In  segment CODE, align 2, keep-with-next
    417          void CPss21::ModbusDeviceControl(uint8_t* puiData, uint16_t uiLength, uint16_t uiAddress)
   \                     ??ModbusDeviceControl:
    418          {
   \   00000000   01BA               MOVW    R23:R22, R21:R20
    419              // Команда - "Квитирование"?
    420              if (uiAddress == MODBUS_RECEIPT_ADDRESS)
   \   00000002   2B47               OR      R20, R23
   \   00000004   F441               BRNE    ??ModbusDeviceControl_2
    421              {
    422                  if (*puiData)
   \   00000006   01F8               MOVW    R31:R30, R17:R16
   \   00000008   8100               LD      R16, Z
   \   0000000A   2300               TST     R16
   \   0000000C   F101               BREQ    ??ModbusDeviceControl_3
    423                  {
    424                      CPss21::SetModbusReceipt(1);
   \   0000000E   ....               RCALL   ?Subroutine28
   \                     ??CrossCallReturnLabel_143:
   \   00000010   AB03               STD     Z+51, R16
    425                      SetDiscreteSignalsReceipt(1);
   \   00000012   AB05               STD     Z+53, R16
    426                      SendToDevicesModbusReceipt();
   \   00000014   ....               RJMP    ??SendToDevicesModbusReceipt
    427                  }
    428              }
    429              // Команда - "Сброс"?
    430              else if (uiAddress == MODBUS_RESET_ADDRESS)
   \                     ??ModbusDeviceControl_2:
   \   00000016   3061               CPI     R22, 1
   \   00000018   E040               LDI     R20, 0
   \   0000001A   0754               CPC     R21, R20
   \   0000001C   F441               BRNE    ??ModbusDeviceControl_4
    431              {
    432                  if (*puiData)
   \   0000001E   01F8               MOVW    R31:R30, R17:R16
   \   00000020   8100               LD      R16, Z
   \   00000022   2300               TST     R16
   \   00000024   F0A1               BREQ    ??ModbusDeviceControl_3
    433                  {
    434                      CPss21::SetModbusReset(1);
   \   00000026   ....               RCALL   ?Subroutine28
   \                     ??CrossCallReturnLabel_144:
   \   00000028   AB04               STD     Z+52, R16
    435                      SetDiscreteSignalsReset(1);
   \   0000002A   AB06               STD     Z+54, R16
    436                      SendToDevicesModbusReset();
   \   0000002C   ....               RJMP    ??SendToDevicesModbusReset
    437                  }
    438              }
    439              // Изменение состояния окон сигнализации?
    440              else if ((uiAddress >= ALARM_WINDOWS_BIT_ARRAY_OFFSET) &&
    441                       (uiAddress < (ALARM_WINDOWS_BIT_ARRAY_OFFSET +
    442                                     ALARM_WINDOWS_ARRAY_LENGTH)))
   \                     ??ModbusDeviceControl_4:
   \   0000002E   2FE6               MOV     R30, R22
   \   00000030   2FF5               MOV     R31, R21
   \   00000032   54E0               SUBI    R30, 64
   \   00000034   40F0               SBCI    R31, 0
   \   00000036   97F0               SBIW    R31:R30, 48
   \   00000038   F450               BRCC    ??ModbusDeviceControl_3
    443              {
    444                  SetBytesFromBits(&m_aucRtuDiscreteDataArray[uiAddress],
    445                                   puiData,
    446                                   uiLength);
   \   0000003A   01A9               MOVW    R21:R20, R19:R18
   \   0000003C   0198               MOVW    R19:R18, R17:R16
   \   0000003E   ....               LDI     R16, LOW(??m_aucRtuDiscreteDataArray)
   \   00000040   ....               LDI     R17, (??m_aucRtuDiscreteDataArray) >> 8
   \   00000042   0F06               ADD     R16, R22
   \   00000044   1F17               ADC     R17, R23
   \   00000046   ....               RCALL   ??SetBytesFromBits
    447                  // Сообщим автомату о состоявшемся сеансе связи.
    448                  m_xModbusRtuLinkControl.SetFsmEvent(CModbusRtuLinkControl::LINK_SESSION_HAPPENED_FSM_EVENT);
   \   00000048   E001               LDI     R16, 1
   \   0000004A   9300....           STS     (??m_xDeviceConfigSearch + 33), R16
    449              }
    450          }
   \                     ??ModbusDeviceControl_3:
   \   0000004E   9508               RET
    451          
    452          //-----------------------------------------------------------------------------------------------------

   \                                 In  segment CODE, align 2, keep-with-next
    453          void CPss21::ModbusDeviceControl(uint8_t uiData, uint16_t uiAddress)
   \                     ??ModbusDeviceControl_1:
    454          {
   \   00000000   9721               SBIW    R29:R28, 1
   \   00000002   8308               ST      Y, R16
    455              ModbusDeviceControl(&uiData, 1, uiAddress);
   \   00000004   01A9               MOVW    R21:R20, R19:R18
   \   00000006   E021               LDI     R18, 1
   \   00000008   E030               LDI     R19, 0
   \   0000000A   018E               MOVW    R17:R16, R29:R28
   \   0000000C   ....               RCALL   ??ModbusDeviceControl
    456          }
   \   0000000E   9621               ADIW    R29:R28, 1
   \   00000010   9508               RET
    457          
    458          //-----------------------------------------------------------------------------------------------------

   \                                 In  segment CODE, align 2, keep-with-next
    459          bool CPss21::ModbusRtuLinkControlIsOn(void)
   \                     ??ModbusRtuLinkControlIsOn:
    460          {
    461              if (m_xDeviceConfiguration.MBTimeout != 0)
   \   00000000   9100....           LDS     R16, (??m_xDeviceConfigSearch + 14)
   \   00000004   2300               TST     R16
   \   00000006   F009               BREQ    ??ModbusRtuLinkControlIsOn_1
    462              {
    463                  return true;
   \   00000008   ....               RJMP    ?Subroutine79
    464              }
    465              else
    466              {
    467                  return false;
   \                     ??ModbusRtuLinkControlIsOn_1:
   \   0000000A                      REQUIRE ?Subroutine78
   \   0000000A                      ;               // Fall through to label ?Subroutine78
    468              }
    469          }

   \                                 In  segment CODE, align 2, keep-with-next
   \                     ?Subroutine78:
   \   00000000   E000               LDI     R16, 0
   \   00000002   9508               RET

   \                                 In  segment CODE, align 2, keep-with-next
   \                     ?Subroutine79:
   \   00000000   E001               LDI     R16, 1
   \   00000002   9508               RET
    470          
    471          //-----------------------------------------------------------------------------------------------------

   \                                 In  segment CODE, align 2, keep-with-next
    472          uint16_t CPss21::GetTimeoutModbusRtuLinkControl(void)
   \                     ??GetTimeoutModbusRtuLinkControl:
    473          {
    474              return (m_xDeviceConfiguration.MBTimeout * 1000);
   \   00000000   9100....           LDS     R16, (??m_xDeviceConfigSearch + 14)
   \   00000004   E010               LDI     R17, 0
   \   00000006   EE48               LDI     R20, 232
   \   00000008   E053               LDI     R21, 3
   \   0000000A                      REQUIRE ?Subroutine85
   \   0000000A                      ;               // Fall through to label ?Subroutine85
    475          }

   \                                 In  segment CODE, align 2, keep-with-next
   \                     ?Subroutine85:
   \   00000000   ........           JMP     ?S_EC_MUL_L02
    476          
    477          //-----------------------------------------------------------------------------------------------------

   \                                 In  segment CODE, align 2, keep-with-next
    478          bool CPss21::ModbusRtuLinkControlInProgress(void)
   \                     ??ModbusRtuLinkControlInProgress:
    479          {
    480              if (m_xDeviceState.ModbusRtuLinkControlInProgress)
   \   00000000   9100....           LDS     R16, (??m_xModbusSettings + 39)
   \   00000004   FD00               SBRC    R16, 0
    481              {
    482                  return true;
   \   00000006   ....               RJMP    ?Subroutine79
    483              }
    484              else
    485              {
    486                  return false;
   \                     ??ModbusRtuLinkControlInProgress_1:
   \   00000008   ....               RJMP    ?Subroutine78
    487              }
    488          }
    489          
    490          //-----------------------------------------------------------------------------------------------------

   \                                 In  segment CODE, align 2, keep-with-next
    491          void CPss21::SetModeModbusRtuLinkControlInProgress(bool bData)
   \                     ??SetModeModbusRtuLinkControlInProgress:
    492          {
    493              m_xDeviceState.ModbusRtuLinkControlInProgress = bData;
   \   00000000   ....               RCALL   ?Subroutine27
   \                     ??CrossCallReturnLabel_17:
   \   00000002   FB00               BST     R16, 0
   \   00000004   A107               LDD     R16, Z+39
   \   00000006   F900               BLD     R16, 0
   \   00000008   A307               STD     Z+39, R16
    494              // Сохраним текущую конфигурацию.
    495              CDataBase::Write(reinterpret_cast<uint8_t*>(&m_xDeviceState),
    496                               CDataBase::GetBlockLength(TDataBase::DEVICE_STATE),
    497                               TDataBase::DEVICE_STATE);
   \   0000000A   E00A               LDI     R16, 10
   \   0000000C   ........           CALL    ??GetBlockLength
   \   00000010   E04A               LDI     R20, 10
   \   00000012   2F20               MOV     R18, R16
   \   00000014   E030               LDI     R19, 0
   \   00000016   ....               LDI     R16, LOW((??m_xModbusSettings + 39))
   \   00000018   ....               LDI     R17, HIGH((??m_xModbusSettings + 39))
   \   0000001A   ........           CALL    ??Write
    498              // База данных подтверждена пользователем при записи блока через программатор.
    499              // Создадим Crc всех блоков.
    500              CPss21::m_xDataStore.CrcOfBlocksCrcCreate();
   \   0000001E   ....               LDI     R16, LOW(??m_xDataStore)
   \   00000020   ....               LDI     R17, (??m_xDataStore) >> 8
   \   00000022   ........           JMP     ??CrcOfBlocksCrcCreate
    501          }
    502          
    503          //-----------------------------------------------------------------------------------------------------

   \                                 In  segment CODE, align 2, keep-with-next
    504          void CPss21::SendToDevicesReceipt(void)
   \                     ??SendToDevicesReceipt:
    505          {
   \   00000000   ....               RCALL   ?Subroutine42
    506              for (uint8_t i = 0;
   \                     ??CrossCallReturnLabel_141:
   \   00000002   C00C               RJMP    ??SendToDevicesReceipt_1
    507                      i < (m_xDeviceConfigSearch.uiModulesQuantity);
    508                      i++)
    509              {
    510                  m_apxDrivers[i] -> SetReceipt(1);
   \                     ??SendToDevicesReceipt_2:
   \   00000004   E012               LDI     R17, 2
   \   00000006   9F01               MUL     R16, R17
   \   00000008   ....               LDI     R26, LOW(??m_xDeviceConfigSearch)
   \   0000000A   ....               LDI     R27, (??m_xDeviceConfigSearch) >> 8
   \   0000000C   0DA0               ADD     R26, R0
   \   0000000E   1DB1               ADC     R27, R1
   \   00000010   9698               ADIW    R27:R26, 40
   \   00000012   91ED               LD      R30, X+
   \   00000014   91FC               LD      R31, X
   \   00000016   E011               LDI     R17, 1
   \   00000018   8311               STD     Z+1, R17
    511              }
   \   0000001A   9503               INC     R16
   \                     ??SendToDevicesReceipt_1:
   \   0000001C   ....               RCALL   ?Subroutine34
   \                     ??CrossCallReturnLabel_39:
   \   0000001E   F390               BRCS    ??SendToDevicesReceipt_2
    512          
    513              // Сообщим автомату о состоявшемся квитировании.
    514              m_xModbusRtuLinkControl.SetFsmEvent(CModbusRtuLinkControl::RECEIPT_HAPPENED_FSM_EVENT);
   \   00000020   E002               LDI     R16, 2
   \   00000022   9300....           STS     (??m_xDeviceConfigSearch + 33), R16
    515          }
   \   00000026                      REQUIRE ?Subroutine77
   \   00000026                      ;               // Fall through to label ?Subroutine77

   \                                 In  segment CODE, align 2, keep-with-next
   \                     ?Subroutine77:
   \   00000000   01D9               MOVW    R27:R26, R19:R18
   \   00000002   9508               RET

   \                                 In  segment CODE, align 2, keep-with-next
   \                     ?Subroutine42:
   \   00000000   019D               MOVW    R19:R18, R27:R26
   \   00000002   ....               RJMP    ?Subroutine78

   \                                 In  segment CODE, align 2, keep-with-next
   \                     ?Subroutine34:
   \   00000000   9110....           LDS     R17, ??m_xDeviceConfigSearch
   \   00000004   1701               CP      R16, R17
   \   00000006   9508               RET
    516          
    517          //-----------------------------------------------------------------------------------------------------

   \                                 In  segment CODE, align 2, keep-with-next
   \                     ?Subroutine31:
   \   00000000   E011               LDI     R17, 1
   \   00000002   931C               ST      X, R17
   \   00000004   9503               INC     R16
   \   00000006   9508               RET

   \                                 In  segment CODE, align 2, keep-with-next
    518          void CPss21::SendToDevicesReset(void)
   \                     ??SendToDevicesReset:
    519          {
   \   00000000   ....               RCALL   ?Subroutine42
    520              for (uint8_t i = 0;
   \                     ??CrossCallReturnLabel_142:
   \   00000002   C003               RJMP    ??CrossCallReturnLabel_31
    521                      i < (m_xDeviceConfigSearch.uiModulesQuantity);
    522                      i++)
    523              {
    524                  m_apxDrivers[i] -> SetReset(1);
   \                     ??SendToDevicesReset_1:
   \   00000004   ....               RCALL   ?Subroutine35
    525              }
   \                     ??CrossCallReturnLabel_44:
   \   00000006   9612               ADIW    R27:R26, 2
   \   00000008   ....               RCALL   ?Subroutine31
   \                     ??CrossCallReturnLabel_31:
   \   0000000A   ....               RCALL   ?Subroutine34
   \                     ??CrossCallReturnLabel_40:
   \   0000000C   F3D8               BRCS    ??SendToDevicesReset_1
    526          }
   \   0000000E   ....               RJMP    ?Subroutine77
    527          
    528          //-----------------------------------------------------------------------------------------------------

   \                                 In  segment CODE, align 2, keep-with-next
    529          void CPss21::SendToDevicesModbusReceipt(void)
   \                     ??SendToDevicesModbusReceipt:
    530          {
   \   00000000   ....               RCALL   ?Subroutine42
    531              for (uint8_t i = 0;
   \                     ??CrossCallReturnLabel_140:
   \   00000002   C003               RJMP    ??CrossCallReturnLabel_30
    532                      i < (m_xDeviceConfigSearch.uiModulesQuantity);
    533                      i++)
    534              {
    535                  m_apxDrivers[i] -> SetModbusReceipt(1);
   \                     ??SendToDevicesModbusReceipt_1:
   \   00000004   ....               RCALL   ?Subroutine35
    536              }
   \                     ??CrossCallReturnLabel_43:
   \   00000006   9613               ADIW    R27:R26, 3
   \   00000008   ....               RCALL   ?Subroutine31
   \                     ??CrossCallReturnLabel_30:
   \   0000000A   ....               RCALL   ?Subroutine34
   \                     ??CrossCallReturnLabel_38:
   \   0000000C   F3D8               BRCS    ??SendToDevicesModbusReceipt_1
    537          }
   \   0000000E   ....               RJMP    ?Subroutine77
    538          
    539          //-----------------------------------------------------------------------------------------------------

   \                                 In  segment CODE, align 2, keep-with-next
    540          void CPss21::SendToDevicesModbusReset(void)
   \                     ??SendToDevicesModbusReset:
    541          {
   \   00000000   ....               RCALL   ?Subroutine42
    542              for (uint8_t i = 0;
   \                     ??CrossCallReturnLabel_139:
   \   00000002   C003               RJMP    ??CrossCallReturnLabel_29
    543                      i < (m_xDeviceConfigSearch.uiModulesQuantity);
    544                      i++)
    545              {
    546                  m_apxDrivers[i] -> SetModbusReset(1);
   \                     ??SendToDevicesModbusReset_1:
   \   00000004   ....               RCALL   ?Subroutine35
    547              }
   \                     ??CrossCallReturnLabel_42:
   \   00000006   9614               ADIW    R27:R26, 4
   \   00000008   ....               RCALL   ?Subroutine31
   \                     ??CrossCallReturnLabel_29:
   \   0000000A   ....               RCALL   ?Subroutine34
   \                     ??CrossCallReturnLabel_37:
   \   0000000C   F3D8               BRCS    ??SendToDevicesModbusReset_1
    548          }
   \   0000000E   ....               RJMP    ?Subroutine77
    549          
    550          //-----------------------------------------------------------------------------------------------------

   \                                 In  segment CODE, align 2, keep-with-next
    551          void CPss21::KeyStateProcessing(void)
   \                     ??KeyStateProcessing:
    552          {
   \   00000000   938A               ST      -Y, R24
    553          //    m_xReceiptKey.Fsm();
    554          //    m_xResetKey.Fsm();
    555          //    m_xCheckKey.Fsm();
    556          //    m_xExternalKey.Fsm();
    557          
    558              if (m_xReceiptKey.KeyEventHappened(CMultiFunctionKey::KEY_EVENT_PRESSED_PUSH))
   \   00000002   E022               LDI     R18, 2
   \   00000004   ....               RCALL   ?Subroutine11
   \                     ??CrossCallReturnLabel_89:
   \   00000006   2300               TST     R16
   \   00000008   F021               BREQ    ??CrossCallReturnLabel_234
    559              {
    560                  SetPanelReceipt(1);
   \   0000000A   ....               RCALL   ?Subroutine28
   \                     ??CrossCallReturnLabel_145:
   \   0000000C   A707               STD     Z+47, R16
    561                  SetDiscreteSignalsReceipt(1);
   \   0000000E   ....               RCALL   ?Subroutine45
    562                  SendToDevicesReceipt();
    563                  m_xBuzzerNotifyerControl.AlarmSet(BEEP_SIGNAL);
    564              }
   \                     ??CrossCallReturnLabel_149:
   \   00000010   ....               RCALL   ??Subroutine97_0
    565          
    566              if (m_xResetKey.KeyEventHappened(CMultiFunctionKey::KEY_EVENT_PRESSED_PUSH))
   \                     ??CrossCallReturnLabel_234:
   \   00000012   E022               LDI     R18, 2
   \   00000014   ....               LDI     R16, LOW((??m_xDeviceConfigSearch + 74))
   \   00000016   ....               LDI     R17, HIGH((??m_xDeviceConfigSearch + 74))
   \   00000018   ....               RCALL   ?Subroutine65
   \                     ??CrossCallReturnLabel_91:
   \   0000001A   2300               TST     R16
   \   0000001C   F021               BREQ    ??CrossCallReturnLabel_233
    567              {
    568                  SetPanelReset(1);
   \   0000001E   ....               RCALL   ?Subroutine28
   \                     ??CrossCallReturnLabel_146:
   \   00000020   AB00               STD     Z+48, R16
    569                  SetDiscreteSignalsReset(1);
   \   00000022   ....               RCALL   ?Subroutine46
    570                  SendToDevicesReset();
    571                  m_xBuzzerNotifyerControl.AlarmSet(BEEP_SIGNAL);
    572              }
   \                     ??CrossCallReturnLabel_151:
   \   00000024   ....               RCALL   ??Subroutine97_0
    573          
    574              if (m_xCheckKey.KeyEventHappened(CMultiFunctionKey::KEY_EVENT_PRESSED_PUSH))
   \                     ??CrossCallReturnLabel_233:
   \   00000026   E022               LDI     R18, 2
   \   00000028   ....               RCALL   ?Subroutine13
   \                     ??CrossCallReturnLabel_6:
   \   0000002A   2300               TST     R16
   \   0000002C   F019               BREQ    ??CrossCallReturnLabel_232
    575              {
    576                  // Включим режим тестирования.
    577                  SetFsmState(TEST_START);
   \   0000002E   ....               RCALL   ?Subroutine43
    578                  m_xBuzzerNotifyerControl.AlarmSet(BEEP_SIGNAL);
   \                     ??CrossCallReturnLabel_200:
   \   00000030   E027               LDI     R18, 7
   \   00000032   ....               RCALL   ??Subroutine97_0
    579              }
    580          
    581              if (m_xExternalKey.KeyEventHappened(CMultiFunctionKey::KEY_EVENT_PRESSED_RECEIPT))
   \                     ??CrossCallReturnLabel_232:
   \   00000034   E022               LDI     R18, 2
   \   00000036   ....               RCALL   ?Subroutine8
   \                     ??CrossCallReturnLabel_156:
   \   00000038   F021               BREQ    ??CrossCallReturnLabel_231
    582              {
    583                  SetExternalReceipt(1);
   \   0000003A   ....               RCALL   ?Subroutine28
   \                     ??CrossCallReturnLabel_147:
   \   0000003C   AB01               STD     Z+49, R16
    584                  SetDiscreteSignalsReceipt(1);
   \   0000003E   ....               RCALL   ?Subroutine45
    585                  SendToDevicesReceipt();
    586                  m_xBuzzerNotifyerControl.AlarmSet(BEEP_SIGNAL);
    587              }
   \                     ??CrossCallReturnLabel_150:
   \   00000040   ....               RCALL   ??Subroutine97_0
    588          
    589              if (m_xExternalKey.KeyEventHappened(CMultiFunctionKey::KEY_EVENT_PRESSED_RESET))
   \                     ??CrossCallReturnLabel_231:
   \   00000042   E023               LDI     R18, 3
   \   00000044   ....               RCALL   ?Subroutine8
   \                     ??CrossCallReturnLabel_157:
   \   00000046   F021               BREQ    ??CrossCallReturnLabel_230
    590              {
    591                  SetExternalReset(1);
   \   00000048   ....               RCALL   ?Subroutine28
   \                     ??CrossCallReturnLabel_148:
   \   0000004A   AB02               STD     Z+50, R16
    592                  SetDiscreteSignalsReset(1);
   \   0000004C   ....               RCALL   ?Subroutine46
    593                  SendToDevicesReset();
    594                  m_xBuzzerNotifyerControl.AlarmSet(BEEP_SIGNAL);
    595              }
   \                     ??CrossCallReturnLabel_152:
   \   0000004E   ....               RCALL   ??Subroutine97_0
    596          
    597              if (m_xExternalKey.KeyEventHappened(CMultiFunctionKey::KEY_EVENT_PRESSED_CHECK))
   \                     ??CrossCallReturnLabel_230:
   \   00000050   E024               LDI     R18, 4
   \   00000052   ....               RCALL   ?Subroutine8
   \                     ??CrossCallReturnLabel_158:
   \   00000054   F019               BREQ    ??CrossCallReturnLabel_229
    598              {
    599                  // Включим режим тестирования.
    600                  SetFsmState(TEST_START);
   \   00000056   ....               RCALL   ?Subroutine43
    601                  m_xBuzzerNotifyerControl.AlarmSet(BEEP_SIGNAL);
   \                     ??CrossCallReturnLabel_201:
   \   00000058   E027               LDI     R18, 7
   \   0000005A   ....               RCALL   ??Subroutine97_0
    602              }
    603          
    604              // Кнопки "Квитирование" и "Контроль" нажаты дольше 7 секунд?
    605              if (m_xEventUniteLogicAndOne.IsHappened((m_xReceiptKey.KeyEventHappened(CMultiFunctionKey::KEY_EVENT_PRESSED_SET_DEFAULT)),
    606                                                      (m_xCheckKey.KeyEventHappened(CMultiFunctionKey::KEY_EVENT_PRESSED_SET_DEFAULT))))
   \                     ??CrossCallReturnLabel_229:
   \   0000005C   E025               LDI     R18, 5
   \   0000005E   ....               RCALL   ?Subroutine13
   \                     ??CrossCallReturnLabel_7:
   \   00000060   2F80               MOV     R24, R16
   \   00000062   E025               LDI     R18, 5
   \   00000064   ....               RCALL   ?Subroutine11
   \                     ??CrossCallReturnLabel_90:
   \   00000066   2F20               MOV     R18, R16
   \   00000068   2F38               MOV     R19, R24
   \   0000006A   ....               LDI     R16, LOW((??m_xDeviceConfigSearch + 119))
   \   0000006C   ....               LDI     R17, HIGH((??m_xDeviceConfigSearch + 119))
   \   0000006E   ........           CALL    ??IsHappened
   \   00000072   2300               TST     R16
   \   00000074   F019               BREQ    ??CrossCallReturnLabel_228
    607              {
    608                  // Устанавливаем настройки Modbus по умолчанию на текущую сессию.
    609                  CPss21::ModbusDefaultInit();
   \   00000076   ....               RCALL   ??ModbusDefaultInit
    610                  m_xBuzzerNotifyerControl.AlarmSet(BEEP_SIGNAL);
   \   00000078   E027               LDI     R18, 7
   \   0000007A   ....               RCALL   ??Subroutine97_0
    611              }
    612          }
   \                     ??CrossCallReturnLabel_228:
   \   0000007C                      REQUIRE ?Subroutine80
   \   0000007C                      ;               // Fall through to label ?Subroutine80

   \                                 In  segment CODE, align 2, keep-with-next
   \                     ?Subroutine80:
   \   00000000   9189               LD      R24, Y+
   \   00000002   9508               RET

   \                                 In  segment CODE, align 2, keep-with-next
   \                     ?Subroutine46:
   \   00000000   AB06               STD     Z+54, R16
   \   00000002   ....               RCALL   ??SendToDevicesReset
   \   00000004                      REQUIRE ?Subroutine81
   \   00000004                      ;               // Fall through to label ?Subroutine81

   \                                 In  segment CODE, align 2, keep-with-next
   \                     ?Subroutine81:
   \   00000000   E027               LDI     R18, 7
   \   00000002   9508               RET

   \                                 In  segment CODE, align 2, keep-with-next
   \                     ?Subroutine45:
   \   00000000   AB05               STD     Z+53, R16
   \   00000002   ....               RCALL   ??SendToDevicesReceipt
   \   00000004   ....               RJMP    ?Subroutine81

   \                                 In  segment CODE, align 2, keep-with-next
   \                     ?Subroutine13:
   \   00000000   ....               LDI     R16, LOW((??m_xDeviceConfigSearch + 89))
   \   00000002   ....               LDI     R17, HIGH((??m_xDeviceConfigSearch + 89))
   \   00000004   ....               RJMP    ?Subroutine65

   \                                 In  segment CODE, align 2, keep-with-next
   \                     ?Subroutine11:
   \   00000000   ....               LDI     R16, LOW((??m_xDeviceConfigSearch + 59))
   \   00000002   ....               LDI     R17, HIGH((??m_xDeviceConfigSearch + 59))
   \   00000004                      REQUIRE ?Subroutine65
   \   00000004                      ;               // Fall through to label ?Subroutine65

   \                                 In  segment CODE, align 2, keep-with-next
   \                     ?Subroutine65:
   \   00000000   ........           JMP     ??KeyEventHappened

   \                                 In  segment CODE, align 2, keep-with-next
   \                     ?Subroutine8:
   \   00000000   ....               LDI     R16, LOW((??m_xDeviceConfigSearch + 104))
   \   00000002   ....               LDI     R17, HIGH((??m_xDeviceConfigSearch + 104))
   \   00000004   ....               RCALL   ?Subroutine65
   \                     ??CrossCallReturnLabel_88:
   \   00000006                      REQUIRE ?Subroutine82
   \   00000006                      ;               // Fall through to label ?Subroutine82

   \                                 In  segment CODE, align 2, keep-with-next
   \                     ?Subroutine82:
   \   00000000   2300               TST     R16
   \   00000002   9508               RET

   \                                 In  segment CODE, align 2, keep-with-next
   \                     ??Subroutine97_0:
   \   00000000   ....               LDI     R16, LOW((??m_xDeviceConfigSearch + 175))
   \   00000002   ....               LDI     R17, HIGH((??m_xDeviceConfigSearch + 175))
   \   00000004   ........           JMP     ??AlarmSet
    613          
    614          //-----------------------------------------------------------------------------------------------------

   \                                 In  segment CODE, align 2, keep-with-next
    615          void CPss21::ReceiptResetGlobalFlagsClear(void)
   \                     ??ReceiptResetGlobalFlagsClear:
    616          {
    617              SetPanelReceipt(0);
   \   00000000   ....               RCALL   ?Subroutine30
   \                     ??CrossCallReturnLabel_24:
   \   00000002   E000               LDI     R16, 0
   \   00000004   A707               STD     Z+47, R16
    618              SetExternalReceipt(0);
   \   00000006   AB01               STD     Z+49, R16
    619              SetModbusReceipt(0);
   \   00000008   AB03               STD     Z+51, R16
    620              SetPanelReset(0);
   \   0000000A   AB00               STD     Z+48, R16
    621              SetExternalReset(0);
   \   0000000C   AB02               STD     Z+50, R16
    622              SetModbusReset(0);
   \   0000000E   AB04               STD     Z+52, R16
    623          }
   \   00000010   9508               RET
    624          
    625          //-----------------------------------------------------------------------------------------------------

   \                                 In  segment CODE, align 2, keep-with-next
    626          uint8_t CPss21::ModulesInteraction(uint8_t uiModuleIndex)
   \                     ??ModulesInteraction:
    627          {
   \   00000000   93BA               ST      -Y, R27
   \   00000002   93AA               ST      -Y, R26
    628              if (uiModuleIndex < (m_xDeviceConfigSearch.uiModulesQuantity))
   \   00000004   ....               RCALL   ?Subroutine34
   \                     ??CrossCallReturnLabel_41:
   \   00000006   F470               BRCC    ??ModulesInteraction_1
   \   00000008   E012               LDI     R17, 2
   \   0000000A   9F01               MUL     R16, R17
   \   0000000C   ....               RCALL   ?Subroutine30
   \                     ??CrossCallReturnLabel_25:
   \   0000000E   0DE0               ADD     R30, R0
   \   00000010   1DF1               ADC     R31, R1
   \   00000012   A5A0               LDD     R26, Z+40
   \   00000014   A5B1               LDD     R27, Z+41
   \   00000016   018D               MOVW    R17:R16, R27:R26
   \   00000018   9617               ADIW    R27:R26, 7
   \   0000001A   91ED               LD      R30, X+
   \   0000001C   91FC               LD      R31, X
   \   0000001E   ....               RCALL   ?Subroutine39
    629              {
    630                  m_apxDrivers[uiModuleIndex] -> DataExchange();
    631                  return 0;
   \                     ??CrossCallReturnLabel_50:
   \   00000020   E000               LDI     R16, 0
   \   00000022   C001               RJMP    ??ModulesInteraction_2
    632              }
    633              else
    634              {
    635                  return 1;
   \                     ??ModulesInteraction_1:
   \   00000024   E001               LDI     R16, 1
    636              }
   \                     ??ModulesInteraction_2:
   \   00000026   ....               RJMP    ?Subroutine73
    637          };

   \                                 In  segment CODE, align 2, keep-with-next
   \                     ?Subroutine39:
   \   00000000   9632               ADIW    R31:R30, 2
   \   00000002   9125               LPM     R18, Z+
   \   00000004   91F4               LPM     R31, Z
   \   00000006   2FE2               MOV     R30, R18
   \   00000008   9409               IJMP
    638          
    639          //-----------------------------------------------------------------------------------------------------

   \                                 In  segment CODE, align 2, keep-with-next
    640          void CPss21::ConfigurationInit(void)
   \                     ??ConfigurationInit:
    641          {
   \   00000000   ....               RCALL   ?Subroutine40
    642              uint8_t* puiTempBuffer = m_auiIntermediateBuff;
   \                     ??CrossCallReturnLabel_52:
   \   00000002   ....               LDI     R26, LOW(??m_auiIntermediateBuff)
   \   00000004   ....               LDI     R27, (??m_auiIntermediateBuff) >> 8
    643              uint8_t* puiAlarmDfaInit = m_auiReceiveMessageBuff;
    644          
    645              memset(puiAlarmDfaInit, 0, DISCRETE_SIGNALS_NUMBER);
   \   00000006   E640               LDI     R20, 96
   \   00000008   ....               RCALL   ?Subroutine4
   \                     ??CrossCallReturnLabel_195:
   \   0000000A   ....               LDI     R16, LOW(??m_auiReceiveMessageBuff)
   \   0000000C   ....               LDI     R17, (??m_auiReceiveMessageBuff) >> 8
   \   0000000E   ....               RCALL   ?Subroutine32
    646          
    647              // Установим конфигурацию устройства.
    648              // Считаем во временный буфер блок БД - "Конфигурация устройства".
    649              CDataBase::Read(puiTempBuffer, TDataBase::DEV_CONFIG);
   \                     ??CrossCallReturnLabel_32:
   \   00000010   E020               LDI     R18, 0
   \   00000012   ....               RCALL   ?Subroutine36
    650              memcpy(reinterpret_cast<uint8_t*>(&m_xDeviceConfiguration),
    651                     puiTempBuffer,
    652                     sizeof(struct TDevConfig));
   \                     ??CrossCallReturnLabel_166:
   \   00000014   E144               LDI     R20, 20
   \   00000016   E050               LDI     R21, 0
   \   00000018   019D               MOVW    R19:R18, R27:R26
   \   0000001A   ....               LDI     R16, LOW((??m_xDeviceConfigSearch + 9))
   \   0000001C   ....               LDI     R17, HIGH((??m_xDeviceConfigSearch + 9))
   \   0000001E   ....               RCALL   ?Subroutine48
    653          
    654              // Установим параметры интерфейса ModBus.
    655              // Считаем во временный буфер блок БД - "Параметры интерфейса ModBus".
    656              CDataBase::Read(puiTempBuffer, TDataBase::MODBUS_SET);
   \                     ??CrossCallReturnLabel_61:
   \   00000020   E021               LDI     R18, 1
   \   00000022   ....               RCALL   ?Subroutine36
    657              memcpy(reinterpret_cast<uint8_t*>(&m_xModbusSettings),
    658                     puiTempBuffer,
    659                     sizeof(struct TMBusSetting));
   \                     ??CrossCallReturnLabel_165:
   \   00000024   E047               LDI     R20, 7
   \   00000026   E050               LDI     R21, 0
   \   00000028   019D               MOVW    R19:R18, R27:R26
   \   0000002A   ....               LDI     R16, LOW(??m_xModbusSettings)
   \   0000002C   ....               LDI     R17, (??m_xModbusSettings) >> 8
   \   0000002E   ....               RCALL   ?Subroutine48
    660          
    661              // Считаем во временный буфер блок БД - "БД модулей вывода".
    662              CDataBase::Read(puiTempBuffer, TDataBase::OUT_BASE);
   \                     ??CrossCallReturnLabel_60:
   \   00000030   E025               LDI     R18, 5
   \   00000032   ....               RCALL   ?Subroutine36
    663              memcpy(reinterpret_cast<uint8_t*>(&m_xDiscreteOutputDataBase),
    664                     puiTempBuffer,
    665                     sizeof(struct TOutputData));
   \                     ??CrossCallReturnLabel_164:
   \   00000034   E148               LDI     R20, 24
   \   00000036   E050               LDI     R21, 0
   \   00000038   019D               MOVW    R19:R18, R27:R26
   \   0000003A   ....               LDI     R16, LOW((??m_xModbusSettings + 63))
   \   0000003C   ....               LDI     R17, HIGH((??m_xModbusSettings + 63))
   \   0000003E   ....               RCALL   ?Subroutine48
    666          
    667              // Установим уровень дискретного сигнала интерпретируемый как активный.
    668              // Считаем во временный буфер блок БД - "Уровень дискретного сигнала интерпретируемый как активный".
    669              CDataBase::Read(puiTempBuffer, TDataBase::ACTIVITY_LEVEL);
   \                     ??CrossCallReturnLabel_59:
   \   00000040   E022               LDI     R18, 2
   \   00000042   ....               RCALL   ?Subroutine36
    670              for (uint8_t i = 0;
   \                     ??CrossCallReturnLabel_163:
   \   00000044   E020               LDI     R18, 0
    671                      i < DISCRETE_INPUTS_NUMBER;
    672                  )
    673          //    for (uint8_t i = 0;
    674          //            i < DISCRETE_SIGNALS_NUMBER;
    675          //        )
    676              {
    677                  uint8_t uiData = *puiTempBuffer;
   \                     ??ConfigurationInit_1:
   \   00000046   916D               LD      R22, X+
    678                  for (uint8_t j = 0;
   \   00000048   E050               LDI     R21, 0
   \   0000004A   E038               LDI     R19, 8
    679                          j < 8;
    680                          j++)
    681                  {
    682                      // Установим уровень текущего дискретного сигнала интерпретируемый как активный.
    683                      if (((uiData >> j) & 0x01))
   \                     ??ConfigurationInit_2:
   \   0000004C   E010               LDI     R17, 0
   \   0000004E   ....               LDI     R30, LOW(??m_auiReceiveMessageBuff)
   \   00000050   ....               LDI     R31, (??m_auiReceiveMessageBuff) >> 8
   \   00000052   0FE2               ADD     R30, R18
   \   00000054   1FF1               ADC     R31, R17
   \   00000056   2F06               MOV     R16, R22
   \   00000058   2F45               MOV     R20, R21
   \   0000005A   ........           CALL    ?SS_SHR_L02
   \   0000005E   7001               ANDI    R16, 0x01
   \   00000060   F011               BREQ    ??ConfigurationInit_3
    684                      {
    685                          puiAlarmDfaInit[i] = 0x80;
   \   00000062   E800               LDI     R16, 128
   \   00000064   C001               RJMP    ??ConfigurationInit_4
    686                      }
    687                      else
    688                      {
    689                          puiAlarmDfaInit[i] = 0;
   \                     ??ConfigurationInit_3:
   \   00000066   E000               LDI     R16, 0
   \                     ??ConfigurationInit_4:
   \   00000068   8300               ST      Z, R16
    690                      }
    691                      i++;
   \   0000006A   9523               INC     R18
    692                  }
   \   0000006C   9553               INC     R21
   \   0000006E   953A               DEC     R19
   \   00000070   F769               BRNE    ??ConfigurationInit_2
    693                  puiTempBuffer++;
    694              }
   \   00000072   3320               CPI     R18, 48
   \   00000074   F340               BRCS    ??ConfigurationInit_1
    695          
    696              puiTempBuffer = m_auiIntermediateBuff;
    697              // Привяжем окна сигнализации к дискретным сигналам.
    698              // Считаем во временный буфер блок БД - "Индекс окна сигнализации которое привязано к текущему дискретному сигналу".
    699              CDataBase::Read(puiTempBuffer, TDataBase::ALARM_WINDOW_INDEX);
   \   00000076   ....               RCALL   ?Subroutine44
    700              for (uint8_t i = 0;
   \                     ??CrossCallReturnLabel_167:
   \   00000078   E020               LDI     R18, 0
   \   0000007A   E600               LDI     R16, 96
    701                      i < DISCRETE_SIGNALS_NUMBER;
    702                      i++)
    703              {
    704                  // Привяжем окно сигнализации к текущему дискретному сигналу.
    705                  puiAlarmDfaInit[i] |= (puiTempBuffer[i] & ~(0x80));
   \                     ??ConfigurationInit_5:
   \   0000007C   2FE2               MOV     R30, R18
   \   0000007E   E0F0               LDI     R31, 0
   \   00000080   ....               SUBI    R30, LOW((-(??m_auiIntermediateBuff) & 0xFFFF))
   \   00000082   ....               SBCI    R31, (-(??m_auiIntermediateBuff) & 0xFFFF) >> 8
   \   00000084   8110               LD      R17, Z
   \   00000086   771F               ANDI    R17, 0x7F
   \   00000088   2FE2               MOV     R30, R18
   \   0000008A   E0F0               LDI     R31, 0
   \   0000008C   ....               SUBI    R30, LOW((-(??m_auiReceiveMessageBuff) & 0xFFFF))
   \   0000008E   ....               SBCI    R31, (-(??m_auiReceiveMessageBuff) & 0xFFFF) >> 8
   \   00000090   8130               LD      R19, Z
   \   00000092   2B31               OR      R19, R17
   \   00000094   8330               ST      Z, R19
    706              }
   \   00000096   9523               INC     R18
   \   00000098   950A               DEC     R16
   \   0000009A   F781               BRNE    ??ConfigurationInit_5
    707          
    708              // Считаем во временный буфер блок БД - "Тип сигнализации привязанный к окну".
    709              CDataBase::Read(puiTempBuffer, TDataBase::ALARM_TYPE);
   \   0000009C   E024               LDI     R18, 4
   \   0000009E   ....               RCALL   ?Subroutine49
   \                     ??CrossCallReturnLabel_62:
   \   000000A0   E600               LDI     R16, 96
   \   000000A2   E050               LDI     R21, 0
    710              for (uint8_t i = 0;
    711                      i < DISCRETE_SIGNALS_NUMBER;
    712                      i++)
    713              {
    714                  CPss21::m_aucRtuHoldingRegistersArray[i] = ((static_cast<uint16_t>(puiTempBuffer[i] & ~(0x80)) << 8) | i);
   \                     ??ConfigurationInit_6:
   \   000000A4   01FA               MOVW    R31:R30, R21:R20
   \   000000A6   ....               SUBI    R30, LOW((-(??m_auiIntermediateBuff) & 0xFFFF))
   \   000000A8   ....               SBCI    R31, (-(??m_auiIntermediateBuff) & 0xFFFF) >> 8
   \   000000AA   8120               LD      R18, Z
   \   000000AC   772F               ANDI    R18, 0x7F
   \   000000AE   E012               LDI     R17, 2
   \   000000B0   9F41               MUL     R20, R17
   \   000000B2   01F0               MOVW    R31:R30, R1:R0
   \   000000B4   ....               SUBI    R30, LOW((-(??m_xModbusSettings) & 0xFFFF))
   \   000000B6   ....               SBCI    R31, (-(??m_xModbusSettings) & 0xFFFF) >> 8
   \   000000B8   8347               STD     Z+7, R20
   \   000000BA   8720               STD     Z+8, R18
    715                  uint8_t uiWindowIndex = (puiAlarmDfaInit[i] & ~(0x80));
   \   000000BC   ....               LDI     R30, LOW(??m_auiReceiveMessageBuff)
   \   000000BE   ....               LDI     R31, (??m_auiReceiveMessageBuff) >> 8
   \   000000C0   0FE4               ADD     R30, R20
   \   000000C2   1FF5               ADC     R31, R21
   \   000000C4   8110               LD      R17, Z
   \   000000C6   2F21               MOV     R18, R17
   \   000000C8   772F               ANDI    R18, 0x7F
    716                  if (uiWindowIndex < ALARM_WINDOWS_NUMBER)
   \   000000CA   3320               CPI     R18, 48
   \   000000CC   7810               ANDI    R17, 0x80
   \   000000CE   F430               BRCC    ??ConfigurationInit_7
    717                  {
    718                      // Очистим индекс привязанного окна, больше не нужен.
    719                      // Оставим уровень дискретного сигнала интерпретируемый как активный.
    720                      puiAlarmDfaInit[i] &= 0x80;
    721                      // Установим тип сигнализации по привязанному окну.
    722                      puiAlarmDfaInit[i] |= puiTempBuffer[uiWindowIndex];
   \   000000D0   E0B0               LDI     R27, 0
   \   000000D2   ....               SUBI    R18, LOW((-(??m_auiIntermediateBuff) & 0xFFFF))
   \   000000D4   2FA2               MOV     R26, R18
   \   000000D6   ....               SBCI    R27, (-(??m_auiIntermediateBuff) & 0xFFFF) >> 8
   \   000000D8   912C               LD      R18, X
   \   000000DA   2B12               OR      R17, R18
    723                  }
    724                  else
    725                  {
    726                      // Очистим индекс привязанного окна, больше не нужен.
    727                      // Оставим уровень дискретного сигнала интерпретируемый как активный.
    728                      puiAlarmDfaInit[i] &= 0x80;
   \                     ??ConfigurationInit_7:
   \   000000DC   8310               ST      Z, R17
    729                  }
    730              }
   \   000000DE   9543               INC     R20
   \   000000E0   950A               DEC     R16
   \   000000E2   F701               BRNE    ??ConfigurationInit_6
    731          
    732              for (uint8_t i = 0;
   \   000000E4   E080               LDI     R24, 0
   \   000000E6   E690               LDI     R25, 96
    733                      i < DISCRETE_SIGNALS_NUMBER;
    734                      i++)
    735              {
    736                  // Какой тип сигнализации связан с дискретным сигналом?
    737                  switch (puiAlarmDfaInit[i] & 0x03)
   \                     ??ConfigurationInit_8:
   \   000000E8   E002               LDI     R16, 2
   \   000000EA   9F80               MUL     R24, R16
   \   000000EC   ....               LDI     R26, LOW(??m_apxAlarmDfa)
   \   000000EE   ....               LDI     R27, (??m_apxAlarmDfa) >> 8
   \   000000F0   0DA0               ADD     R26, R0
   \   000000F2   1DB1               ADC     R27, R1
   \   000000F4   E010               LDI     R17, 0
   \   000000F6   ....               LDI     R30, LOW(??m_auiReceiveMessageBuff)
   \   000000F8   ....               LDI     R31, (??m_auiReceiveMessageBuff) >> 8
   \   000000FA   0FE8               ADD     R30, R24
   \   000000FC   1FF1               ADC     R31, R17
   \   000000FE   8100               LD      R16, Z
   \   00000100   7003               ANDI    R16, 0x03
   \   00000102   F111               BREQ    ??ConfigurationInit_9
   \   00000104   950A               DEC     R16
   \   00000106   F029               BREQ    ??ConfigurationInit_10
   \   00000108   950A               DEC     R16
   \   0000010A   F061               BREQ    ??ConfigurationInit_11
   \   0000010C   950A               DEC     R16
   \   0000010E   F099               BREQ    ??ConfigurationInit_12
   \   00000110   C01B               RJMP    ??ConfigurationInit_9
    738                  {
    739                  case NORMAL:
    740                      m_apxAlarmDfa[i] = new CNormalAlarmDfa;
    741                      break;
    742          
    743                  case INDICATION:
    744                      // Уровень дискретного сигнала интерпретируемый как активный - высокий?
    745                      if (puiAlarmDfaInit[i] & 0x80)
   \                     ??ConfigurationInit_10:
   \   00000112   8100               LD      R16, Z
   \   00000114   FF07               SBRS    R16, 7
   \   00000116   C003               RJMP    ??ConfigurationInit_13
    746                      {
    747                          m_apxAlarmDfa[i] = new CIndicationAlarmHighLevelDfa;
   \   00000118   ........           CALL    `??new CIndicationAlarmHighLevelDfa`
   \   0000011C   C017               RJMP    ??ConfigurationInit_14
    748                      }
    749                      else
    750                      {
    751                          m_apxAlarmDfa[i] = new CIndicationAlarmLowLevelDfa;
   \                     ??ConfigurationInit_13:
   \   0000011E   ........           CALL    `??new CIndicationAlarmLowLevelDfa`
   \   00000122   C014               RJMP    ??ConfigurationInit_14
    752                      }
    753                      break;
    754          
    755                  case PREVENTIVE:
    756                      // Уровень дискретного сигнала интерпретируемый как активный - высокий?
    757                      if (puiAlarmDfaInit[i] & 0x80)
   \                     ??ConfigurationInit_11:
   \   00000124   8100               LD      R16, Z
   \   00000126   FF07               SBRS    R16, 7
   \   00000128   C003               RJMP    ??ConfigurationInit_15
    758                      {
    759                          m_apxAlarmDfa[i] = new CPreventiveAlarmHighLevelDfa;
   \   0000012A   ........           CALL    `??new CPreventiveAlarmHighLevelDfa`
   \   0000012E   C00E               RJMP    ??ConfigurationInit_14
    760                      }
    761                      else
    762                      {
    763                          m_apxAlarmDfa[i] = new CPreventiveAlarmLowLevelDfa;
   \                     ??ConfigurationInit_15:
   \   00000130   ........           CALL    `??new CPreventiveAlarmLowLevelDfa`
   \   00000134   C00B               RJMP    ??ConfigurationInit_14
    764                      }
    765                      break;
    766          
    767                  case EMERGENCY:
    768                      // Уровень дискретного сигнала интерпретируемый как активный - высокий?
    769                      if (puiAlarmDfaInit[i] & 0x80)
   \                     ??ConfigurationInit_12:
   \   00000136   8100               LD      R16, Z
   \   00000138   FF07               SBRS    R16, 7
   \   0000013A   C003               RJMP    ??ConfigurationInit_16
    770                      {
    771                          m_apxAlarmDfa[i] = new CEmergencyAlarmHighLevelDfa;
   \   0000013C   ........           CALL    `??new CEmergencyAlarmHighLevelDfa`
   \   00000140   C005               RJMP    ??ConfigurationInit_14
    772                      }
    773                      else
    774                      {
    775                          m_apxAlarmDfa[i] = new CEmergencyAlarmLowLevelDfa;
   \                     ??ConfigurationInit_16:
   \   00000142   ........           CALL    `??new CEmergencyAlarmLowLevelDfa`
   \   00000146   C002               RJMP    ??ConfigurationInit_14
    776                      }
    777                      break;
    778          
    779                  case IND_PREVENTIVE:
    780                      m_apxAlarmDfa[i] = new CNormalAlarmDfa;
    781                      break;
    782          
    783                  case IND_EMERGENCY:
    784                      m_apxAlarmDfa[i] = new CNormalAlarmDfa;
    785                      break;
    786          
    787                  default:
    788                      m_apxAlarmDfa[i] = new CNormalAlarmDfa;
   \                     ??ConfigurationInit_9:
   \   00000148   ........           CALL    `??new CNormalAlarmDfa`
   \                     ??ConfigurationInit_14:
   \   0000014C   930D               ST      X+, R16
   \   0000014E   931C               ST      X, R17
    789                      break;
    790                  }
    791              }
   \   00000150   9583               INC     R24
   \   00000152   959A               DEC     R25
   \   00000154   F649               BRNE    ??ConfigurationInit_8
    792          
    793              // Привяжем окна сигнализации к созданным объектам сигнализаций дискретных сигналов.
    794              // Считаем во временный буфер блок БД - "Индекс окна сигнализации которое привязано к текущему дискретному сигналу".
    795              CDataBase::Read(puiTempBuffer, TDataBase::ALARM_WINDOW_INDEX);
   \   00000156   ....               RCALL   ?Subroutine44
    796              for (uint8_t i = 0;
   \                     ??CrossCallReturnLabel_168:
   \   00000158   E040               LDI     R20, 0
   \   0000015A   E620               LDI     R18, 96
    797                      i < DISCRETE_SIGNALS_NUMBER;
    798                      i++)
    799              {
    800                  // Привяжем окно сигнализации к текущему дискретному сигналу.
    801                  if (puiTempBuffer[i] < ALARM_WINDOWS_NUMBER)
   \                     ??ConfigurationInit_17:
   \   0000015C   ....               RCALL   ?Subroutine26
   \                     ??CrossCallReturnLabel_159:
   \   0000015E   8111               LDD     R17, Z+1
   \   00000160   ....               RCALL   ?Subroutine38
   \                     ??CrossCallReturnLabel_47:
   \   00000162   3330               CPI     R19, 48
   \   00000164   01F8               MOVW    R31:R30, R17:R16
   \   00000166   F410               BRCC    ??ConfigurationInit_18
    802                  {
    803                      m_apxAlarmDfa[i] ->
    804                      SetAlarmWindowIndex(puiTempBuffer[i]);
   \   00000168   8333               STD     Z+3, R19
    805                  }
   \   0000016A   C002               RJMP    ??ConfigurationInit_19
    806                  else
    807                  {
    808                      m_apxAlarmDfa[i] ->
    809                      SetAlarmWindowIndex(0);
   \                     ??ConfigurationInit_18:
   \   0000016C   E000               LDI     R16, 0
   \   0000016E   8303               STD     Z+3, R16
    810                  }
    811              }
   \                     ??ConfigurationInit_19:
   \   00000170   9543               INC     R20
   \   00000172   952A               DEC     R18
   \   00000174   F799               BRNE    ??ConfigurationInit_17
    812          
    813              // Считаем во временный буфер блок БД - "Выходные реле, сопоставленные физическим входам".
    814              CDataBase::Read(puiTempBuffer, TDataBase::RELAY);
   \   00000176   E026               LDI     R18, 6
   \   00000178   ....               RCALL   ?Subroutine49
    815              // Получим связанные выходы на МР.
    816              for (uint8_t i = 0;
   \                     ??CrossCallReturnLabel_63:
   \   0000017A   E620               LDI     R18, 96
    817                      i < DISCRETE_SIGNALS_NUMBER;
    818                      i++)
    819              {
    820                  *(m_apxAlarmDfa[i] -> GetLinkedDiscreteOutputsPointer()) = puiTempBuffer[i];
   \                     ??ConfigurationInit_20:
   \   0000017C   ....               RCALL   ?Subroutine38
   \                     ??CrossCallReturnLabel_48:
   \   0000017E   ....               RCALL   ?Subroutine26
   \                     ??CrossCallReturnLabel_160:
   \   00000180   81F1               LDD     R31, Z+1
   \   00000182   2FE0               MOV     R30, R16
   \   00000184   8334               STD     Z+4, R19
   \   00000186   9543               INC     R20
   \   00000188   952A               DEC     R18
   \   0000018A   F7C1               BRNE    ??ConfigurationInit_20
    821          //        m_apxAlarmDfa[i] -> SetLinkedDiscreteOutputs(puiTempBuffer[i]);
    822              };
    823          
    824              // Получим индексы источников состояния дискретных сигналов - дискретные входы модулей.
    825              for (uint8_t i = 0;
   \   0000018C   E010               LDI     R17, 0
   \   0000018E   E300               LDI     R16, 48
   \   00000190   E022               LDI     R18, 2
    826                      i < DISCRETE_INPUTS_NUMBER;
    827                      i++)
    828              {
    829                  m_apxAlarmDfa[i] -> SetDiscreteStateIndex(i);
   \                     ??ConfigurationInit_21:
   \   00000192   9F12               MUL     R17, R18
   \   00000194   ....               RCALL   ?Subroutine63
   \                     ??CrossCallReturnLabel_85:
   \   00000196   81A0               LD      R26, Z
   \   00000198   81B1               LDD     R27, Z+1
   \   0000019A   9615               ADIW    R27:R26, 5
   \   0000019C   931C               ST      X, R17
    830              };
   \   0000019E   9513               INC     R17
   \   000001A0   950A               DEC     R16
   \   000001A2   F7B9               BRNE    ??ConfigurationInit_21
    831              // Получим индексы источников состояния дискретных сигналов - состояние ячеек(coils Modbus).
    832              for (uint8_t i = 0;
   \   000001A4   E010               LDI     R17, 0
   \   000001A6   E300               LDI     R16, 48
   \   000001A8   E032               LDI     R19, 2
    833                      i < ALARM_WINDOWS_NUMBER;
    834                      i++)
    835              {
    836                  m_apxAlarmDfa[DISCRETE_INPUTS_NUMBER + i] -> SetDiscreteStateIndex(DISCRETE_INPUTS_NUMBER + i);;
   \                     ??ConfigurationInit_22:
   \   000001AA   2F21               MOV     R18, R17
   \   000001AC   5D20               SUBI    R18, 208
   \   000001AE   9F13               MUL     R17, R19
   \   000001B0   01F0               MOVW    R31:R30, R1:R0
   \   000001B2   ....               SUBI    R30, LOW((-(??m_apxAlarmDfa + 96) & 0xFFFF))
   \   000001B4   ....               SBCI    R31, HIGH((-(??m_apxAlarmDfa + 96) & 0xFFFF))
   \   000001B6   81A0               LD      R26, Z
   \   000001B8   81B1               LDD     R27, Z+1
   \   000001BA   9615               ADIW    R27:R26, 5
   \   000001BC   932C               ST      X, R18
    837              };
   \   000001BE   9513               INC     R17
   \   000001C0   950A               DEC     R16
   \   000001C2   F799               BRNE    ??ConfigurationInit_22
    838          
    839              // Восстановим  состояние устройства.
    840              // Считаем во временный буфер блок БД - "Состояние устройства хранимое в EEPROM".
    841              CDataBase::Read(puiTempBuffer, TDataBase::DEVICE_STATE);
   \   000001C4   E02A               LDI     R18, 10
   \   000001C6   ....               RCALL   ?Subroutine66
    842              memcpy(reinterpret_cast<uint8_t*>(&m_xDeviceState),
    843                     puiTempBuffer,
    844                     sizeof(struct TDeviceState));
   \                     ??CrossCallReturnLabel_170:
   \   000001C8   E048               LDI     R20, 8
   \   000001CA   E050               LDI     R21, 0
   \   000001CC   ....               LDI     R18, LOW(??m_auiIntermediateBuff)
   \   000001CE   ....               LDI     R19, (??m_auiIntermediateBuff) >> 8
   \   000001D0   ....               LDI     R16, LOW((??m_xModbusSettings + 39))
   \   000001D2   ....               LDI     R17, HIGH((??m_xModbusSettings + 39))
   \   000001D4   ....               RCALL   ?Subroutine48
    845          }
   \                     ??CrossCallReturnLabel_58:
   \   000001D6   ....               RJMP    ?Subroutine84

   \                                 In  segment CODE, align 2, keep-with-next
   \                     ?Subroutine49:
   \   00000000   ....               RCALL   ?Subroutine66
   \                     ??CrossCallReturnLabel_169:
   \   00000002   E040               LDI     R20, 0
   \   00000004   9508               RET

   \                                 In  segment CODE, align 2, keep-with-next
   \                     ?Subroutine48:
   \   00000000   ........           JMP     memcpy

   \                                 In  segment CODE, align 2, keep-with-next
   \                     ?Subroutine44:
   \   00000000   E023               LDI     R18, 3
   \   00000002                      REQUIRE ?Subroutine66
   \   00000002                      ;               // Fall through to label ?Subroutine66

   \                                 In  segment CODE, align 2, keep-with-next
   \                     ?Subroutine66:
   \   00000000   ....               LDI     R16, LOW(??m_auiIntermediateBuff)
   \   00000002   ....               LDI     R17, (??m_auiIntermediateBuff) >> 8
   \   00000004                      REQUIRE ?Subroutine86
   \   00000004                      ;               // Fall through to label ?Subroutine86

   \                                 In  segment CODE, align 2, keep-with-next
   \                     ?Subroutine86:
   \   00000000   ........           JMP     ??Read

   \                                 In  segment CODE, align 2, keep-with-next
   \                     ?Subroutine38:
   \   00000000   E0F0               LDI     R31, 0
   \   00000002   2FE4               MOV     R30, R20
   \   00000004   ....               SUBI    R30, LOW((-(??m_auiIntermediateBuff) & 0xFFFF))
   \   00000006   ....               SBCI    R31, (-(??m_auiIntermediateBuff) & 0xFFFF) >> 8
   \   00000008   8130               LD      R19, Z
   \   0000000A   9508               RET

   \                                 In  segment CODE, align 2, keep-with-next
   \                     ?Subroutine36:
   \   00000000   018D               MOVW    R17:R16, R27:R26
   \   00000002   ....               RJMP    ?Subroutine86

   \                                 In  segment CODE, align 2, keep-with-next
   \                     ?Subroutine26:
   \   00000000   E002               LDI     R16, 2
   \   00000002   9F40               MUL     R20, R16
   \   00000004   ....               RCALL   ?Subroutine63
   \                     ??CrossCallReturnLabel_87:
   \   00000006                      REQUIRE ?Subroutine83
   \   00000006                      ;               // Fall through to label ?Subroutine83

   \                                 In  segment CODE, align 2, keep-with-next
   \                     ?Subroutine83:
   \   00000000   8100               LD      R16, Z
   \   00000002   9508               RET

   \                                 In  segment CODE, align 2, keep-with-next
   \                     ?Subroutine63:
   \   00000000   01F0               MOVW    R31:R30, R1:R0
   \   00000002   ....               SUBI    R30, LOW((-(??m_apxAlarmDfa) & 0xFFFF))
   \   00000004   ....               SBCI    R31, (-(??m_apxAlarmDfa) & 0xFFFF) >> 8
   \   00000006   9508               RET
    846          
    847          //-----------------------------------------------------------------------------------------------------

   \                                 In  segment CODE, align 2, keep-with-next
    848          void CPss21::DiscreteOutputControlClear(void)
   \                     ??DiscreteOutputControlClear:
    849          {
   \   00000000   01AC               MOVW    R21:R20, R25:R24
    850              // Приведение буферов управления модулями дискретных выходов(реле) в исходное состояние.
    851              for (int j = 0;
    852                      j < DISCRETE_OUTPUT_MODULE_MAX_NUMBER;
    853                      j++)
    854              {
    855                  // цикл выбора реле.
    856                  for (int k = 0;
   \   00000002   ....               RCALL   ?Subroutine41
   \                     ??CrossCallReturnLabel_55:
   \   00000004   E008               LDI     R16, 8
   \   00000006   E010               LDI     R17, 0
    857                          k < MR_DISCRETE_OUTPUT_NUMBER;
    858                          k++)
    859                  {
    860                      // Сбросим флаг - новое нарушение.
    861                      m_axDiscreteOutputControl[(j * MR_DISCRETE_OUTPUT_NUMBER) + k].uiNewActivation = 0;
   \                     ??DiscreteOutputControlClear_1:
   \   00000008   019C               MOVW    R19:R18, R25:R24
   \   0000000A   0F22               LSL     R18
   \   0000000C   1F33               ROL     R19
   \   0000000E   ....               RCALL   ?Subroutine27
   \                     ??CrossCallReturnLabel_18:
   \   00000010   0FE2               ADD     R30, R18
   \   00000012   1FF3               ADC     R31, R19
   \   00000014   8B17               STD     Z+23, R17
    862                      // Сбросим флаг - требование включения реле.
    863                      m_axDiscreteOutputControl[(j * MR_DISCRETE_OUTPUT_NUMBER) + k].uiRelayActivationRequest = 0;
   \   00000016   8F10               STD     Z+24, R17
    864                  }
   \   00000018   9601               ADIW    R25:R24, 1
   \   0000001A   950A               DEC     R16
   \   0000001C   F7A9               BRNE    ??DiscreteOutputControlClear_1
    865              }
    866          }
   \   0000001E   01CA               MOVW    R25:R24, R21:R20
   \   00000020   9508               RET
    867          
    868          //-----------------------------------------------------------------------------------------------------

   \                                 In  segment CODE, align 2, keep-with-next
    869          void CPss21::DiscreteOutputsSet(uint8_t *puiLinkedDiscreteOutputs, uint8_t uiNewViolation)
   \                     ??DiscreteOutputsSet:
    870          {
   \   00000000   ....               RCALL   ?Subroutine40
   \                     ??CrossCallReturnLabel_53:
   \   00000002   01B8               MOVW    R23:R22, R17:R16
    871              // Дискретный сигнал был активен на предыдущем шаге?
    872              if (!uiNewViolation)
   \   00000004   2322               TST     R18
   \   00000006   E0A0               LDI     R26, 0
   \   00000008   E0B0               LDI     R27, 0
   \   0000000A   E031               LDI     R19, 1
   \   0000000C   F489               BRNE    ??DiscreteOutputsSet_1
    873              {
    874                  // Не новое нарушение.
    875                  // установим флаги - требования включения, для запрограммированных реле,
    876                  // в буфере выходов требований включения реле - блокировка.
    877                  // цикл выбора модуля.
    878                  for (int j = 0;
    879                          j < DISCRETE_OUTPUT_MODULE_MAX_NUMBER;
    880                          j++)
    881                  {
    882                      // цикл выбора реле.
    883                      for (int k = 0;
   \                     ??DiscreteOutputsSet_2:
   \   0000000E   ....               RCALL   ?Subroutine41
   \                     ??CrossCallReturnLabel_56:
   \   00000010   E028               LDI     R18, 8
    884                              k < MR_DISCRETE_OUTPUT_NUMBER;
    885                              k++)
    886                      {
    887                          // Текущий - (j, k) дискретный выход(реле) привязан?
    888                          if (puiLinkedDiscreteOutputs[j] & (0x01 << k))
   \                     ??DiscreteOutputsSet_3:
   \   00000012   ....               RCALL   ?Subroutine25
   \                     ??CrossCallReturnLabel_203:
   \   00000014   F031               BREQ    ??DiscreteOutputsSet_4
    889                          {
    890                              // установим флаг - требование включения реле.
    891                              m_axDiscreteOutputControl[(j * MR_DISCRETE_OUTPUT_NUMBER) + k].uiRelayActivationRequest = 1;
   \   00000016   ....               RCALL   ?Subroutine37
    892                          }
    893                      }
   \                     ??CrossCallReturnLabel_45:
   \   00000018   01F8               MOVW    R31:R30, R17:R16
   \   0000001A   ....               SUBI    R30, LOW((-(??m_xModbusSettings) & 0xFFFF))
   \   0000001C   ....               SBCI    R31, (-(??m_xModbusSettings) & 0xFFFF) >> 8
   \   0000001E   E001               LDI     R16, 1
   \   00000020   8F00               STD     Z+24, R16
   \                     ??DiscreteOutputsSet_4:
   \   00000022   9601               ADIW    R25:R24, 1
   \   00000024   952A               DEC     R18
   \   00000026   F7A9               BRNE    ??DiscreteOutputsSet_3
    894                  }
   \   00000028   9611               ADIW    R27:R26, 1
   \   0000002A   953A               DEC     R19
   \   0000002C   F089               BREQ    ??DiscreteOutputsSet_5
   \   0000002E   CFEF               RJMP    ??DiscreteOutputsSet_2
    895              }
    896              else
    897              {
    898                  // новое нарушение.
    899                  // установим флаги - новое нарушение, для запрограммированных реле
    900                  // в буфере выходов управления реле - новое нарушение.
    901                  // установим флаги - требования включения, для запрограммированных реле,
    902                  // в буфере выходов требований включения реле - блокировка.
    903                  // цикл выбора модуля.
    904                  for (int j = 0;
    905                          j < DISCRETE_OUTPUT_MODULE_MAX_NUMBER;
    906                          j++)
    907                  {
    908                      // цикл выбора реле.
    909                      for (int k = 0;
   \                     ??DiscreteOutputsSet_1:
   \   00000030   ....               RCALL   ?Subroutine41
   \                     ??CrossCallReturnLabel_57:
   \   00000032   E028               LDI     R18, 8
    910                              k < MR_DISCRETE_OUTPUT_NUMBER;
    911                              k++)
    912                      {
    913                          // Текущий - (j, k) дискретный выход(реле) привязан?
    914                          if (puiLinkedDiscreteOutputs[j] & (0x01 << k))
   \                     ??DiscreteOutputsSet_6:
   \   00000034   ....               RCALL   ?Subroutine25
   \                     ??CrossCallReturnLabel_204:
   \   00000036   F031               BREQ    ??DiscreteOutputsSet_7
    915                          {
    916                              // установим флаг - новое нарушение.
    917                              m_axDiscreteOutputControl[(j * MR_DISCRETE_OUTPUT_NUMBER) + k].uiNewActivation = 1;
   \   00000038   ....               RCALL   ?Subroutine37
   \                     ??CrossCallReturnLabel_46:
   \   0000003A   ....               RCALL   ?Subroutine27
   \                     ??CrossCallReturnLabel_19:
   \   0000003C   ....               RCALL   ?Subroutine71
   \                     ??CrossCallReturnLabel_103:
   \   0000003E   E001               LDI     R16, 1
   \   00000040   8B07               STD     Z+23, R16
    918                              // установим флаг - требование включения реле.
    919                              m_axDiscreteOutputControl[(j * MR_DISCRETE_OUTPUT_NUMBER) + k].uiRelayActivationRequest = 1;
   \   00000042   8F00               STD     Z+24, R16
    920                          }
    921                      }
   \                     ??DiscreteOutputsSet_7:
   \   00000044   9601               ADIW    R25:R24, 1
   \   00000046   952A               DEC     R18
   \   00000048   F7A9               BRNE    ??DiscreteOutputsSet_6
    922                  }
   \   0000004A   9611               ADIW    R27:R26, 1
   \   0000004C   953A               DEC     R19
   \   0000004E   F781               BRNE    ??DiscreteOutputsSet_1
    923              }
    924          }
   \                     ??DiscreteOutputsSet_5:
   \   00000050   ....               RJMP    ?Subroutine84

   \                                 In  segment CODE, align 2, keep-with-next
   \                     ?Subroutine37:
   \   00000000   E043               LDI     R20, 3
   \   00000002   018D               MOVW    R17:R16, R27:R26
   \   00000004   ....               RCALL   ?Subroutine64
   \                     ??CrossCallReturnLabel_206:
   \   00000006   0F08               ADD     R16, R24
   \   00000008   1F19               ADC     R17, R25
   \   0000000A   0F00               LSL     R16
   \   0000000C   1F11               ROL     R17
   \   0000000E   9508               RET

   \                                 In  segment CODE, align 2, keep-with-next
   \                     ?Subroutine25:
   \   00000000   01FB               MOVW    R31:R30, R23:R22
   \   00000002   0FEA               ADD     R30, R26
   \   00000004   1FFB               ADC     R31, R27
   \   00000006   8150               LD      R21, Z
   \   00000008   2F48               MOV     R20, R24
   \   0000000A                      REQUIRE ??Subroutine92_0
   \   0000000A                      ;               // Fall through to label ??Subroutine92_0
    925          
    926          //-----------------------------------------------------------------------------------------------------

   \                                 In  segment CODE, align 2, keep-with-next
    927          void CPss21::AlarmsProcessing(void)
   \                     ??AlarmsProcessing:
    928          {
   \   00000000   939A               ST      -Y, R25
   \   00000002   938A               ST      -Y, R24
    929              // Обработаем все дискретные сигналы.
    930              for (uint8_t i = 0;
   \   00000004   E090               LDI     R25, 0
   \   00000006   E680               LDI     R24, 96
    931                      i < DISCRETE_SIGNALS_NUMBER;
    932                      i++)
    933              {
    934                  m_apxAlarmDfa[i] -> Fsm();
   \                     ??AlarmsProcessing_1:
   \   00000008   E002               LDI     R16, 2
   \   0000000A   9F90               MUL     R25, R16
   \   0000000C   ....               RCALL   ?Subroutine63
    935              }
   \                     ??CrossCallReturnLabel_86:
   \   0000000E   8120               LD      R18, Z
   \   00000010   8131               LDD     R19, Z+1
   \   00000012   0189               MOVW    R17:R16, R19:R18
   \   00000014   01F9               MOVW    R31:R30, R19:R18
   \   00000016   8121               LDD     R18, Z+1
   \   00000018   81F2               LDD     R31, Z+2
   \   0000001A   2FE2               MOV     R30, R18
   \   0000001C   ....               RCALL   ?Subroutine39
   \                     ??CrossCallReturnLabel_49:
   \   0000001E   9593               INC     R25
   \   00000020   958A               DEC     R24
   \   00000022   F791               BRNE    ??AlarmsProcessing_1
    936          }
   \   00000024   9189               LD      R24, Y+
   \   00000026   9199               LD      R25, Y+
   \   00000028   9508               RET
    937          
    938          //-----------------------------------------------------------------------------------------------------

   \                                 In  segment CODE, align 2, keep-with-next
    939          uint8_t CPss21::GetDiscreteInputState(uint8_t uiIndex)
   \                     ??GetDiscreteInputState:
    940          {
    941              if (uiIndex < DISCRETE_INPUTS_NUMBER)
   \   00000000   E010               LDI     R17, 0
   \   00000002   ....               LDI     R30, LOW(??m_aucRtuDiscreteDataArray)
   \   00000004   ....               LDI     R31, (??m_aucRtuDiscreteDataArray) >> 8
   \   00000006   ....               RCALL   ?Subroutine71
   \                     ??CrossCallReturnLabel_104:
   \   00000008   3300               CPI     R16, 48
   \   0000000A   F410               BRCC    ??GetDiscreteInputState_1
    942              {
    943                  // Получим адреса источников состояния дискретных сигналов - дискретные входы модулей.
    944                  return m_aucRtuDiscreteDataArray[DISCRETE_INPUTS_BIT_ARRAY_OFFSET + uiIndex];
   \   0000000C   8900               LDD     R16, Z+16
   \   0000000E   9508               RET
    945              }
    946              else
    947              {
    948                  // Получим адреса источников состояния дискретных сигналов - состояние ячеек(coils Modbus).
    949                  return m_aucRtuDiscreteDataArray[ALARM_WINDOWS_BIT_ARRAY_OFFSET + uiIndex];
   \                     ??GetDiscreteInputState_1:
   \   00000010   5CE0               SUBI    R30, 192
   \   00000012   4FFF               SBCI    R31, 255
   \   00000014   ....               RJMP    ?Subroutine83
    950              }
    951          }
    952          
    953          //-----------------------------------------------------------------------------------------------------

   \                                 In  segment CODE, align 2, keep-with-next
    954          void CPss21::AlarmTypeSet(uint8_t uiAlarmType)
   \                     ??AlarmTypeSet:
    955          {
   \   00000000   938A               ST      -Y, R24
   \   00000002   2F80               MOV     R24, R16
    956              m_xPreventiveAlarmWindowNotifyerControl.AlarmSet(uiAlarmType);
   \   00000004   2F20               MOV     R18, R16
   \   00000006   ....               RCALL   ?Subroutine58
    957              m_xEmergencyAlarmWindowNotifyerControl.AlarmSet(uiAlarmType);
   \                     ??CrossCallReturnLabel_76:
   \   00000008   2F28               MOV     R18, R24
   \   0000000A   ....               RCALL   ?Subroutine59
    958              m_xStatusLedNotifyerControl.AlarmSet(uiAlarmType);
   \                     ??CrossCallReturnLabel_78:
   \   0000000C   2F28               MOV     R18, R24
   \   0000000E   ....               RCALL   ?Subroutine60
    959              m_xBuzzerNotifyerControl.AlarmSet(uiAlarmType);
   \                     ??CrossCallReturnLabel_80:
   \   00000010   2F28               MOV     R18, R24
   \   00000012   ....               RCALL   ??Subroutine97_0
    960          }
   \                     ??CrossCallReturnLabel_227:
   \   00000014   ....               RJMP    ?Subroutine80

   \                                 In  segment CODE, align 2, keep-with-next
   \                     ?Subroutine60:
   \   00000000   ....               LDI     R16, LOW((??m_xDeviceConfigSearch + 163))
   \   00000002   ....               LDI     R17, HIGH((??m_xDeviceConfigSearch + 163))
   \   00000004   ........           JMP     ??AlarmSet_3

   \                                 In  segment CODE, align 2, keep-with-next
   \                     ?Subroutine59:
   \   00000000   ....               LDI     R16, LOW((??m_xDeviceConfigSearch + 151))
   \   00000002   ....               LDI     R17, HIGH((??m_xDeviceConfigSearch + 151))
   \   00000004   ........           JMP     ??AlarmSet_2

   \                                 In  segment CODE, align 2, keep-with-next
   \                     ?Subroutine58:
   \   00000000   ....               LDI     R16, LOW((??m_xDeviceConfigSearch + 139))
   \   00000002   ....               LDI     R17, HIGH((??m_xDeviceConfigSearch + 139))
   \   00000004   ........           JMP     ??AlarmSet_1
    961          
    962          //-----------------------------------------------------------------------------------------------------

   \                                 In  segment CODE, align 2, keep-with-next
    963          void CPss21::AlarmTypeChange(void)
   \                     ??AlarmTypeChange:
    964          {
    965              if (m_uiCommonAlarmType != m_uiCommonAlarmTypePrevious)
   \   00000000   ....               RCALL   ?Subroutine30
   \                     ??CrossCallReturnLabel_26:
   \   00000002   AD01               LDD     R16, Z+57
   \   00000004   AD12               LDD     R17, Z+58
   \   00000006   1701               CP      R16, R17
   \   00000008   F011               BREQ    ??CrossCallReturnLabel_210
    966              {
    967                  m_uiCommonAlarmTypePrevious = m_uiCommonAlarmType;
   \   0000000A   AF02               STD     Z+58, R16
    968                  AlarmTypeSet(m_uiCommonAlarmType);
   \   0000000C   ....               RCALL   ??Subroutine93_0
    969              }
    970          }
   \                     ??CrossCallReturnLabel_210:
   \   0000000E   9508               RET

   \                                 In  segment CODE, align 2, keep-with-next
   \                     ??Subroutine93_0:
   \   00000000   ....               RJMP    ??AlarmTypeSet
    971          
    972          //-----------------------------------------------------------------------------------------------------

   \                                 In  segment CODE, align 2, keep-with-next
    973          void CPss21::AlarmTypeReceipt(void)
   \                     ??AlarmTypeReceipt:
    974          {
    975              m_uiCommonAlarmType = INDICATION;
   \   00000000   E001               LDI     R16, 1
   \   00000002                      REQUIRE ?Subroutine87
   \   00000002                      ;               // Fall through to label ?Subroutine87
    976              m_uiCommonAlarmTypePrevious = INDICATION;
    977              AlarmTypeSet(INDICATION);
    978          }

   \                                 In  segment CODE, align 2, keep-with-next
   \                     ?Subroutine87:
   \   00000000   ....               RCALL   ?Subroutine51
   \                     ??CrossCallReturnLabel_171:
   \   00000002                      REQUIRE ??Subroutine93_0
   \   00000002                      ;               // Fall through to label ??Subroutine93_0

   \                                 In  segment CODE, align 2, keep-with-next
   \                     ?Subroutine51:
   \   00000000   9300....           STS     (??m_xDeviceConfigSearch + 57), R16
   \   00000004   9300....           STS     (??m_xDeviceConfigSearch + 58), R16
   \   00000008   9508               RET
    979          
    980          //-----------------------------------------------------------------------------------------------------

   \                                 In  segment CODE, align 2, keep-with-next
    981          void CPss21::AlarmTypeReset(void)
   \                     ??AlarmTypeReset:
    982          {
    983              m_uiCommonAlarmType = NORMAL;
   \   00000000   E000               LDI     R16, 0
   \   00000002   ....               RJMP    ?Subroutine87
    984              m_uiCommonAlarmTypePrevious = NORMAL;
    985              AlarmTypeSet(NORMAL);
    986          }
    987          
    988          //-----------------------------------------------------------------------------------------------------

   \                                 In  segment CODE, align 2, keep-with-next
    989          void CPss21::NotifyersControlProcessing(void)
   \                     ??NotifyersControlProcessing:
    990          {
    991              m_xPreventiveAlarmWindowNotifyerControl.Fsm();
   \   00000000   ....               LDI     R16, LOW((??m_xDeviceConfigSearch + 139))
   \   00000002   ....               LDI     R17, HIGH((??m_xDeviceConfigSearch + 139))
   \   00000004   ....               RCALL   ?Subroutine88
    992              m_xEmergencyAlarmWindowNotifyerControl.Fsm();
   \                     ??CrossCallReturnLabel_174:
   \   00000006   ....               LDI     R16, LOW((??m_xDeviceConfigSearch + 151))
   \   00000008   ....               LDI     R17, HIGH((??m_xDeviceConfigSearch + 151))
   \   0000000A   ....               RCALL   ?Subroutine88
    993              m_xStatusLedNotifyerControl.Fsm();
   \                     ??CrossCallReturnLabel_173:
   \   0000000C   ....               LDI     R16, LOW((??m_xDeviceConfigSearch + 163))
   \   0000000E   ....               LDI     R17, HIGH((??m_xDeviceConfigSearch + 163))
   \   00000010   ....               RCALL   ?Subroutine88
    994              m_xBuzzerNotifyerControl.Fsm();
   \                     ??CrossCallReturnLabel_172:
   \   00000012   ....               LDI     R16, LOW((??m_xDeviceConfigSearch + 175))
   \   00000014   ....               LDI     R17, HIGH((??m_xDeviceConfigSearch + 175))
   \   00000016                      REQUIRE ?Subroutine88
   \   00000016                      ;               // Fall through to label ?Subroutine88
    995          }

   \                                 In  segment CODE, align 2, keep-with-next
   \                     ?Subroutine88:
   \   00000000   ........           JMP     ??Fsm
    996          
    997          //-----------------------------------------------------------------------------------------------------

   \                                 In  segment CODE, align 2, keep-with-next
    998          void CPss21::SetAlarmWindowType(uint8_t uiAlarmWindowIndex, uint8_t uiAlarmType)
   \                     ??SetAlarmWindowType:
    999          {
   \   00000000   2F21               MOV     R18, R17
   1000              GetAlarmWindowControlPointer(uiAlarmWindowIndex) -> SetAlarmType(uiAlarmType);
   \   00000002   E010               LDI     R17, 0
   \   00000004   E046               LDI     R20, 6
   \   00000006   ....               RCALL   ?Subroutine24
   \                     ??CrossCallReturnLabel_14:
   \   00000008   8322               STD     Z+2, R18
   1001          }
   \   0000000A   9508               RET
   1002          
   1003          //-----------------------------------------------------------------------------------------------------

   \                                 In  segment CODE, align 2, keep-with-next
   1004          void CPss21::SaveContextNotifyerControl(void)
   \                     ??SaveContextNotifyerControl:
   1005          {
   1006          //    // Сохраним текущее состояние автоматов управления извещателями.
   1007          //    m_xPreventiveAlarmWindowNotifyerControl.SetSavedFsmState(m_xPreventiveAlarmWindowNotifyerControl.GetFsmState());
   1008          //    m_xEmergencyAlarmWindowNotifyerControl.SetSavedFsmState(m_xEmergencyAlarmWindowNotifyerControl.GetFsmState());
   1009          //    m_xStatusLedNotifyerControl.SetSavedFsmState(m_xStatusLedNotifyerControl.GetFsmState());
   1010          //    m_xBuzzerNotifyerControl.SetSavedFsmState(m_xBuzzerNotifyerControl.GetFsmState());
   1011          
   1012              // Сохраним текущее состояние извещателей - окон сигнализации.
   1013              for (uint8_t i = 0;
   \   00000000   ....               RCALL   ??Subroutine94_0
   1014                      i < ALARM_WINDOWS_NUMBER;
   1015                      i++)
   1016              {
   1017                  m_axAlarmWindowControl[i].SetSavedAlarmType(m_axAlarmWindowControl[i].GetAlarmType());
   \                     ??CrossCallReturnLabel_215:
   \   00000002   ....               RCALL   ?Subroutine61
   \                     ??CrossCallReturnLabel_105:
   \   00000004   8102               LDD     R16, Z+2
   \   00000006   8303               STD     Z+3, R16
   1018                  m_axAlarmWindowControl[i].SetSavedActivityState(m_axAlarmWindowControl[i].GetActivityState());
   \   00000008   8100               LD      R16, Z
   \   0000000A   8301               STD     Z+1, R16
   1019              };
   \   0000000C   ....               RCALL   ??Subroutine95_0
   \                     ??CrossCallReturnLabel_220:
   \   0000000E   F7C9               BRNE    ??CrossCallReturnLabel_215
   1020          }
   \   00000010   9508               RET

   \                                 In  segment CODE, align 2, keep-with-next
   \                     ??Subroutine94_0:
   \   00000000   E020               LDI     R18, 0
   \   00000002   E330               LDI     R19, 48
   \   00000004   E046               LDI     R20, 6
   \   00000006   9508               RET

   \                                 In  segment CODE, align 2, keep-with-next
   \                     ??Subroutine95_0:
   \   00000000   9523               INC     R18
   \   00000002   953A               DEC     R19
   \   00000004   9508               RET
   1021          
   1022          //-----------------------------------------------------------------------------------------------------

   \                                 In  segment CODE, align 2, keep-with-next
   1023          void CPss21::RestoreContextNotifyerControl(void)
   \                     ??RestoreContextNotifyerControl:
   1024          {
   1025          //    // Восстановим предыдущее состояние автоматов управления извещателями.
   1026          //    m_xPreventiveAlarmWindowNotifyerControl.SetFsmState(m_xPreventiveAlarmWindowNotifyerControl.GetSavedFsmState());
   1027          //    m_xEmergencyAlarmWindowNotifyerControl.SetFsmState(m_xEmergencyAlarmWindowNotifyerControl.GetSavedFsmState());
   1028          //    m_xStatusLedNotifyerControl.SetFsmState(m_xStatusLedNotifyerControl.GetSavedFsmState());
   1029          //    m_xBuzzerNotifyerControl.SetFsmState(m_xBuzzerNotifyerControl.GetSavedFsmState());
   1030              AlarmTypeSet(GetCommonAlarmType());
   \   00000000   9100....           LDS     R16, (??m_xDeviceConfigSearch + 57)
   \   00000004   ....               RCALL   ??Subroutine93_0
   1031          
   1032              // Восстановим предыдущее состояние извещателей - окон сигнализации.
   1033              for (uint8_t i = 0;
   \                     ??CrossCallReturnLabel_209:
   \   00000006   ....               RCALL   ??Subroutine94_0
   1034                      i < ALARM_WINDOWS_NUMBER;
   1035                      i++)
   1036              {
   1037                  m_axAlarmWindowControl[i].SetAlarmType(m_axAlarmWindowControl[i].GetSavedAlarmType());
   \                     ??CrossCallReturnLabel_216:
   \   00000008   ....               RCALL   ?Subroutine61
   \                     ??CrossCallReturnLabel_106:
   \   0000000A   8103               LDD     R16, Z+3
   \   0000000C   8302               STD     Z+2, R16
   1038                  m_axAlarmWindowControl[i].SetActivityState(m_axAlarmWindowControl[i].GetSavedActivityState());
   \   0000000E   8101               LDD     R16, Z+1
   \   00000010   ....               RCALL   ?Subroutine47
   1039              };
   \                     ??CrossCallReturnLabel_218:
   \   00000012   F7D1               BRNE    ??CrossCallReturnLabel_216
   1040          }
   \   00000014   9508               RET

   \                                 In  segment CODE, align 2, keep-with-next
   \                     ?Subroutine47:
   \   00000000   8300               ST      Z, R16
   \   00000002                      REQUIRE ??Subroutine95_0
   \   00000002                      ;               // Fall through to label ??Subroutine95_0
   1041          
   1042          //-----------------------------------------------------------------------------------------------------

   \                                 In  segment CODE, align 2, keep-with-next
   1043          void CPss21::DiscreteSignalsProcessing(void)
   \                     ??DiscreteSignalsProcessing:
   1044          {
   1045              DiscreteOutputControlClear();
   \   00000000   ....               RCALL   ??DiscreteOutputControlClear
   1046              AlarmsProcessing();
   \   00000002   ....               RCALL   ??AlarmsProcessing
   1047              SetDiscreteSignalsReceipt(0);
   \   00000004   E000               LDI     R16, 0
   \   00000006   9300....           STS     (??m_xDeviceConfigSearch + 53), R16
   1048              SetDiscreteSignalsReset(0);
   \   0000000A   9300....           STS     (??m_xDeviceConfigSearch + 54), R16
   1049          }
   \   0000000E   9508               RET
   1050          
   1051          //-----------------------------------------------------------------------------------------------------

   \                                 In  segment CODE, align 2, keep-with-next
   1052          void CPss21::ActiveAlarmWindowOn(uint8_t uiAlarmType)
   \                     ??ActiveAlarmWindowOn:
   1053          {
   \   00000000   ....               RCALL   ?Subroutine1
   1054              for (uint8_t i = 0;
   1055                      i < ALARM_WINDOWS_NUMBER;
   1056                      i++)
   1057              {
   1058                  // Тип сигнализации окна и тип сигнализации извещателя совпадают?
   1059                  if (m_axAlarmWindowControl[i].GetAlarmType() == uiAlarmType)
   \                     ??CrossCallReturnLabel_211:
   \   00000002   ....               RCALL   ?Subroutine21
   \                     ??CrossCallReturnLabel_10:
   \   00000004   F411               BRNE    ??ActiveAlarmWindowOn_1
   1060                  {
   1061                      // Актмвизируем окно сигнализации, для отображения извещателем.
   1062                      m_axAlarmWindowControl[i].SetActivityState(1);
   \   00000006   E001               LDI     R16, 1
   \   00000008   8300               ST      Z, R16
   1063                  }
   1064              };
   \                     ??ActiveAlarmWindowOn_1:
   \   0000000A   ....               RCALL   ??Subroutine95_0
   \                     ??CrossCallReturnLabel_221:
   \   0000000C   F7D1               BRNE    ??CrossCallReturnLabel_211
   1065          
   1066              m_xLightBoard.Set();
   \   0000000E   ....               RJMP    ?Subroutine89
   1067          }

   \                                 In  segment CODE, align 2, keep-with-next
   \                     ?Subroutine1:
   \   00000000   2F60               MOV     R22, R16
   \   00000002                      REQUIRE ??Subroutine94_0
   \   00000002                      ;               // Fall through to label ??Subroutine94_0

   \                                 In  segment CODE, align 2, keep-with-next
   \                     ?Subroutine21:
   \   00000000   ....               RCALL   ?Subroutine61
   \                     ??CrossCallReturnLabel_109:
   \   00000002   8102               LDD     R16, Z+2
   \   00000004   1706               CP      R16, R22
   \   00000006   9508               RET

   \                                 In  segment CODE, align 2, keep-with-next
   \                     ?Subroutine89:
   \   00000000   ....               RCALL   ?Subroutine16
   \                     ??CrossCallReturnLabel_177:
   \   00000002   ........           JMP     ??Set

   \                                 In  segment CODE, align 2, keep-with-next
   \                     ?Subroutine61:
   \   00000000   2F02               MOV     R16, R18
   \   00000002   E010               LDI     R17, 0
   \   00000004   ....               RCALL   ?Subroutine70
   \                     ??CrossCallReturnLabel_162:
   \   00000006   ....               LDI     R30, LOW(??m_axAlarmWindowControl)
   \   00000008   ....               LDI     R31, (??m_axAlarmWindowControl) >> 8
   \   0000000A                      REQUIRE ?Subroutine71
   \   0000000A                      ;               // Fall through to label ?Subroutine71

   \                                 In  segment CODE, align 2, keep-with-next
   \                     ?Subroutine70:
   \   00000000   E050               LDI     R21, 0
   \   00000002   ....               RJMP    ?Subroutine85
   1068          
   1069          //-----------------------------------------------------------------------------------------------------

   \                                 In  segment CODE, align 2, keep-with-next
   1070          void CPss21::ActiveAlarmWindowOff(uint8_t uiAlarmType)
   \                     ??ActiveAlarmWindowOff:
   1071          {
   \   00000000   ....               RCALL   ?Subroutine1
   1072              for (uint8_t i = 0;
   1073                      i < ALARM_WINDOWS_NUMBER;
   1074                      i++)
   1075              {
   1076                  // Тип сигнализации окна и тип сигнализации извещателя совпадают?
   1077                  if (m_axAlarmWindowControl[i].GetAlarmType() == uiAlarmType)
   \                     ??CrossCallReturnLabel_212:
   \   00000002   ....               RCALL   ?Subroutine21
   \                     ??CrossCallReturnLabel_11:
   \   00000004   F011               BREQ    ??ActiveAlarmWindowOff_1
   1078                  {
   1079                      // Деактмвируем окно сигнализации, для прекращения отображения извещателем.
   1080                      m_axAlarmWindowControl[i].SetActivityState(0);
   1081                  }
   1082                  else if (m_axAlarmWindowControl[i].GetAlarmType() == NORMAL)
   \   00000006   2300               TST     R16
   \   00000008   F409               BRNE    ??ActiveAlarmWindowOff_2
   1083                  {
   1084                      // Деактмвируем окно сигнализации, для прекращения отображения извещателем.
   1085                      m_axAlarmWindowControl[i].SetActivityState(0);
   \                     ??ActiveAlarmWindowOff_1:
   \   0000000A   8350               ST      Z, R21
   1086                  }
   1087              };
   \                     ??ActiveAlarmWindowOff_2:
   \   0000000C   ....               RCALL   ??Subroutine95_0
   \                     ??CrossCallReturnLabel_222:
   \   0000000E   F7C9               BRNE    ??CrossCallReturnLabel_212
   1088          
   1089              m_xLightBoard.Set();
   \   00000010   ....               RJMP    ?Subroutine89
   1090          }
   1091          
   1092          //-----------------------------------------------------------------------------------------------------

   \                                 In  segment CODE, align 2, keep-with-next
   1093          void CPss21::AllAlarmWindowOn(uint8_t uiAlarmType)
   \                     ??AllAlarmWindowOn:
   1094          {
   \   00000000   ....               RCALL   ?Subroutine1
   1095          //    CAlarmWindow axAlarmWindowControl[ALARM_WINDOWS_NUMBER];
   1096          
   1097              for (uint8_t i = 0;
   1098                      i < ALARM_WINDOWS_NUMBER;
   1099                      i++)
   1100              {
   1101                  // Актмвизируем окно сигнализации, для отображения извещателем.
   1102                  m_axAlarmWindowControl[i].SetAlarmType(uiAlarmType);
   \                     ??CrossCallReturnLabel_213:
   \   00000002   ....               RCALL   ?Subroutine61
   \                     ??CrossCallReturnLabel_107:
   \   00000004   8362               STD     Z+2, R22
   1103                  // Актмвизируем окно сигнализации, для отображения извещателем.
   1104                  m_axAlarmWindowControl[i].SetActivityState(1);
   \   00000006   E001               LDI     R16, 1
   \   00000008   ....               RCALL   ?Subroutine47
   1105              };
   \                     ??CrossCallReturnLabel_219:
   \   0000000A   F7D9               BRNE    ??CrossCallReturnLabel_213
   1106          
   1107              m_xLightBoard.Set();
   \   0000000C                      REQUIRE ?Subroutine89
   \   0000000C                      ;               // Fall through to label ?Subroutine89
   1108          }
   1109          
   1110          //-----------------------------------------------------------------------------------------------------

   \                                 In  segment CODE, align 2, keep-with-next
   1111          void CPss21::ErrorWindowOn(uint8_t uiErrorType)
   \                     ??ErrorWindowOn:
   1112          {
   \   00000000   ....               RCALL   ?Subroutine1
   1113              // Актмвируем окна сигнализации - ошибка.
   1114              for (uint8_t i = 0;
   1115                      i < ALARM_WINDOWS_NUMBER;
   1116                      i++)
   1117              {
   1118                  m_axAlarmWindowControl[i].SetActivityState(m_auiErrorLedOn[i]);
   \                     ??CrossCallReturnLabel_214:
   \   00000002   2FE2               MOV     R30, R18
   \   00000004   E0F0               LDI     R31, 0
   \   00000006   ....               SUBI    R30, LOW((-(??m_auiErrorLedOn) & 0xFFFF))
   \   00000008   ....               SBCI    R31, (-(??m_auiErrorLedOn) & 0xFFFF) >> 8
   \   0000000A   9174               LPM     R23, Z
   \   0000000C   2F02               MOV     R16, R18
   \   0000000E   E010               LDI     R17, 0
   \   00000010   ....               RCALL   ?Subroutine24
   \                     ??CrossCallReturnLabel_15:
   \   00000012   8370               ST      Z, R23
   1119              };
   \   00000014   ....               RCALL   ??Subroutine95_0
   \                     ??CrossCallReturnLabel_223:
   \   00000016   F7A9               BRNE    ??CrossCallReturnLabel_214
   1120          
   1121              if ((uiErrorType != 0) ||
   1122                      (uiErrorType < ALARM_WINDOWS_NUMBER))
   1123              {
   1124                  m_axAlarmWindowControl[uiErrorType - 1].SetActivityState(0);
   \   00000018   2F06               MOV     R16, R22
   \   0000001A   E010               LDI     R17, 0
   \   0000001C   ........           CALL    ?S_EC_MUL_L02
   \   00000020   01F8               MOVW    R31:R30, R17:R16
   \   00000022   ....               SUBI    R30, LOW((-(??m_axAlarmWindowControl - 6) & 0xFFFF))
   \   00000024   ....               SBCI    R31, HIGH((-(??m_axAlarmWindowControl - 6) & 0xFFFF))
   \   00000026   8350               ST      Z, R21
   1125              }
   1126          
   1127              m_xLightBoard.Set();
   \   00000028   ....               RJMP    ?Subroutine89
   1128          }
   1129          
   1130          //-----------------------------------------------------------------------------------------------------

   \                                 In  segment CODE, align 2, keep-with-next
   1131          void CPss21::AllAlarmWindowOff(void)
   \                     ??AllAlarmWindowOff:
   1132          {
   1133              for (uint8_t i = 0;
   \   00000000   ....               RCALL   ??Subroutine94_0
   1134                      i < ALARM_WINDOWS_NUMBER;
   1135                      i++)
   1136              {
   1137                  // Деактмвируем окно сигнализации, для прекращения отображения извещателем.
   1138                  m_axAlarmWindowControl[i].SetAlarmType(NORMAL);
   \                     ??CrossCallReturnLabel_217:
   \   00000002   ....               RCALL   ?Subroutine61
   \                     ??CrossCallReturnLabel_108:
   \   00000004   8352               STD     Z+2, R21
   1139                  // Деактмвируем окно сигнализации, для прекращения отображения извещателем.
   1140                  m_axAlarmWindowControl[i].SetActivityState(0);
   \   00000006   8350               ST      Z, R21
   1141              };
   \   00000008   ....               RCALL   ??Subroutine95_0
   \                     ??CrossCallReturnLabel_224:
   \   0000000A   F7D9               BRNE    ??CrossCallReturnLabel_217
   1142          
   1143              m_xLightBoard.Set();
   \   0000000C   ....               RJMP    ?Subroutine89
   1144          }
   1145          
   1146          //-----------------------------------------------------------------------------------------------------

   \                                 In  segment CODE, align 2, keep-with-next
   1147          void CPss21::TestMainCycle(void)
   \                     ??TestMainCycle:
   1148          {
   1149              CPss21::m_xModbusRtuOne.Fsm();
   \   00000000   ....               RCALL   ?Subroutine6
   1150          
   1151              CPss21::KeyStateProcessing();
   1152          
   1153              NotifyersControlProcessing();
   1154          
   1155              CPss21::ReceiptResetGlobalFlagsClear();
   \                     ??CrossCallReturnLabel_0:
   \   00000002                      REQUIRE ?Subroutine75
   \   00000002                      ;               // Fall through to label ?Subroutine75
   1156          
   1157              CPlatform::WatchdogReset();
   1158          }

   \                                 In  segment CODE, align 2, keep-with-next
   \                     ?Subroutine75:
   \   00000000   ....               RCALL   ?Subroutine53
   \                     ??CrossCallReturnLabel_138:
   \   00000002                      REQUIRE ??Subroutine96_0
   \   00000002                      ;               // Fall through to label ??Subroutine96_0

   \                                 In  segment CODE, align 2, keep-with-next
   \                     ??Subroutine96_0:
   \   00000000   95A8               WDR
   \   00000002   9508               RET

   \                                 In  segment CODE, align 2, keep-with-next
   \                     ?Subroutine53:
   \   00000000   ....               RJMP    ??ReceiptResetGlobalFlagsClear

   \                                 In  segment CODE, align 2, keep-with-next
   \                     ?Subroutine6:
   \   00000000   ....               RCALL   ?Subroutine54
   \                     ??CrossCallReturnLabel_64:
   \   00000002   ....               RJMP    ?Subroutine67

   \                                 In  segment CODE, align 2, keep-with-next
   \                     ?Subroutine54:
   \   00000000   ....               RCALL   ?Subroutine68
   \                     ??CrossCallReturnLabel_97:
   \   00000002   ....               RJMP    ??KeyStateProcessing

   \                                 In  segment CODE, align 2, keep-with-next
   \                     ?Subroutine67:
   \   00000000   ....               RJMP    ??NotifyersControlProcessing

   \                                 In  segment CODE, align 2, keep-with-next
   \                     ?Subroutine68:
   \   00000000   ....               LDI     R16, LOW(??m_xModbusRtuOne)
   \   00000002   ....               LDI     R17, (??m_xModbusRtuOne) >> 8
   \   00000004   ........           JMP     ??Fsm_1
   1159          
   1160          //-----------------------------------------------------------------------------------------------------

   \                                 In  segment CODE, align 2, keep-with-next
   1161          void CPss21::ErrorMainCycle(void)
   \                     ??ErrorMainCycle:
   1162          {
   1163              CPss21::m_xModbusRtuOne.Fsm();
   \   00000000   ....               RCALL   ?Subroutine54
   1164          
   1165              CPss21::KeyStateProcessing();
   1166          
   1167              // Есть команда - "квитировать"?
   1168              if ((GetPanelReceipt()) ||
   1169                      (GetExternalReceipt()) ||
   1170                      (GetModbusReceipt()))
   \                     ??CrossCallReturnLabel_65:
   \   00000002   ....               RCALL   ?Subroutine30
   \                     ??CrossCallReturnLabel_27:
   \   00000004   A507               LDD     R16, Z+47
   \   00000006   2300               TST     R16
   \   00000008   F431               BRNE    ??ErrorMainCycle_1
   \   0000000A   A901               LDD     R16, Z+49
   \   0000000C   2300               TST     R16
   \   0000000E   F419               BRNE    ??ErrorMainCycle_1
   \   00000010   A903               LDD     R16, Z+51
   \   00000012   2300               TST     R16
   \   00000014   F021               BREQ    ??CrossCallReturnLabel_226
   1171              {
   1172          //        m_xPreventiveAlarmWindowNotifyerControl.AlarmSet(INDICATION);
   1173          //        m_xEmergencyAlarmWindowNotifyerControl.AlarmSet(INDICATION);
   1174                  m_xStatusLedNotifyerControl.AlarmSet(NORMAL);
   \                     ??ErrorMainCycle_1:
   \   00000016   E020               LDI     R18, 0
   \   00000018   ....               RCALL   ?Subroutine60
   1175                  m_xBuzzerNotifyerControl.AlarmSet(NORMAL);
   \                     ??CrossCallReturnLabel_81:
   \   0000001A   E020               LDI     R18, 0
   \   0000001C   ....               RCALL   ??Subroutine97_0
   1176              }
   1177          
   1178              NotifyersControlProcessing();
   \                     ??CrossCallReturnLabel_226:
   \   0000001E   ....               RCALL   ?Subroutine67
   1179          
   1180              CPss21::ReceiptResetGlobalFlagsClear();
   \                     ??CrossCallReturnLabel_94:
   \   00000020   ....               RJMP    ?Subroutine75
   1181          
   1182              CPlatform::WatchdogReset();
   1183          }
   1184          
   1185          //-----------------------------------------------------------------------------------------------------

   \                                 In  segment CODE, align 2, keep-with-next
   1186          void CPss21::LinkControlErrorMainCycle(void)
   \                     ??LinkControlErrorMainCycle:
   1187          {
   1188              CPss21::m_xModbusRtuOne.Fsm();
   \   00000000   ....               RCALL   ?Subroutine5
   1189              CPss21::m_xModbusRtuLinkControl.Fsm();
   1190          
   1191              CPss21::KeyStateProcessing();
   1192          
   1193              NotifyersControlProcessing();
   1194          
   1195              CPss21::ReceiptResetGlobalFlagsClear();
   \                     ??CrossCallReturnLabel_92:
   \   00000002   ....               RCALL   ?Subroutine53
   1196          
   1197              CPss21::m_xDataStore.Fsm();
   \                     ??CrossCallReturnLabel_137:
   \   00000004   ....               RCALL   ?Subroutine56
   1198          
   1199              CPlatform::WatchdogReset();
   \                     ??CrossCallReturnLabel_68:
   \   00000006   ....               RJMP    ??Subroutine96_0
   1200          }

   \                                 In  segment CODE, align 2, keep-with-next
   \                     ?Subroutine56:
   \   00000000   ....               LDI     R16, LOW(??m_xDataStore)
   \   00000002   ....               LDI     R17, (??m_xDataStore) >> 8
   \   00000004   ........           JMP     ??Fsm_3

   \                                 In  segment CODE, align 2, keep-with-next
   \                     ?Subroutine5:
   \   00000000   ....               RCALL   ?Subroutine68
   \                     ??CrossCallReturnLabel_96:
   \   00000002   ....               LDI     R16, LOW((??m_xDeviceConfigSearch + 29))
   \   00000004   ....               LDI     R17, HIGH((??m_xDeviceConfigSearch + 29))
   \   00000006   ........           CALL    ??Fsm_2
   \   0000000A   ....               RCALL   ??KeyStateProcessing
   \   0000000C                      REQUIRE ?Subroutine67
   \   0000000C                      ;               // Fall through to label ?Subroutine67
   1201          
   1202          //-----------------------------------------------------------------------------------------------------

   \                                 In  segment CODE, align 2, keep-with-next
   \                     ?Subroutine14:
   \   00000000   9100....           LDS     R16, (??m_xDeviceConfigSearch + 55)
   \   00000004   ....               RCALL   ??ErrorWindowOn
   \   00000006   E000               LDI     R16, 0
   \   00000008   9300....           STS     (??m_xDeviceConfigSearch + 55), R16
   \   0000000C   E021               LDI     R18, 1
   \   0000000E   ....               RCALL   ?Subroutine58
   \                     ??CrossCallReturnLabel_75:
   \   00000010   E021               LDI     R18, 1
   \   00000012   ....               RCALL   ?Subroutine59
   \                     ??CrossCallReturnLabel_77:
   \   00000014   E026               LDI     R18, 6
   \   00000016   ....               RCALL   ?Subroutine60
   \                     ??CrossCallReturnLabel_79:
   \   00000018   E026               LDI     R18, 6
   \   0000001A                      REQUIRE ??Subroutine97_0
   \   0000001A                      ;               // Fall through to label ??Subroutine97_0

   \                                 In  segment CODE, align 2, keep-with-next
   1203          void CPss21::MainFsm(void)
   \                     ??MainFsm:
   1204          {
   \   00000000   9100....           LDS     R16, (??m_xDeviceConfigSearch + 46)
   \   00000004   ....               LDI     R30, LOW(`?<Jumptable for MainFsm>_0`)
   \   00000006   ....               LDI     R31, (`?<Jumptable for MainFsm>_0`) >> 16
   \   00000008   BFFB               OUT     0x3B, R31
   \   0000000A   ....               LDI     R31, HIGH(`?<Jumptable for MainFsm>_0`)
   \   0000000C   ........           JMP     ?CV_SWITCH_L06
   1205              switch (GetFsmState())
   1206              {
   1207              case START:
   1208                  CPlatform::WatchdogEnable();
   \                     ??MainFsm_1:
   \   00000010   95A8               WDR
   \   00000012   B501               IN      R16, 0x21
   \   00000014   6108               ORI     R16, 0x18
   \   00000016   BD01               OUT     0x21, R16
   \   00000018   B501               IN      R16, 0x21
   \   0000001A   6007               ORI     R16, 0x07
   \   0000001C   BD01               OUT     0x21, R16
   1209                  CPlatform::Init();
   \   0000001E   ........           CALL    ??Init_3
   1210                  CPss21::Init();
   \   00000022   ....               RCALL   ??Init
   1211                  CBuzzer::Init();
   \   00000024   ........           CALL    ??Init_4
   1212                  if (!(CDataBase::Check()))
   \   00000028   ........           CALL    ??Check
   \   0000002C   2300               TST     R16
   \   0000002E   F169               BREQ    ??MainFsm_2
   1213                  {
   1214                      SetFsmState(ERROR_START);
   1215                  }
   1216                  else
   1217                  {
   1218                      CPss21::ConfigurationInit();
   \   00000030   ....               RCALL   ??ConfigurationInit
   1219                      CPss21::ModbusInit();
   \   00000032   ....               RCALL   ??ModbusInit
   1220                      CSpi::Init();
   \   00000034   ........           CALL    ??Init_5
   1221                      CPss21::AddressBusInit();
   \   00000038   ....               RCALL   ??AddressBusInit
   1222                      CPss21::SearchModules();
   \   0000003A   ....               RCALL   ??SearchModules
   1223                      CPss21::CreateDevices();
   \   0000003C   ....               RCALL   ??CreateDevices
   1224                      m_xBuzzerNotifyerControl.AlarmSet(BEEP_SIGNAL);
   \   0000003E   E027               LDI     R18, 7
   \   00000040   ....               RCALL   ??Subroutine97_0
   1225                      SetFsmState(MAIN_CYCLE_START_WAITING);
   \                     ??CrossCallReturnLabel_225:
   \   00000042   C02B               RJMP    ??CrossCallReturnLabel_136
   1226                  }
   1227                  break;
   1228          
   1229              case RESTART:
   1230                  break;
   1231          
   1232              case MAIN_CYCLE_START_WAITING:
   1233                  CPss21::m_xModbusRtuOne.Fsm();
   \                     ??MainFsm_3:
   \   00000044   ....               RCALL   ?Subroutine6
   1234          
   1235                  CPss21::KeyStateProcessing();
   1236          
   1237                  NotifyersControlProcessing();
   1238          
   1239                  CPss21::m_xDataStore.Fsm();
   \                     ??CrossCallReturnLabel_1:
   \   00000046   ....               RCALL   ?Subroutine56
   1240          
   1241                  if (CPss21::m_xMainCycleTimer.IsOverflow())
   \                     ??CrossCallReturnLabel_69:
   \   00000048   ....               RCALL   ?Subroutine15
   \                     ??CrossCallReturnLabel_153:
   \   0000004A   F409               BRNE    $+2+2
   \   0000004C   C053               RJMP    ??CrossCallReturnLabel_67
   1242                  {
   1243                      CPss21::m_xMainCycleTimer.Reset();
   \   0000004E   ....               RCALL   ?Subroutine69
   \                     ??CrossCallReturnLabel_99:
   \   00000050   ........           CALL    ??Reset
   1244                      CPlatform::WatchdogReset();
   \   00000054   95A8               WDR
   1245                      SetModuleIndex(0);
   \   00000056   E000               LDI     R16, 0
   \   00000058   9300....           STS     (??m_xDeviceConfigSearch + 56), R16
   1246                      SetFsmState(MAIN_CYCLE_MODULES_INTERACTION);
   \   0000005C   E003               LDI     R16, 3
   \   0000005E   C016               RJMP    ??MainFsm_4
   1247                  }
   1248          
   1249                  break;
   1250          
   1251              case MAIN_CYCLE_MODULES_INTERACTION:
   1252                  CPss21::m_xModbusRtuOne.Fsm();
   \                     ??MainFsm_5:
   \   00000060   ....               RCALL   ?Subroutine5
   1253                  CPss21::m_xModbusRtuLinkControl.Fsm();
   1254          
   1255                  CPss21::KeyStateProcessing();
   1256          
   1257                  NotifyersControlProcessing();
   1258          
   1259                  CPss21::m_xDataStore.Fsm();
   \                     ??CrossCallReturnLabel_93:
   \   00000062   ....               RCALL   ?Subroutine56
   1260          
   1261                  if (CPss21::ModulesInteraction(GetModuleIndex()))
   \                     ??CrossCallReturnLabel_70:
   \   00000064   9100....           LDS     R16, (??m_xDeviceConfigSearch + 56)
   \   00000068   ....               RCALL   ??ModulesInteraction
   \   0000006A   2300               TST     R16
   \   0000006C   F019               BREQ    ??MainFsm_6
   1262                  {
   1263                      SetFsmState(MAIN_CYCLE_DISCRETE_SIGNALS_PROCESSING);
   \   0000006E   E004               LDI     R16, 4
   \   00000070   ....               RCALL   ??Subroutine91_0
   1264                  }
   \                     ??CrossCallReturnLabel_196:
   \   00000072   C004               RJMP    ??MainFsm_7
   1265                  else
   1266                  {
   1267                      SetModuleIndex(GetModuleIndex() + 1);
   \                     ??MainFsm_6:
   \   00000074   ....               RCALL   ?Subroutine30
   \                     ??CrossCallReturnLabel_28:
   \   00000076   AD00               LDD     R16, Z+56
   \   00000078   9503               INC     R16
   \   0000007A   AF00               STD     Z+56, R16
   1268                  }
   1269          
   1270                  switch (GetErrorCode())
   \                     ??MainFsm_7:
   \   0000007C   9100....           LDS     R16, (??m_xDeviceConfigSearch + 55)
   \   00000080   950A               DEC     R16
   \   00000082   5004               SUBI    R16, 4
   \   00000084   F010               BRCS    ??MainFsm_2
   \   00000086   F019               BREQ    ??MainFsm_8
   \   00000088   9508               RET
   1271                  {
   1272                  case IMD_ERROR:
   1273                  case OMD_ERROR:
   1274                  case CFG_ERROR:
   1275                  case DB_ERROR:
   1276                      SetFsmState(ERROR_START);
   \                     ??MainFsm_2:
   \   0000008A   E008               LDI     R16, 8
   \                     ??MainFsm_4:
   \   0000008C   ....               RJMP    ??Subroutine91_0
   1277                      break;
   1278          
   1279                  case MBS_ERROR:
   1280                      SetFsmState(LINK_CONTROL_ERROR_START);
   \                     ??MainFsm_8:
   \   0000008E   E00A               LDI     R16, 10
   \   00000090   CFFD               RJMP    ??MainFsm_4
   1281                      break;
   1282          
   1283                  default:
   1284                      break;
   1285                  }
   1286                  break;
   1287          
   1288              case MAIN_CYCLE_DISCRETE_SIGNALS_PROCESSING:
   1289                  CPss21::DiscreteSignalsProcessing();
   \                     ??MainFsm_9:
   \   00000092   ....               RCALL   ??DiscreteSignalsProcessing
   1290                  SetFsmState(MAIN_CYCLE_END);
   \   00000094   E005               LDI     R16, 5
   \   00000096   CFFA               RJMP    ??MainFsm_4
   1291                  break;
   1292          
   1293              case MAIN_CYCLE_END:
   1294                  CPss21::ReceiptResetGlobalFlagsClear();
   \                     ??MainFsm_10:
   \   00000098   ....               RCALL   ?Subroutine53
   1295                  SetFsmState(MAIN_CYCLE_START_WAITING);
   \                     ??CrossCallReturnLabel_136:
   \   0000009A   E002               LDI     R16, 2
   \   0000009C   CFF7               RJMP    ??MainFsm_4
   1296                  break;
   1297          
   1298          //-----------------------------------------------------------------------------------------------------
   1299              case TEST_START:
   1300                  SaveContextNotifyerControl();
   \                     ??MainFsm_11:
   \   0000009E   ....               RCALL   ??SaveContextNotifyerControl
   1301                  AlarmTypeSet(PREVENTIVE);
   \   000000A0   E002               LDI     R16, 2
   \   000000A2   ....               RCALL   ??Subroutine93_0
   1302                  CPss21::AllAlarmWindowOn(PREVENTIVE);
   \                     ??CrossCallReturnLabel_208:
   \   000000A4   E002               LDI     R16, 2
   \   000000A6   ....               RCALL   ??AllAlarmWindowOn
   1303                  CPss21::m_xMainCycleTimer.Set(TEST_ON_TIME());
   \   000000A8   E828               LDI     R18, 136
   \   000000AA   E133               LDI     R19, 19
   \   000000AC   ....               RCALL   ?Subroutine57
   1304                  SetFsmState(TEST_ON);
   \                     ??CrossCallReturnLabel_73:
   \   000000AE   E007               LDI     R16, 7
   \   000000B0   C009               RJMP    ??MainFsm_12
   1305          
   1306                  CPlatform::WatchdogReset();
   1307                  break;
   1308          
   1309              case TEST_ON:
   1310                  if (CPss21::m_xMainCycleTimer.IsOverflow())
   \                     ??MainFsm_13:
   \   000000B2   ....               RCALL   ?Subroutine15
   \                     ??CrossCallReturnLabel_154:
   \   000000B4   F019               BREQ    ??CrossCallReturnLabel_197
   1311                  {
   1312                      CPss21::AllAlarmWindowOff();
   \   000000B6   ....               RCALL   ?Subroutine10
   1313                      RestoreContextNotifyerControl();
   1314                      CPss21::m_xMainCycleTimer.Set(MAIN_CYCLE_PERIOD_TIME);
   1315                      SetFsmState(MAIN_CYCLE_START_WAITING);
   \                     ??CrossCallReturnLabel_71:
   \   000000B8   E002               LDI     R16, 2
   \   000000BA   ....               RCALL   ??Subroutine91_0
   1316                  }
   1317          
   1318                  TestMainCycle();
   \                     ??CrossCallReturnLabel_197:
   \   000000BC   ....               RJMP    ??TestMainCycle
   1319                  break;
   1320          
   1321          //-----------------------------------------------------------------------------------------------------
   1322              case ERROR_START:
   1323                  // Устанавливаем настройки Modbus по умолчанию на текущую сессию.
   1324                  ModbusDefaultInit();
   \                     ??MainFsm_14:
   \   000000BE   ....               RCALL   ??ModbusDefaultInit
   1325                  ErrorWindowOn(GetErrorCode());
   \   000000C0   ....               RCALL   ?Subroutine14
   1326                  SetErrorCode(0);
   1327          
   1328                  m_xPreventiveAlarmWindowNotifyerControl.AlarmSet(INDICATION);
   1329                  m_xEmergencyAlarmWindowNotifyerControl.AlarmSet(INDICATION);
   1330                  m_xStatusLedNotifyerControl.AlarmSet(ERROR);
   1331                  m_xBuzzerNotifyerControl.AlarmSet(ERROR);
   1332          
   1333                  SetFsmState(ERROR_ON);
   \                     ??CrossCallReturnLabel_236:
   \   000000C2   E009               LDI     R16, 9
   \                     ??MainFsm_12:
   \   000000C4   ....               RCALL   ??Subroutine91_0
   1334          
   1335                  CPlatform::WatchdogReset();
   \                     ??CrossCallReturnLabel_198:
   \   000000C6   ....               RJMP    ??Subroutine96_0
   1336                  break;
   1337          
   1338              case ERROR_ON:
   1339                  ErrorMainCycle();
   \                     ??MainFsm_15:
   \   000000C8   ....               RJMP    ??ErrorMainCycle
   1340                  break;
   1341          
   1342          //-----------------------------------------------------------------------------------------------------
   1343              case LINK_CONTROL_ERROR_START:
   1344                  SaveContextNotifyerControl();
   \                     ??MainFsm_16:
   \   000000CA   ....               RCALL   ??SaveContextNotifyerControl
   1345                  ErrorWindowOn(GetErrorCode());
   \   000000CC   ....               RCALL   ?Subroutine14
   1346                  SetErrorCode(0);
   1347          
   1348                  m_xPreventiveAlarmWindowNotifyerControl.AlarmSet(INDICATION);
   1349                  m_xEmergencyAlarmWindowNotifyerControl.AlarmSet(INDICATION);
   1350                  m_xStatusLedNotifyerControl.AlarmSet(ERROR);
   1351                  m_xBuzzerNotifyerControl.AlarmSet(ERROR);
   1352          
   1353                  CPlatform::WatchdogReset();
   \                     ??CrossCallReturnLabel_235:
   \   000000CE   95A8               WDR
   1354                  SetFsmState(LINK_CONTROL_ERROR_ON);
   \   000000D0   E00B               LDI     R16, 11
   \   000000D2   CFDC               RJMP    ??MainFsm_4
   1355                  break;
   1356          
   1357              case LINK_CONTROL_ERROR_ON:
   1358                  LinkControlErrorMainCycle();
   \                     ??MainFsm_17:
   \   000000D4   ....               RJMP    ??LinkControlErrorMainCycle
   1359                  break;
   1360          
   1361              case LINK_CONTROL_ERROR_OFF:
   1362                  CPss21::AllAlarmWindowOff();
   \                     ??MainFsm_18:
   \   000000D6   ....               RCALL   ?Subroutine10
   1363                  RestoreContextNotifyerControl();
   1364                  CPss21::m_xMainCycleTimer.Set(MAIN_CYCLE_PERIOD_TIME);
   1365          
   1366                  CPlatform::WatchdogReset();
   \                     ??CrossCallReturnLabel_72:
   \   000000D8   95A8               WDR
   1367                  SetFsmState(MAIN_CYCLE_START_WAITING);
   \   000000DA   CFDF               RJMP    ??CrossCallReturnLabel_136
   1368                  break;
   1369          
   1370          //-----------------------------------------------------------------------------------------------------
   1371              case PROGRAMMING_START:
   1372                  // После приёма последнего блока базы данных произойдёт перезагрузка
   1373                  // через "PROGRAMMING_TIME + WDTO_2S", чтобы применить изменения конфигурации.
   1374                  CPss21::m_xMainCycleTimer.Set(PROGRAMMING_TIME);
   \                     ??MainFsm_19:
   \   000000DC   EE28               LDI     R18, 232
   \   000000DE   E033               LDI     R19, 3
   \   000000E0   ....               RCALL   ?Subroutine57
   1375                  SetFsmState(PROGRAMMING_ON);
   \                     ??CrossCallReturnLabel_74:
   \   000000E2   E00E               LDI     R16, 14
   \   000000E4   CFEF               RJMP    ??MainFsm_12
   1376          
   1377                  CPlatform::WatchdogReset();
   1378                  break;
   1379          
   1380              case PROGRAMMING_ON:
   1381                  CPss21::m_xModbusRtuOne.Fsm();
   \                     ??MainFsm_20:
   \   000000E6   ....               RCALL   ?Subroutine7
   1382          
   1383                  CPss21::m_xDataStore.Fsm();
   1384          
   1385                  if (CPss21::m_xMainCycleTimer.IsOverflow())
   \                     ??CrossCallReturnLabel_66:
   \   000000E8   ....               RCALL   ?Subroutine15
   \                     ??CrossCallReturnLabel_155:
   \   000000EA   F369               BREQ    ??CrossCallReturnLabel_198
   1386                  {
   1387                      SetFsmState(REBOOT);
   \   000000EC   E00F               LDI     R16, 15
   \   000000EE   ....               RCALL   ??Subroutine91_0
   1388                  }
   1389          
   1390                  CPlatform::WatchdogReset();
   \                     ??CrossCallReturnLabel_199:
   \   000000F0   CFEA               RJMP    ??CrossCallReturnLabel_198
   1391                  break;
   1392          
   1393              case REBOOT:
   1394                  // Через "WDTO_2S" - перезагрузка, чтобы применить изменения конфигурации.
   1395                  CPss21::m_xModbusRtuOne.Fsm();
   \                     ??MainFsm_21:
   \   000000F2   ....               RCALL   ?Subroutine7
   1396          
   1397                  CPss21::m_xDataStore.Fsm();
   1398                  break;
   1399          
   1400          //-----------------------------------------------------------------------------------------------------
   1401              default:
   1402                  break;
   1403              }
   1404          }
   \                     ??CrossCallReturnLabel_67:
   \   000000F4   9508               RET
   \   000000F6                      REQUIRE _A_WDTCR

   \                                 In  segment CODE, align 2, keep-with-next
   \                     ?Subroutine15:
   \   00000000   ....               RCALL   ?Subroutine69
   \                     ??CrossCallReturnLabel_100:
   \   00000002   ........           CALL    ??IsOverflow
   \   00000006   ....               RJMP    ?Subroutine82

   \                                 In  segment CODE, align 2, keep-with-next
   \                     ?Subroutine69:
   \   00000000   ....               LDI     R16, LOW((??m_xDeviceConfigSearch + 133))
   \   00000002   ....               LDI     R17, HIGH((??m_xDeviceConfigSearch + 133))
   \   00000004   9508               RET

   \                                 In  segment CODE, align 2, keep-with-next
   \                     ?Subroutine10:
   \   00000000   ....               RCALL   ??AllAlarmWindowOff
   \   00000002   ....               RCALL   ??RestoreContextNotifyerControl
   \   00000004   E624               LDI     R18, 100
   \   00000006   E030               LDI     R19, 0
   \   00000008                      REQUIRE ?Subroutine57
   \   00000008                      ;               // Fall through to label ?Subroutine57

   \                                 In  segment CODE, align 2, keep-with-next
   \                     ?Subroutine57:
   \   00000000   ....               RCALL   ?Subroutine69
   \                     ??CrossCallReturnLabel_101:
   \   00000002   ........           JMP     ??Set_1

   \                                 In  segment CODE, align 2, keep-with-next
   \                     ?Subroutine7:
   \   00000000   ....               RCALL   ?Subroutine68
   \                     ??CrossCallReturnLabel_95:
   \   00000002                      REQUIRE ?Subroutine56
   \   00000002                      ;               // Fall through to label ?Subroutine56

   \                                 In  segment CODE, align 2, keep-with-next
   \                     ?Subroutine72:
   \   00000000   ........           JMP     __record_needed_destruction

   \                                 In  segment NEAR_ID, align 1, keep-with-next, root
   \                     `?<Initializer for >`:
   \   00000000   ............       DC16 ?_1, ??m_xUart1, `?<Unnamed 0>`/2
   \                     `?<Initializer for >_1`:
   \   00000006   ............       DC16 ?_3, ??m_xModbusRtuOne, `?<Unnamed 1>`/2
   \                     `?<Initializer for >_2`:
   \   0000000C   ............       DC16 ?_5, ??m_xDataStore, `?<Unnamed 2>`/2
   \                     `?<Initializer for >_3`:
   \   00000012   ............       DC16 ?_7, ??m_xReceiptKey, `?<Unnamed 3>`/2
   \                     `?<Initializer for >_4`:
   \   00000018   ............       DC16 ?_9, ??m_xResetKey, `?<Unnamed 3>`/2
   \                     `?<Initializer for >_5`:
   \   0000001E   ............       DC16 ?_11, ??m_xCheckKey, `?<Unnamed 3>`/2
   \                     `?<Initializer for >_6`:
   \   00000024   ............       DC16 ?_13, ??m_xExternalKey, `?<Unnamed 3>`/2
   \                     `?<Initializer for >_7`:
   \   0000002A   ............       DC16 ?_15, ??m_xEventUniteLogicAndOne, `?<Unnamed 4>`/2
   \                     `?<Initializer for >_8`:
   \   00000030   ............       DC16 ?_17, ??m_xMainCycleTimer, `?<Unnamed 5>`/2
   \                     `?<Initializer for >_9`:
   \   00000036   ............       DC16 ?_19, ??m_xPreventiveAlarmWindowNotifyerControl, `?<Unnamed 6>`/2
   \                     `?<Initializer for >_10`:
   \   0000003C   ............       DC16 ?_21, ??m_xEmergencyAlarmWindowNotifyerControl, `?<Unnamed 7>`/2
   \                     `?<Initializer for >_11`:
   \   00000042   ............       DC16 ?_23, ??m_xStatusLedNotifyerControl, `?<Unnamed 8>`/2
   \                     `?<Initializer for >_12`:
   \   00000048   ............       DC16 ?_25, ??m_xBuzzerNotifyerControl, `?<Unnamed 9>`/2
   \                     `?<Initializer for >_13`:
   \   0000004E   ............       DC16 ?_27, ??m_xModbusRtuLinkControl, `?<Unnamed 10>`/2
   \                     `?<Initializer for >_14`:
   \   00000054   ............       DC16 ?_29, ??m_xLightBoard, `?<Unnamed 11>`/2
   \                     `?<Initializer for >_15`:
   \   0000005A   ....0000....       DC16 ?_31, 0H, `?<Unnamed 12>`/2

   \                                 In  segment DIFUNCT, align 1, keep-with-next, root
   \   00000000                      REQUIRE ?call_ctors
   \   00000000   ....               DW      ??__sti__routine/2

   \                                 In  segment SWITCH, align 2, keep-with-next
   \                     `?<Jumptable for MainFsm>_0`:
   \   00000000   00                 DB      0
   \   00000001   00                 DB      0
   \   00000002   ....               DW      (??CrossCallReturnLabel_67) /2
   \   00000004   0010               DW      16
   \   00000006   ....               DW      (??MainFsm_1) /2
   \   00000008   ....               DW      (??CrossCallReturnLabel_67) /2
   \   0000000A   ....               DW      (??MainFsm_3) /2
   \   0000000C   ....               DW      (??MainFsm_5) /2
   \   0000000E   ....               DW      (??MainFsm_9) /2
   \   00000010   ....               DW      (??MainFsm_10) /2
   \   00000012   ....               DW      (??MainFsm_11) /2
   \   00000014   ....               DW      (??MainFsm_13) /2
   \   00000016   ....               DW      (??MainFsm_14) /2
   \   00000018   ....               DW      (??MainFsm_15) /2
   \   0000001A   ....               DW      (??MainFsm_16) /2
   \   0000001C   ....               DW      (??MainFsm_17) /2
   \   0000001E   ....               DW      (??MainFsm_18) /2
   \   00000020   ....               DW      (??MainFsm_19) /2
   \   00000022   ....               DW      (??MainFsm_20) /2
   \   00000024   ....               DW      (??MainFsm_21) /2

   \                                 In  segment CODE, align 2, keep-with-next
   \                     `?<Unnamed 12>`:
   \   00000000   ....               LDI     R22, LOW(`?<Unnamed 13>`/2)
   \   00000002   ....               LDI     R23, (`?<Unnamed 13>`/2) >> 8
   \   00000004   ....               RCALL   ?Subroutine23
   \                     ??CrossCallReturnLabel_13:
   \   00000006   ........           JMP     __near_vec_destroy

   \                                 In  segment CODE, align 2, keep-with-next
   \                     ?Subroutine23:
   \   00000000   E046               LDI     R20, 6
   \   00000002   E050               LDI     R21, 0
   \   00000004   E320               LDI     R18, 48
   \   00000006   E030               LDI     R19, 0
   \   00000008   ....               LDI     R16, LOW(??m_axAlarmWindowControl)
   \   0000000A   ....               LDI     R17, (??m_axAlarmWindowControl) >> 8
   \   0000000C   9508               RET

   \                                 In  segment CODE, align 2, keep-with-next
   \                     ?Subroutine35:
   \   00000000   E012               LDI     R17, 2
   \   00000002   9F01               MUL     R16, R17
   \   00000004   ....               RCALL   ?Subroutine62
   \                     ??CrossCallReturnLabel_84:
   \   00000006   A5A0               LDD     R26, Z+40
   \   00000008   A5B1               LDD     R27, Z+41
   \   0000000A   9508               RET

   \                                 In  segment CODE, align 2, keep-with-next
   \                     ?Subroutine43:
   \   00000000   E006               LDI     R16, 6
   \   00000002                      REQUIRE ??Subroutine91_0
   \   00000002                      ;               // Fall through to label ??Subroutine91_0

   \                                 In  segment CODE, align 2, keep-with-next
   \                     ??Subroutine91_0:
   \   00000000   9300....           STS     (??m_xDeviceConfigSearch + 46), R16
   \   00000004   9508               RET

   \                                 In  segment CODE, align 2, keep-with-next
   \                     ?Subroutine28:
   \   00000000   ....               LDI     R30, LOW(??m_xDeviceConfigSearch)
   \   00000002   ....               LDI     R31, (??m_xDeviceConfigSearch) >> 8
   \   00000004                      REQUIRE ?Subroutine79
   \   00000004                      ;               // Fall through to label ?Subroutine79

   \                                 In  segment CODE, align 2, keep-with-next
   \                     ?Subroutine24:
   \   00000000   ....               RCALL   ?Subroutine70
   \                     ??CrossCallReturnLabel_161:
   \   00000002   01F8               MOVW    R31:R30, R17:R16
   \   00000004   ....               SUBI    R30, LOW((-(??m_axAlarmWindowControl) & 0xFFFF))
   \   00000006   ....               SBCI    R31, (-(??m_axAlarmWindowControl) & 0xFFFF) >> 8
   \   00000008   9508               RET
   1405          

   Maximum stack usage in bytes:

   CSTACK RSTACK Function
   ------ ------ --------
      0      2   <Unnamed 0>
        0      2   -> CUart::~CUart()
      0      2   <Unnamed 10>
        0      2   -> CModbusRtuLinkControl::~CModbusRtuLinkControl()
      0      2   <Unnamed 11>
        0      2   -> CLightBoard::~CLightBoard()
      0      2   <Unnamed 12>
        0      2   -> __near_vec_destroy
      0      2   <Unnamed 13>
        0      2   -> CAlarmWindow::~CAlarmWindow()
      0      2   <Unnamed 1>
        0      2   -> CModbusRTU::~CModbusRTU()
      0      2   <Unnamed 2>
        0      2   -> CDataStore::~CDataStore()
      0      2   <Unnamed 3>
        0      2   -> CMultiFunctionKey::~CMultiFunctionKey()
      0      2   <Unnamed 4>
        0      2   -> CEventUniteLogicAnd::~CEventUniteLogicAnd()
      0      2   <Unnamed 5>
        0      2   -> CTimer::~CTimer()
      0      2   <Unnamed 6>
        0      2   -> CPreventiveAlarmWindowNotifyerControl::~CPreventiveAlarmWindowNotifyerControl()
      0      2   <Unnamed 7>
        0      2   -> CEmergencyAlarmWindowNotifyerControl::~CEmergencyAlarmWindowNotifyerControl()
      0      2   <Unnamed 8>
        0      2   -> CStatusLedNotifyerControl::~CStatusLedNotifyerControl()
      0      2   <Unnamed 9>
        0      2   -> CBuzzerNotifyerControl::~CBuzzerNotifyerControl()
      0      2   CPlatform::ExternalKeyState()
      0      2   CPlatform::KeyOneState()
      0      2   CPlatform::KeyThreeState()
      0      2   CPlatform::KeyTwoState()
      0      2   CPss21::ActiveAlarmWindowOff(uint8_t)
        0      2   -> CLightBoard::Set()
        0      6 ?S_EC_MUL_L02
      0      2   CPss21::ActiveAlarmWindowOn(uint8_t)
        0      2   -> CLightBoard::Set()
        0      6 ?S_EC_MUL_L02
      0      2   CPss21::AddressBusInit()
      0      2   CPss21::AlarmTypeChange()
        0      2   -> CPss21::AlarmTypeSet(uint8_t)
      0      2   CPss21::AlarmTypeReceipt()
        0      2   -> CPss21::AlarmTypeSet(uint8_t)
      0      2   CPss21::AlarmTypeReset()
        0      2   -> CPss21::AlarmTypeSet(uint8_t)
      1      2   CPss21::AlarmTypeSet(uint8_t)
        1      2   -> CBuzzerNotifyerControl::AlarmSet(uint8_t)
        1      2   -> CEmergencyAlarmWindowNotifyerControl::AlarmSet(uint8_t)
        1      2   -> CPreventiveAlarmWindowNotifyerControl::AlarmSet(uint8_t)
        1      2   -> CStatusLedNotifyerControl::AlarmSet(uint8_t)
      2      2   CPss21::AlarmsProcessing()
        2      2   -- Indirect call
      0      2   CPss21::AllAlarmWindowOff()
        0      2   -> CLightBoard::Set()
        0      4 ?S_EC_MUL_L02
      0      2   CPss21::AllAlarmWindowOn(uint8_t)
        0      2   -> CLightBoard::Set()
        0      4 ?S_EC_MUL_L02
      4      2   CPss21::ConfigurationInit()
        4      2   -> CDataBase::Read(uint8_t *, uint8_t)
        4      4   -> CDataBase::Read(uint8_t *, uint8_t)
        4      2   -> CEmergencyAlarmHighLevelDfa::new CEmergencyAlarmHighLevelDfa()
        4      2   -> CEmergencyAlarmLowLevelDfa::new CEmergencyAlarmLowLevelDfa()
        4      2   -> CIndicationAlarmHighLevelDfa::new CIndicationAlarmHighLevelDfa()
        4      2   -> CIndicationAlarmLowLevelDfa::new CIndicationAlarmLowLevelDfa()
        4      2   -> CNormalAlarmDfa::new CNormalAlarmDfa()
        4      2   -> CPreventiveAlarmHighLevelDfa::new CPreventiveAlarmHighLevelDfa()
        4      2   -> CPreventiveAlarmLowLevelDfa::new CPreventiveAlarmLowLevelDfa()
        4      2   -> memcpy
        4      2   -> memset
        4      2 ?SS_SHR_L02
      0      2   CPss21::ConnectDevice(uint8_t)
        0      2   -> CSpi::Enable()
     24      2   CPss21::CreateDevices()
       24      4   -- Indirect call
       24      2   -> CModuleMrXXDriver::new CModuleMrXXDriver(uint8_t)
       24      2   -> CMvsn21Driver::new CMvsn21Driver(uint8_t)
       24      2   -> CPss21::InitAllocationContext(TMemoryAllocationConext &)
      0      2   CPss21::DestroyDevices(uint8_t)
      0      2   CPss21::DisconnectDevice()
        0      2   -> CSpi::Disable()
      0      2   CPss21::DiscreteOutputControlClear()
      4      2   CPss21::DiscreteOutputsSet(uint8_t *, uint8_t)
        4      4 ?S_SHL_L02
      0      2   CPss21::DiscreteSignalsProcessing()
        0      2   -> CPss21::AlarmsProcessing()
        0      2   -> CPss21::DiscreteOutputControlClear()
      0      2   CPss21::ErrorMainCycle()
        0      2   -> CBuzzerNotifyerControl::AlarmSet(uint8_t)
        0      4   -> CModbusRTU::Fsm()
        0      2   -> CPss21::KeyStateProcessing()
        0      2   -> CPss21::NotifyersControlProcessing()
        0      2   -> CPss21::ReceiptResetGlobalFlagsClear()
        0      2   -> CStatusLedNotifyerControl::AlarmSet(uint8_t)
      0      2   CPss21::ErrorWindowOn(uint8_t)
        0      2   -> CLightBoard::Set()
        0      2 ?S_EC_MUL_L02
        0      4 ?S_EC_MUL_L02
      0      2   CPss21::GetDiscreteInputState(uint8_t)
      0      2   CPss21::GetTimeoutModbusRtuLinkControl()
        0      2 ?S_EC_MUL_L02
      0      2   CPss21::Init()
        0      2   -> CLightBoard::Init(CAlarmWindow *)
      0      2   CPss21::InitAllocationContext(TMemoryAllocationConext &)
      1      2   CPss21::KeyStateProcessing()
        1      2   -> CBuzzerNotifyerControl::AlarmSet(uint8_t)
        1      2   -> CEventUniteLogicAnd::IsHappened(uint8_t, uint8_t)
        1      2   -> CInputDevice::KeyEventHappened(uint8_t)
        1      4   -> CInputDevice::KeyEventHappened(uint8_t)
        1      2   -> CPss21::ModbusDefaultInit()
        1      4   -> CPss21::SendToDevicesReceipt()
        1      4   -> CPss21::SendToDevicesReset()
      0      2   CPss21::LinkControlErrorMainCycle()
        0      2   -> CDataStore::Fsm()
        0      4   -> CModbusRTU::Fsm()
        0      4   -> CModbusRtuLinkControl::Fsm()
        0      4   -> CPss21::KeyStateProcessing()
        0      2   -> CPss21::NotifyersControlProcessing()
        0      2   -> CPss21::ReceiptResetGlobalFlagsClear()
      0      2   CPss21::MainFsm()
        0      2   -> CBuzzer::Init()
        0      2   -> CBuzzerNotifyerControl::AlarmSet(uint8_t)
        0      2   -> CDataBase::Check()
        0      2   -> CDataStore::Fsm()
        0      4   -> CEmergencyAlarmWindowNotifyerControl::AlarmSet(uint8_t)
        0      4   -> CModbusRTU::Fsm()
        0      6   -> CModbusRTU::Fsm()
        0      4   -> CModbusRtuLinkControl::Fsm()
        0      2   -> CPlatform::Init()
        0      4   -> CPreventiveAlarmWindowNotifyerControl::AlarmSet(uint8_t)
        0      2   -> CPss21::AddressBusInit()
        0      2   -> CPss21::AlarmTypeSet(uint8_t)
        0      4   -> CPss21::AllAlarmWindowOff()
        0      2   -> CPss21::AllAlarmWindowOn(uint8_t)
        0      2   -> CPss21::ConfigurationInit()
        0      2   -> CPss21::CreateDevices()
        0      2   -> CPss21::DiscreteSignalsProcessing()
        0      2   -> CPss21::ErrorMainCycle()
        0      4   -> CPss21::ErrorWindowOn(uint8_t)
        0      2   -> CPss21::Init()
        0      4   -> CPss21::KeyStateProcessing()
        0      2   -> CPss21::LinkControlErrorMainCycle()
        0      2   -> CPss21::ModbusDefaultInit()
        0      2   -> CPss21::ModbusInit()
        0      2   -> CPss21::ModulesInteraction(uint8_t)
        0      2   -> CPss21::NotifyersControlProcessing()
        0      2   -> CPss21::ReceiptResetGlobalFlagsClear()
        0      4   -> CPss21::RestoreContextNotifyerControl()
        0      2   -> CPss21::SaveContextNotifyerControl()
        0      2   -> CPss21::SearchModules()
        0      2   -> CPss21::TestMainCycle()
        0      2   -> CSpi::Init()
        0      4   -> CStatusLedNotifyerControl::AlarmSet(uint8_t)
        0      4   -> CTimer::IsOverflow()
        0      2   -> CTimer::Reset()
        0      2   -> CTimer::Set(uint16_t)
        0      2 ?CV_SWITCH_L06
      0      2   CPss21::ModbusDefaultInit()
        0      2   -> CPss21::ModbusInit()
      0      2   CPss21::ModbusDeviceControl(uint8_t *, uint16_t, uint16_t)
        0      2   -> CPss21::SendToDevicesModbusReceipt()
        0      2   -> CPss21::SendToDevicesModbusReset()
        0      2   -> CPss21::SetBytesFromBits(uint8_t *, uint8_t *, uint16_t)
      1      2   CPss21::ModbusDeviceControl(uint8_t, uint16_t)
        1      2   -> CPss21::ModbusDeviceControl(uint8_t *, uint16_t, uint16_t)
     25      2   CPss21::ModbusInit()
        2      2   -> CModbus::SlaveSet(uint8_t)
        2      2   -> CModbusRTU::Init(CUart *, uint32_t, char, uint8_t, uint8_t, uint8_t *, uint8_t *, uint8_t *, uint8_t *, uint16_t *, uint16_t *, uint16_t, uint16_t, uint16_t, uint16_t)
       25      2 ?UL_DIVMOD_L03
       25      2 ?UL_SHR_L03
      0      2   CPss21::ModbusRtuLinkControlInProgress()
      0      2   CPss21::ModbusRtuLinkControlIsOn()
      2      2   CPss21::ModulesInteraction(uint8_t)
        2      2   -- Indirect call
      0      2   CPss21::NotifyersControlProcessing()
        0      2   -> CNotifyerControl::Fsm()
      0      2   CPss21::ReceiptResetGlobalFlagsClear()
      0      2   CPss21::ReportType(uint8_t *, uint16_t)
        0      4   -> CPss21::ConnectDevice(uint8_t)
        0      2   -> CPss21::DisconnectDevice()
        0      4   -> CSpi::Exchange(uint8_t *, uint8_t *, uint16_t)
        0      2   -> memset
      0      2   CPss21::RestoreContextNotifyerControl()
        0      2   -> CPss21::AlarmTypeSet(uint8_t)
        0      4 ?S_EC_MUL_L02
      0      2   CPss21::SaveContextNotifyerControl()
        0      4 ?S_EC_MUL_L02
      3      2   CPss21::SearchModules()
        3      4   -> CPss21::ConnectDevice(uint8_t)
        3      2   -> CPss21::DisconnectDevice()
        3      4   -> CSpi::Exchange(uint8_t *, uint8_t *, uint16_t)
        3      2   -> delay_ms(uint16_t)
        3      2   -> iCrcSummOneByteCompare(unsigned char *, unsigned int)
        3      2   -> memset
      0      2   CPss21::SendToDevicesModbusReceipt()
      0      2   CPss21::SendToDevicesModbusReset()
      0      2   CPss21::SendToDevicesReceipt()
      0      2   CPss21::SendToDevicesReset()
      0      2   CPss21::SetAlarmWindowType(uint8_t, uint8_t)
        0      4 ?S_EC_MUL_L02
      4      2   CPss21::SetBytesFromBits(uint8_t *, uint8_t *, uint16_t)
        4      2 ?SS_DIVMOD_L02
        4      2 ?S_SHL_L02
        4      4 ?S_SHL_L02
      0      2   CPss21::SetModeModbusRtuLinkControlInProgress(bool)
        0      2   -> CDataBase::GetBlockLength(uint8_t)
        0      2   -> CDataBase::Write(uint8_t *, uint16_t, uint8_t)
        0      2   -> CDataStore::CrcOfBlocksCrcCreate()
      0      2   CPss21::TestMainCycle()
        0      6   -> CModbusRTU::Fsm()
        0      4   -> CPss21::KeyStateProcessing()
        0      2   -> CPss21::NotifyersControlProcessing()
        0      2   -> CPss21::ReceiptResetGlobalFlagsClear()
     12      2   __sti__routine()
        0      2   -> CBuzzerNotifyerControl::CBuzzerNotifyerControl()
        0      2   -> CDataStore::CDataStore()
        0      2   -> CEmergencyAlarmWindowNotifyerControl::CEmergencyAlarmWindowNotifyerControl()
        0      2   -> CEventUniteLogicAnd::CEventUniteLogicAnd(uint16_t)
        0      2   -> CLightBoard::CLightBoard()
        0      2   -> CModbusRTU::CModbusRTU()
        0      2   -> CModbusRtuLinkControl::CModbusRtuLinkControl()
        0      2   -> CMultiFunctionKey::CMultiFunctionKey(uint8_t (*)())
        0      2   -> CPreventiveAlarmWindowNotifyerControl::CPreventiveAlarmWindowNotifyerControl()
        0      2   -> CStatusLedNotifyerControl::CStatusLedNotifyerControl()
        0      2   -> CTimer::CTimer(uint16_t)
        0      2   -> CUart::CUart(uint8_t volatile *, uint8_t volatile *, uint8_t volatile *, uint8_t volatile *, uint8_t volatile *, uint8_t volatile *, uint8_t volatile *, uint8_t, uint8_t volatile *, uint8_t)
        0      2   -> __near_vec_construct
        0      2   -> __record_needed_destruction


   Segment part sizes:

   Bytes  Function/Label
   -----  --------------
      96  ?<Initializer for >
      38  ?<Jumptable for MainFsm>_0
       6  ?<Unnamed 0>
       6  ?<Unnamed 10>
       6  ?<Unnamed 11>
      10  ?<Unnamed 12>
       6  ?<Unnamed 13>
       6  ?<Unnamed 1>
       6  ?<Unnamed 2>
       6  ?<Unnamed 3>
       6  ?<Unnamed 4>
       6  ?<Unnamed 5>
       6  ?<Unnamed 6>
       6  ?<Unnamed 7>
       6  ?<Unnamed 8>
       6  ?<Unnamed 9>
       4  ??Subroutine90_0
       6  ??Subroutine91_0
      10  ??Subroutine92_0
       2  ??Subroutine93_0
       8  ??Subroutine94_0
       6  ??Subroutine95_0
       4  ??Subroutine96_0
       8  ??Subroutine97_0
       2  ?Subroutine1
       8  ?Subroutine10
       4  ?Subroutine11
       4  ?Subroutine12
       6  ?Subroutine13
      26  ?Subroutine14
       8  ?Subroutine15
       6  ?Subroutine16
       2  ?Subroutine19
       6  ?Subroutine2
      16  ?Subroutine20
       8  ?Subroutine21
      14  ?Subroutine23
      10  ?Subroutine24
      10  ?Subroutine25
       6  ?Subroutine26
       6  ?Subroutine27
       4  ?Subroutine28
      18  ?Subroutine29
       6  ?Subroutine30
       8  ?Subroutine31
       4  ?Subroutine32
      38  ?Subroutine33
       8  ?Subroutine34
      12  ?Subroutine35
       4  ?Subroutine36
      16  ?Subroutine37
      12  ?Subroutine38
      10  ?Subroutine39
       2  ?Subroutine4
       4  ?Subroutine40
       6  ?Subroutine41
       4  ?Subroutine42
       2  ?Subroutine43
       2  ?Subroutine44
       6  ?Subroutine45
       4  ?Subroutine46
       2  ?Subroutine47
       4  ?Subroutine48
       6  ?Subroutine49
      12  ?Subroutine5
      10  ?Subroutine51
       2  ?Subroutine53
       4  ?Subroutine54
       8  ?Subroutine56
       6  ?Subroutine57
       8  ?Subroutine58
       8  ?Subroutine59
       4  ?Subroutine6
       8  ?Subroutine60
      10  ?Subroutine61
       8  ?Subroutine62
       8  ?Subroutine63
       4  ?Subroutine64
       4  ?Subroutine65
       4  ?Subroutine66
       2  ?Subroutine67
       8  ?Subroutine68
       6  ?Subroutine69
       2  ?Subroutine7
       4  ?Subroutine70
       6  ?Subroutine71
       4  ?Subroutine72
       6  ?Subroutine73
       6  ?Subroutine74
       2  ?Subroutine75
       4  ?Subroutine76
       4  ?Subroutine77
       4  ?Subroutine78
       4  ?Subroutine79
       6  ?Subroutine8
       4  ?Subroutine80
       4  ?Subroutine81
       4  ?Subroutine82
       4  ?Subroutine83
       6  ?Subroutine84
       4  ?Subroutine85
       4  ?Subroutine86
       2  ?Subroutine87
       4  ?Subroutine88
       6  ?Subroutine89
      96  ?_0
      14  CPlatform::ExternalKeyState()
      12  CPlatform::KeyOneState()
      12  CPlatform::KeyThreeState()
      12  CPlatform::KeyTwoState()
      18  CPss21::ActiveAlarmWindowOff(uint8_t)
      16  CPss21::ActiveAlarmWindowOn(uint8_t)
      22  CPss21::AddressBusInit()
      16  CPss21::AlarmTypeChange()
       2  CPss21::AlarmTypeReceipt()
       4  CPss21::AlarmTypeReset()
      22  CPss21::AlarmTypeSet(uint8_t)
      42  CPss21::AlarmsProcessing()
      14  CPss21::AllAlarmWindowOff()
      12  CPss21::AllAlarmWindowOn(uint8_t)
     472  CPss21::ConfigurationInit()
      46  CPss21::ConnectDevice(uint8_t)
     124  CPss21::CreateDevices()
      18  CPss21::DestroyDevices(uint8_t)
      16  CPss21::DisconnectDevice()
      34  CPss21::DiscreteOutputControlClear()
      82  CPss21::DiscreteOutputsSet(uint8_t *, uint8_t)
      16  CPss21::DiscreteSignalsProcessing()
      34  CPss21::ErrorMainCycle()
      42  CPss21::ErrorWindowOn(uint8_t)
      22  CPss21::GetDiscreteInputState(uint8_t)
      10  CPss21::GetTimeoutModbusRtuLinkControl()
      22  CPss21::Init()
      76  CPss21::InitAllocationContext(TMemoryAllocationConext &)
     124  CPss21::KeyStateProcessing()
       8  CPss21::LinkControlErrorMainCycle()
     246  CPss21::MainFsm()
      16  CPss21::ModbusDefaultInit()
      80  CPss21::ModbusDeviceControl(uint8_t *, uint16_t, uint16_t)
      18  CPss21::ModbusDeviceControl(uint8_t, uint16_t)
     142  CPss21::ModbusInit()
      10  CPss21::ModbusRtuLinkControlInProgress()
      10  CPss21::ModbusRtuLinkControlIsOn()
      40  CPss21::ModulesInteraction(uint8_t)
      22  CPss21::NotifyersControlProcessing()
      18  CPss21::ReceiptResetGlobalFlagsClear()
      40  CPss21::ReportType(uint8_t *, uint16_t)
      22  CPss21::RestoreContextNotifyerControl()
      18  CPss21::SaveContextNotifyerControl()
     124  CPss21::SearchModules()
      16  CPss21::SendToDevicesModbusReceipt()
      16  CPss21::SendToDevicesModbusReset()
      38  CPss21::SendToDevicesReceipt()
      16  CPss21::SendToDevicesReset()
      12  CPss21::SetAlarmWindowType(uint8_t, uint8_t)
      78  CPss21::SetBytesFromBits(uint8_t *, uint8_t *, uint16_t)
      38  CPss21::SetModeModbusRtuLinkControlInProgress(bool)
       2  CPss21::TestMainCycle()
     192  CPss21::m_apxAlarmDfa
     120  CPss21::m_aucRtuDiscreteDataArray
      48  CPss21::m_auiErrorLedOn
     256  CPss21::m_auiIntermediateBuff
     256  CPss21::m_auiReceiveMessageBuff
      64  CPss21::m_auiSpiRxBuffer
      64  CPss21::m_auiSpiTxBuffer
     288  CPss21::m_axAlarmWindowControl
       1  CPss21::m_uiType
     137  CPss21::m_xDataStore
     187  CPss21::m_xDeviceConfigSearch
          CPss21::m_xDeviceConfiguration
          CPss21::m_xModbusRtuLinkControl
          CPss21::m_apxDrivers
          CPss21::m_uiFsmState
          CPss21::m_uiPanelReceipt
          CPss21::m_uiPanelReset
          CPss21::m_uiExternalReceipt
          CPss21::m_uiExternalReset
          CPss21::m_uiModbusReceipt
          CPss21::m_uiModbusReset
          CPss21::m_uiDiscreteSignalsReceipt
          CPss21::m_uiDiscreteSignalsReset
          CPss21::m_uiErrorCode
          CPss21::m_uiModuleIndex
          CPss21::m_uiCommonAlarmType
          CPss21::m_uiCommonAlarmTypePrevious
          CPss21::m_xReceiptKey
          CPss21::m_xResetKey
          CPss21::m_xCheckKey
          CPss21::m_xExternalKey
          CPss21::m_xEventUniteLogicAndOne
          CPss21::m_xMainCycleTimer
          CPss21::m_xPreventiveAlarmWindowNotifyerControl
          CPss21::m_xEmergencyAlarmWindowNotifyerControl
          CPss21::m_xStatusLedNotifyerControl
          CPss21::m_xBuzzerNotifyerControl
      70  CPss21::m_xLightBoard
      49  CPss21::m_xModbusRtuOne
      87  CPss21::m_xModbusSettings
          CPss21::m_aucRtuHoldingRegistersArray
          CPss21::m_axDiscreteOutputControl
          CPss21::m_xDeviceState
          CPss21::m_aucRtuInputRegistersArray
          CPss21::m_xDiscreteOutputDataBase
      47  CPss21::m_xUart1
       1  _A_ACSR
       2  _A_ADC
       1  _A_ADCSRA
       1  _A_ADMUX
       1  _A_ASSR
       1  _A_DDRA
       1  _A_DDRB
       1  _A_DDRC
       1  _A_DDRD
       1  _A_DDRE
       1  _A_DDRF
       1  _A_DDRG
       2  _A_EEAR
       1  _A_EECR
       1  _A_EEDR
       1  _A_EICRA
       1  _A_EICRB
       1  _A_EIFR
       1  _A_EIMSK
       1  _A_ETIFR
       1  _A_ETIMSK
       2  _A_ICR1
       2  _A_ICR3
       1  _A_MCUCR
       1  _A_MCUCSR
       1  _A_OCDR
       1  _A_OCR0
       2  _A_OCR1A
       2  _A_OCR1B
       2  _A_OCR1C
       1  _A_OCR2
       2  _A_OCR3A
       2  _A_OCR3B
       2  _A_OCR3C
       1  _A_OSCCAL
       1  _A_PINA
       1  _A_PINB
       1  _A_PINC
       1  _A_PIND
       1  _A_PINE
       1  _A_PINF
       1  _A_PING
       1  _A_PORTA
       1  _A_PORTB
       1  _A_PORTC
       1  _A_PORTD
       1  _A_PORTE
       1  _A_PORTF
       1  _A_PORTG
       1  _A_RAMPZ
       1  _A_SFIOR
       2  _A_SP
       1  _A_SPCR
       1  _A_SPDR
       1  _A_SPMCSR
       1  _A_SPSR
       1  _A_SREG
       1  _A_TCCR0
       1  _A_TCCR1A
       1  _A_TCCR1B
       1  _A_TCCR1C
       1  _A_TCCR2
       1  _A_TCCR3A
       1  _A_TCCR3B
       1  _A_TCCR3C
       1  _A_TCNT0
       2  _A_TCNT1
       1  _A_TCNT2
       2  _A_TCNT3
       1  _A_TIFR
       1  _A_TIMSK
       1  _A_TWAR
       1  _A_TWBR
       1  _A_TWCR
       1  _A_TWDR
       1  _A_TWSR
       1  _A_UBRR0H
       1  _A_UBRR0L
       1  _A_UBRR1H
       1  _A_UBRR1L
       1  _A_UCSR0A
       1  _A_UCSR0B
       1  _A_UCSR0C
       1  _A_UCSR1A
       1  _A_UCSR1B
       1  _A_UCSR1C
       1  _A_UDR0
       1  _A_UDR1
       1  _A_WDTCR
       1  _A_XDIV
       1  _A_XMCRA
       1  _A_XMCRB
     280  __sti__routine()
      84  -- Other

 
   105 bytes in segment ABSOLUTE
 3 344 bytes in segment CODE
     2 bytes in segment DIFUNCT
    14 bytes in segment INITTAB
    84 bytes in segment NEAR_F
    96 bytes in segment NEAR_I
    96 bytes in segment NEAR_ID
 1 850 bytes in segment NEAR_Z
    38 bytes in segment SWITCH
 
 3 514 bytes of CODE memory (+  64 bytes shared)
 1 946 bytes of DATA memory (+ 105 bytes shared)

Errors: none
Warnings: none
