///////////////////////////////////////////////////////////////////////////////
//
// IAR C/C++ Compiler V7.10.6.1378 for Atmel AVR          16/Aug/2022  18:13:38
// Copyright 1996-2018 IAR Systems AB.
//
//    Source file  =  D:\Projects\CautoProjects\PSS48\PSS48\src\Pss21.cpp
//    Command line =  
//        -f C:\Users\ghost\AppData\Local\Temp\EW2D97.tmp
//        (--string_literals_in_flash
//        D:\Projects\CautoProjects\PSS48\PSS48\src\Pss21.cpp --cpu=m128a -ms
//        -o D:\Projects\CautoProjects\PSS48\PSS48\Debug\Obj -lC
//        D:\Projects\CautoProjects\PSS48\PSS48\Debug\List -lB
//        D:\Projects\CautoProjects\PSS48\PSS48\Debug\List -y
//        --initializers_in_flash --root_variables --debug
//        -DENABLE_BIT_DEFINITIONS -e -I
//        D:\Projects\CautoProjects\PSS48\PSS48\include\ -I
//        D:\Projects\CautoProjects\PSS48\PSS48\Modbus\ --eeprom_size 4096
//        --dlib --dlib_config "C:\Program Files (x86)\IAR Systems\Embedded
//        Workbench 8.0\avr\LIB\DLIB\dlAVR-3s-ec_mul-n.h" -Ohz --eec++)
//    Locale       =  Russian_RUS.1251
//    List file    =  
//        D:\Projects\CautoProjects\PSS48\PSS48\Debug\List\Pss21.s90
//
///////////////////////////////////////////////////////////////////////////////

        NAME Pss21

        RSEG CSTACK:DATA:NOROOT(0)
        RSEG RSTACK:DATA:NOROOT(0)

        ERROR
//NOTE: This module defines or uses C++ features that are not
//      accessible from assembler code. Assembling this file will
//      not produce an equivalent object file to the one produced
//      by the C++ compiler.

        EXTERN ?CV_SWITCH_L06
        EXTERN ?EPILOGUE_B4_L09
        EXTERN ?EPILOGUE_B5_L09
        EXTERN ?PROLOGUE4_L09
        EXTERN ?PROLOGUE5_L09
        EXTERN ?Register_R4_is_cg_reg
        EXTERN ?SS_DIVMOD_L02
        EXTERN ?SS_SHR_L02
        EXTERN ?S_EC_MUL_L02
        EXTERN ?S_SHL_L02
        EXTERN ?UL_DIVMOD_L03
        EXTERN ?UL_SHR_L03
        EXTERN ?call_ctors
        EXTERN ?need_segment_init

        PUBWEAK `?<Segment init: NEAR_I>`
        PUBWEAK `?<Segment init: NEAR_Z>`
        PUBLIC ??ActiveAlarmWindowOff
        PUBLIC ??ActiveAlarmWindowOn
        PUBLIC ??AddressBusInit
        PUBLIC ??AlarmTypeChange
        PUBLIC ??AlarmTypeErrorChange
        PUBLIC ??AlarmTypeReceipt
        PUBLIC ??AlarmTypeReset
        PUBLIC ??AlarmTypeSet
        PUBLIC ??AlarmsProcessing
        PUBLIC ??AllAlarmWindowOff
        PUBLIC ??AllAlarmWindowOn
        PUBLIC ??ConfigurationInit
        PUBLIC ??ConnectDevice
        PUBLIC ??CreateDevices
        PUBLIC ??DestroyDevices
        PUBLIC ??DisconnectDevice
        PUBLIC ??DiscreteOutputControlClear
        PUBLIC ??DiscreteOutputsSet
        PUBLIC ??DiscreteSignalsProcessing
        PUBLIC ??ErrorAlarmsProcessing
        PUBLIC ??ErrorMainCycle
        PUBLIC ??ErrorWindowOn
        PUBWEAK ??ExternalKeyState
        PUBLIC ??GetDiscreteInputState
        PUBLIC ??GetErrorAlarmState
        PUBLIC ??GetTimeoutModbusRtuLinkControl
        PUBLIC ??Init
        PUBLIC ??InitAllocationContext
        PUBWEAK ??KeyOneState
        PUBLIC ??KeyStateProcessing
        PUBWEAK ??KeyThreeState
        PUBWEAK ??KeyTwoState
        PUBLIC ??LinkControlErrorMainCycle
        PUBLIC ??MainFsm
        PUBLIC ??ModbusDefaultInit
        PUBLIC ??ModbusDeviceControl
        PUBLIC ??ModbusDeviceControl_1
        PUBLIC ??ModbusInit
        PUBLIC ??ModbusRtuLinkControlInProgress
        PUBLIC ??ModbusRtuLinkControlIsOn
        PUBLIC ??ModulesInteraction
        PUBLIC ??NotifyersControlProcessing
        PUBLIC ??ReceiptResetGlobalFlagsClear
        PUBLIC ??ReportType
        PUBLIC ??RestoreContextNotifyerControl
        PUBLIC ??SaveContextNotifyerControl
        PUBLIC ??SearchModules
        PUBLIC ??SendToDevicesModbusReceipt
        PUBLIC ??SendToDevicesModbusReset
        PUBLIC ??SendToDevicesReceipt
        PUBLIC ??SendToDevicesReset
        PUBLIC ??SetAlarmWindowType
        PUBLIC ??SetBytesFromBits
        PUBLIC ??SetErrorAlarmState
        PUBLIC ??SetModeModbusRtuLinkControlInProgress
        PUBLIC ??TestMainCycle
        PUBLIC ??m_apxAlarmDfa
        PUBLIC ??m_apxDrivers
        PUBLIC ??m_apxErrorAlarmDfa
        PUBLIC ??m_aucRtuDiscreteDataArray
        PUBLIC ??m_aucRtuHoldingRegistersArray
        PUBLIC ??m_aucRtuInputRegistersArray
        PUBLIC ??m_auiErrorAlarmDataArray
        PUBLIC ??m_auiErrorLedOn
        PUBLIC ??m_auiIntermediateBuff
        PUBLIC ??m_auiReceiveMessageBuff
        PUBLIC ??m_auiSpiRxBuffer
        PUBLIC ??m_auiSpiTxBuffer
        PUBLIC ??m_axAlarmWindowControl
        PUBLIC ??m_axDiscreteOutputControl
        PUBLIC ??m_uiCommonAlarmType
        PUBLIC ??m_uiCommonAlarmTypePrevious
        PUBLIC ??m_uiDiscreteSignalsReceipt
        PUBLIC ??m_uiDiscreteSignalsReset
        PUBLIC ??m_uiErrorCode
        PUBLIC ??m_uiExternalReceipt
        PUBLIC ??m_uiExternalReset
        PUBLIC ??m_uiFsmState
        PUBLIC ??m_uiModbusReceipt
        PUBLIC ??m_uiModbusReset
        PUBLIC ??m_uiModuleIndex
        PUBLIC ??m_uiPanelReceipt
        PUBLIC ??m_uiPanelReset
        PUBLIC ??m_uiType
        PUBLIC ??m_xBuzzerNotifyerControl
        PUBLIC ??m_xCheckKey
        PUBLIC ??m_xDeviceConfigSearch
        PUBLIC ??m_xDeviceConfiguration
        PUBLIC ??m_xDeviceState
        PUBLIC ??m_xDiscreteOutputDataBase
        PUBLIC ??m_xEmergencyAlarmWindowNotifyerControl
        PUBLIC ??m_xEventUniteLogicAndOne
        PUBLIC ??m_xExternalKey
        PUBLIC ??m_xMainCycleTimer
        PUBLIC ??m_xModbusRtuLinkControl
        PUBLIC ??m_xModbusRtuOne
        PUBLIC ??m_xModbusSettings
        PUBLIC ??m_xPreventiveAlarmWindowNotifyerControl
        PUBLIC ??m_xReceiptKey
        PUBLIC ??m_xResetKey
        PUBLIC ??m_xStatusLedNotifyerControl
        PUBLIC ??m_xUart1
        PUBWEAK _A_ACSR
        PUBWEAK _A_ADC
        PUBWEAK _A_ADCSRA
        PUBWEAK _A_ADMUX
        PUBWEAK _A_ASSR
        PUBWEAK _A_DDRA
        PUBWEAK _A_DDRB
        PUBWEAK _A_DDRC
        PUBWEAK _A_DDRD
        PUBWEAK _A_DDRE
        PUBWEAK _A_DDRF
        PUBWEAK _A_DDRG
        PUBWEAK _A_EEAR
        PUBWEAK _A_EECR
        PUBWEAK _A_EEDR
        PUBWEAK _A_EICRA
        PUBWEAK _A_EICRB
        PUBWEAK _A_EIFR
        PUBWEAK _A_EIMSK
        PUBWEAK _A_ETIFR
        PUBWEAK _A_ETIMSK
        PUBWEAK _A_ICR1
        PUBWEAK _A_ICR3
        PUBWEAK _A_MCUCR
        PUBWEAK _A_MCUCSR
        PUBWEAK _A_OCDR
        PUBWEAK _A_OCR0
        PUBWEAK _A_OCR1A
        PUBWEAK _A_OCR1B
        PUBWEAK _A_OCR1C
        PUBWEAK _A_OCR2
        PUBWEAK _A_OCR3A
        PUBWEAK _A_OCR3B
        PUBWEAK _A_OCR3C
        PUBWEAK _A_OSCCAL
        PUBWEAK _A_PINA
        PUBWEAK _A_PINB
        PUBWEAK _A_PINC
        PUBWEAK _A_PIND
        PUBWEAK _A_PINE
        PUBWEAK _A_PINF
        PUBWEAK _A_PING
        PUBWEAK _A_PORTA
        PUBWEAK _A_PORTB
        PUBWEAK _A_PORTC
        PUBWEAK _A_PORTD
        PUBWEAK _A_PORTE
        PUBWEAK _A_PORTF
        PUBWEAK _A_PORTG
        PUBWEAK _A_RAMPZ
        PUBWEAK _A_SFIOR
        PUBWEAK _A_SP
        PUBWEAK _A_SPCR
        PUBWEAK _A_SPDR
        PUBWEAK _A_SPMCSR
        PUBWEAK _A_SPSR
        PUBWEAK _A_SREG
        PUBWEAK _A_TCCR0
        PUBWEAK _A_TCCR1A
        PUBWEAK _A_TCCR1B
        PUBWEAK _A_TCCR1C
        PUBWEAK _A_TCCR2
        PUBWEAK _A_TCCR3A
        PUBWEAK _A_TCCR3B
        PUBWEAK _A_TCCR3C
        PUBWEAK _A_TCNT0
        PUBWEAK _A_TCNT1
        PUBWEAK _A_TCNT2
        PUBWEAK _A_TCNT3
        PUBWEAK _A_TIFR
        PUBWEAK _A_TIMSK
        PUBWEAK _A_TWAR
        PUBWEAK _A_TWBR
        PUBWEAK _A_TWCR
        PUBWEAK _A_TWDR
        PUBWEAK _A_TWSR
        PUBWEAK _A_UBRR0H
        PUBWEAK _A_UBRR0L
        PUBWEAK _A_UBRR1H
        PUBWEAK _A_UBRR1L
        PUBWEAK _A_UCSR0A
        PUBWEAK _A_UCSR0B
        PUBWEAK _A_UCSR0C
        PUBWEAK _A_UCSR1A
        PUBWEAK _A_UCSR1B
        PUBWEAK _A_UCSR1C
        PUBWEAK _A_UDR0
        PUBWEAK _A_UDR1
        PUBWEAK _A_WDTCR
        PUBWEAK _A_XDIV
        PUBWEAK _A_XMCRA
        PUBWEAK _A_XMCRB
        PUBWEAK __?EEARH
        PUBWEAK __?EEARL
        PUBWEAK __?EECR
        PUBWEAK __?EEDR

`?<Name CPlatform 130>` SYMBOL "CPlatform"
??m_pxUart1         SYMBOL "m_pxUart1", `?<Name CPlatform 130>`
`?<Name CPss21 244>` SYMBOL "CPss21"
??m_apxAlarmDfa     SYMBOL "m_apxAlarmDfa", `?<Name CPss21 244>`
??m_apxDrivers      SYMBOL "m_apxDrivers", `?<Name CPss21 244>`
??m_apxErrorAlarmDfa SYMBOL "m_apxErrorAlarmDfa", `?<Name CPss21 244>`
??m_aucRtuDiscreteDataArray SYMBOL "m_aucRtuDiscreteDataArray", `?<Name CPss21 244>`
??m_aucRtuHoldingRegistersArray SYMBOL "m_aucRtuHoldingRegistersArray", `?<Name CPss21 244>`
??m_aucRtuInputRegistersArray SYMBOL "m_aucRtuInputRegistersArray", `?<Name CPss21 244>`
??m_auiErrorAlarmDataArray SYMBOL "m_auiErrorAlarmDataArray", `?<Name CPss21 244>`
??m_auiErrorLedOn   SYMBOL "m_auiErrorLedOn", `?<Name CPss21 244>`
??m_auiIntermediateBuff SYMBOL "m_auiIntermediateBuff", `?<Name CPss21 244>`
??m_auiReceiveMessageBuff SYMBOL "m_auiReceiveMessageBuff", `?<Name CPss21 244>`
??m_auiSpiRxBuffer  SYMBOL "m_auiSpiRxBuffer", `?<Name CPss21 244>`
??m_auiSpiTxBuffer  SYMBOL "m_auiSpiTxBuffer", `?<Name CPss21 244>`
??m_axAlarmWindowControl SYMBOL "m_axAlarmWindowControl", `?<Name CPss21 244>`
??m_axDiscreteOutputControl SYMBOL "m_axDiscreteOutputControl", `?<Name CPss21 244>`
??m_uiCommonAlarmType SYMBOL "m_uiCommonAlarmType", `?<Name CPss21 244>`
??m_uiCommonAlarmTypePrevious SYMBOL "m_uiCommonAlarmTypePrevious", `?<Name CPss21 244>`
??m_uiDiscreteSignalsReceipt SYMBOL "m_uiDiscreteSignalsReceipt", `?<Name CPss21 244>`
??m_uiDiscreteSignalsReset SYMBOL "m_uiDiscreteSignalsReset", `?<Name CPss21 244>`
??m_uiErrorCode     SYMBOL "m_uiErrorCode", `?<Name CPss21 244>`
??m_uiExternalReceipt SYMBOL "m_uiExternalReceipt", `?<Name CPss21 244>`
??m_uiExternalReset SYMBOL "m_uiExternalReset", `?<Name CPss21 244>`
??m_uiFsmState      SYMBOL "m_uiFsmState", `?<Name CPss21 244>`
??m_uiModbusReceipt SYMBOL "m_uiModbusReceipt", `?<Name CPss21 244>`
??m_uiModbusReset   SYMBOL "m_uiModbusReset", `?<Name CPss21 244>`
??m_uiModuleIndex   SYMBOL "m_uiModuleIndex", `?<Name CPss21 244>`
??m_uiPanelReceipt  SYMBOL "m_uiPanelReceipt", `?<Name CPss21 244>`
??m_uiPanelReset    SYMBOL "m_uiPanelReset", `?<Name CPss21 244>`
??m_uiType          SYMBOL "m_uiType", `?<Name CPss21 244>`
??m_xBuzzerNotifyerControl SYMBOL "m_xBuzzerNotifyerControl", `?<Name CPss21 244>`
??m_xCheckKey       SYMBOL "m_xCheckKey", `?<Name CPss21 244>`
??m_xDeviceConfigSearch SYMBOL "m_xDeviceConfigSearch", `?<Name CPss21 244>`
??m_xDeviceConfiguration SYMBOL "m_xDeviceConfiguration", `?<Name CPss21 244>`
??m_xDeviceState    SYMBOL "m_xDeviceState", `?<Name CPss21 244>`
??m_xDiscreteOutputDataBase SYMBOL "m_xDiscreteOutputDataBase", `?<Name CPss21 244>`
??m_xEmergencyAlarmWindowNotifyerControl SYMBOL "m_xEmergencyAlarmWindowNotifyerControl", `?<Name CPss21 244>`
??m_xEventUniteLogicAndOne SYMBOL "m_xEventUniteLogicAndOne", `?<Name CPss21 244>`
??m_xExternalKey    SYMBOL "m_xExternalKey", `?<Name CPss21 244>`
??m_xMainCycleTimer SYMBOL "m_xMainCycleTimer", `?<Name CPss21 244>`
??m_xModbusRtuLinkControl SYMBOL "m_xModbusRtuLinkControl", `?<Name CPss21 244>`
??m_xModbusRtuOne   SYMBOL "m_xModbusRtuOne", `?<Name CPss21 244>`
??m_xModbusSettings SYMBOL "m_xModbusSettings", `?<Name CPss21 244>`
??m_xPreventiveAlarmWindowNotifyerControl SYMBOL "m_xPreventiveAlarmWindowNotifyerControl", `?<Name CPss21 244>`
??m_xReceiptKey     SYMBOL "m_xReceiptKey", `?<Name CPss21 244>`
??m_xResetKey       SYMBOL "m_xResetKey", `?<Name CPss21 244>`
??m_xStatusLedNotifyerControl SYMBOL "m_xStatusLedNotifyerControl", `?<Name CPss21 244>`
??m_xUart1          SYMBOL "m_xUart1", `?<Name CPss21 244>`

        EXTERN ??AlarmSet
        EXTERN ??AlarmSet_1
        EXTERN ??AlarmSet_2
        EXTERN ??AlarmSet_3
        EXTERN ??CAlarmWindow
        EXTERN ??CBuzzerNotifyerControl
        EXTERN ??CEmergencyAlarmWindowNotifyerControl
        EXTERN ??CEventUniteLogicAnd
        EXTERN ??CModbusRTU
        EXTERN ??CModbusRtuLinkControl
        EXTERN ??CMultiFunctionKey
        EXTERN ??CPreventiveAlarmWindowNotifyerControl
        EXTERN ??CStatusLedNotifyerControl
        EXTERN ??CTimer
        EXTERN ??CUart
        EXTERN ??Check
        EXTERN ??Disable
        EXTERN ??Enable
        EXTERN ??Exchange
        EXTERN ??Fsm
        EXTERN ??Fsm_1
        EXTERN ??Fsm_2
        EXTERN ??Fsm_3
        EXTERN ??Init_1
        EXTERN ??Init_2
        EXTERN ??Init_3
        EXTERN ??Init_4
        EXTERN ??Init_5
        EXTERN ??IsHappened
        EXTERN ??IsOverflow
        EXTERN ??KeyEventHappened
        EXTERN ??ReadBlock
        EXTERN ??Reset
        EXTERN ??Set
        EXTERN ??Set_1
        EXTERN ??SignatureCreate
        EXTERN ??SlaveSet
        EXTERN ??WriteBlock
        EXTERN ??delay_ms
        EXTERN ??iCrcSummOneByteCompare
        EXTERN ??m_pxUart1
        EXTERN `??new CEmergencyAlarmHighLevelDfa`
        EXTERN `??new CEmergencyAlarmLowLevelDfa`
        EXTERN `??new CErrorAlarmDfa`
        EXTERN `??new CIndicationAlarmHighLevelDfa`
        EXTERN `??new CIndicationAlarmLowLevelDfa`
        EXTERN `??new CModuleMrXXDriver`
        EXTERN `??new CMvsn21Driver`
        EXTERN `??new CNormalAlarmDfa`
        EXTERN `??new CPreventiveAlarmHighLevelDfa`
        EXTERN `??new CPreventiveAlarmLowLevelDfa`
        EXTERN `?~CAlarmWindow`
        EXTERN `?~CBuzzerNotifyerControl`
        EXTERN `?~CEmergencyAlarmWindowNotifyerControl`
        EXTERN `?~CEventUniteLogicAnd`
        EXTERN `?~CModbusRTU`
        EXTERN `?~CModbusRtuLinkControl`
        EXTERN `?~CMultiFunctionKey`
        EXTERN `?~CPreventiveAlarmWindowNotifyerControl`
        EXTERN `?~CStatusLedNotifyerControl`
        EXTERN `?~CTimer`
        EXTERN `?~CUart`
        EXTERN __near_vec_construct
        EXTERN __near_vec_destroy
        EXTERN __record_needed_destruction
        EXTERN memcpy
        EXTERN memset

// D:\Projects\CautoProjects\PSS48\PSS48\src\Pss21.cpp
//    1 //-----------------------------------------------------------------------------------------------------
//    2 //  Sourse      : FileName.cpp
//    3 //  Created     : 01.06.2022
//    4 //  Author      : Alexandr Volvenkin
//    5 //  email       : aav-36@mail.ru
//    6 //  GitHub      : https://github.com/AlexandrVolvenkin
//    7 //-----------------------------------------------------------------------------------------------------
//    8 #include "Pss21.h"

        ASEGN ABSOLUTE:DATA:ROOT,09dH
// union <unnamed> volatile __io _A_UCSR1C
_A_UCSR1C:
        DS8 1

        ASEGN ABSOLUTE:DATA:ROOT,09cH
// union <unnamed> volatile __io _A_UDR1
_A_UDR1:
        DS8 1

        ASEGN ABSOLUTE:DATA:ROOT,09bH
// union <unnamed> volatile __io _A_UCSR1A
_A_UCSR1A:
        DS8 1

        ASEGN ABSOLUTE:DATA:ROOT,09aH
// union <unnamed> volatile __io _A_UCSR1B
_A_UCSR1B:
        DS8 1

        ASEGN ABSOLUTE:DATA:ROOT,099H
// union <unnamed> volatile __io _A_UBRR1L
_A_UBRR1L:
        DS8 1

        ASEGN ABSOLUTE:DATA:ROOT,098H
// union <unnamed> volatile __io _A_UBRR1H
_A_UBRR1H:
        DS8 1

        ASEGN ABSOLUTE:DATA:ROOT,095H
// union <unnamed> volatile __io _A_UCSR0C
_A_UCSR0C:
        DS8 1

        ASEGN ABSOLUTE:DATA:ROOT,090H
// union <unnamed> volatile __io _A_UBRR0H
_A_UBRR0H:
        DS8 1

        ASEGN ABSOLUTE:DATA:ROOT,08cH
// union <unnamed> volatile __io _A_TCCR3C
_A_TCCR3C:
        DS8 1

        ASEGN ABSOLUTE:DATA:ROOT,08bH
// union <unnamed> volatile __io _A_TCCR3A
_A_TCCR3A:
        DS8 1

        ASEGN ABSOLUTE:DATA:ROOT,08aH
// union <unnamed> volatile __io _A_TCCR3B
_A_TCCR3B:
        DS8 1

        ASEGN ABSOLUTE:DATA:ROOT,088H
// union <unnamed> volatile __io _A_TCNT3
_A_TCNT3:
        DS8 2

        ASEGN ABSOLUTE:DATA:ROOT,086H
// union <unnamed> volatile __io _A_OCR3A
_A_OCR3A:
        DS8 2

        ASEGN ABSOLUTE:DATA:ROOT,084H
// union <unnamed> volatile __io _A_OCR3B
_A_OCR3B:
        DS8 2

        ASEGN ABSOLUTE:DATA:ROOT,082H
// union <unnamed> volatile __io _A_OCR3C
_A_OCR3C:
        DS8 2

        ASEGN ABSOLUTE:DATA:ROOT,080H
// union <unnamed> volatile __io _A_ICR3
_A_ICR3:
        DS8 2

        ASEGN ABSOLUTE:DATA:ROOT,07dH
// union <unnamed> volatile __io _A_ETIMSK
_A_ETIMSK:
        DS8 1

        ASEGN ABSOLUTE:DATA:ROOT,07cH
// union <unnamed> volatile __io _A_ETIFR
_A_ETIFR:
        DS8 1

        ASEGN ABSOLUTE:DATA:ROOT,07aH
// union <unnamed> volatile __io _A_TCCR1C
_A_TCCR1C:
        DS8 1

        ASEGN ABSOLUTE:DATA:ROOT,078H
// union <unnamed> volatile __io _A_OCR1C
_A_OCR1C:
        DS8 2

        ASEGN ABSOLUTE:DATA:ROOT,074H
// union <unnamed> volatile __io _A_TWCR
_A_TWCR:
        DS8 1

        ASEGN ABSOLUTE:DATA:ROOT,073H
// union <unnamed> volatile __io _A_TWDR
_A_TWDR:
        DS8 1

        ASEGN ABSOLUTE:DATA:ROOT,072H
// union <unnamed> volatile __io _A_TWAR
_A_TWAR:
        DS8 1

        ASEGN ABSOLUTE:DATA:ROOT,071H
// union <unnamed> volatile __io _A_TWSR
_A_TWSR:
        DS8 1

        ASEGN ABSOLUTE:DATA:ROOT,070H
// union <unnamed> volatile __io _A_TWBR
_A_TWBR:
        DS8 1

        ASEGN ABSOLUTE:DATA:ROOT,06fH
// union <unnamed> volatile __io _A_OSCCAL
_A_OSCCAL:
        DS8 1

        ASEGN ABSOLUTE:DATA:ROOT,06dH
// union <unnamed> volatile __io _A_XMCRA
_A_XMCRA:
        DS8 1

        ASEGN ABSOLUTE:DATA:ROOT,06cH
// union <unnamed> volatile __io _A_XMCRB
_A_XMCRB:
        DS8 1

        ASEGN ABSOLUTE:DATA:ROOT,06aH
// union <unnamed> volatile __io _A_EICRA
_A_EICRA:
        DS8 1

        ASEGN ABSOLUTE:DATA:ROOT,068H
// union <unnamed> volatile __io _A_SPMCSR
_A_SPMCSR:
        DS8 1

        ASEGN ABSOLUTE:DATA:ROOT,065H
// union <unnamed> volatile __io _A_PORTG
_A_PORTG:
        DS8 1

        ASEGN ABSOLUTE:DATA:ROOT,064H
// union <unnamed> volatile __io _A_DDRG
_A_DDRG:
        DS8 1

        ASEGN ABSOLUTE:DATA:ROOT,063H
// union <unnamed> volatile __io _A_PING
_A_PING:
        DS8 1

        ASEGN ABSOLUTE:DATA:ROOT,062H
// union <unnamed> volatile __io _A_PORTF
_A_PORTF:
        DS8 1

        ASEGN ABSOLUTE:DATA:ROOT,061H
// union <unnamed> volatile __io _A_DDRF
_A_DDRF:
        DS8 1

        ASEGN ABSOLUTE:DATA:ROOT,05fH
// union <unnamed> volatile __io _A_SREG
_A_SREG:
        DS8 1

        ASEGN ABSOLUTE:DATA:ROOT,05dH
// union <unnamed> volatile __io _A_SP
_A_SP:
        DS8 2

        ASEGN ABSOLUTE:DATA:ROOT,05cH
// union <unnamed> volatile __io _A_XDIV
_A_XDIV:
        DS8 1

        ASEGN ABSOLUTE:DATA:ROOT,05bH
// union <unnamed> volatile __io _A_RAMPZ
_A_RAMPZ:
        DS8 1

        ASEGN ABSOLUTE:DATA:ROOT,05aH
// union <unnamed> volatile __io _A_EICRB
_A_EICRB:
        DS8 1

        ASEGN ABSOLUTE:DATA:ROOT,059H
// union <unnamed> volatile __io _A_EIMSK
_A_EIMSK:
        DS8 1

        ASEGN ABSOLUTE:DATA:ROOT,058H
// union <unnamed> volatile __io _A_EIFR
_A_EIFR:
        DS8 1

        ASEGN ABSOLUTE:DATA:ROOT,057H
// union <unnamed> volatile __io _A_TIMSK
_A_TIMSK:
        DS8 1

        ASEGN ABSOLUTE:DATA:ROOT,056H
// union <unnamed> volatile __io _A_TIFR
_A_TIFR:
        DS8 1

        ASEGN ABSOLUTE:DATA:ROOT,055H
// union <unnamed> volatile __io _A_MCUCR
_A_MCUCR:
        DS8 1

        ASEGN ABSOLUTE:DATA:ROOT,054H
// union <unnamed> volatile __io _A_MCUCSR
_A_MCUCSR:
        DS8 1

        ASEGN ABSOLUTE:DATA:ROOT,053H
// union <unnamed> volatile __io _A_TCCR0
_A_TCCR0:
        DS8 1

        ASEGN ABSOLUTE:DATA:ROOT,052H
// union <unnamed> volatile __io _A_TCNT0
_A_TCNT0:
        DS8 1

        ASEGN ABSOLUTE:DATA:ROOT,051H
// union <unnamed> volatile __io _A_OCR0
_A_OCR0:
        DS8 1

        ASEGN ABSOLUTE:DATA:ROOT,050H
// union <unnamed> volatile __io _A_ASSR
_A_ASSR:
        DS8 1

        ASEGN ABSOLUTE:DATA:ROOT,04fH
// union <unnamed> volatile __io _A_TCCR1A
_A_TCCR1A:
        DS8 1

        ASEGN ABSOLUTE:DATA:ROOT,04eH
// union <unnamed> volatile __io _A_TCCR1B
_A_TCCR1B:
        DS8 1

        ASEGN ABSOLUTE:DATA:ROOT,04cH
// union <unnamed> volatile __io _A_TCNT1
_A_TCNT1:
        DS8 2

        ASEGN ABSOLUTE:DATA:ROOT,04aH
// union <unnamed> volatile __io _A_OCR1A
_A_OCR1A:
        DS8 2

        ASEGN ABSOLUTE:DATA:ROOT,048H
// union <unnamed> volatile __io _A_OCR1B
_A_OCR1B:
        DS8 2

        ASEGN ABSOLUTE:DATA:ROOT,046H
// union <unnamed> volatile __io _A_ICR1
_A_ICR1:
        DS8 2

        ASEGN ABSOLUTE:DATA:ROOT,045H
// union <unnamed> volatile __io _A_TCCR2
_A_TCCR2:
        DS8 1

        ASEGN ABSOLUTE:DATA:ROOT,044H
// union <unnamed> volatile __io _A_TCNT2
_A_TCNT2:
        DS8 1

        ASEGN ABSOLUTE:DATA:ROOT,043H
// union <unnamed> volatile __io _A_OCR2
_A_OCR2:
        DS8 1

        ASEGN ABSOLUTE:DATA:ROOT,042H
// union <unnamed> volatile __io _A_OCDR
_A_OCDR:
        DS8 1

        ASEGN ABSOLUTE:DATA:ROOT,041H
// union <unnamed> volatile __io _A_WDTCR
_A_WDTCR:
        DS8 1

        ASEGN ABSOLUTE:DATA:ROOT,040H
// union <unnamed> volatile __io _A_SFIOR
_A_SFIOR:
        DS8 1

        ASEGN ABSOLUTE:DATA:ROOT,03eH
// union <unnamed> volatile __io _A_EEAR
_A_EEAR:
        DS8 2

        ASEGN ABSOLUTE:DATA:ROOT,03dH
// union <unnamed> volatile __io _A_EEDR
_A_EEDR:
        DS8 1

        ASEGN ABSOLUTE:DATA:ROOT,03cH
// union <unnamed> volatile __io _A_EECR
_A_EECR:
        DS8 1

        ASEGN ABSOLUTE:DATA:ROOT,03bH
// union <unnamed> volatile __io _A_PORTA
_A_PORTA:
        DS8 1

        ASEGN ABSOLUTE:DATA:ROOT,03aH
// union <unnamed> volatile __io _A_DDRA
_A_DDRA:
        DS8 1

        ASEGN ABSOLUTE:DATA:ROOT,039H
// union <unnamed> volatile __io _A_PINA
_A_PINA:
        DS8 1

        ASEGN ABSOLUTE:DATA:ROOT,038H
// union <unnamed> volatile __io _A_PORTB
_A_PORTB:
        DS8 1

        ASEGN ABSOLUTE:DATA:ROOT,037H
// union <unnamed> volatile __io _A_DDRB
_A_DDRB:
        DS8 1

        ASEGN ABSOLUTE:DATA:ROOT,036H
// union <unnamed> volatile __io _A_PINB
_A_PINB:
        DS8 1

        ASEGN ABSOLUTE:DATA:ROOT,035H
// union <unnamed> volatile __io _A_PORTC
_A_PORTC:
        DS8 1

        ASEGN ABSOLUTE:DATA:ROOT,034H
// union <unnamed> volatile __io _A_DDRC
_A_DDRC:
        DS8 1

        ASEGN ABSOLUTE:DATA:ROOT,033H
// union <unnamed> volatile __io _A_PINC
_A_PINC:
        DS8 1

        ASEGN ABSOLUTE:DATA:ROOT,032H
// union <unnamed> volatile __io _A_PORTD
_A_PORTD:
        DS8 1

        ASEGN ABSOLUTE:DATA:ROOT,031H
// union <unnamed> volatile __io _A_DDRD
_A_DDRD:
        DS8 1

        ASEGN ABSOLUTE:DATA:ROOT,030H
// union <unnamed> volatile __io _A_PIND
_A_PIND:
        DS8 1

        ASEGN ABSOLUTE:DATA:ROOT,02fH
// union <unnamed> volatile __io _A_SPDR
_A_SPDR:
        DS8 1

        ASEGN ABSOLUTE:DATA:ROOT,02eH
// union <unnamed> volatile __io _A_SPSR
_A_SPSR:
        DS8 1

        ASEGN ABSOLUTE:DATA:ROOT,02dH
// union <unnamed> volatile __io _A_SPCR
_A_SPCR:
        DS8 1

        ASEGN ABSOLUTE:DATA:ROOT,02cH
// union <unnamed> volatile __io _A_UDR0
_A_UDR0:
        DS8 1

        ASEGN ABSOLUTE:DATA:ROOT,02bH
// union <unnamed> volatile __io _A_UCSR0A
_A_UCSR0A:
        DS8 1

        ASEGN ABSOLUTE:DATA:ROOT,02aH
// union <unnamed> volatile __io _A_UCSR0B
_A_UCSR0B:
        DS8 1

        ASEGN ABSOLUTE:DATA:ROOT,029H
// union <unnamed> volatile __io _A_UBRR0L
_A_UBRR0L:
        DS8 1

        ASEGN ABSOLUTE:DATA:ROOT,028H
// union <unnamed> volatile __io _A_ACSR
_A_ACSR:
        DS8 1

        ASEGN ABSOLUTE:DATA:ROOT,027H
// union <unnamed> volatile __io _A_ADMUX
_A_ADMUX:
        DS8 1

        ASEGN ABSOLUTE:DATA:ROOT,026H
// union <unnamed> volatile __io _A_ADCSRA
_A_ADCSRA:
        DS8 1

        ASEGN ABSOLUTE:DATA:ROOT,024H
// union <unnamed> volatile __io _A_ADC
_A_ADC:
        DS8 2

        ASEGN ABSOLUTE:DATA:ROOT,023H
// union <unnamed> volatile __io _A_PORTE
_A_PORTE:
        DS8 1

        ASEGN ABSOLUTE:DATA:ROOT,022H
// union <unnamed> volatile __io _A_DDRE
_A_DDRE:
        DS8 1

        ASEGN ABSOLUTE:DATA:ROOT,021H
// union <unnamed> volatile __io _A_PINE
_A_PINE:
        DS8 1

        ASEGN ABSOLUTE:DATA:ROOT,020H
// union <unnamed> volatile __io _A_PINF
_A_PINF:
        DS8 1
//    9 #include "Platform.h"
//   10 #include "InputDevice.h"
//   11 #include "Mvsn21.h"
//   12 #include "ModuleMrXX.h"
//   13 #include "Crc.h"
//   14 #include "ModbusRTU.h"
//   15 #include "DataBase.h"
//   16 #include "DataTypes.h"
//   17 #include "Alarm.h"
//   18 #include "NotifyerControl.h"
//   19 #include "Buzzer.h"
//   20 #include "Event.h"
//   21 #include "Dfa.h"
//   22 
//   23 
//   24 //uint8_t CPss21::m_aucRtuCoilsArray[];
//   25 //uint8_t CPss21::m_aucRtuDiscreteInputsArray[];
//   26 uint16_t CPss21::m_aucRtuHoldingRegistersArray[];
//   27 uint16_t CPss21::m_aucRtuInputRegistersArray[];
//   28 uint8_t CPss21::m_aucRtuDiscreteDataArray[];
//   29 uint8_t CPss21::m_auiReceiveMessageBuff[];
//   30 //uint8_t CPss21::m_auiTransmitMessageBuff[];
//   31 uint8_t CPss21::m_auiIntermediateBuff[];
//   32 uint8_t CPss21::m_auiSpiRxBuffer[];
//   33 uint8_t CPss21::m_auiSpiTxBuffer[];
//   34 
//   35 uint8_t CPss21::m_uiFsmState;
//   36 uint8_t CPss21::m_uiType;
//   37 //CDriver* CPss21::m_pxDriver;
//   38 //CDevice* CPss21::m_apxDevices[];
//   39 CDriver* CPss21::m_apxDrivers[];
//   40 

        RSEG CODE:CODE:NOROOT(1)
// static __intrinsic __version_3 void __sti__routine()
??__sti__routine:
//   41 CUart CPss21::m_xUart1(&UBRR1H, &UBRR1L, &UCSR1A, &UCSR1B, &UCSR1C, &UDR1, &DDRC, DDC7, &PORTC, PC7);
        LDI     R16, 7
        ST      -Y, R16
        LDI     R16, LOW(53)
        LDI     R17, (53) >> 8
        RCALL   ?Subroutine74
??CrossCallReturnLabel_89:
        LDI     R16, 7
        ST      -Y, R16
        LDI     R16, LOW(52)
        RCALL   ?Subroutine74
??CrossCallReturnLabel_90:
        LDI     R16, LOW(156)
        RCALL   ?Subroutine74
??CrossCallReturnLabel_91:
        LDI     R16, LOW(157)
        RCALL   ?Subroutine74
??CrossCallReturnLabel_92:
        LDI     R16, LOW(154)
        RCALL   ?Subroutine74
??CrossCallReturnLabel_93:
        LDI     R22, LOW(155)
        LDI     R23, (53) >> 8
        LDI     R20, LOW(153)
        LDI     R21, (53) >> 8
        LDI     R18, LOW(152)
        LDI     R19, (53) >> 8
        LDI     R16, LOW(??m_xUart1)
        LDI     R17, (??m_xUart1) >> 8
        CALL    ??CUart
        LDI     R16, LOW(?_0)
        LDI     R17, (?_0) >> 8
        RCALL   ?Subroutine72
//   42 CModbusRTU CPss21::m_xModbusRtuOne;
??CrossCallReturnLabel_76:
        RCALL   ??Subroutine93_0
??CrossCallReturnLabel_150:
        LDI     R16, LOW(??m_xModbusRtuOne)
        LDI     R17, (??m_xModbusRtuOne) >> 8
        CALL    ??CModbusRTU
        LDI     R16, LOW((?_0 + 6))
        LDI     R17, HIGH((?_0 + 6))
        RCALL   ?Subroutine72
//   43 
//   44 //CDataBase CPss21::m_xDataBase;
//   45 //CDataBase* CPss21::m_pxDataBase;
//   46 //CDataStore CPss21::m_xDataStore;
//   47 
//   48 CMultiFunctionKey CPss21::m_xReceiptKey(CPlatform::KeyOneState);
??CrossCallReturnLabel_77:
        LDI     R18, LOW(??KeyOneState/2)
        LDI     R19, (??KeyOneState/2) >> 8
        LDI     R16, LOW((??m_xDeviceConfigSearch + 61))
        LDI     R17, HIGH((??m_xDeviceConfigSearch + 61))
        RCALL   ?Subroutine12
??CrossCallReturnLabel_5:
        LDI     R16, LOW((?_0 + 12))
        LDI     R17, HIGH((?_0 + 12))
        RCALL   ?Subroutine72
//   49 CMultiFunctionKey CPss21::m_xResetKey(CPlatform::KeyTwoState);
??CrossCallReturnLabel_78:
        LDI     R18, LOW(??KeyTwoState/2)
        LDI     R19, (??KeyTwoState/2) >> 8
        LDI     R16, LOW((??m_xDeviceConfigSearch + 76))
        LDI     R17, HIGH((??m_xDeviceConfigSearch + 76))
        RCALL   ?Subroutine12
??CrossCallReturnLabel_4:
        LDI     R16, LOW((?_0 + 18))
        LDI     R17, HIGH((?_0 + 18))
        RCALL   ?Subroutine72
//   50 CMultiFunctionKey CPss21::m_xCheckKey(CPlatform::KeyThreeState);
??CrossCallReturnLabel_79:
        LDI     R18, LOW(??KeyThreeState/2)
        LDI     R19, (??KeyThreeState/2) >> 8
        LDI     R16, LOW((??m_xDeviceConfigSearch + 91))
        LDI     R17, HIGH((??m_xDeviceConfigSearch + 91))
        RCALL   ?Subroutine12
??CrossCallReturnLabel_3:
        LDI     R16, LOW((?_0 + 24))
        LDI     R17, HIGH((?_0 + 24))
        RCALL   ?Subroutine72
//   51 CMultiFunctionKey CPss21::m_xExternalKey(CPlatform::ExternalKeyState);
??CrossCallReturnLabel_80:
        LDI     R18, LOW(??ExternalKeyState/2)
        LDI     R19, (??ExternalKeyState/2) >> 8
        LDI     R16, LOW((??m_xDeviceConfigSearch + 106))
        LDI     R17, HIGH((??m_xDeviceConfigSearch + 106))
        RCALL   ?Subroutine12
??CrossCallReturnLabel_2:
        LDI     R16, LOW((?_0 + 30))
        LDI     R17, HIGH((?_0 + 30))
        RCALL   ?Subroutine72
//   52 
//   53 uint8_t CPss21::m_uiPanelReceipt;
//   54 uint8_t CPss21::m_uiPanelReset;
//   55 uint8_t CPss21::m_uiExternalReceipt;
//   56 uint8_t CPss21::m_uiExternalReset;
//   57 uint8_t CPss21::m_uiModbusReceipt;
//   58 uint8_t CPss21::m_uiModbusReset;
//   59 uint8_t CPss21::m_uiDiscreteSignalsReceipt;
//   60 uint8_t CPss21::m_uiDiscreteSignalsReset;
//   61 uint8_t CPss21::m_uiErrorCode;
//   62 uint8_t CPss21::m_uiModuleIndex;
//   63 CEventUniteLogicAnd CPss21::m_xEventUniteLogicAndOne(500);
??CrossCallReturnLabel_81:
        LDI     R18, 244
        LDI     R19, 1
        LDI     R16, LOW((??m_xDeviceConfigSearch + 121))
        LDI     R17, HIGH((??m_xDeviceConfigSearch + 121))
        CALL    ??CEventUniteLogicAnd
        LDI     R16, LOW((?_0 + 36))
        LDI     R17, HIGH((?_0 + 36))
        RCALL   ?Subroutine72
//   64 CTimer CPss21::m_xMainCycleTimer(MAIN_CYCLE_PERIOD_TIME);
??CrossCallReturnLabel_82:
        LDI     R18, 100
        LDI     R19, 0
        RCALL   ?Subroutine60
??CrossCallReturnLabel_229:
        CALL    ??CTimer
        LDI     R16, LOW((?_0 + 42))
        LDI     R17, HIGH((?_0 + 42))
        RCALL   ?Subroutine72
//   65 //CTimer CPss21::m_xPeripheryTimer(PERIPHERY_SCAN_TIME);
//   66 
//   67 CPreventiveAlarmWindowNotifyerControl CPss21::m_xPreventiveAlarmWindowNotifyerControl;
??CrossCallReturnLabel_83:
        LDI     R16, LOW((??m_xDeviceConfigSearch + 141))
        LDI     R17, HIGH((??m_xDeviceConfigSearch + 141))
        CALL    ??CPreventiveAlarmWindowNotifyerControl
        LDI     R16, LOW((?_0 + 48))
        LDI     R17, HIGH((?_0 + 48))
        RCALL   ?Subroutine72
//   68 CEmergencyAlarmWindowNotifyerControl CPss21::m_xEmergencyAlarmWindowNotifyerControl;
??CrossCallReturnLabel_84:
        LDI     R16, LOW((??m_xDeviceConfigSearch + 153))
        LDI     R17, HIGH((??m_xDeviceConfigSearch + 153))
        CALL    ??CEmergencyAlarmWindowNotifyerControl
        LDI     R16, LOW((?_0 + 54))
        LDI     R17, HIGH((?_0 + 54))
        RCALL   ?Subroutine72
//   69 CStatusLedNotifyerControl CPss21::m_xStatusLedNotifyerControl;
??CrossCallReturnLabel_85:
        LDI     R16, LOW((??m_xDeviceConfigSearch + 165))
        LDI     R17, HIGH((??m_xDeviceConfigSearch + 165))
        CALL    ??CStatusLedNotifyerControl
        LDI     R16, LOW((?_0 + 60))
        LDI     R17, HIGH((?_0 + 60))
        RCALL   ?Subroutine72
//   70 CBuzzerNotifyerControl CPss21::m_xBuzzerNotifyerControl;
??CrossCallReturnLabel_86:
        LDI     R16, LOW((??m_xDeviceConfigSearch + 177))
        LDI     R17, HIGH((??m_xDeviceConfigSearch + 177))
        CALL    ??CBuzzerNotifyerControl
        LDI     R16, LOW((?_0 + 66))
        LDI     R17, HIGH((?_0 + 66))
        RCALL   ?Subroutine72
//   71 CModbusRtuLinkControl CPss21::m_xModbusRtuLinkControl;
??CrossCallReturnLabel_87:
        LDI     R16, LOW((??m_xDeviceConfigSearch + 9))
        LDI     R17, HIGH((??m_xDeviceConfigSearch + 9))
        CALL    ??CModbusRtuLinkControl
        LDI     R16, LOW((?_0 + 72))
        LDI     R17, HIGH((?_0 + 72))
        RCALL   ?Subroutine72
//   72 
//   73 uint8_t CPss21::m_uiCommonAlarmType;
//   74 uint8_t CPss21::m_uiCommonAlarmTypePrevious;
//   75 //CLightBoard CPss21::m_xLightBoard;
//   76 TConfigDataPackOne CPss21::m_xDeviceConfigSearch;
//   77 TDevConfig CPss21::m_xDeviceConfiguration;
//   78 TDeviceState CPss21::m_xDeviceState;
//   79 TMBusSetting CPss21::m_xModbusSettings;
//   80 CAlarmDfa *CPss21::m_apxAlarmDfa[];
//   81 
//   82 CErrorAlarmDfa *CPss21::m_apxErrorAlarmDfa[];
//   83 uint8_t CPss21::m_auiErrorAlarmDataArray[];
//   84 
//   85 TDiscreteOutputControl CPss21::m_axDiscreteOutputControl[];
//   86 TOutputData CPss21::m_xDiscreteOutputDataBase;
//   87 CAlarmWindow CPss21::m_axAlarmWindowControl[];
??CrossCallReturnLabel_88:
        LDI     R22, LOW(??CAlarmWindow/2)
        LDI     R23, (??CAlarmWindow/2) >> 8
        RCALL   ?Subroutine16
??CrossCallReturnLabel_8:
        CALL    __near_vec_construct
        LDI     R16, LOW((?_0 + 78))
        LDI     R17, HIGH((?_0 + 78))
        REQUIRE ?Subroutine72
        REQUIRE _A_UBRR1H
        REQUIRE _A_UBRR1L
        REQUIRE _A_UCSR1A
        REQUIRE _A_UCSR1B
        REQUIRE _A_UCSR1C
        REQUIRE _A_UDR1
        REQUIRE _A_DDRC
        REQUIRE _A_PORTC
        ;               // Fall through to label ?Subroutine72

        RSEG CODE:CODE:NOROOT(1)
?Subroutine72:
        JMP     __record_needed_destruction

        RSEG CODE:CODE:NOROOT(1)
?Subroutine12:
        JMP     ??CMultiFunctionKey

        RSEG CODE:CODE:NOROOT(1)
`?<Unnamed 0>`:
        RCALL   ?Subroutine18
??CrossCallReturnLabel_138:
        JMP     `?~CUart`

        RSEG CODE:CODE:NOROOT(1)
`?<Unnamed 1>`:
        RCALL   ?Subroutine18
??CrossCallReturnLabel_139:
        JMP     `?~CModbusRTU`

        RSEG CODE:CODE:NOROOT(1)
`?<Unnamed 2>`:
        RCALL   ?Subroutine18
??CrossCallReturnLabel_140:
        JMP     `?~CMultiFunctionKey`

        RSEG CODE:CODE:NOROOT(1)
`?<Unnamed 3>`:
        RCALL   ?Subroutine18
??CrossCallReturnLabel_141:
        JMP     `?~CEventUniteLogicAnd`

        RSEG CODE:CODE:NOROOT(1)
`?<Unnamed 4>`:
        RCALL   ?Subroutine18
??CrossCallReturnLabel_142:
        JMP     `?~CTimer`

        RSEG CODE:CODE:NOROOT(1)
`?<Unnamed 5>`:
        RCALL   ?Subroutine18
??CrossCallReturnLabel_143:
        JMP     `?~CPreventiveAlarmWindowNotifyerControl`

        RSEG CODE:CODE:NOROOT(1)
`?<Unnamed 6>`:
        RCALL   ?Subroutine18
??CrossCallReturnLabel_144:
        JMP     `?~CEmergencyAlarmWindowNotifyerControl`

        RSEG NEAR_Z:DATA:ROOT(0)
        REQUIRE `?<Segment init: NEAR_Z>`
??m_xDeviceConfiguration:
        DS8 20
??m_xModbusSettings:
        DS8 7
??m_xDeviceState:
        DS8 8
??m_aucRtuHoldingRegistersArray:
        DS8 16
??m_aucRtuInputRegistersArray:
        DS8 16

        RSEG NEAR_Z:DATA:ROOT(0)
        REQUIRE `?<Segment init: NEAR_Z>`
??m_aucRtuDiscreteDataArray:
        DS8 120

        RSEG NEAR_Z:DATA:ROOT(0)
        REQUIRE `?<Segment init: NEAR_Z>`
??m_auiReceiveMessageBuff:
        DS8 256

        RSEG NEAR_Z:DATA:ROOT(0)
        REQUIRE `?<Segment init: NEAR_Z>`
??m_auiIntermediateBuff:
        DS8 256

        RSEG NEAR_Z:DATA:ROOT(0)
        REQUIRE `?<Segment init: NEAR_Z>`
??m_auiSpiRxBuffer:
        DS8 64

        RSEG NEAR_Z:DATA:ROOT(0)
        REQUIRE `?<Segment init: NEAR_Z>`
??m_auiSpiTxBuffer:
        DS8 64

        RSEG NEAR_Z:DATA:ROOT(0)
        REQUIRE `?<Segment init: NEAR_Z>`
??m_xDeviceConfigSearch:
        DS8 9
??m_xModbusRtuLinkControl:
        DS8 11
??m_apxDrivers:
        DS8 6
??m_apxErrorAlarmDfa:
        DS8 4
??m_axDiscreteOutputControl:
        DS8 16
??m_uiFsmState:
        DS8 1
??m_uiPanelReceipt:
        DS8 1
??m_uiPanelReset:
        DS8 1
??m_uiExternalReceipt:
        DS8 1
??m_uiExternalReset:
        DS8 1
??m_uiModbusReceipt:
        DS8 1
??m_uiModbusReset:
        DS8 1
??m_uiDiscreteSignalsReceipt:
        DS8 1
??m_uiDiscreteSignalsReset:
        DS8 1
??m_uiErrorCode:
        DS8 1
??m_uiModuleIndex:
        DS8 1
??m_uiCommonAlarmType:
        DS8 1
??m_uiCommonAlarmTypePrevious:
        DS8 1
??m_auiErrorAlarmDataArray:
        DS8 2
??m_xReceiptKey:
        DS8 15
??m_xResetKey:
        DS8 15
??m_xCheckKey:
        DS8 15
??m_xExternalKey:
        DS8 15
??m_xEventUniteLogicAndOne:
        DS8 14
??m_xMainCycleTimer:
        DS8 6
??m_xPreventiveAlarmWindowNotifyerControl:
        DS8 12
??m_xEmergencyAlarmWindowNotifyerControl:
        DS8 12
??m_xStatusLedNotifyerControl:
        DS8 12
??m_xBuzzerNotifyerControl:
        DS8 12
??m_xDiscreteOutputDataBase:
        DS8 24

        RSEG NEAR_Z:DATA:ROOT(0)
        REQUIRE `?<Segment init: NEAR_Z>`
??m_uiType:
        DS8 1

        RSEG NEAR_Z:DATA:ROOT(0)
        REQUIRE `?<Segment init: NEAR_Z>`
??m_xUart1:
        DS8 47

        RSEG NEAR_Z:DATA:ROOT(0)
        REQUIRE `?<Segment init: NEAR_Z>`
?_1:
        DS8 2

        RSEG NEAR_Z:DATA:ROOT(0)
        REQUIRE `?<Segment init: NEAR_Z>`
??m_xModbusRtuOne:
        DS8 49

        RSEG NEAR_Z:DATA:ROOT(0)
        REQUIRE `?<Segment init: NEAR_Z>`
?_3:
        DS8 2

        RSEG NEAR_Z:DATA:ROOT(0)
        REQUIRE `?<Segment init: NEAR_Z>`
?_5:
        DS8 2

        RSEG NEAR_Z:DATA:ROOT(0)
        REQUIRE `?<Segment init: NEAR_Z>`
?_7:
        DS8 2

        RSEG NEAR_Z:DATA:ROOT(0)
        REQUIRE `?<Segment init: NEAR_Z>`
?_9:
        DS8 2

        RSEG NEAR_Z:DATA:ROOT(0)
        REQUIRE `?<Segment init: NEAR_Z>`
?_11:
        DS8 2

        RSEG NEAR_Z:DATA:ROOT(0)
        REQUIRE `?<Segment init: NEAR_Z>`
?_13:
        DS8 2

        RSEG NEAR_Z:DATA:ROOT(0)
        REQUIRE `?<Segment init: NEAR_Z>`
?_15:
        DS8 2

        RSEG NEAR_Z:DATA:ROOT(0)
        REQUIRE `?<Segment init: NEAR_Z>`
?_17:
        DS8 2

        RSEG NEAR_Z:DATA:ROOT(0)
        REQUIRE `?<Segment init: NEAR_Z>`
?_19:
        DS8 2

        RSEG NEAR_Z:DATA:ROOT(0)
        REQUIRE `?<Segment init: NEAR_Z>`
?_21:
        DS8 2

        RSEG NEAR_Z:DATA:ROOT(0)
        REQUIRE `?<Segment init: NEAR_Z>`
?_23:
        DS8 2

        RSEG NEAR_Z:DATA:ROOT(0)
        REQUIRE `?<Segment init: NEAR_Z>`
?_25:
        DS8 2

        RSEG NEAR_Z:DATA:ROOT(0)
        REQUIRE `?<Segment init: NEAR_Z>`
??m_apxAlarmDfa:
        DS8 192

        RSEG NEAR_I:DATA:ROOT(0)
        REQUIRE `?<Segment init: NEAR_I>`
?_0:
        DS8 6
        REQUIRE `?<Initializer for >`
        DS8 6
        REQUIRE `?<Initializer for >_1`
        DS8 6
        REQUIRE `?<Initializer for >_2`
        DS8 6
        REQUIRE `?<Initializer for >_3`
        DS8 6
        REQUIRE `?<Initializer for >_4`
        DS8 6
        REQUIRE `?<Initializer for >_5`
        DS8 6
        REQUIRE `?<Initializer for >_6`
        DS8 6
        REQUIRE `?<Initializer for >_7`
        DS8 6
        REQUIRE `?<Initializer for >_8`
        DS8 6
        REQUIRE `?<Initializer for >_9`
        DS8 6
        REQUIRE `?<Initializer for >_10`
        DS8 6
        REQUIRE `?<Initializer for >_11`
        DS8 6
        REQUIRE `?<Initializer for >_12`
        DS8 6
        REQUIRE `?<Initializer for >_13`

        RSEG NEAR_Z:DATA:ROOT(0)
        REQUIRE `?<Segment init: NEAR_Z>`
??m_axAlarmWindowControl:
        DS8 288

        RSEG NEAR_Z:DATA:ROOT(0)
        REQUIRE `?<Segment init: NEAR_Z>`
?_27:
        DS8 2

        RSEG NEAR_F:CODE:ROOT(0)
        DC8 0, 0, 0, 0
//   88 

        RSEG NEAR_F:CODE:ROOT(0)
//   89 __flash uint8_t CPss21::m_auiErrorLedOn[] =
??m_auiErrorLedOn:
        DC8 1, 1, 1, 1, 1, 1, 1, 1, 1, 0, 0, 0, 0, 0, 0, 1, 1, 0, 0, 0, 0, 0, 0
        DC8 1, 1, 0, 0, 0, 0, 0, 0, 1, 1, 0, 0, 0, 0, 0, 0, 1, 1, 1, 1, 1, 1, 1
        DC8 1, 1

        RSEG CODE:CODE:NOROOT(1)
?Subroutine18:
        LDI     R18, 2
        REQUIRE ?Subroutine77
        ;               // Fall through to label ?Subroutine77

        RSEG CODE:CODE:NOROOT(1)
?Subroutine77:
        LDI     R19, 0
        RET

        RSEG CODE:CODE:NOROOT(1)
`?<Unnamed 7>`:
        RCALL   ?Subroutine18
??CrossCallReturnLabel_145:
        JMP     `?~CStatusLedNotifyerControl`

        RSEG CODE:CODE:NOROOT(1)
`?<Unnamed 8>`:
        RCALL   ?Subroutine18
??CrossCallReturnLabel_146:
        JMP     `?~CBuzzerNotifyerControl`

        RSEG CODE:CODE:NOROOT(1)
`?<Unnamed 9>`:
        RCALL   ?Subroutine18
??CrossCallReturnLabel_147:
        JMP     `?~CModbusRtuLinkControl`

        RSEG CODE:CODE:NOROOT(1)
`?<Unnamed 10>`:
        LDI     R22, LOW(`?<Unnamed 11>`/2)
        LDI     R23, (`?<Unnamed 11>`/2) >> 8
        RCALL   ?Subroutine16
??CrossCallReturnLabel_9:
        JMP     __near_vec_destroy

        RSEG CODE:CODE:NOROOT(1)
?Subroutine16:
        LDI     R20, 6
        LDI     R21, 0
        LDI     R18, 48
        LDI     R19, 0
        LDI     R16, LOW(??m_axAlarmWindowControl)
        LDI     R17, (??m_axAlarmWindowControl) >> 8
        RET

        RSEG CODE:CODE:NOROOT(1)
`?<Unnamed 11>`:
        RCALL   ?Subroutine18
??CrossCallReturnLabel_148:
        JMP     `?~CAlarmWindow`
//   90 {
//   91     1, 1, 1, 1,    1, 1, 1, 1,
//   92     1, 0, 0, 0,    0, 0, 0, 1,
//   93     1, 0, 0, 0,    0, 0, 0, 1,
//   94     1, 0, 0, 0,    0, 0, 0, 1,
//   95     1, 0, 0, 0,    0, 0, 0, 1,
//   96     1, 1, 1, 1,    1, 1, 1, 1,
//   97 };
//   98 
//   99 ////-----------------------------------------------------------------------------------------------------
//  100 //CPss21::CPss21(uint8_t uiType, CDriver* pxDriver)// :
//  101 ////    m_uiType(uiType),
//  102 ////    m_pxDriver(pxDriver)
//  103 //{
//  104 //
//  105 //}
//  106 //
//  107 ////-----------------------------------------------------------------------------------------------------
//  108 //CPss21::~CPss21()
//  109 //{
//  110 //
//  111 //}
//  112 
//  113 //-----------------------------------------------------------------------------------------------------

        RSEG CODE:CODE:NOROOT(1)
//  114 void CPss21::ModbusInit(void)
??ModbusInit:
//  115 {
        ST      -Y, R27
        ST      -Y, R26
//  116     CPlatform::m_pxUart1 = &m_xUart1;
        LDI     R16, LOW(??m_xUart1)
        LDI     R17, (??m_xUart1) >> 8
        LDI     R30, LOW(??m_pxUart1)
        LDI     R31, (??m_pxUart1) >> 8
        ST      Z, R16
        STD     Z+1, R17
//  117     m_xModbusRtuOne.Init(CPlatform::m_pxUart1,
//  118                          static_cast<uint32_t>((F_CPU / ((CPss21::m_xModbusSettings.BaudRate) + 1)) / 16UL),
//  119                          'N',
//  120                          8,
//  121                          1,
//  122                          CPss21::m_auiReceiveMessageBuff,
//  123                          CPss21::m_auiReceiveMessageBuff,//reinterpret_cast<uint8_t*>(CPss21::m_aucRtuHoldingRegistersArray),//m_auiTransmitMessageBuff,//
//  124                          CPss21::m_aucRtuDiscreteDataArray,//CPss21::m_aucRtuCoilsArray,
//  125                          CPss21::m_aucRtuDiscreteDataArray,//CPss21::m_aucRtuDiscreteInputsArray,
//  126                          CPss21::m_aucRtuHoldingRegistersArray,
//  127                          CPss21::m_aucRtuInputRegistersArray,
//  128                          DISCRETE_DATA_ARRAY_LENGTH,
//  129                          DISCRETE_DATA_ARRAY_LENGTH,
//  130                          HOLDING_REGISTERS_ARRAY_LENGTH,
//  131                          INPUT_REGISTERS_ARRAY_LENGTH);
        LDI     R16, 8
        LDI     R17, 0
        RCALL   ?Subroutine2
??CrossCallReturnLabel_96:
        LDI     R16, 120
        RCALL   ?Subroutine2
??CrossCallReturnLabel_97:
        LDI     R16, LOW((??m_xDeviceConfiguration + 51))
        LDI     R17, HIGH((??m_xDeviceConfiguration + 51))
        RCALL   ?Subroutine74
??CrossCallReturnLabel_94:
        LDI     R16, LOW((??m_xDeviceConfiguration + 35))
        LDI     R17, HIGH((??m_xDeviceConfiguration + 35))
        RCALL   ?Subroutine74
??CrossCallReturnLabel_95:
        LDI     R16, LOW(??m_aucRtuDiscreteDataArray)
        LDI     R17, (??m_aucRtuDiscreteDataArray) >> 8
        RCALL   ?Subroutine2
??CrossCallReturnLabel_98:
        LDI     R16, LOW(??m_auiReceiveMessageBuff)
        LDI     R17, (??m_auiReceiveMessageBuff) >> 8
        RCALL   ?Subroutine2
??CrossCallReturnLabel_99:
        LDI     R16, 1
        ST      -Y, R16
        LDI     R16, 8
        ST      -Y, R16
        LDI     R16, 78
        ST      -Y, R16
        LDS     R20, (??m_xDeviceConfiguration + 21)
        LDI     R21, 0
        SUBI    R20, 255
        SBCI    R21, 255
        MOV     R22, R21
        LSL     R22
        SBC     R22, R22
        MOV     R23, R22
        LDI     R16, 0
        LDI     R17, 128
        LDI     R18, 112
        LDI     R19, 0
        CALL    ?UL_DIVMOD_L03
        LDI     R20, 4
        CALL    ?UL_SHR_L03
        MOVW    R21:R20, R17:R16
        MOVW    R23:R22, R19:R18
        LDI     R18, LOW(??m_xUart1)
        LDI     R19, (??m_xUart1) >> 8
        LDI     R16, LOW(??m_xModbusRtuOne)
        LDI     R17, (??m_xModbusRtuOne) >> 8
        CALL    ??Init_1
//  132     m_xModbusRtuOne.SlaveSet(CPss21::m_xModbusSettings.NetAddress);
        LDS     R18, (??m_xDeviceConfiguration + 20)
        LDI     R30, LOW(??m_xModbusRtuOne)
        LDI     R31, (??m_xModbusRtuOne) >> 8
        LDD     R16, Z+13
        LDD     R17, Z+14
        CALL    ??SlaveSet
//  133     m_xModbusRtuOne.SetFsmState(CModbus::START_REQUEST);
        LDI     R26, LOW((??m_xModbusRtuOne + 13))
        LDI     R27, HIGH((??m_xModbusRtuOne + 13))
        RCALL   ??Subroutine94_0
??CrossCallReturnLabel_155:
        LDI     R16, 2
        ST      Z, R16
//  134 }
        REQUIRE ?Subroutine73
        ;               // Fall through to label ?Subroutine73

        RSEG CODE:CODE:NOROOT(1)
?Subroutine73:
        LD      R26, Y+
        LD      R27, Y+
        RET

        RSEG CODE:CODE:NOROOT(1)
?Subroutine74:
        ST      -Y, R17
        ST      -Y, R16
        RET

        RSEG CODE:CODE:NOROOT(1)
?Subroutine2:
        ST      -Y, R17
        ST      -Y, R16
        RJMP    ?Subroutine74
//  135 
//  136 //-----------------------------------------------------------------------------------------------------

        RSEG CODE:CODE:NOROOT(1)
//  137 void CPss21::ModbusDefaultInit(void)
??ModbusDefaultInit:
//  138 {
//  139     CPss21::m_xModbusSettings.NetAddress = 1;
        LDI     R30, LOW(??m_xDeviceConfiguration)
        LDI     R31, (??m_xDeviceConfiguration) >> 8
        LDI     R16, 1
        STD     Z+20, R16
//  140     // 9600 baud.
//  141     CPss21::m_xModbusSettings.BaudRate = 47;
        LDI     R16, 47
        STD     Z+21, R16
//  142     // Два стоп бита.
//  143     CPss21::m_xModbusSettings.LinkParam = 0x08;
        LDI     R16, 8
        STD     Z+22, R16
//  144 
//  145     ModbusInit();
        RJMP    ??ModbusInit
//  146 }
//  147 
//  148 //-----------------------------------------------------------------------------------------------------

        RSEG CODE:CODE:NOROOT(1)
//  149 void CPss21::Init(void)
??Init:
//  150 {
//  151     CLightBoard::Init(m_axAlarmWindowControl);
        LDI     R16, LOW(??m_axAlarmWindowControl)
        LDI     R17, (??m_axAlarmWindowControl) >> 8
        CALL    ??Init_2
//  152     m_uiCommonAlarmType = NORMAL;
        RCALL   ?Subroutine64
??CrossCallReturnLabel_58:
        LDI     R16, 0
        STD     Z+57, R16
//  153     m_uiCommonAlarmTypePrevious = NORMAL;
        STD     Z+58, R16
//  154     SetErrorCode(0);
        STD     Z+55, R16
//  155     // Сбросим все ошибки.
//  156     memset(CPss21::m_auiErrorAlarmDataArray, 0, HANDLED_ERROR_NUMBER);
        LDI     R20, 2
        RCALL   ?Subroutine4
??CrossCallReturnLabel_151:
        LDI     R16, LOW((??m_xDeviceConfigSearch + 59))
        LDI     R17, HIGH((??m_xDeviceConfigSearch + 59))
        REQUIRE ?Subroutine85
        ;               // Fall through to label ?Subroutine85
//  157 }

        RSEG CODE:CODE:NOROOT(1)
?Subroutine85:
        JMP     memset
//  158 
//  159 //-----------------------------------------------------------------------------------------------------

        RSEG CODE:CODE:NOROOT(1)
//  160 void CPss21::AddressBusInit(void)
??AddressBusInit:
//  161 {
//  162     CPlatform::SpiSlaveSelectAddress0SetPinOutput();
        SBI     0x11, 0x07
//  163     CPlatform::SpiSlaveSelectAddress1SetPinOutput();
        SBI     0x11, 0x06
//  164     CPlatform::SpiSlaveSelectAddress2SetPinOutput();
        SBI     0x11, 0x05
//  165     CPlatform::SpiSlaveSelectAddress3SetPinOutput();
        SBI     0x11, 0x04
//  166     CPlatform::SpiSlaveSelectEnableSetPinOutput();
        SBI     0x11, 0x01
//  167     CPlatform::SpiSlaveSelectAddress0On();
        SBI     0x12, 0x07
//  168     CPlatform::SpiSlaveSelectAddress1On();
        SBI     0x12, 0x06
//  169     CPlatform::SpiSlaveSelectAddress2On();
        SBI     0x12, 0x05
//  170     CPlatform::SpiSlaveSelectAddress3On();
        SBI     0x12, 0x04
//  171     CPlatform::SpiSlaveSelectEnableOff();
        CBI     0x12, 0x01
//  172 };
        RET
        REQUIRE _A_DDRD
        REQUIRE _A_PORTD
//  173 
//  174 //-----------------------------------------------------------------------------------------------------

        RSEG CODE:CODE:NOROOT(1)
//  175 void CPss21::ConnectDevice(uint8_t uiAddress)
??ConnectDevice:
//  176 {
//  177     uiAddress &= 0x0F;
//  178 
//  179     if (uiAddress &  BIT(0))
        BST     R16, 0
        BRTC    ??ConnectDevice_1
//  180     {
//  181         CPlatform::SpiSlaveSelectAddress0Off();
        CBI     0x12, 0x07
//  182     }
        RJMP    ??ConnectDevice_2
//  183     else
//  184     {
//  185         CPlatform::SpiSlaveSelectAddress0On();
??ConnectDevice_1:
        SBI     0x12, 0x07
//  186     }
//  187     if (uiAddress &  BIT(1))
??ConnectDevice_2:
        BST     R16, 1
        BRTC    ??ConnectDevice_3
//  188     {
//  189         CPlatform::SpiSlaveSelectAddress1Off();
        CBI     0x12, 0x06
//  190     }
        RJMP    ??ConnectDevice_4
//  191     else
//  192     {
//  193         CPlatform::SpiSlaveSelectAddress1On();
??ConnectDevice_3:
        SBI     0x12, 0x06
//  194     }
//  195     if (uiAddress &  BIT(2))
??ConnectDevice_4:
        BST     R16, 2
        BRTC    ??ConnectDevice_5
//  196     {
//  197         CPlatform::SpiSlaveSelectAddress2Off();
        CBI     0x12, 0x05
//  198     }
        RJMP    ??ConnectDevice_6
//  199     else
//  200     {
//  201         CPlatform::SpiSlaveSelectAddress2On();
??ConnectDevice_5:
        SBI     0x12, 0x05
//  202     }
//  203     if (uiAddress &  BIT(3))
??ConnectDevice_6:
        BST     R16, 3
        BRTC    ??ConnectDevice_7
//  204     {
//  205         CPlatform::SpiSlaveSelectAddress3Off();
        CBI     0x12, 0x04
//  206     }
        RJMP    ??ConnectDevice_8
//  207     else
//  208     {
//  209         CPlatform::SpiSlaveSelectAddress3On();
??ConnectDevice_7:
        SBI     0x12, 0x04
//  210     }
//  211 
//  212     CPlatform::SpiSlaveSelectEnableOn();
??ConnectDevice_8:
        SBI     0x12, 0x01
//  213     CSpi::Enable();
        JMP     ??Enable
        REQUIRE _A_PORTD
//  214 };
//  215 
//  216 //-----------------------------------------------------------------------------------------------------

        RSEG CODE:CODE:NOROOT(1)
//  217 void CPss21::DisconnectDevice(void)
??DisconnectDevice:
//  218 {
//  219     CSpi::Disable();
        CALL    ??Disable
//  220     CPlatform::SpiSlaveSelectEnableOff();
        CBI     0x12, 0x01
//  221     CPlatform::SpiSlaveSelectAddress0Off();
        CBI     0x12, 0x07
//  222     CPlatform::SpiSlaveSelectAddress1Off();
        CBI     0x12, 0x06
//  223     CPlatform::SpiSlaveSelectAddress2Off();
        CBI     0x12, 0x05
//  224     CPlatform::SpiSlaveSelectAddress3Off();
        CBI     0x12, 0x04
//  225 };
        RET
        REQUIRE _A_PORTD
//  226 
//  227 //-----------------------------------------------------------------------------------------------------

        RSEG CODE:CODE:NOROOT(1)
//  228 void CPss21::SearchModules(void)
??SearchModules:
//  229 {
        CALL    ?PROLOGUE5_L09
        REQUIRE ?Register_R4_is_cg_reg
//  230     delay_ms(500);
        LDI     R16, 244
        LDI     R17, 1
        CALL    ??delay_ms
//  231     CPlatform::WatchdogReset();
        WDR
//  232 
//  233     memset(reinterpret_cast<uint8_t*>(&m_xDeviceConfigSearch),
//  234            0,
//  235            sizeof(struct TConfigDataPackOne));
        LDI     R20, 9
        RCALL   ?Subroutine4
??CrossCallReturnLabel_152:
        LDI     R16, LOW(??m_xDeviceConfigSearch)
        LDI     R17, (??m_xDeviceConfigSearch) >> 8
        RCALL   ?Subroutine85
//  236 
//  237     // опросим интерфейс SPI. какие модули присутствуют?
//  238     for (uint8_t i = 0; i < SPI_MAX_BUS_ADDRESS; i++)
??CrossCallReturnLabel_124:
        LDI     R24, 0
        LDI     R25, 16
        LDI     R26, LOW(??m_xDeviceConfigSearch)
        LDI     R27, (??m_xDeviceConfigSearch) >> 8
//  239     {
//  240         // если модуль не ответил MODULE_REQUEST_QUANTITY раз,
//  241         // то его нет или он неисправен.
//  242         for (uint8_t j = 0; j < MODULE_REQUEST_QUANTITY; j++)
??SearchModules_1:
        LDI     R16, 5
        MOV     R4, R16
//  243         {
//  244             CPlatform::WatchdogReset();
??SearchModules_2:
        WDR
//  245             delay_ms(5);
//  246 
//  247             m_auiSpiTxBuffer[0] = GET_MODULE_TYPE_COMMAND;
//  248             ConnectDevice(i);
//  249             delay_us(500);
//  250             CSpi::Exchange(m_auiSpiRxBuffer,
//  251                            m_auiSpiTxBuffer,
//  252                            GET_MODULE_TYPE_REQUEST_LENGTH);
//  253             DisconnectDevice();
//  254 
//  255             // модуль отвечает?
//  256             if (m_auiSpiRxBuffer[SPI_COMMAND_BYTE_OFFSET] ==
//  257                     GET_MODULE_TYPE_COMMAND)
//  258             {
//  259                 // обмен данными прошёл без ошибок?
//  260                 if (iCrcSummOneByteCompare(&m_auiSpiRxBuffer[SPI_COMMAND_BYTE_OFFSET], 2))
//  261                 {
//  262                     // сохраним тип модуля в массиве для упорядочивания следования модулей при поиске на SPI.
//  263                     m_xDeviceConfigSearch.axModulesContext[m_xDeviceConfigSearch.uiModulesQuantity].uiType =
//  264                         m_auiSpiRxBuffer[MODULE_TYPE_OFFSET];
//  265                     // сохраним адрес модуля в массиве для упорядочивания следования модулей при поиске на SPI.
//  266                     m_xDeviceConfigSearch.axModulesContext[m_xDeviceConfigSearch.uiModulesQuantity].uiAddress = i;
//  267                     // модуль присутствует. увеличим значение переменной -
//  268                     // фактическое количество модулей в системе.
//  269                     (m_xDeviceConfigSearch.uiModulesQuantity)++;
//  270 
//  271                     if (m_xDeviceConfigSearch.uiModulesQuantity >=
//  272                             INTERNAL_MODULE_QUANTITY)
//  273                     {
//  274                         return;
//  275                     }
//  276                     // перейдём к опросу следующего адреса.
//  277                     break;
//  278                 }
//  279             }
//  280         }
//  281     }
        LDI     R16, 5
        LDI     R17, 0
        CALL    ??delay_ms
        LDI     R16, 145
        STS     ??m_auiSpiTxBuffer, R16
        MOV     R16, R24
        RCALL   ?Subroutine32
??CrossCallReturnLabel_21:
        LDI     R20, 4
        RCALL   ?Subroutine19
??CrossCallReturnLabel_11:
        LDS     R16, (??m_auiSpiRxBuffer + 1)
        CPI     R16, 145
        BRNE    ??SearchModules_3
        RCALL   ?Subroutine18
??CrossCallReturnLabel_149:
        LDI     R16, LOW((??m_auiSpiRxBuffer + 1))
        LDI     R17, HIGH((??m_auiSpiRxBuffer + 1))
        CALL    ??iCrcSummOneByteCompare
        OR      R16, R17
        BREQ    ??SearchModules_3
        LDS     R16, (??m_auiSpiRxBuffer + 2)
        LDS     R17, ??m_xDeviceConfigSearch
        LDI     R18, 2
        MUL     R17, R18
        MOVW    R31:R30, R27:R26
        ADD     R30, R0
        ADC     R31, R1
        STD     Z+1, R16
        LDS     R16, ??m_xDeviceConfigSearch
        MUL     R16, R18
        MOVW    R31:R30, R27:R26
        ADD     R30, R0
        ADC     R31, R1
        STD     Z+2, R24
        LD      R16, X
        INC     R16
        ST      X, R16
        CPI     R16, 3
        BRCS    ??SearchModules_4
        RJMP    ??SearchModules_5
??SearchModules_3:
        DEC     R4
        BRNE    ??SearchModules_2
??SearchModules_4:
        INC     R24
        DEC     R25
        BRNE    ??SearchModules_1
//  282 
//  283     if(m_xDeviceConfiguration.FixConfig)
        LDS     R16, (??m_xDeviceConfiguration + 3)
        SBRS    R16, 0
        RJMP    ??SearchModules_5
//  284     {
//  285         // Предыдущая сохранённая и текущая конфигурации не совпадают?
//  286         if((m_xDeviceConfiguration.ICount != m_xDeviceConfigSearch.uiDiscreteInputQuantity) ||
//  287                 (m_xDeviceConfiguration.OCount != m_xDeviceConfigSearch.uiDiscreteOutputQuantity))
        LDS     R16, ??m_xDeviceConfiguration
        LDS     R17, (??m_xDeviceConfigSearch + 8)
        CP      R16, R17
        BRNE    ??SearchModules_6
        LDS     R16, (??m_xDeviceConfiguration + 1)
        LDS     R17, (??m_xDeviceConfigSearch + 7)
        CP      R16, R17
        BREQ    ??SearchModules_5
//  288         {
//  289             SetErrorCode(CFG_ERROR);
??SearchModules_6:
        LDI     R16, 3
        STS     (??m_xDeviceConfigSearch + 55), R16
//  290         }
//  291     }
//  292 };
??SearchModules_5:
        REQUIRE ?Subroutine86
        ;               // Fall through to label ?Subroutine86

        RSEG CODE:CODE:NOROOT(1)
?Subroutine86:
        LDI     R30, 5
        JMP     ?EPILOGUE_B5_L09

        RSEG CODE:CODE:NOROOT(1)
?Subroutine4:
        LDI     R21, 0
        REQUIRE ??Subroutine93_0
        ;               // Fall through to label ??Subroutine93_0

        RSEG CODE:CODE:NOROOT(1)
??Subroutine93_0:
        LDI     R18, 0
        RJMP    ?Subroutine77
//  293 
//  294 //-----------------------------------------------------------------------------------------------------

        RSEG CODE:CODE:NOROOT(1)
//  295 void CPss21::InitAllocationContext(TMemoryAllocationConext &xMemoryAllocationConext)
??InitAllocationContext:
//  296 {
//  297     // Подготовим к отправке текущие адреса объектов системы используемых драйверами устройств.
//  298 
//  299     xMemoryAllocationConext.puiRxBuffer = m_auiSpiRxBuffer;
        LDI     R18, LOW(??m_auiSpiRxBuffer)
        LDI     R19, (??m_auiSpiRxBuffer) >> 8
        MOVW    R31:R30, R17:R16
        STD     Z+1, R18
        STD     Z+2, R19
//  300     xMemoryAllocationConext.puiTxBuffer = m_auiSpiTxBuffer;
        LDI     R18, LOW(??m_auiSpiTxBuffer)
        LDI     R19, (??m_auiSpiTxBuffer) >> 8
        STD     Z+3, R18
        STD     Z+4, R19
//  301     xMemoryAllocationConext.puiErrorCode = &m_uiErrorCode;
        LDI     R18, LOW((??m_xDeviceConfigSearch + 55))
        LDI     R19, HIGH((??m_xDeviceConfigSearch + 55))
        STD     Z+5, R18
        STD     Z+6, R19
//  302 
//  303     // Обнулим общий объём выделенной памяти.
//  304     xMemoryAllocationConext.uiUsedDiscreteInputs = 0;
        LDI     R18, 0
        STD     Z+9, R18
//  305     // Подключим буфер для хранения состояний дискретных входов.
//  306     xMemoryAllocationConext.puiDiscreteInputs =
//  307         &m_aucRtuDiscreteDataArray[DISCRETE_INPUTS_BIT_ARRAY_OFFSET];
        LDI     R18, LOW((??m_aucRtuDiscreteDataArray + 16))
        LDI     R19, HIGH((??m_aucRtuDiscreteDataArray + 16))
        STD     Z+7, R18
        STD     Z+8, R19
//  308 
//  309     // Обнулим общий объём выделенной памяти.
//  310     xMemoryAllocationConext.uiUsedDiscreteOutputState = 0;
        LDI     R18, 0
        STD     Z+12, R18
//  311     // Подключим буфер для хранения состояний дискретных выходов.
//  312     xMemoryAllocationConext.puiDiscreteOutputState =
//  313         &m_aucRtuDiscreteDataArray[DISCRETE_OUTPUT_BIT_ARRAY_OFFSET];
        LDI     R18, LOW((??m_aucRtuDiscreteDataArray + 112))
        LDI     R19, HIGH((??m_aucRtuDiscreteDataArray + 112))
        STD     Z+10, R18
        STD     Z+11, R19
//  314 
//  315     // Обнулим общий объём выделенной памяти.
//  316     xMemoryAllocationConext.uiUsedDiscreteOutputs = 0;
        LDI     R18, 0
        STD     Z+15, R18
//  317     // Подключим буфер для управления дискретными выходами.
//  318     xMemoryAllocationConext.pxDiscreteOutputControl = m_axDiscreteOutputControl;
        LDI     R18, LOW((??m_xDeviceConfigSearch + 30))
        LDI     R19, HIGH((??m_xDeviceConfigSearch + 30))
        STD     Z+13, R18
        STD     Z+14, R19
//  319 
//  320     // Обнулим общий объём выделенной памяти.
//  321     xMemoryAllocationConext.uiUsedDiscreteOutputDataBase = 0;
        LDI     R18, 0
        STD     Z+18, R18
//  322     // Подключим буфер с базой данных модулей дискретных выходов.
//  323     xMemoryAllocationConext.pxDiscreteOutputDataBase = &m_xDiscreteOutputDataBase;
        LDI     R18, LOW((??m_xDeviceConfigSearch + 189))
        LDI     R19, HIGH((??m_xDeviceConfigSearch + 189))
        STD     Z+16, R18
        STD     Z+17, R19
//  324 
//  325     // Обнулим общий объём выделенной памяти.
//  326     xMemoryAllocationConext.uiUsedErrorAlarmDataArray = 0;
        LDI     R18, 0
        STD     Z+21, R18
//  327     // Подключим буфер для хранения состояний ошибок.
//  328     xMemoryAllocationConext.puiErrorAlarmDataArray = m_auiErrorAlarmDataArray;
        LDI     R18, LOW((??m_xDeviceConfigSearch + 59))
        LDI     R19, HIGH((??m_xDeviceConfigSearch + 59))
        STD     Z+19, R18
        STD     Z+20, R19
//  329 };
        RET
//  330 
//  331 //-----------------------------------------------------------------------------------------------------

        RSEG CODE:CODE:NOROOT(1)
//  332 void CPss21::CreateDevices(void)
??CreateDevices:
//  333 {
        CALL    ?PROLOGUE5_L09
        REQUIRE ?Register_R4_is_cg_reg
        SBIW    R29:R28, 22
//  334     TMemoryAllocationConext xMemoryAllocationConext;
//  335     InitAllocationContext(xMemoryAllocationConext);
        MOVW    R17:R16, R29:R28
        RCALL   ??InitAllocationContext
//  336 
//  337     for (uint8_t i = 0;
        CLR     R4
        RJMP    ??CreateDevices_1
//  338             i < (m_xDeviceConfigSearch.uiModulesQuantity);
//  339             i++)
//  340     {
//  341         CPlatform::WatchdogReset();
//  342 
//  343         uint8_t uiType = m_xDeviceConfigSearch.axModulesContext[i].uiType;
//  344         switch (uiType)
//  345         {
//  346         case MODULE_TYPE_MVSN:
//  347 //        case MODULE_TYPE_MVDI:
//  348 //        case MODULE_TYPE_MVDS9:
//  349             if (m_xDeviceConfigSearch.uiDiscreteInputQuantity <
//  350                     DISCRETE_INPUT_MODULE_MAX_NUMBER)
//  351             {
//  352 //            m_apxDevices[i] = new CMvsn21;
//  353 //            m_apxDevices[i] -> m_pxDriver = new CMvsn21Driver(uiType);
//  354                 m_apxDrivers[i] = new CMvsn21Driver(uiType);
//  355                 xMemoryAllocationConext.uiAddress = m_xDeviceConfigSearch.axModulesContext[i].uiAddress;
//  356 //            m_apxDevices[i] -> m_pxDriver -> Allocate(xMemoryAllocationConext);
//  357                 m_apxDrivers[i] -> Allocate(xMemoryAllocationConext);
//  358                 m_xDeviceConfigSearch.uiDiscreteInputQuantity += 1;
//  359             }
//  360             break;
//  361 
//  362         case MODULE_TYPE_MVDO5:
//  363             break;
//  364 
//  365         case MODULE_TYPE_MR53:
//  366         case MODULE_TYPE_MR54:
//  367             if (m_xDeviceConfigSearch.uiDiscreteOutputQuantity <
//  368                     DISCRETE_OUTPUT_MODULE_MAX_NUMBER)
??CreateDevices_2:
        LDS     R17, (??m_xDeviceConfigSearch + 7)
        TST     R17
        BRNE    ??CreateDevices_3
//  369             {
//  370 //            m_apxDevices[i] = new CModuleMrXX;
//  371 //            m_apxDevices[i] -> m_pxDriver = new CModuleMrXXDriver(uiType);
//  372                 m_apxDrivers[i] = new CModuleMrXXDriver(uiType);
        CALL    `??new CModuleMrXXDriver`
        RCALL   ?Subroutine24
//  373                 xMemoryAllocationConext.uiAddress = m_xDeviceConfigSearch.axModulesContext[i].uiAddress;
//  374 //            m_apxDevices[i] -> m_pxDriver -> Allocate(xMemoryAllocationConext);
//  375                 m_apxDrivers[i] -> Allocate(xMemoryAllocationConext);
//  376                 m_xDeviceConfigSearch.uiDiscreteOutputQuantity += 1;
//  377             }
??CrossCallReturnLabel_17:
        LDD     R16, Z+7
        INC     R16
        STD     Z+7, R16
??CreateDevices_3:
        INC     R4
??CreateDevices_1:
        LDS     R16, ??m_xDeviceConfigSearch
        CP      R4, R16
        BRCC    ??CreateDevices_4
        WDR
        LDI     R16, 2
        MUL     R4, R16
        RCALL   ?Subroutine62
??CrossCallReturnLabel_54:
        MOVW    R31:R30, R27:R26
        LDD     R16, Z+1
        MOV     R17, R16
        DEC     R17
        BREQ    ??CreateDevices_5
        SUBI    R17, 2
        BREQ    ??CreateDevices_2
        DEC     R17
        BREQ    ??CreateDevices_2
        RJMP    ??CreateDevices_3
??CreateDevices_5:
        LDS     R16, (??m_xDeviceConfigSearch + 8)
        CPI     R16, 2
        BRCC    ??CreateDevices_3
        LDI     R16, 1
        CALL    `??new CMvsn21Driver`
        RCALL   ?Subroutine24
//  378             break;
//  379 
//  380         case MODULE_TYPE_MVI:
//  381             break;
//  382 
//  383         default:
//  384             break;
//  385         }
//  386     }
??CrossCallReturnLabel_16:
        LDD     R16, Z+8
        INC     R16
        STD     Z+8, R16
        RJMP    ??CreateDevices_3
//  387 };
??CreateDevices_4:
        ADIW    R29:R28, 22
        RJMP    ?Subroutine86

        RSEG CODE:CODE:NOROOT(1)
?Subroutine24:
        MOV     R20, R16
        MOVW    R31:R30, R27:R26
        STD     Z+20, R16
        STD     Z+21, R17
        LDD     R16, Z+2
        ST      Y, R16
        MOVW    R19:R18, R29:R28
        MOV     R16, R20
        MOV     R30, R20
        MOV     R31, R17
        LDD     R20, Z+9
        LDD     R31, Z+10
        MOV     R30, R20
        LPM     R20, Z+
        LPM     R31, Z
        MOV     R30, R20
        ICALL
        RJMP    ?Subroutine64
//  388 
//  389 //-----------------------------------------------------------------------------------------------------

        RSEG CODE:CODE:NOROOT(1)
//  390 void CPss21::DestroyDevices(uint8_t uiLength)
??DestroyDevices:
//  391 {
//  392     for (uint16_t i = 0; i < uiLength; i++)
        LDI     R30, 0
        LDI     R31, 0
        LDI     R17, 0
        RJMP    ??DestroyDevices_1
??DestroyDevices_2:
        ADIW    R31:R30, 1
??DestroyDevices_1:
        CP      R30, R16
        CPC     R31, R17
        BRCS    ??DestroyDevices_2
//  393     {
//  394 //        delete m_apxDevices[i];
//  395 //        delete m_apxDrivers[i];
//  396     }
//  397 };
        RET
//  398 
//  399 //-----------------------------------------------------------------------------------------------------

        RSEG CODE:CODE:NOROOT(1)
//  400 uint16_t CPss21::ReportType(uint8_t *puiDestination, uint16_t uiLength)
??ReportType:
//  401 {
//  402     memset(m_auiSpiTxBuffer, 0, 6);
        LDI     R20, 6
        RCALL   ?Subroutine4
??CrossCallReturnLabel_153:
        LDI     R16, LOW(??m_auiSpiTxBuffer)
        LDI     R17, (??m_auiSpiTxBuffer) >> 8
        RCALL   ?Subroutine85
//  403     uint8_t uiLengthLocal = 0;
//  404     m_auiSpiTxBuffer[uiLengthLocal++] = GET_MODULE_TYPE_COMMAND;
??CrossCallReturnLabel_123:
        LDI     R30, LOW(??m_auiSpiTxBuffer)
        LDI     R31, (??m_auiSpiTxBuffer) >> 8
        LDI     R16, 145
        ST      Z, R16
//  405     m_auiSpiTxBuffer[uiLengthLocal++] = 0;
        LDI     R16, 0
        STD     Z+1, R16
//  406     m_auiSpiTxBuffer[uiLengthLocal++] = 0;
        STD     Z+2, R16
//  407     m_auiSpiTxBuffer[uiLengthLocal++] = 0;
        STD     Z+3, R16
//  408     m_auiSpiTxBuffer[uiLengthLocal++] = 0;
        STD     Z+4, R16
//  409 
//  410     ConnectDevice(0);
        RCALL   ?Subroutine32
//  411     delay_us(500);
//  412     CSpi::Exchange(m_auiSpiRxBuffer,
//  413                    m_auiSpiTxBuffer,
//  414                    uiLengthLocal);
??CrossCallReturnLabel_22:
        LDI     R20, 5
        RCALL   ?Subroutine19
//  415     DisconnectDevice();
//  416 
//  417     return 1;
??CrossCallReturnLabel_10:
        LDI     R16, 1
        LDI     R17, 0
        RET
//  418 }

        RSEG CODE:CODE:NOROOT(1)
?Subroutine32:
        RCALL   ??ConnectDevice
        LDI     R16, 106
        LDI     R17, 3
        SUBI    R16, 1
        SBCI    R17, 0
        BRNE    $-4
        RJMP    $+2
        NOP
        RET

        RSEG CODE:CODE:NOROOT(1)
?Subroutine19:
        LDI     R21, 0
        LDI     R18, LOW(??m_auiSpiTxBuffer)
        LDI     R19, (??m_auiSpiTxBuffer) >> 8
        LDI     R16, LOW(??m_auiSpiRxBuffer)
        LDI     R17, (??m_auiSpiRxBuffer) >> 8
        CALL    ??Exchange
        RJMP    ??DisconnectDevice
//  419 
//  420 //-----------------------------------------------------------------------------------------------------

        RSEG CODE:CODE:NOROOT(1)
//  421 void CPss21::SetBytesFromBits(uint8_t *uiDestination,
??SetBytesFromBits:
//  422                               uint8_t *uiSourse,
//  423                               uint16_t uiLength)
//  424 {
        RCALL   ?Subroutine41
??CrossCallReturnLabel_35:
        MOVW    R23:R22, R17:R16
        MOVW    R3:R2, R21:R20
//  425     int16_t shift = 0;
        LDI     R26, 0
        LDI     R27, 0
//  426 
//  427     for (int16_t i = 0; i < uiLength; i++)
        RCALL   ?Subroutine34
??CrossCallReturnLabel_23:
        RJMP    ??SetBytesFromBits_1
//  428     {
//  429         uiDestination[i] = uiSourse[(i) / 8] & (1 << shift) ? 1 : 0;
??SetBytesFromBits_2:
        LDI     R16, 0
??SetBytesFromBits_3:
        MOVW    R31:R30, R23:R22
        ADD     R30, R24
        ADC     R31, R25
        ST      Z, R16
//  430         /* gcc doesn't like: shift = (++shift) % 8; */
//  431         shift++;
//  432         shift %= 8;
        ADIW    R27:R26, 1
        LDI     R20, 8
        LDI     R21, 0
        MOVW    R17:R16, R27:R26
        CALL    ?SS_DIVMOD_L02
        LDI     R20, 3
        RCALL   ?Subroutine65
??CrossCallReturnLabel_176:
        SUB     R26, R16
        SBC     R27, R17
        ADIW    R25:R24, 1
??SetBytesFromBits_1:
        CP      R24, R2
        CPC     R25, R3
        BRCC    ??SetBytesFromBits_4
        LDI     R20, 8
        LDI     R21, 0
        MOVW    R17:R16, R25:R24
        CALL    ?SS_DIVMOD_L02
        MOVW    R31:R30, R19:R18
        RCALL   ?Subroutine71
//  433     }
??CrossCallReturnLabel_189:
        LD      R21, Z
        MOV     R20, R26
        RCALL   ??Subroutine97_0
??CrossCallReturnLabel_173:
        BREQ    ??SetBytesFromBits_2
        LDI     R16, 1
        RJMP    ??SetBytesFromBits_3
//  434 }
??SetBytesFromBits_4:
        REQUIRE ?Subroutine87
        ;               // Fall through to label ?Subroutine87

        RSEG CODE:CODE:NOROOT(1)
?Subroutine87:
        LDI     R30, 4
        JMP     ?EPILOGUE_B4_L09

        RSEG CODE:CODE:NOROOT(1)
??SendToDevicesModbusReset:
        RCALL   ?Subroutine43
??CrossCallReturnLabel_103:
        RJMP    ??SendToDevicesModbusReset_1
??SendToDevicesModbusReset_2:
        RCALL   ?Subroutine42
??CrossCallReturnLabel_38:
        ADIW    R27:R26, 4
        LDI     R17, 1
        ST      X, R17
        INC     R16
??SendToDevicesModbusReset_1:
        RCALL   ?Subroutine35
??CrossCallReturnLabel_115:
        BRCS    ??SendToDevicesModbusReset_2
        REQUIRE ?Subroutine78
        ;               // Fall through to label ?Subroutine78
//  435 
//  436 //-----------------------------------------------------------------------------------------------------
//  437 void CPss21::ModbusDeviceControl(uint8_t* puiData, uint16_t uiLength, uint16_t uiAddress)
//  438 {
//  439     // Команда - "Квитирование"?
//  440     if (uiAddress == MODBUS_RECEIPT_ADDRESS)
//  441     {
//  442         if (*puiData)
//  443         {
//  444             CPss21::SetModbusReceipt(1);
//  445             SetDiscreteSignalsReceipt(1);
//  446             SendToDevicesModbusReceipt();
//  447         }
//  448     }
//  449     // Команда - "Сброс"?
//  450     else if (uiAddress == MODBUS_RESET_ADDRESS)
//  451     {
//  452         if (*puiData)
//  453         {
//  454             CPss21::SetModbusReset(1);
//  455             SetDiscreteSignalsReset(1);
//  456             SendToDevicesModbusReset();
//  457         }
//  458     }
//  459     // Изменение состояния окон сигнализации?
//  460     else if ((uiAddress >= ALARM_WINDOWS_BIT_ARRAY_OFFSET) &&
//  461              (uiAddress < (ALARM_WINDOWS_BIT_ARRAY_OFFSET +
//  462                            ALARM_WINDOWS_ARRAY_LENGTH)))
//  463     {
//  464         SetBytesFromBits(&m_aucRtuDiscreteDataArray[uiAddress],
//  465                          puiData,
//  466                          uiLength);
//  467         // Сообщим автомату о состоявшемся сеансе связи.
//  468         m_xModbusRtuLinkControl.SetFsmEvent(CModbusRtuLinkControl::LINK_SESSION_HAPPENED_FSM_EVENT);
//  469     }
//  470 ////    // Изменение состояния окон сигнализации?
//  471 //    else if ((uiAddress >= DISCRETE_INPUTS_BIT_ARRAY_OFFSET) &&//debag//
//  472 //             (uiAddress < (ALARM_WINDOWS_BIT_ARRAY_OFFSET +
//  473 //                           ALARM_WINDOWS_ARRAY_LENGTH)))
//  474 //    {
//  475 //        SetBytesFromBits(&m_aucRtuDiscreteDataArray[uiAddress],
//  476 //                         puiData,
//  477 //                         uiLength);
//  478 //        // Сообщим автомату о состоявшемся сеансе связи.
//  479 //        m_xModbusRtuLinkControl.SetFsmEvent(CModbusRtuLinkControl::LINK_SESSION_HAPPENED_FSM_EVENT);
//  480 //    }
//  481 }
//  482 
//  483 //-----------------------------------------------------------------------------------------------------
//  484 void CPss21::ModbusDeviceControl(uint8_t uiData, uint16_t uiAddress)
//  485 {
//  486     ModbusDeviceControl(&uiData, 1, uiAddress);
//  487 }
//  488 
//  489 //-----------------------------------------------------------------------------------------------------
//  490 bool CPss21::ModbusRtuLinkControlIsOn(void)
//  491 {
//  492     if (m_xDeviceConfiguration.MBTimeout != 0)
//  493     {
//  494         return true;
//  495     }
//  496     else
//  497     {
//  498         return false;
//  499     }
//  500 }
//  501 
//  502 //-----------------------------------------------------------------------------------------------------
//  503 uint16_t CPss21::GetTimeoutModbusRtuLinkControl(void)
//  504 {
//  505     return (m_xDeviceConfiguration.MBTimeout * 1000);
//  506 }
//  507 
//  508 //-----------------------------------------------------------------------------------------------------
//  509 bool CPss21::ModbusRtuLinkControlInProgress(void)
//  510 {
//  511     if (m_xDeviceState.ModbusRtuLinkControlInProgress)
//  512     {
//  513         return true;
//  514     }
//  515     else
//  516     {
//  517         return false;
//  518     }
//  519 }
//  520 
//  521 //-----------------------------------------------------------------------------------------------------
//  522 void CPss21::SetModeModbusRtuLinkControlInProgress(bool bData)
//  523 {
//  524     m_xDeviceState.ModbusRtuLinkControlInProgress = bData;
//  525     // Сохраним текущую конфигурацию.
//  526     CDataBase::WriteBlock(reinterpret_cast<uint8_t*>(&m_xDeviceState),
//  527                           TDataBase::DEVICE_STATE);
//  528     // База данных изменена при записи блока.
//  529     // Поставим подтверждающую подпись.
//  530     CDataBase::SignatureCreate();
//  531 }
//  532 
//  533 //-----------------------------------------------------------------------------------------------------

        RSEG CODE:CODE:NOROOT(1)
?Subroutine78:
//  534 void CPss21::SendToDevicesReceipt(void)
//  535 {
//  536     for (uint8_t i = 0;
//  537             i < (m_xDeviceConfigSearch.uiModulesQuantity);
//  538             i++)
//  539     {
//  540         m_apxDrivers[i] -> SetReceipt(1);
//  541     }
//  542 
//  543     // Сообщим автомату о состоявшемся квитировании.
//  544     m_xModbusRtuLinkControl.SetFsmEvent(CModbusRtuLinkControl::RECEIPT_HAPPENED_FSM_EVENT);
//  545 }
//  546 
//  547 //-----------------------------------------------------------------------------------------------------
//  548 void CPss21::SendToDevicesReset(void)
//  549 {
//  550     for (uint8_t i = 0;
//  551             i < (m_xDeviceConfigSearch.uiModulesQuantity);
//  552             i++)
//  553     {
//  554         m_apxDrivers[i] -> SetReset(1);
//  555     }
//  556 }
        MOVW    R27:R26, R19:R18
        RET

        RSEG CODE:CODE:NOROOT(1)
??SendToDevicesModbusReceipt:
        RCALL   ?Subroutine43
??CrossCallReturnLabel_104:
        RJMP    ??SendToDevicesModbusReceipt_1
??SendToDevicesModbusReceipt_2:
        RCALL   ?Subroutine30
??CrossCallReturnLabel_157:
        LDI     R17, 1
        STD     Z+3, R17
        INC     R16
??SendToDevicesModbusReceipt_1:
        RCALL   ?Subroutine35
??CrossCallReturnLabel_116:
        BRCS    ??SendToDevicesModbusReceipt_2
        RJMP    ?Subroutine31

        RSEG CODE:CODE:NOROOT(1)
?Subroutine30:
        LDI     R17, 2
        MUL     R16, R17
        RCALL   ?Subroutine62
??CrossCallReturnLabel_55:
        ADIW    R27:R26, 20
        REQUIRE ??Subroutine94_0
        ;               // Fall through to label ??Subroutine94_0

        RSEG CODE:CODE:NOROOT(1)
??Subroutine94_0:
        LD      R30, X+
        LD      R31, X
        RET

        RSEG CODE:CODE:NOROOT(1)
?Subroutine62:
        LDI     R26, LOW(??m_xDeviceConfigSearch)
        LDI     R27, (??m_xDeviceConfigSearch) >> 8
        ADD     R26, R0
        ADC     R27, R1
        RET

        RSEG CODE:CODE:NOROOT(1)
??ModbusDeviceControl:
        MOVW    R23:R22, R21:R20
        OR      R20, R23
        BRNE    ??ModbusDeviceControl_2
        MOVW    R31:R30, R17:R16
        LD      R16, Z
        TST     R16
        BREQ    ??ModbusDeviceControl_3
        RCALL   ?Subroutine25
??CrossCallReturnLabel_107:
        STD     Z+51, R16
        STD     Z+53, R16
        RJMP    ??SendToDevicesModbusReceipt
??ModbusDeviceControl_2:
        CPI     R22, 1
        LDI     R20, 0
        CPC     R21, R20
        BRNE    ??ModbusDeviceControl_4
        MOVW    R31:R30, R17:R16
        LD      R16, Z
        TST     R16
        BREQ    ??ModbusDeviceControl_3
        RCALL   ?Subroutine25
??CrossCallReturnLabel_108:
        STD     Z+52, R16
        STD     Z+54, R16
        RJMP    ??SendToDevicesModbusReset
??ModbusDeviceControl_4:
        MOV     R30, R22
        MOV     R31, R21
        SUBI    R30, 64
        SBCI    R31, 0
        SBIW    R31:R30, 48
        BRCC    ??ModbusDeviceControl_3
        MOVW    R21:R20, R19:R18
        MOVW    R19:R18, R17:R16
        LDI     R16, LOW(??m_aucRtuDiscreteDataArray)
        LDI     R17, (??m_aucRtuDiscreteDataArray) >> 8
        ADD     R16, R22
        ADC     R17, R23
        RCALL   ??SetBytesFromBits
        LDI     R16, 1
        STS     (??m_xDeviceConfigSearch + 13), R16
??ModbusDeviceControl_3:
        RET

        RSEG CODE:CODE:NOROOT(1)
??ModbusDeviceControl_1:
        SBIW    R29:R28, 1
        ST      Y, R16
        MOVW    R21:R20, R19:R18
        LDI     R18, 1
        LDI     R19, 0
        MOVW    R17:R16, R29:R28
        RCALL   ??ModbusDeviceControl
        ADIW    R29:R28, 1
        RET

        RSEG CODE:CODE:NOROOT(1)
??ModbusRtuLinkControlIsOn:
        LDS     R16, (??m_xDeviceConfiguration + 5)
        TST     R16
        BREQ    ??ModbusRtuLinkControlIsOn_1
        RJMP    ?Subroutine80
??ModbusRtuLinkControlIsOn_1:
        REQUIRE ?Subroutine79
        ;               // Fall through to label ?Subroutine79

        RSEG CODE:CODE:NOROOT(1)
?Subroutine79:
        LDI     R16, 0
        RET

        RSEG CODE:CODE:NOROOT(1)
??GetTimeoutModbusRtuLinkControl:
        LDS     R16, (??m_xDeviceConfiguration + 5)
        LDI     R17, 0
        LDI     R20, 232
        LDI     R21, 3
        REQUIRE ?Subroutine88
        ;               // Fall through to label ?Subroutine88

        RSEG CODE:CODE:NOROOT(1)
?Subroutine88:
        JMP     ?S_EC_MUL_L02

        RSEG CODE:CODE:NOROOT(1)
??ModbusRtuLinkControlInProgress:
        LDS     R16, (??m_xDeviceConfiguration + 27)
        SBRC    R16, 0
        RJMP    ?Subroutine80
??ModbusRtuLinkControlInProgress_1:
        RJMP    ?Subroutine79

        RSEG CODE:CODE:NOROOT(1)
??SetModeModbusRtuLinkControlInProgress:
        LDI     R30, LOW(??m_xDeviceConfiguration)
        LDI     R31, (??m_xDeviceConfiguration) >> 8
        BST     R16, 0
        LDD     R16, Z+27
        BLD     R16, 0
        STD     Z+27, R16
        LDI     R18, 10
        LDI     R16, LOW((??m_xDeviceConfiguration + 27))
        LDI     R17, HIGH((??m_xDeviceConfiguration + 27))
        CALL    ??WriteBlock
        JMP     ??SignatureCreate

        RSEG CODE:CODE:NOROOT(1)
??SendToDevicesReceipt:
        RCALL   ?Subroutine43
??CrossCallReturnLabel_105:
        RJMP    ??SendToDevicesReceipt_1
??SendToDevicesReceipt_2:
        RCALL   ?Subroutine30
??CrossCallReturnLabel_158:
        LDI     R17, 1
        STD     Z+1, R17
        INC     R16
??SendToDevicesReceipt_1:
        RCALL   ?Subroutine35
??CrossCallReturnLabel_117:
        BRCS    ??SendToDevicesReceipt_2
        RJMP    ?Subroutine31

        RSEG CODE:CODE:NOROOT(1)
?Subroutine43:
        MOVW    R19:R18, R27:R26
        RJMP    ?Subroutine79

        RSEG CODE:CODE:NOROOT(1)
?Subroutine35:
        LDS     R17, ??m_xDeviceConfigSearch
        REQUIRE ?Subroutine81
        ;               // Fall through to label ?Subroutine81

        RSEG CODE:CODE:NOROOT(1)
?Subroutine81:
        CP      R16, R17
        RET

        RSEG CODE:CODE:NOROOT(1)
?Subroutine31:
        LDI     R16, 2
        STS     (??m_xDeviceConfigSearch + 13), R16
        RJMP    ?Subroutine78

        RSEG CODE:CODE:NOROOT(1)
??SendToDevicesReset:
        RCALL   ?Subroutine43
??CrossCallReturnLabel_106:
        RJMP    ??SendToDevicesReset_1
??SendToDevicesReset_2:
        RCALL   ?Subroutine42
??CrossCallReturnLabel_39:
        ADIW    R27:R26, 2
        LDI     R17, 1
        ST      X, R17
        INC     R16
??SendToDevicesReset_1:
        RCALL   ?Subroutine35
??CrossCallReturnLabel_118:
        BRCS    ??SendToDevicesReset_2
        RJMP    ?Subroutine78

        RSEG CODE:CODE:NOROOT(1)
?Subroutine42:
        LDI     R17, 2
        MUL     R16, R17
        MOVW    R31:R30, R1:R0
        SUBI    R30, LOW((-(??m_xDeviceConfigSearch) & 0xFFFF))
        SBCI    R31, (-(??m_xDeviceConfigSearch) & 0xFFFF) >> 8
        LDD     R26, Z+20
        LDD     R27, Z+21
        RET
//  557 
//  558 //-----------------------------------------------------------------------------------------------------
//  559 void CPss21::SendToDevicesModbusReceipt(void)
//  560 {
//  561     for (uint8_t i = 0;
//  562             i < (m_xDeviceConfigSearch.uiModulesQuantity);
//  563             i++)
//  564     {
//  565         m_apxDrivers[i] -> SetModbusReceipt(1);
//  566     }
//  567 
//  568     // Сообщим автомату о состоявшемся квитировании.
//  569     m_xModbusRtuLinkControl.SetFsmEvent(CModbusRtuLinkControl::RECEIPT_HAPPENED_FSM_EVENT);
//  570 }
//  571 
//  572 //-----------------------------------------------------------------------------------------------------
//  573 void CPss21::SendToDevicesModbusReset(void)
//  574 {
//  575     for (uint8_t i = 0;
//  576             i < (m_xDeviceConfigSearch.uiModulesQuantity);
//  577             i++)
//  578     {
//  579         m_apxDrivers[i] -> SetModbusReset(1);
//  580     }
//  581 }
//  582 
//  583 //-----------------------------------------------------------------------------------------------------

        RSEG CODE:CODE:NOROOT(1)
//  584 void CPss21::KeyStateProcessing(void)
??KeyStateProcessing:
//  585 {
        ST      -Y, R24
//  586 //    m_xReceiptKey.Fsm();
//  587 //    m_xResetKey.Fsm();
//  588 //    m_xCheckKey.Fsm();
//  589 //    m_xExternalKey.Fsm();
//  590 
//  591     if (m_xReceiptKey.KeyEventHappened(CMultiFunctionKey::KEY_EVENT_PRESSED_PUSH))
        LDI     R18, 2
        RCALL   ?Subroutine11
??CrossCallReturnLabel_71:
        TST     R16
        BREQ    ??CrossCallReturnLabel_171
//  592     {
//  593         SetPanelReceipt(1);
        RCALL   ?Subroutine25
??CrossCallReturnLabel_109:
        STD     Z+47, R16
//  594         SetDiscreteSignalsReceipt(1);
        RCALL   ?Subroutine15
//  595         SendToDevicesReceipt();
//  596         m_xBuzzerNotifyerControl.AlarmSet(BEEP_SIGNAL);
//  597     }
//  598 
//  599     if (m_xResetKey.KeyEventHappened(CMultiFunctionKey::KEY_EVENT_PRESSED_PUSH))
??CrossCallReturnLabel_171:
        LDI     R18, 2
        LDI     R16, LOW((??m_xDeviceConfigSearch + 76))
        LDI     R17, HIGH((??m_xDeviceConfigSearch + 76))
        RCALL   ?Subroutine67
??CrossCallReturnLabel_73:
        TST     R16
        BREQ    ??CrossCallReturnLabel_165
//  600     {
//  601         SetPanelReset(1);
        RCALL   ?Subroutine25
??CrossCallReturnLabel_110:
        STD     Z+48, R16
//  602         SetDiscreteSignalsReset(1);
        RCALL   ?Subroutine44
//  603         SendToDevicesReset();
//  604         m_xBuzzerNotifyerControl.AlarmSet(BEEP_SIGNAL);
??CrossCallReturnLabel_41:
        RCALL   ??Subroutine96_0
//  605     }
//  606 
//  607     if (m_xCheckKey.KeyEventHappened(CMultiFunctionKey::KEY_EVENT_PRESSED_PUSH))
??CrossCallReturnLabel_165:
        LDI     R18, 2
        RCALL   ?Subroutine13
??CrossCallReturnLabel_6:
        TST     R16
        BREQ    ??CrossCallReturnLabel_166
//  608     {
//  609         // Включим режим тестирования.
//  610         SetFsmState(TEST_START);
        RCALL   ?Subroutine45
//  611         m_xBuzzerNotifyerControl.AlarmSet(BEEP_SIGNAL);
??CrossCallReturnLabel_163:
        RCALL   ??Subroutine96_0
//  612     }
//  613 
//  614     if (m_xExternalKey.KeyEventHappened(CMultiFunctionKey::KEY_EVENT_PRESSED_RECEIPT))
??CrossCallReturnLabel_166:
        LDI     R18, 2
        RCALL   ?Subroutine8
??CrossCallReturnLabel_222:
        BREQ    ??CrossCallReturnLabel_172
//  615     {
//  616         SetExternalReceipt(1);
        RCALL   ?Subroutine25
??CrossCallReturnLabel_111:
        STD     Z+49, R16
//  617         SetDiscreteSignalsReceipt(1);
        RCALL   ?Subroutine15
//  618         SendToDevicesReceipt();
//  619         m_xBuzzerNotifyerControl.AlarmSet(BEEP_SIGNAL);
//  620     }
//  621 
//  622     if (m_xExternalKey.KeyEventHappened(CMultiFunctionKey::KEY_EVENT_PRESSED_RESET))
??CrossCallReturnLabel_172:
        LDI     R18, 3
        RCALL   ?Subroutine8
??CrossCallReturnLabel_223:
        BREQ    ??CrossCallReturnLabel_167
//  623     {
//  624         SetExternalReset(1);
        RCALL   ?Subroutine25
??CrossCallReturnLabel_112:
        STD     Z+50, R16
//  625         SetDiscreteSignalsReset(1);
        RCALL   ?Subroutine44
//  626         SendToDevicesReset();
//  627         m_xBuzzerNotifyerControl.AlarmSet(BEEP_SIGNAL);
??CrossCallReturnLabel_40:
        RCALL   ??Subroutine96_0
//  628     }
//  629 
//  630     if (m_xExternalKey.KeyEventHappened(CMultiFunctionKey::KEY_EVENT_PRESSED_CHECK))
??CrossCallReturnLabel_167:
        LDI     R18, 4
        RCALL   ?Subroutine8
??CrossCallReturnLabel_224:
        BREQ    ??CrossCallReturnLabel_168
//  631     {
//  632         // Включим режим тестирования.
//  633         SetFsmState(TEST_START);
        RCALL   ?Subroutine45
//  634         m_xBuzzerNotifyerControl.AlarmSet(BEEP_SIGNAL);
??CrossCallReturnLabel_164:
        RCALL   ??Subroutine96_0
//  635     }
//  636 
//  637     // Кнопки "Квитирование" и "Контроль" нажаты дольше 7 секунд?
//  638     if (m_xEventUniteLogicAndOne.IsHappened((m_xReceiptKey.KeyEventHappened(CMultiFunctionKey::KEY_EVENT_PRESSED_SET_DEFAULT)),
//  639                                             (m_xCheckKey.KeyEventHappened(CMultiFunctionKey::KEY_EVENT_PRESSED_SET_DEFAULT))))
??CrossCallReturnLabel_168:
        LDI     R18, 5
        RCALL   ?Subroutine13
??CrossCallReturnLabel_7:
        MOV     R24, R16
        LDI     R18, 5
        RCALL   ?Subroutine11
??CrossCallReturnLabel_72:
        MOV     R18, R16
        MOV     R19, R24
        LDI     R16, LOW((??m_xDeviceConfigSearch + 121))
        LDI     R17, HIGH((??m_xDeviceConfigSearch + 121))
        CALL    ??IsHappened
        TST     R16
        BREQ    ??CrossCallReturnLabel_169
//  640     {
//  641         // Устанавливаем настройки Modbus по умолчанию на текущую сессию.
//  642         CPss21::ModbusDefaultInit();
        RCALL   ??ModbusDefaultInit
//  643         m_xBuzzerNotifyerControl.AlarmSet(BEEP_SIGNAL);
        RCALL   ??Subroutine96_0
//  644     }
//  645 }
??CrossCallReturnLabel_169:
        REQUIRE ?Subroutine82
        ;               // Fall through to label ?Subroutine82

        RSEG CODE:CODE:NOROOT(1)
?Subroutine82:
        LD      R24, Y+
        RET

        RSEG CODE:CODE:NOROOT(1)
?Subroutine45:
        LDI     R16, 6
        REQUIRE ??Subroutine95_0
        ;               // Fall through to label ??Subroutine95_0

        RSEG CODE:CODE:NOROOT(1)
??Subroutine95_0:
        STS     (??m_xDeviceConfigSearch + 46), R16
        RET

        RSEG CODE:CODE:NOROOT(1)
?Subroutine44:
        STD     Z+54, R16
        RJMP    ??SendToDevicesReset

        RSEG CODE:CODE:NOROOT(1)
?Subroutine25:
        RCALL   ?Subroutine64
??CrossCallReturnLabel_64:
        REQUIRE ?Subroutine80
        ;               // Fall through to label ?Subroutine80

        RSEG CODE:CODE:NOROOT(1)
?Subroutine80:
        LDI     R16, 1
        RET

        RSEG CODE:CODE:NOROOT(1)
?Subroutine15:
        STD     Z+53, R16
        RCALL   ??SendToDevicesReceipt
        REQUIRE ??Subroutine96_0
        ;               // Fall through to label ??Subroutine96_0

        RSEG CODE:CODE:NOROOT(1)
??Subroutine96_0:
        LDI     R18, 7
        RJMP    ?Subroutine59

        RSEG CODE:CODE:NOROOT(1)
?Subroutine13:
        LDI     R16, LOW((??m_xDeviceConfigSearch + 91))
        LDI     R17, HIGH((??m_xDeviceConfigSearch + 91))
        RJMP    ?Subroutine67

        RSEG CODE:CODE:NOROOT(1)
?Subroutine11:
        LDI     R16, LOW((??m_xDeviceConfigSearch + 61))
        LDI     R17, HIGH((??m_xDeviceConfigSearch + 61))
        REQUIRE ?Subroutine67
        ;               // Fall through to label ?Subroutine67

        RSEG CODE:CODE:NOROOT(1)
?Subroutine67:
        JMP     ??KeyEventHappened

        RSEG CODE:CODE:NOROOT(1)
?Subroutine8:
        LDI     R16, LOW((??m_xDeviceConfigSearch + 106))
        LDI     R17, HIGH((??m_xDeviceConfigSearch + 106))
        RCALL   ?Subroutine67
??CrossCallReturnLabel_70:
        REQUIRE ?Subroutine83
        ;               // Fall through to label ?Subroutine83

        RSEG CODE:CODE:NOROOT(1)
?Subroutine83:
        TST     R16
        RET
//  646 
//  647 //-----------------------------------------------------------------------------------------------------

        RSEG CODE:CODE:NOROOT(1)
//  648 void CPss21::ReceiptResetGlobalFlagsClear(void)
??ReceiptResetGlobalFlagsClear:
//  649 {
//  650     SetPanelReceipt(0);
        RCALL   ?Subroutine64
??CrossCallReturnLabel_59:
        LDI     R16, 0
        STD     Z+47, R16
//  651     SetExternalReceipt(0);
        STD     Z+49, R16
//  652     SetModbusReceipt(0);
        STD     Z+51, R16
//  653     SetPanelReset(0);
        STD     Z+48, R16
//  654     SetExternalReset(0);
        STD     Z+50, R16
//  655     SetModbusReset(0);
        STD     Z+52, R16
//  656 }
        RET
//  657 
//  658 //-----------------------------------------------------------------------------------------------------

        RSEG CODE:CODE:NOROOT(1)
//  659 uint8_t CPss21::ModulesInteraction(uint8_t uiModuleIndex)
??ModulesInteraction:
//  660 {
        ST      -Y, R27
        ST      -Y, R26
//  661     if (uiModuleIndex < (m_xDeviceConfigSearch.uiModulesQuantity))
        RCALL   ?Subroutine35
??CrossCallReturnLabel_119:
        BRCC    ??ModulesInteraction_1
        LDI     R17, 2
        MUL     R16, R17
        RCALL   ?Subroutine26
??CrossCallReturnLabel_18:
        LDD     R26, Z+20
        LDD     R27, Z+21
        MOVW    R17:R16, R27:R26
        ADIW    R27:R26, 9
        RCALL   ??Subroutine94_0
??CrossCallReturnLabel_156:
        RCALL   ?Subroutine63
//  662     {
//  663         m_apxDrivers[uiModuleIndex] -> DataExchange();
//  664         return 0;
??CrossCallReturnLabel_57:
        LDI     R16, 0
        RJMP    ??ModulesInteraction_2
//  665     }
//  666     else
//  667     {
//  668         return 1;
??ModulesInteraction_1:
        LDI     R16, 1
//  669     }
??ModulesInteraction_2:
        RJMP    ?Subroutine73
//  670 };
//  671 
//  672 //-----------------------------------------------------------------------------------------------------

        RSEG CODE:CODE:NOROOT(1)
//  673 void CPss21::ConfigurationInit(void)
??ConfigurationInit:
//  674 {
        RCALL   ?Subroutine41
//  675     uint8_t* puiTempBuffer = m_auiIntermediateBuff;
??CrossCallReturnLabel_36:
        LDI     R26, LOW(??m_auiIntermediateBuff)
        LDI     R27, (??m_auiIntermediateBuff) >> 8
//  676     uint8_t* puiAlarmDfaInit = m_auiReceiveMessageBuff;
//  677 
//  678     memset(puiAlarmDfaInit, 0, DISCRETE_SIGNALS_NUMBER);
        LDI     R20, 96
        RCALL   ?Subroutine4
??CrossCallReturnLabel_154:
        LDI     R16, LOW(??m_auiReceiveMessageBuff)
        LDI     R17, (??m_auiReceiveMessageBuff) >> 8
        RCALL   ?Subroutine85
//  679 
//  680     // Установим конфигурацию устройства.
//  681     // Считаем во временный буфер блок БД - "Конфигурация устройства".
//  682     CDataBase::ReadBlock(puiTempBuffer, TDataBase::DEV_CONFIG);
??CrossCallReturnLabel_122:
        LDI     R18, 0
        RCALL   ?Subroutine37
//  683     memcpy(reinterpret_cast<uint8_t*>(&m_xDeviceConfiguration),
//  684            puiTempBuffer,
//  685            sizeof(struct TDevConfig));
??CrossCallReturnLabel_128:
        LDI     R20, 20
        LDI     R21, 0
        MOVW    R19:R18, R27:R26
        LDI     R16, LOW(??m_xDeviceConfiguration)
        LDI     R17, (??m_xDeviceConfiguration) >> 8
        RCALL   ?Subroutine49
//  686 
//  687     // Установим параметры интерфейса ModBus.
//  688     // Считаем во временный буфер блок БД - "Параметры интерфейса ModBus".
//  689     CDataBase::ReadBlock(puiTempBuffer, TDataBase::MODBUS_SET);
??CrossCallReturnLabel_45:
        LDI     R18, 1
        RCALL   ?Subroutine37
//  690     memcpy(reinterpret_cast<uint8_t*>(&m_xModbusSettings),
//  691            puiTempBuffer,
//  692            sizeof(struct TMBusSetting));
??CrossCallReturnLabel_127:
        LDI     R20, 7
        LDI     R21, 0
        MOVW    R19:R18, R27:R26
        LDI     R16, LOW((??m_xDeviceConfiguration + 20))
        LDI     R17, HIGH((??m_xDeviceConfiguration + 20))
        RCALL   ?Subroutine49
//  693 
//  694     // Считаем во временный буфер блок БД - "БД модулей вывода".
//  695     CDataBase::ReadBlock(puiTempBuffer, TDataBase::OUT_BASE);
??CrossCallReturnLabel_44:
        LDI     R18, 5
        RCALL   ?Subroutine37
//  696     memcpy(reinterpret_cast<uint8_t*>(&m_xDiscreteOutputDataBase),
//  697            puiTempBuffer,
//  698            sizeof(struct TOutputData));
??CrossCallReturnLabel_126:
        LDI     R20, 24
        LDI     R21, 0
        MOVW    R19:R18, R27:R26
        LDI     R16, LOW((??m_xDeviceConfigSearch + 189))
        LDI     R17, HIGH((??m_xDeviceConfigSearch + 189))
        RCALL   ?Subroutine49
//  699 
//  700     // Установим уровень дискретного сигнала интерпретируемый как активный.
//  701     // Считаем во временный буфер блок БД - "Уровень дискретного сигнала интерпретируемый как активный".
//  702     CDataBase::ReadBlock(puiTempBuffer, TDataBase::ACTIVITY_LEVEL);
??CrossCallReturnLabel_43:
        LDI     R18, 2
        RCALL   ?Subroutine37
//  703     for (uint8_t i = 0;
??CrossCallReturnLabel_125:
        LDI     R18, 0
//  704             i < DISCRETE_INPUTS_NUMBER;
//  705         )
//  706     {
//  707         uint8_t uiData = *puiTempBuffer;
??ConfigurationInit_1:
        LD      R22, X+
//  708         for (uint8_t j = 0;
        LDI     R21, 0
        LDI     R19, 8
//  709                 j < 8;
//  710                 j++)
//  711         {
//  712             // Установим уровень текущего дискретного сигнала интерпретируемый как активный.
//  713             if (((uiData >> j) & 0x01))
??ConfigurationInit_2:
        LDI     R17, 0
        LDI     R30, LOW(??m_auiReceiveMessageBuff)
        LDI     R31, (??m_auiReceiveMessageBuff) >> 8
        ADD     R30, R18
        ADC     R31, R17
        MOV     R16, R22
        MOV     R20, R21
        CALL    ?SS_SHR_L02
        ANDI    R16, 0x01
        BREQ    ??ConfigurationInit_3
//  714             {
//  715                 puiAlarmDfaInit[i] = 0x80;
        LDI     R16, 128
        RJMP    ??ConfigurationInit_4
//  716             }
//  717             else
//  718             {
//  719                 puiAlarmDfaInit[i] = 0;
??ConfigurationInit_3:
        LDI     R16, 0
??ConfigurationInit_4:
        ST      Z, R16
//  720             }
//  721             i++;
        INC     R18
//  722         }
        INC     R21
        DEC     R19
        BRNE    ??ConfigurationInit_2
//  723         puiTempBuffer++;
//  724     }
        CPI     R18, 48
        BRCS    ??ConfigurationInit_1
//  725 
//  726     puiTempBuffer = m_auiIntermediateBuff;
//  727     // Привяжем окна сигнализации к дискретным сигналам.
//  728     // Считаем во временный буфер блок БД - "Индекс окна сигнализации которое привязано к текущему дискретному сигналу".
//  729     CDataBase::ReadBlock(puiTempBuffer, TDataBase::ALARM_WINDOW_INDEX);
        RCALL   ?Subroutine47
//  730     for (uint8_t i = 0;
??CrossCallReturnLabel_129:
        LDI     R18, 0
        LDI     R16, 96
//  731             i < DISCRETE_SIGNALS_NUMBER;
//  732             i++)
//  733     {
//  734         // Привяжем окно сигнализации к текущему дискретному сигналу.
//  735         puiAlarmDfaInit[i] |= (puiTempBuffer[i] & ~(0x80));
??ConfigurationInit_5:
        MOV     R30, R18
        LDI     R31, 0
        SUBI    R30, LOW((-(??m_auiIntermediateBuff) & 0xFFFF))
        SBCI    R31, (-(??m_auiIntermediateBuff) & 0xFFFF) >> 8
        LD      R17, Z
        ANDI    R17, 0x7F
        MOV     R30, R18
        LDI     R31, 0
        SUBI    R30, LOW((-(??m_auiReceiveMessageBuff) & 0xFFFF))
        SBCI    R31, (-(??m_auiReceiveMessageBuff) & 0xFFFF) >> 8
        LD      R19, Z
        OR      R19, R17
        ST      Z, R19
//  736     }
        INC     R18
        DEC     R16
        BRNE    ??ConfigurationInit_5
//  737 
//  738     // Считаем во временный буфер блок БД - "Тип сигнализации привязанный к окну".
//  739     CDataBase::ReadBlock(puiTempBuffer, TDataBase::ALARM_TYPE);
        LDI     R18, 4
        RCALL   ?Subroutine68
//  740     for (uint8_t i = 0;
??CrossCallReturnLabel_131:
        LDI     R18, 0
        LDI     R17, 96
//  741             i < DISCRETE_SIGNALS_NUMBER;
//  742             i++)
//  743     {
//  744         uint8_t uiWindowIndex = (puiAlarmDfaInit[i] & ~(0x80));
??ConfigurationInit_6:
        LDI     R19, 0
        LDI     R30, LOW(??m_auiReceiveMessageBuff)
        LDI     R31, (??m_auiReceiveMessageBuff) >> 8
        ADD     R30, R18
        ADC     R31, R19
        LD      R19, Z
        MOV     R16, R19
        ANDI    R16, 0x7F
//  745         // Для текущего дискретного сигнала запрограммирована сигнализация?
//  746         if (uiWindowIndex < ALARM_WINDOWS_NUMBER)
        CPI     R16, 48
        ANDI    R19, 0x80
        BRCC    ??ConfigurationInit_7
//  747         {
//  748             // Очистим индекс привязанного окна, больше не нужен.
//  749             // Оставим уровень дискретного сигнала интерпретируемый как активный.
//  750             puiAlarmDfaInit[i] &= 0x80;
//  751             // Установим тип сигнализации по привязанному окну.
//  752             puiAlarmDfaInit[i] |= puiTempBuffer[uiWindowIndex];
        LDI     R27, 0
        SUBI    R16, LOW((-(??m_auiIntermediateBuff) & 0xFFFF))
        MOV     R26, R16
        SBCI    R27, (-(??m_auiIntermediateBuff) & 0xFFFF) >> 8
        LD      R16, X
        OR      R19, R16
//  753         }
//  754         else
//  755         {
//  756             // Очистим индекс привязанного окна, больше не нужен.
//  757             // Оставим уровень дискретного сигнала интерпретируемый как активный.
//  758             puiAlarmDfaInit[i] &= 0x80;
??ConfigurationInit_7:
        ST      Z, R19
//  759         }
//  760     }
        INC     R18
        DEC     R17
        BRNE    ??ConfigurationInit_6
//  761 
//  762     // Создадим объекты автоматов обработки сигнализаций дискретных сигналов.
//  763     for (uint8_t i = 0;
        LDI     R24, 0
        LDI     R25, 96
//  764             i < DISCRETE_SIGNALS_NUMBER;
//  765             i++)
//  766     {
//  767         // Какой тип сигнализации связан с дискретным сигналом?
//  768         switch (puiAlarmDfaInit[i] & 0x03)
??ConfigurationInit_8:
        LDI     R16, 2
        MUL     R24, R16
        LDI     R26, LOW(??m_apxAlarmDfa)
        LDI     R27, (??m_apxAlarmDfa) >> 8
        ADD     R26, R0
        ADC     R27, R1
        LDI     R17, 0
        LDI     R30, LOW(??m_auiReceiveMessageBuff)
        LDI     R31, (??m_auiReceiveMessageBuff) >> 8
        ADD     R30, R24
        ADC     R31, R17
        LD      R16, Z
        ANDI    R16, 0x03
        BREQ    ??ConfigurationInit_9
        DEC     R16
        BREQ    ??ConfigurationInit_10
        DEC     R16
        BREQ    ??ConfigurationInit_11
        DEC     R16
        BREQ    ??ConfigurationInit_12
        RJMP    ??ConfigurationInit_9
//  769         {
//  770         case NORMAL:
//  771             m_apxAlarmDfa[i] = new CNormalAlarmDfa;
//  772             break;
//  773 
//  774         case INDICATION:
//  775             // Уровень дискретного сигнала интерпретируемый как активный - высокий?
//  776             if (puiAlarmDfaInit[i] & 0x80)
??ConfigurationInit_10:
        LD      R16, Z
        SBRS    R16, 7
        RJMP    ??ConfigurationInit_13
//  777             {
//  778                 m_apxAlarmDfa[i] = new CIndicationAlarmHighLevelDfa;
        CALL    `??new CIndicationAlarmHighLevelDfa`
        RJMP    ??ConfigurationInit_14
//  779             }
//  780             else
//  781             {
//  782                 m_apxAlarmDfa[i] = new CIndicationAlarmLowLevelDfa;
??ConfigurationInit_13:
        CALL    `??new CIndicationAlarmLowLevelDfa`
        RJMP    ??ConfigurationInit_14
//  783             }
//  784             break;
//  785 
//  786         case PREVENTIVE:
//  787             // Уровень дискретного сигнала интерпретируемый как активный - высокий?
//  788             if (puiAlarmDfaInit[i] & 0x80)
??ConfigurationInit_11:
        LD      R16, Z
        SBRS    R16, 7
        RJMP    ??ConfigurationInit_15
//  789             {
//  790                 m_apxAlarmDfa[i] = new CPreventiveAlarmHighLevelDfa;
        CALL    `??new CPreventiveAlarmHighLevelDfa`
        RJMP    ??ConfigurationInit_14
//  791             }
//  792             else
//  793             {
//  794                 m_apxAlarmDfa[i] = new CPreventiveAlarmLowLevelDfa;
??ConfigurationInit_15:
        CALL    `??new CPreventiveAlarmLowLevelDfa`
        RJMP    ??ConfigurationInit_14
//  795             }
//  796             break;
//  797 
//  798         case EMERGENCY:
//  799             // Уровень дискретного сигнала интерпретируемый как активный - высокий?
//  800             if (puiAlarmDfaInit[i] & 0x80)
??ConfigurationInit_12:
        LD      R16, Z
        SBRS    R16, 7
        RJMP    ??ConfigurationInit_16
//  801             {
//  802                 m_apxAlarmDfa[i] = new CEmergencyAlarmHighLevelDfa;
        CALL    `??new CEmergencyAlarmHighLevelDfa`
        RJMP    ??ConfigurationInit_14
//  803             }
//  804             else
//  805             {
//  806                 m_apxAlarmDfa[i] = new CEmergencyAlarmLowLevelDfa;
??ConfigurationInit_16:
        CALL    `??new CEmergencyAlarmLowLevelDfa`
        RJMP    ??ConfigurationInit_14
//  807             }
//  808             break;
//  809 
//  810         case IND_PREVENTIVE:
//  811             m_apxAlarmDfa[i] = new CNormalAlarmDfa;
//  812             break;
//  813 
//  814         case IND_EMERGENCY:
//  815             m_apxAlarmDfa[i] = new CNormalAlarmDfa;
//  816             break;
//  817 
//  818         default:
//  819             m_apxAlarmDfa[i] = new CNormalAlarmDfa;
??ConfigurationInit_9:
        CALL    `??new CNormalAlarmDfa`
??ConfigurationInit_14:
        ST      X+, R16
        ST      X, R17
//  820             break;
//  821         }
//  822     }
        INC     R24
        DEC     R25
        BRNE    ??ConfigurationInit_8
//  823 
//  824     // Привяжем окна сигнализации к созданным объектам сигнализаций дискретных сигналов.
//  825     // Считаем во временный буфер блок БД - "Индекс окна сигнализации которое привязано к текущему дискретному сигналу".
//  826     CDataBase::ReadBlock(puiTempBuffer, TDataBase::ALARM_WINDOW_INDEX);
        RCALL   ?Subroutine47
//  827     for (uint8_t i = 0;
??CrossCallReturnLabel_130:
        LDI     R20, 0
        LDI     R18, 96
//  828             i < DISCRETE_SIGNALS_NUMBER;
//  829             i++)
//  830     {
//  831         // Для текущего дискретного сигнала запрограммирована сигнализация?
//  832         if (puiTempBuffer[i] < ALARM_WINDOWS_NUMBER)
??ConfigurationInit_17:
        RCALL   ?Subroutine27
??CrossCallReturnLabel_120:
        LDD     R17, Z+1
        RCALL   ?Subroutine36
??CrossCallReturnLabel_27:
        CPI     R19, 48
        MOVW    R31:R30, R17:R16
        BRCC    ??ConfigurationInit_18
//  833         {
//  834             // Привяжем окно сигнализации к текущему дискретному сигналу.
//  835             m_apxAlarmDfa[i] ->
//  836             SetAlarmWindowIndex(puiTempBuffer[i]);
        STD     Z+3, R19
//  837         }
        RJMP    ??ConfigurationInit_19
//  838         else
//  839         {
//  840             m_apxAlarmDfa[i] ->
//  841             SetAlarmWindowIndex(0);
??ConfigurationInit_18:
        LDI     R16, 0
        STD     Z+3, R16
//  842         }
//  843     }
??ConfigurationInit_19:
        INC     R20
        DEC     R18
        BRNE    ??ConfigurationInit_17
//  844 
//  845     // Считаем во временный буфер блок БД - "Выходные реле, сопоставленные физическим входам".
//  846     CDataBase::ReadBlock(puiTempBuffer, TDataBase::RELAY);
        LDI     R18, 6
        RCALL   ?Subroutine68
//  847     // Получим связанные выходы на МР.
//  848     for (uint8_t i = 0;
??CrossCallReturnLabel_132:
        LDI     R20, 0
        LDI     R18, 96
//  849             i < DISCRETE_SIGNALS_NUMBER;
//  850             i++)
//  851     {
//  852         *(m_apxAlarmDfa[i] -> GetLinkedDiscreteOutputsPointer()) = puiTempBuffer[i];
??ConfigurationInit_20:
        RCALL   ?Subroutine36
??CrossCallReturnLabel_28:
        RCALL   ?Subroutine27
??CrossCallReturnLabel_121:
        LDD     R31, Z+1
        MOV     R30, R16
        STD     Z+4, R19
        INC     R20
        DEC     R18
        BRNE    ??ConfigurationInit_20
//  853     };
//  854 
//  855     // Получим индексы источников состояния дискретных сигналов - дискретные входы модулей.
//  856     for (uint8_t i = 0;
        LDI     R17, 0
        LDI     R16, 48
        LDI     R18, 2
//  857             i < DISCRETE_INPUTS_NUMBER;
//  858             i++)
//  859     {
//  860         m_apxAlarmDfa[i] -> SetDiscreteStateIndex(i);
??ConfigurationInit_21:
        MUL     R17, R18
        RCALL   ?Subroutine66
??CrossCallReturnLabel_67:
        LD      R26, Z
        LDD     R27, Z+1
        ADIW    R27:R26, 5
        ST      X, R17
//  861     };
        INC     R17
        DEC     R16
        BRNE    ??ConfigurationInit_21
//  862     // Получим индексы источников состояния дискретных сигналов - состояние ячеек(coils Modbus).
//  863     for (uint8_t i = 0;
        LDI     R17, 0
        LDI     R16, 48
        LDI     R19, 2
//  864             i < ALARM_WINDOWS_NUMBER;
//  865             i++)
//  866     {
//  867         m_apxAlarmDfa[DISCRETE_INPUTS_NUMBER + i] -> SetDiscreteStateIndex(DISCRETE_INPUTS_NUMBER + i);
??ConfigurationInit_22:
        MOV     R18, R17
        SUBI    R18, 208
        MUL     R17, R19
        MOVW    R31:R30, R1:R0
        SUBI    R30, LOW((-(??m_apxAlarmDfa + 96) & 0xFFFF))
        SBCI    R31, HIGH((-(??m_apxAlarmDfa + 96) & 0xFFFF))
        LD      R26, Z
        LDD     R27, Z+1
        ADIW    R27:R26, 5
        ST      X, R18
//  868     };
        INC     R17
        DEC     R16
        BRNE    ??ConfigurationInit_22
//  869 
//  870     // Восстановим  состояние устройства.
//  871     // Считаем во временный буфер блок БД - "Состояние устройства хранимое в EEPROM".
//  872     CDataBase::ReadBlock(puiTempBuffer, TDataBase::DEVICE_STATE);
        LDI     R18, 10
        RCALL   ?Subroutine68
//  873     memcpy(reinterpret_cast<uint8_t*>(&m_xDeviceState),
//  874            puiTempBuffer,
//  875            sizeof(struct TDeviceState));
??CrossCallReturnLabel_133:
        LDI     R20, 8
        LDI     R21, 0
        LDI     R18, LOW(??m_auiIntermediateBuff)
        LDI     R19, (??m_auiIntermediateBuff) >> 8
        LDI     R16, LOW((??m_xDeviceConfiguration + 27))
        LDI     R17, HIGH((??m_xDeviceConfiguration + 27))
        RCALL   ?Subroutine49
//  876 
//  877 //    // Создадим автоматы обработки ошибок.
//  878 //    uint8_t uiIndex = 0;
//  879 //
//  880 //    m_apxErrorAlarmDfa[uiIndex] = new CErrorAlarmDfa;
//  881 //    // Привяжем окно сигнализации к созданному объекту сигнализации ошибки.
//  882 //    m_apxErrorAlarmDfa[uiIndex] -> SetAlarmWindowIndex(IMD_ERROR);
//  883 //    // Установим индекс источника состояния ошибки.
//  884 //    m_apxErrorAlarmDfa[uiIndex] -> SetDiscreteStateIndex(IMD_ERROR);
//  885 //    uiIndex++;
//  886 //
//  887 //    m_apxErrorAlarmDfa[uiIndex] = new CErrorAlarmDfa;
//  888 //    // Привяжем окно сигнализации к созданному объекту сигнализации ошибки.
//  889 //    m_apxErrorAlarmDfa[uiIndex] -> SetAlarmWindowIndex(OMD_ERROR);
//  890 //    // Установим индекс источника состояния ошибки.
//  891 //    m_apxErrorAlarmDfa[uiIndex] -> SetDiscreteStateIndex(OMD_ERROR);
//  892 //    uiIndex++;
//  893 //
//  894 //    m_apxErrorAlarmDfa[uiIndex] = new CErrorAlarmDfa;
//  895 //    // Привяжем окно сигнализации к созданному объекту сигнализации ошибки.
//  896 //    m_apxErrorAlarmDfa[uiIndex] -> SetAlarmWindowIndex(CFG_ERROR);
//  897 //    // Установим индекс источника состояния ошибки.
//  898 //    m_apxErrorAlarmDfa[uiIndex] -> SetDiscreteStateIndex(CFG_ERROR);
//  899 //    uiIndex++;
//  900 //
//  901 //    m_apxErrorAlarmDfa[uiIndex] = new CErrorAlarmDfa;
//  902 //    // Привяжем окно сигнализации к созданному объекту сигнализации ошибки.
//  903 //    m_apxErrorAlarmDfa[uiIndex] -> SetAlarmWindowIndex(DB_ERROR);
//  904 //    // Установим индекс источника состояния ошибки.
//  905 //    m_apxErrorAlarmDfa[uiIndex] -> SetDiscreteStateIndex(DB_ERROR);
//  906 //    uiIndex++;
//  907 //
//  908 //    m_apxErrorAlarmDfa[uiIndex] = new CErrorAlarmDfa;
//  909 //    // Привяжем окно сигнализации к созданному объекту сигнализации ошибки.
//  910 //    m_apxErrorAlarmDfa[uiIndex] -> SetAlarmWindowIndex(MBS_ERROR);
//  911 //    // Установим индекс источника состояния ошибки.
//  912 //    m_apxErrorAlarmDfa[uiIndex] -> SetDiscreteStateIndex(MBS_ERROR);
//  913 //    uiIndex++;
//  914 
//  915     // Создадим автоматы обработки ошибок.
//  916     for (uint8_t i = 0;
??CrossCallReturnLabel_42:
        LDI     R25, 0
        LDI     R24, 2
//  917             i < HANDLED_ERROR_NUMBER;
//  918             i++)
//  919     {
//  920         m_apxErrorAlarmDfa[i] = new CErrorAlarmDfa;
??ConfigurationInit_23:
        CALL    `??new CErrorAlarmDfa`
        LDI     R18, 2
        MUL     R25, R18
        RCALL   ?Subroutine26
??CrossCallReturnLabel_19:
        STD     Z+26, R16
        STD     Z+27, R17
//  921         // Привяжем окно сигнализации к созданному объекту сигнализации ошибки.
//  922         m_apxErrorAlarmDfa[i] -> SetAlarmWindowIndex(i);
        MOVW    R27:R26, R17:R16
        ADIW    R27:R26, 3
        ST      X, R25
//  923         // Установим индекс источника состояния ошибки.
//  924         m_apxErrorAlarmDfa[i] -> SetDiscreteStateIndex(i);
        LDD     R16, Z+26
        LDD     R31, Z+27
        MOV     R30, R16
        STD     Z+4, R25
//  925     };
        INC     R25
        DEC     R24
        BRNE    ??ConfigurationInit_23
//  926 }
        RJMP    ?Subroutine87

        RSEG CODE:CODE:NOROOT(1)
?Subroutine49:
        JMP     memcpy

        RSEG CODE:CODE:NOROOT(1)
?Subroutine47:
        LDI     R18, 3
        REQUIRE ?Subroutine68
        ;               // Fall through to label ?Subroutine68

        RSEG CODE:CODE:NOROOT(1)
?Subroutine68:
        LDI     R16, LOW(??m_auiIntermediateBuff)
        LDI     R17, (??m_auiIntermediateBuff) >> 8
        REQUIRE ?Subroutine89
        ;               // Fall through to label ?Subroutine89

        RSEG CODE:CODE:NOROOT(1)
?Subroutine89:
        JMP     ??ReadBlock

        RSEG CODE:CODE:NOROOT(1)
?Subroutine41:
        JMP     ?PROLOGUE4_L09

        RSEG CODE:CODE:NOROOT(1)
?Subroutine37:
        MOVW    R17:R16, R27:R26
        RJMP    ?Subroutine89

        RSEG CODE:CODE:NOROOT(1)
?Subroutine36:
        LDI     R31, 0
        MOV     R30, R20
        SUBI    R30, LOW((-(??m_auiIntermediateBuff) & 0xFFFF))
        SBCI    R31, (-(??m_auiIntermediateBuff) & 0xFFFF) >> 8
        LD      R19, Z
        RET

        RSEG CODE:CODE:NOROOT(1)
?Subroutine27:
        LDI     R16, 2
        MUL     R20, R16
        RCALL   ?Subroutine66
??CrossCallReturnLabel_69:
        REQUIRE ?Subroutine84
        ;               // Fall through to label ?Subroutine84

        RSEG CODE:CODE:NOROOT(1)
?Subroutine84:
        LD      R16, Z
        RET

        RSEG CODE:CODE:NOROOT(1)
?Subroutine66:
        MOVW    R31:R30, R1:R0
        SUBI    R30, LOW((-(??m_apxAlarmDfa) & 0xFFFF))
        SBCI    R31, (-(??m_apxAlarmDfa) & 0xFFFF) >> 8
        RET

        RSEG CODE:CODE:NOROOT(1)
?Subroutine26:
        RCALL   ?Subroutine64
??CrossCallReturnLabel_65:
        ADD     R30, R0
        ADC     R31, R1
        RET
//  927 
//  928 //-----------------------------------------------------------------------------------------------------

        RSEG CODE:CODE:NOROOT(1)
//  929 void CPss21::DiscreteOutputControlClear(void)
??DiscreteOutputControlClear:
//  930 {
        MOVW    R21:R20, R25:R24
//  931     // Приведение буферов управления модулями дискретных выходов(реле) в исходное состояние.
//  932     for (int j = 0;
//  933             j < DISCRETE_OUTPUT_MODULE_MAX_NUMBER;
//  934             j++)
//  935     {
//  936         // цикл выбора реле.
//  937         for (int k = 0;
        RCALL   ?Subroutine34
??CrossCallReturnLabel_24:
        LDI     R16, 8
        LDI     R17, 0
//  938                 k < MR_DISCRETE_OUTPUT_NUMBER;
//  939                 k++)
//  940         {
//  941             // Сбросим флаг - новое нарушение.
//  942             m_axDiscreteOutputControl[(j * MR_DISCRETE_OUTPUT_NUMBER) + k].uiNewActivation = 0;
??DiscreteOutputControlClear_1:
        MOVW    R19:R18, R25:R24
        LSL     R18
        ROL     R19
        RCALL   ?Subroutine64
??CrossCallReturnLabel_60:
        ADD     R30, R18
        ADC     R31, R19
        STD     Z+30, R17
//  943             // Сбросим флаг - требование включения реле.
//  944             m_axDiscreteOutputControl[(j * MR_DISCRETE_OUTPUT_NUMBER) + k].uiRelayActivationRequest = 0;
        STD     Z+31, R17
//  945         }
        ADIW    R25:R24, 1
        DEC     R16
        BRNE    ??DiscreteOutputControlClear_1
//  946     }
//  947 }
        MOVW    R25:R24, R21:R20
        RET

        RSEG CODE:CODE:NOROOT(1)
?Subroutine34:
        LDI     R24, 0
        LDI     R25, 0
        RET
//  948 
//  949 //-----------------------------------------------------------------------------------------------------

        RSEG CODE:CODE:NOROOT(1)
//  950 void CPss21::DiscreteOutputsSet(uint8_t *puiLinkedDiscreteOutputs, uint8_t uiNewViolation)
??DiscreteOutputsSet:
//  951 {
        RCALL   ?Subroutine41
??CrossCallReturnLabel_37:
        MOVW    R23:R22, R17:R16
//  952     // Дискретный сигнал был активен на предыдущем шаге?
//  953     if (!uiNewViolation)
        TST     R18
        LDI     R26, 0
        LDI     R27, 0
        LDI     R19, 1
        BRNE    ??DiscreteOutputsSet_1
//  954     {
//  955         // Не новое нарушение.
//  956         // установим флаги - требования включения, для запрограммированных реле,
//  957         // в буфере выходов требований включения реле - блокировка.
//  958         // цикл выбора модуля.
//  959         for (int j = 0;
//  960                 j < DISCRETE_OUTPUT_MODULE_MAX_NUMBER;
//  961                 j++)
//  962         {
//  963             // цикл выбора реле.
//  964             for (int k = 0;
??DiscreteOutputsSet_2:
        RCALL   ?Subroutine34
??CrossCallReturnLabel_25:
        LDI     R18, 8
//  965                     k < MR_DISCRETE_OUTPUT_NUMBER;
//  966                     k++)
//  967             {
//  968                 // Текущий - (j, k) дискретный выход(реле) привязан?
//  969                 if (puiLinkedDiscreteOutputs[j] & (0x01 << k))
??DiscreteOutputsSet_3:
        RCALL   ?Subroutine23
??CrossCallReturnLabel_174:
        BREQ    ??DiscreteOutputsSet_4
//  970                 {
//  971                     // установим флаг - требование включения реле.
//  972                     m_axDiscreteOutputControl[(j * MR_DISCRETE_OUTPUT_NUMBER) + k].uiRelayActivationRequest = 1;
        RCALL   ?Subroutine38
//  973                 }
//  974             }
??CrossCallReturnLabel_29:
        MOVW    R31:R30, R17:R16
        SUBI    R30, LOW((-(??m_xDeviceConfigSearch) & 0xFFFF))
        SBCI    R31, (-(??m_xDeviceConfigSearch) & 0xFFFF) >> 8
        LDI     R16, 1
        STD     Z+31, R16
??DiscreteOutputsSet_4:
        ADIW    R25:R24, 1
        DEC     R18
        BRNE    ??DiscreteOutputsSet_3
//  975         }
        ADIW    R27:R26, 1
        DEC     R19
        BREQ    ??DiscreteOutputsSet_5
        RJMP    ??DiscreteOutputsSet_2
//  976     }
//  977     else
//  978     {
//  979         // новое нарушение.
//  980         // установим флаги - новое нарушение, для запрограммированных реле
//  981         // в буфере выходов управления реле - новое нарушение.
//  982         // установим флаги - требования включения, для запрограммированных реле,
//  983         // в буфере выходов требований включения реле - блокировка.
//  984         // цикл выбора модуля.
//  985         for (int j = 0;
//  986                 j < DISCRETE_OUTPUT_MODULE_MAX_NUMBER;
//  987                 j++)
//  988         {
//  989             // цикл выбора реле.
//  990             for (int k = 0;
??DiscreteOutputsSet_1:
        RCALL   ?Subroutine34
??CrossCallReturnLabel_26:
        LDI     R18, 8
//  991                     k < MR_DISCRETE_OUTPUT_NUMBER;
//  992                     k++)
//  993             {
//  994                 // Текущий - (j, k) дискретный выход(реле) привязан?
//  995                 if (puiLinkedDiscreteOutputs[j] & (0x01 << k))
??DiscreteOutputsSet_6:
        RCALL   ?Subroutine23
??CrossCallReturnLabel_175:
        BREQ    ??DiscreteOutputsSet_7
//  996                 {
//  997                     // установим флаг - новое нарушение.
//  998                     m_axDiscreteOutputControl[(j * MR_DISCRETE_OUTPUT_NUMBER) + k].uiNewActivation = 1;
        RCALL   ?Subroutine38
??CrossCallReturnLabel_30:
        RCALL   ?Subroutine64
??CrossCallReturnLabel_61:
        RCALL   ?Subroutine71
??CrossCallReturnLabel_190:
        LDI     R16, 1
        STD     Z+30, R16
//  999                     // установим флаг - требование включения реле.
// 1000                     m_axDiscreteOutputControl[(j * MR_DISCRETE_OUTPUT_NUMBER) + k].uiRelayActivationRequest = 1;
        STD     Z+31, R16
// 1001                 }
// 1002             }
??DiscreteOutputsSet_7:
        ADIW    R25:R24, 1
        DEC     R18
        BRNE    ??DiscreteOutputsSet_6
// 1003         }
        ADIW    R27:R26, 1
        DEC     R19
        BRNE    ??DiscreteOutputsSet_1
// 1004     }
// 1005 }
??DiscreteOutputsSet_5:
        RJMP    ?Subroutine87

        RSEG CODE:CODE:NOROOT(1)
?Subroutine38:
        LDI     R20, 3
        MOVW    R17:R16, R27:R26
        RCALL   ?Subroutine65
??CrossCallReturnLabel_177:
        ADD     R16, R24
        ADC     R17, R25
        LSL     R16
        ROL     R17
        RET

        RSEG CODE:CODE:NOROOT(1)
?Subroutine65:
        JMP     ?S_SHL_L02

        RSEG CODE:CODE:NOROOT(1)
?Subroutine64:
        LDI     R30, LOW(??m_xDeviceConfigSearch)
        LDI     R31, (??m_xDeviceConfigSearch) >> 8
        RET

        RSEG CODE:CODE:NOROOT(1)
?Subroutine23:
        MOVW    R31:R30, R23:R22
        ADD     R30, R26
        ADC     R31, R27
        LD      R21, Z
        MOV     R20, R24
        REQUIRE ??Subroutine97_0
        ;               // Fall through to label ??Subroutine97_0

        RSEG CODE:CODE:NOROOT(1)
??Subroutine97_0:
        LDI     R16, 1
        LDI     R17, 0
        RCALL   ?Subroutine65
??CrossCallReturnLabel_178:
        AND     R21, R16
        RET
// 1006 
// 1007 //-----------------------------------------------------------------------------------------------------

        RSEG CODE:CODE:NOROOT(1)
// 1008 void CPss21::AlarmsProcessing(void)
??AlarmsProcessing:
// 1009 {
        ST      -Y, R25
        ST      -Y, R24
// 1010     // Обработаем все дискретные сигналы.
// 1011     for (uint8_t i = 0;
        LDI     R25, 0
        LDI     R24, 96
// 1012             i < DISCRETE_SIGNALS_NUMBER;
// 1013             i++)
// 1014     {
// 1015         m_apxAlarmDfa[i] -> Fsm();
??AlarmsProcessing_1:
        LDI     R16, 2
        MUL     R25, R16
        RCALL   ?Subroutine66
// 1016     }
??CrossCallReturnLabel_68:
        LD      R18, Z
        LDD     R19, Z+1
        RCALL   ?Subroutine39
??CrossCallReturnLabel_31:
        BRNE    ??AlarmsProcessing_1
// 1017 }
        REQUIRE ?Subroutine75
        ;               // Fall through to label ?Subroutine75

        RSEG CODE:CODE:NOROOT(1)
?Subroutine75:
        LD      R24, Y+
        LD      R25, Y+
        RET
// 1018 
// 1019 //-----------------------------------------------------------------------------------------------------

        RSEG CODE:CODE:NOROOT(1)
// 1020 void CPss21::ErrorAlarmsProcessing(void)
??ErrorAlarmsProcessing:
// 1021 {
        ST      -Y, R25
        ST      -Y, R24
// 1022     // Обработаем все дискретные сигналы.
// 1023     for (uint8_t i = 0;
        LDI     R25, 0
        LDI     R24, 2
??ErrorAlarmsProcessing_1:
        LDI     R16, 2
        MUL     R25, R16
        RCALL   ?Subroutine26
// 1024             i < HANDLED_ERROR_NUMBER;
// 1025             i++)
// 1026     {
// 1027         m_apxErrorAlarmDfa[i] -> Fsm();
// 1028     }
??CrossCallReturnLabel_20:
        LDD     R18, Z+26
        LDD     R19, Z+27
        RCALL   ?Subroutine39
??CrossCallReturnLabel_32:
        BRNE    ??ErrorAlarmsProcessing_1
// 1029 }
        RJMP    ?Subroutine75

        RSEG CODE:CODE:NOROOT(1)
?Subroutine39:
        MOVW    R17:R16, R19:R18
        MOVW    R31:R30, R19:R18
        LDD     R18, Z+1
        LDD     R31, Z+2
        MOV     R30, R18
        RCALL   ?Subroutine63
??CrossCallReturnLabel_56:
        INC     R25
        DEC     R24
        RET

        RSEG CODE:CODE:NOROOT(1)
?Subroutine63:
        ADIW    R31:R30, 2
        LPM     R18, Z+
        LPM     R31, Z
        MOV     R30, R18
        IJMP
// 1030 
// 1031 //-----------------------------------------------------------------------------------------------------

        RSEG CODE:CODE:NOROOT(1)
// 1032 uint8_t CPss21::GetDiscreteInputState(uint8_t uiIndex)
??GetDiscreteInputState:
// 1033 {
// 1034     if (uiIndex < DISCRETE_INPUTS_NUMBER)
        LDI     R17, 0
        LDI     R30, LOW(??m_aucRtuDiscreteDataArray)
        LDI     R31, (??m_aucRtuDiscreteDataArray) >> 8
        RCALL   ?Subroutine71
??CrossCallReturnLabel_191:
        CPI     R16, 48
        BRCC    ??GetDiscreteInputState_1
// 1035     {
// 1036         // Получим состояние дискретного сигнала - дискретные входы модулей.
// 1037         return m_aucRtuDiscreteDataArray[DISCRETE_INPUTS_BIT_ARRAY_OFFSET + uiIndex];
        LDD     R16, Z+16
        RET
// 1038     }
// 1039     else
// 1040     {
// 1041         // Получим состояние дискретного сигнала - состояние ячеек(coils Modbus).
// 1042         return m_aucRtuDiscreteDataArray[ALARM_WINDOWS_BIT_ARRAY_OFFSET + uiIndex];
??GetDiscreteInputState_1:
        SUBI    R30, 192
        SBCI    R31, 255
        RJMP    ?Subroutine84
// 1043     }
// 1044 }
// 1045 
// 1046 //-----------------------------------------------------------------------------------------------------

        RSEG CODE:CODE:NOROOT(1)
// 1047 void CPss21::SetErrorAlarmState(uint8_t uiIndex, uint8_t uiData)
??SetErrorAlarmState:
// 1048 {
// 1049     // Установим состояние источника ошибки.
// 1050     m_auiErrorAlarmDataArray[uiIndex] = uiData;
        RCALL   ?Subroutine40
??CrossCallReturnLabel_33:
        STD     Z+59, R17
// 1051 }
        RET
// 1052 
// 1053 //-----------------------------------------------------------------------------------------------------

        RSEG CODE:CODE:NOROOT(1)
// 1054 uint8_t CPss21::GetErrorAlarmState(uint8_t uiIndex)
??GetErrorAlarmState:
// 1055 {
// 1056     // Получим состояние источника ошибки.
// 1057     return m_auiErrorAlarmDataArray[uiIndex];
        RCALL   ?Subroutine40
??CrossCallReturnLabel_34:
        LDD     R16, Z+59
        RET
// 1058 }

        RSEG CODE:CODE:NOROOT(1)
?Subroutine40:
        LDI     R31, 0
        MOV     R30, R16
        SUBI    R30, LOW((-(??m_xDeviceConfigSearch) & 0xFFFF))
        SBCI    R31, (-(??m_xDeviceConfigSearch) & 0xFFFF) >> 8
        RET
// 1059 
// 1060 //-----------------------------------------------------------------------------------------------------

        RSEG CODE:CODE:NOROOT(1)
// 1061 void CPss21::AlarmTypeSet(uint8_t uiAlarmType)
??AlarmTypeSet:
// 1062 {
        ST      -Y, R24
        MOV     R24, R16
// 1063     m_xPreventiveAlarmWindowNotifyerControl.AlarmSet(uiAlarmType);
        MOV     R18, R16
        RCALL   ?Subroutine56
// 1064     m_xEmergencyAlarmWindowNotifyerControl.AlarmSet(uiAlarmType);
??CrossCallReturnLabel_208:
        MOV     R18, R24
        RCALL   ?Subroutine57
// 1065     m_xStatusLedNotifyerControl.AlarmSet(uiAlarmType);
??CrossCallReturnLabel_210:
        MOV     R18, R24
        RCALL   ?Subroutine58
// 1066     m_xBuzzerNotifyerControl.AlarmSet(uiAlarmType);
??CrossCallReturnLabel_212:
        MOV     R18, R24
        RCALL   ?Subroutine59
// 1067 }
??CrossCallReturnLabel_217:
        RJMP    ?Subroutine82
// 1068 
// 1069 //-----------------------------------------------------------------------------------------------------

        RSEG CODE:CODE:NOROOT(1)
// 1070 void CPss21::AlarmTypeChange(void)
??AlarmTypeChange:
// 1071 {
// 1072     if (m_uiCommonAlarmType != m_uiCommonAlarmTypePrevious)
        RCALL   ?Subroutine28
??CrossCallReturnLabel_113:
        BREQ    ??CrossCallReturnLabel_181
// 1073     {
// 1074         m_uiCommonAlarmTypePrevious = m_uiCommonAlarmType;
        STD     Z+58, R16
// 1075         AlarmTypeSet(m_uiCommonAlarmType);
        RCALL   ??Subroutine98_0
// 1076     }
// 1077 }
??CrossCallReturnLabel_181:
        RET
// 1078 
// 1079 //-----------------------------------------------------------------------------------------------------

        RSEG CODE:CODE:NOROOT(1)
// 1080 void CPss21::AlarmTypeErrorChange(void)
??AlarmTypeErrorChange:
// 1081 {
// 1082     if (m_uiCommonAlarmType != m_uiCommonAlarmTypePrevious)
        RCALL   ?Subroutine28
??CrossCallReturnLabel_114:
        BREQ    ??CrossCallReturnLabel_216
// 1083     {
// 1084         m_uiCommonAlarmTypePrevious = m_uiCommonAlarmType;
        STD     Z+58, R16
// 1085 
// 1086         m_xPreventiveAlarmWindowNotifyerControl.AlarmSet(INDICATION);
        RCALL   ??Subroutine103_0
// 1087         m_xEmergencyAlarmWindowNotifyerControl.AlarmSet(INDICATION);
// 1088         m_xStatusLedNotifyerControl.AlarmSet(ERROR);
// 1089         m_xBuzzerNotifyerControl.AlarmSet(ERROR);
// 1090     }
// 1091 }
??CrossCallReturnLabel_216:
        RET

        RSEG CODE:CODE:NOROOT(1)
?Subroutine28:
        RCALL   ?Subroutine64
??CrossCallReturnLabel_66:
        LDD     R16, Z+57
        LDD     R17, Z+58
        RJMP    ?Subroutine81
// 1092 
// 1093 //-----------------------------------------------------------------------------------------------------

        RSEG CODE:CODE:NOROOT(1)
// 1094 void CPss21::AlarmTypeReceipt(void)
??AlarmTypeReceipt:
// 1095 {
// 1096     m_uiCommonAlarmType = INDICATION;
        LDI     R16, 1
        REQUIRE ?Subroutine90
        ;               // Fall through to label ?Subroutine90
// 1097     m_uiCommonAlarmTypePrevious = INDICATION;
// 1098     AlarmTypeSet(INDICATION);
// 1099 }

        RSEG CODE:CODE:NOROOT(1)
?Subroutine90:
        RCALL   ?Subroutine51
??CrossCallReturnLabel_134:
        REQUIRE ??Subroutine98_0
        ;               // Fall through to label ??Subroutine98_0

        RSEG CODE:CODE:NOROOT(1)
??Subroutine98_0:
        RJMP    ??AlarmTypeSet
// 1100 
// 1101 //-----------------------------------------------------------------------------------------------------

        RSEG CODE:CODE:NOROOT(1)
// 1102 void CPss21::AlarmTypeReset(void)
??AlarmTypeReset:
// 1103 {
// 1104     m_uiCommonAlarmType = NORMAL;
        LDI     R16, 0
        RJMP    ?Subroutine90
// 1105     m_uiCommonAlarmTypePrevious = NORMAL;
// 1106     AlarmTypeSet(NORMAL);
// 1107 }

        RSEG CODE:CODE:NOROOT(1)
?Subroutine51:
        STS     (??m_xDeviceConfigSearch + 57), R16
        STS     (??m_xDeviceConfigSearch + 58), R16
        RET
// 1108 
// 1109 //-----------------------------------------------------------------------------------------------------

        RSEG CODE:CODE:NOROOT(1)
// 1110 void CPss21::NotifyersControlProcessing(void)
??NotifyersControlProcessing:
// 1111 {
// 1112     m_xPreventiveAlarmWindowNotifyerControl.Fsm();
        LDI     R16, LOW((??m_xDeviceConfigSearch + 141))
        LDI     R17, HIGH((??m_xDeviceConfigSearch + 141))
        RCALL   ?Subroutine91
// 1113     m_xEmergencyAlarmWindowNotifyerControl.Fsm();
??CrossCallReturnLabel_137:
        LDI     R16, LOW((??m_xDeviceConfigSearch + 153))
        LDI     R17, HIGH((??m_xDeviceConfigSearch + 153))
        RCALL   ?Subroutine91
// 1114     m_xStatusLedNotifyerControl.Fsm();
??CrossCallReturnLabel_136:
        LDI     R16, LOW((??m_xDeviceConfigSearch + 165))
        LDI     R17, HIGH((??m_xDeviceConfigSearch + 165))
        RCALL   ?Subroutine91
// 1115     m_xBuzzerNotifyerControl.Fsm();
??CrossCallReturnLabel_135:
        LDI     R16, LOW((??m_xDeviceConfigSearch + 177))
        LDI     R17, HIGH((??m_xDeviceConfigSearch + 177))
        REQUIRE ?Subroutine91
        ;               // Fall through to label ?Subroutine91
// 1116 }

        RSEG CODE:CODE:NOROOT(1)
?Subroutine91:
        JMP     ??Fsm
// 1117 
// 1118 //-----------------------------------------------------------------------------------------------------

        RSEG CODE:CODE:NOROOT(1)
// 1119 void CPss21::SetAlarmWindowType(uint8_t uiAlarmWindowIndex, uint8_t uiAlarmType)
??SetAlarmWindowType:
// 1120 {
        MOV     R18, R17
// 1121     GetAlarmWindowControlPointer(uiAlarmWindowIndex) -> SetAlarmType(uiAlarmType);
        LDI     R17, 0
        LDI     R20, 6
        RCALL   ?Subroutine70
??CrossCallReturnLabel_198:
        MOVW    R31:R30, R17:R16
        SUBI    R30, LOW((-(??m_axAlarmWindowControl) & 0xFFFF))
        SBCI    R31, (-(??m_axAlarmWindowControl) & 0xFFFF) >> 8
        STD     Z+2, R18
// 1122 }
        RET
// 1123 
// 1124 //-----------------------------------------------------------------------------------------------------

        RSEG CODE:CODE:NOROOT(1)
// 1125 void CPss21::SaveContextNotifyerControl(void)
??SaveContextNotifyerControl:
// 1126 {
// 1127 //    // Сохраним текущее состояние автоматов управления извещателями.
// 1128 //    m_xPreventiveAlarmWindowNotifyerControl.SetSavedFsmState(m_xPreventiveAlarmWindowNotifyerControl.GetFsmState());
// 1129 //    m_xEmergencyAlarmWindowNotifyerControl.SetSavedFsmState(m_xEmergencyAlarmWindowNotifyerControl.GetFsmState());
// 1130 //    m_xStatusLedNotifyerControl.SetSavedFsmState(m_xStatusLedNotifyerControl.GetFsmState());
// 1131 //    m_xBuzzerNotifyerControl.SetSavedFsmState(m_xBuzzerNotifyerControl.GetFsmState());
// 1132 
// 1133     // Сохраним текущее состояние извещателей - окон сигнализации.
// 1134     for (uint8_t i = 0;
        RCALL   ??Subroutine99_0
// 1135             i < ALARM_WINDOWS_NUMBER;
// 1136             i++)
// 1137     {
// 1138         m_axAlarmWindowControl[i].SetSavedAlarmType(m_axAlarmWindowControl[i].GetAlarmType());
??CrossCallReturnLabel_186:
        RCALL   ?Subroutine61
??CrossCallReturnLabel_193:
        LDD     R16, Z+2
        STD     Z+3, R16
// 1139         m_axAlarmWindowControl[i].SetSavedActivityState(m_axAlarmWindowControl[i].GetActivityState());
        LD      R16, Z
        STD     Z+1, R16
// 1140     };
        RCALL   ??Subroutine101_0
??CrossCallReturnLabel_202:
        BRNE    ??CrossCallReturnLabel_186
// 1141 }
        RET
// 1142 
// 1143 //-----------------------------------------------------------------------------------------------------

        RSEG CODE:CODE:NOROOT(1)
// 1144 void CPss21::RestoreContextNotifyerControl(void)
??RestoreContextNotifyerControl:
// 1145 {
// 1146 //    // Восстановим предыдущее состояние автоматов управления извещателями.
// 1147 //    m_xPreventiveAlarmWindowNotifyerControl.SetFsmState(m_xPreventiveAlarmWindowNotifyerControl.GetSavedFsmState());
// 1148 //    m_xEmergencyAlarmWindowNotifyerControl.SetFsmState(m_xEmergencyAlarmWindowNotifyerControl.GetSavedFsmState());
// 1149 //    m_xStatusLedNotifyerControl.SetFsmState(m_xStatusLedNotifyerControl.GetSavedFsmState());
// 1150 //    m_xBuzzerNotifyerControl.SetFsmState(m_xBuzzerNotifyerControl.GetSavedFsmState());
// 1151     AlarmTypeSet(GetCommonAlarmType());
        LDS     R16, (??m_xDeviceConfigSearch + 57)
        RCALL   ??Subroutine98_0
// 1152 
// 1153     // Восстановим предыдущее состояние извещателей - окон сигнализации.
// 1154     for (uint8_t i = 0;
??CrossCallReturnLabel_180:
        RCALL   ??Subroutine99_0
// 1155             i < ALARM_WINDOWS_NUMBER;
// 1156             i++)
// 1157     {
// 1158         m_axAlarmWindowControl[i].SetAlarmType(m_axAlarmWindowControl[i].GetSavedAlarmType());
??CrossCallReturnLabel_187:
        RCALL   ?Subroutine61
??CrossCallReturnLabel_194:
        LDD     R16, Z+3
        STD     Z+2, R16
// 1159         m_axAlarmWindowControl[i].SetActivityState(m_axAlarmWindowControl[i].GetSavedActivityState());
        LDD     R16, Z+1
        RCALL   ?Subroutine46
// 1160     };
??CrossCallReturnLabel_200:
        BRNE    ??CrossCallReturnLabel_187
// 1161 }
        RET
// 1162 
// 1163 //-----------------------------------------------------------------------------------------------------

        RSEG CODE:CODE:NOROOT(1)
// 1164 void CPss21::DiscreteSignalsProcessing(void)
??DiscreteSignalsProcessing:
// 1165 {
// 1166     DiscreteOutputControlClear();
        RCALL   ??DiscreteOutputControlClear
// 1167     AlarmsProcessing();
        RCALL   ??AlarmsProcessing
// 1168     ErrorAlarmsProcessing();
        RCALL   ??ErrorAlarmsProcessing
// 1169     SetDiscreteSignalsReceipt(0);
        LDI     R16, 0
        STS     (??m_xDeviceConfigSearch + 53), R16
// 1170     SetDiscreteSignalsReset(0);
        STS     (??m_xDeviceConfigSearch + 54), R16
// 1171 }
        RET
// 1172 
// 1173 //-----------------------------------------------------------------------------------------------------

        RSEG CODE:CODE:NOROOT(1)
// 1174 void CPss21::ActiveAlarmWindowOn(uint8_t uiAlarmType)
??ActiveAlarmWindowOn:
// 1175 {
        RCALL   ?Subroutine1
// 1176     for (uint8_t i = 0;
// 1177             i < ALARM_WINDOWS_NUMBER;
// 1178             i++)
// 1179     {
// 1180         // Тип сигнализации окна и тип сигнализации извещателя совпадают?
// 1181         if (m_axAlarmWindowControl[i].GetAlarmType() == uiAlarmType)
??CrossCallReturnLabel_182:
        RCALL   ?Subroutine20
??CrossCallReturnLabel_12:
        BRNE    ??ActiveAlarmWindowOn_1
// 1182         {
// 1183             // Актмвизируем окно сигнализации, для отображения извещателем.
// 1184             m_axAlarmWindowControl[i].SetActivityState(1);
        LDI     R16, 1
        ST      Z, R16
// 1185         }
// 1186     };
??ActiveAlarmWindowOn_1:
        RCALL   ??Subroutine101_0
??CrossCallReturnLabel_203:
        BRNE    ??CrossCallReturnLabel_182
// 1187 
// 1188     CLightBoard::Set();
        RJMP    ?Subroutine92
// 1189 }

        RSEG CODE:CODE:NOROOT(1)
?Subroutine1:
        MOV     R22, R16
        REQUIRE ??Subroutine99_0
        ;               // Fall through to label ??Subroutine99_0

        RSEG CODE:CODE:NOROOT(1)
??Subroutine99_0:
        LDI     R18, 0
        LDI     R19, 48
        LDI     R20, 6
        RET
// 1190 
// 1191 //-----------------------------------------------------------------------------------------------------

        RSEG CODE:CODE:NOROOT(1)
// 1192 void CPss21::ActiveAlarmWindowOff(uint8_t uiAlarmType)
??ActiveAlarmWindowOff:
// 1193 {
        RCALL   ?Subroutine1
// 1194     for (uint8_t i = 0;
// 1195             i < ALARM_WINDOWS_NUMBER;
// 1196             i++)
// 1197     {
// 1198         // Тип сигнализации окна и тип сигнализации извещателя совпадают?
// 1199         if (m_axAlarmWindowControl[i].GetAlarmType() == uiAlarmType)
??CrossCallReturnLabel_183:
        RCALL   ?Subroutine20
??CrossCallReturnLabel_13:
        BREQ    ??ActiveAlarmWindowOff_1
// 1200         {
// 1201             // Деактмвируем окно сигнализации, для прекращения отображения извещателем.
// 1202             m_axAlarmWindowControl[i].SetActivityState(0);
// 1203         }
// 1204         else if (m_axAlarmWindowControl[i].GetAlarmType() == NORMAL)
        TST     R16
        BRNE    ??ActiveAlarmWindowOff_2
// 1205         {
// 1206             // Деактмвируем окно сигнализации, для прекращения отображения извещателем.
// 1207             m_axAlarmWindowControl[i].SetActivityState(0);
??ActiveAlarmWindowOff_1:
        ST      Z, R21
// 1208         }
// 1209     };
??ActiveAlarmWindowOff_2:
        RCALL   ??Subroutine101_0
??CrossCallReturnLabel_204:
        BRNE    ??CrossCallReturnLabel_183
// 1210 
// 1211     CLightBoard::Set();
        RJMP    ?Subroutine92
// 1212 }

        RSEG CODE:CODE:NOROOT(1)
?Subroutine20:
        RCALL   ?Subroutine61
??CrossCallReturnLabel_197:
        LDD     R16, Z+2
        CP      R16, R22
        RET
// 1213 
// 1214 //-----------------------------------------------------------------------------------------------------

        RSEG CODE:CODE:NOROOT(1)
// 1215 void CPss21::AllAlarmWindowOn(uint8_t uiAlarmType)
??AllAlarmWindowOn:
// 1216 {
        RCALL   ?Subroutine1
// 1217 //    CAlarmWindow axAlarmWindowControl[ALARM_WINDOWS_NUMBER];
// 1218 
// 1219     for (uint8_t i = 0;
// 1220             i < ALARM_WINDOWS_NUMBER;
// 1221             i++)
// 1222     {
// 1223         // Актмвизируем окно сигнализации, для отображения извещателем.
// 1224         m_axAlarmWindowControl[i].SetAlarmType(uiAlarmType);
??CrossCallReturnLabel_184:
        RCALL   ?Subroutine61
??CrossCallReturnLabel_195:
        STD     Z+2, R22
// 1225         // Актмвизируем окно сигнализации, для отображения извещателем.
// 1226         m_axAlarmWindowControl[i].SetActivityState(1);
        LDI     R16, 1
        RCALL   ?Subroutine46
// 1227     };
??CrossCallReturnLabel_201:
        BRNE    ??CrossCallReturnLabel_184
// 1228 
// 1229     CLightBoard::Set();
        REQUIRE ?Subroutine92
        ;               // Fall through to label ?Subroutine92
// 1230 }

        RSEG CODE:CODE:NOROOT(1)
?Subroutine92:
        JMP     ??Set

        RSEG CODE:CODE:NOROOT(1)
?Subroutine61:
        MOV     R16, R18
        REQUIRE ?Subroutine71
        REQUIRE ??Subroutine100_0
        ;               // Fall through to label ??Subroutine100_0

        RSEG CODE:CODE:NOROOT(1)
??Subroutine100_0:
        LDI     R17, 0
        RCALL   ?Subroutine70
??CrossCallReturnLabel_199:
        LDI     R30, LOW(??m_axAlarmWindowControl)
        LDI     R31, (??m_axAlarmWindowControl) >> 8
        REQUIRE ?Subroutine71
        ;               // Fall through to label ?Subroutine71

        RSEG CODE:CODE:NOROOT(1)
?Subroutine71:
        ADD     R30, R16
        ADC     R31, R17
        RET

        RSEG CODE:CODE:NOROOT(1)
?Subroutine70:
        LDI     R21, 0
        RJMP    ?Subroutine88
// 1231 
// 1232 //-----------------------------------------------------------------------------------------------------

        RSEG CODE:CODE:NOROOT(1)
// 1233 void CPss21::ErrorWindowOn(uint8_t uiIndex)
??ErrorWindowOn:
// 1234 {
        RCALL   ?Subroutine1
// 1235     // Актмвируем окна сигнализации - ошибка.
// 1236     for (uint8_t i = 0;
// 1237             i < ALARM_WINDOWS_NUMBER;
// 1238             i++)
// 1239     {
// 1240         if (m_auiErrorLedOn[i])
??CrossCallReturnLabel_185:
        MOV     R30, R18
        LDI     R31, 0
        SUBI    R30, LOW((-(??m_auiErrorLedOn) & 0xFFFF))
        SBCI    R31, (-(??m_auiErrorLedOn) & 0xFFFF) >> 8
        LPM     R16, Z
        TST     R16
        BREQ    ??ErrorWindowOn_1
// 1241         {
// 1242             // Актмвизируем окно сигнализации, для отображения извещателем.
// 1243             m_axAlarmWindowControl[i].SetAlarmType(INDICATION);
        RCALL   ?Subroutine61
??CrossCallReturnLabel_196:
        LDI     R16, 1
        STD     Z+2, R16
// 1244             m_axAlarmWindowControl[i].SetActivityState(1);
        ST      Z, R16
// 1245         }
// 1246     };
??ErrorWindowOn_1:
        RCALL   ??Subroutine101_0
??CrossCallReturnLabel_205:
        BRNE    ??CrossCallReturnLabel_185
// 1247 
// 1248     if (uiIndex < ALARM_WINDOWS_NUMBER)
        CPI     R22, 48
        BRCC    ??CrossCallReturnLabel_14
// 1249     {
// 1250         m_axAlarmWindowControl[uiIndex].SetAlarmType(NORMAL);
        MOV     R16, R22
        RCALL   ?Subroutine21
// 1251         m_axAlarmWindowControl[uiIndex].SetActivityState(0);
// 1252     }
// 1253 
// 1254     CLightBoard::Set();
??CrossCallReturnLabel_14:
        RJMP    ?Subroutine92
// 1255 }

        RSEG CODE:CODE:NOROOT(1)
?Subroutine46:
        ST      Z, R16
        REQUIRE ??Subroutine101_0
        ;               // Fall through to label ??Subroutine101_0

        RSEG CODE:CODE:NOROOT(1)
??Subroutine101_0:
        INC     R18
        DEC     R19
        RET
// 1256 
// 1257 //-----------------------------------------------------------------------------------------------------

        RSEG CODE:CODE:NOROOT(1)
// 1258 void CPss21::AllAlarmWindowOff(void)
??AllAlarmWindowOff:
// 1259 {
// 1260     for (uint8_t i = 0;
        RCALL   ??Subroutine99_0
// 1261             i < ALARM_WINDOWS_NUMBER;
// 1262             i++)
// 1263     {
// 1264         // Деактмвируем окно сигнализации, для прекращения отображения извещателем.
// 1265         m_axAlarmWindowControl[i].SetAlarmType(NORMAL);
??CrossCallReturnLabel_188:
        MOV     R16, R18
        RCALL   ?Subroutine21
// 1266         // Деактмвируем окно сигнализации, для прекращения отображения извещателем.
// 1267         m_axAlarmWindowControl[i].SetActivityState(0);
// 1268     };
??CrossCallReturnLabel_15:
        RCALL   ??Subroutine101_0
??CrossCallReturnLabel_206:
        BRNE    ??CrossCallReturnLabel_188
// 1269 
// 1270     CLightBoard::Set();
        RJMP    ?Subroutine92
// 1271 }

        RSEG CODE:CODE:NOROOT(1)
?Subroutine21:
        RCALL   ??Subroutine100_0
??CrossCallReturnLabel_192:
        STD     Z+2, R21
        ST      Z, R21
        RET
// 1272 
// 1273 //-----------------------------------------------------------------------------------------------------

        RSEG CODE:CODE:NOROOT(1)
// 1274 void CPss21::TestMainCycle(void)
??TestMainCycle:
// 1275 {
// 1276     CPss21::m_xModbusRtuOne.Fsm();
        RCALL   ?Subroutine7
// 1277 
// 1278     CPss21::KeyStateProcessing();
// 1279 
// 1280     NotifyersControlProcessing();
// 1281 
// 1282     CPss21::ReceiptResetGlobalFlagsClear();
??CrossCallReturnLabel_0:
        REQUIRE ?Subroutine76
        ;               // Fall through to label ?Subroutine76
// 1283 
// 1284     CPlatform::WatchdogReset();
// 1285 }

        RSEG CODE:CODE:NOROOT(1)
?Subroutine76:
        RCALL   ?Subroutine53
??CrossCallReturnLabel_102:
        REQUIRE ??Subroutine102_0
        ;               // Fall through to label ??Subroutine102_0

        RSEG CODE:CODE:NOROOT(1)
??Subroutine102_0:
        WDR
        RET
// 1286 
// 1287 //-----------------------------------------------------------------------------------------------------

        RSEG CODE:CODE:NOROOT(1)
// 1288 void CPss21::ErrorMainCycle(void)
??ErrorMainCycle:
// 1289 {
// 1290     CPss21::m_xModbusRtuOne.Fsm();
        RCALL   ?Subroutine55
// 1291 
// 1292     CPss21::KeyStateProcessing();
??CrossCallReturnLabel_51:
        RCALL   ??KeyStateProcessing
// 1293 
// 1294     // Есть команда - "квитировать"?
// 1295     if ((GetPanelReceipt()) ||
// 1296             (GetExternalReceipt()) ||
// 1297             (GetModbusReceipt()))
        RCALL   ?Subroutine64
??CrossCallReturnLabel_62:
        LDD     R16, Z+47
        TST     R16
        BRNE    ??ErrorMainCycle_1
        LDD     R16, Z+49
        TST     R16
        BRNE    ??ErrorMainCycle_1
        LDD     R16, Z+51
        TST     R16
        BREQ    ??CrossCallReturnLabel_218
// 1298     {
// 1299 //        m_xPreventiveAlarmWindowNotifyerControl.AlarmSet(INDICATION);
// 1300 //        m_xEmergencyAlarmWindowNotifyerControl.AlarmSet(INDICATION);
// 1301         m_xStatusLedNotifyerControl.AlarmSet(NORMAL);
??ErrorMainCycle_1:
        LDI     R18, 0
        RCALL   ?Subroutine58
// 1302         m_xBuzzerNotifyerControl.AlarmSet(NORMAL);
??CrossCallReturnLabel_213:
        LDI     R18, 0
        RCALL   ?Subroutine59
// 1303     }
// 1304 
// 1305     NotifyersControlProcessing();
??CrossCallReturnLabel_218:
        RCALL   ??NotifyersControlProcessing
// 1306 
// 1307     CPss21::ReceiptResetGlobalFlagsClear();
        RJMP    ?Subroutine76
// 1308 
// 1309     CPlatform::WatchdogReset();
// 1310 }

        RSEG CODE:CODE:NOROOT(1)
?Subroutine58:
        LDI     R16, LOW((??m_xDeviceConfigSearch + 165))
        LDI     R17, HIGH((??m_xDeviceConfigSearch + 165))
        JMP     ??AlarmSet_3
// 1311 
// 1312 //-----------------------------------------------------------------------------------------------------

        RSEG CODE:CODE:NOROOT(1)
// 1313 void CPss21::LinkControlErrorMainCycle(void)
??LinkControlErrorMainCycle:
// 1314 {
// 1315     CPss21::m_xModbusRtuOne.Fsm();
        RCALL   ?Subroutine5
// 1316     CPss21::m_xModbusRtuLinkControl.Fsm();
// 1317 
// 1318     CPss21::KeyStateProcessing();
// 1319 
// 1320     NotifyersControlProcessing();
// 1321 
// 1322     CPss21::ReceiptResetGlobalFlagsClear();
??CrossCallReturnLabel_74:
        RCALL   ?Subroutine53
// 1323 
// 1324     CDataStore::Fsm();
??CrossCallReturnLabel_101:
        RCALL   ?Subroutine54
// 1325 
// 1326     CPlatform::WatchdogReset();
??CrossCallReturnLabel_48:
        RJMP    ??Subroutine102_0
// 1327 }

        RSEG CODE:CODE:NOROOT(1)
?Subroutine53:
        RJMP    ??ReceiptResetGlobalFlagsClear
// 1328 
// 1329 //-----------------------------------------------------------------------------------------------------

        RSEG CODE:CODE:NOROOT(1)
// 1330 void CPss21::MainFsm(void)
??MainFsm:
// 1331 {
        LDS     R16, (??m_xDeviceConfigSearch + 46)
        LDI     R30, LOW(`?<Jumptable for MainFsm>_0`)
        LDI     R31, (`?<Jumptable for MainFsm>_0`) >> 16
        OUT     0x3B, R31
        LDI     R31, HIGH(`?<Jumptable for MainFsm>_0`)
        JMP     ?CV_SWITCH_L06
// 1332     switch (GetFsmState())
// 1333     {
// 1334     case START:
// 1335         CPlatform::WatchdogEnable();
??MainFsm_1:
        WDR
        IN      R16, 0x21
        ORI     R16, 0x18
        OUT     0x21, R16
        IN      R16, 0x21
        ORI     R16, 0x07
        OUT     0x21, R16
// 1336         CPlatform::Init();
        CALL    ??Init_3
// 1337         CPss21::Init();
        RCALL   ??Init
// 1338         CBuzzer::Init();
        CALL    ??Init_4
// 1339         if (!(CDataBase::Check()))
        CALL    ??Check
        TST     R16
        BREQ    ??MainFsm_2
// 1340         {
// 1341             SetFsmState(ERROR_START);
// 1342         }
// 1343         else
// 1344         {
// 1345             CPss21::ConfigurationInit();
        RCALL   ??ConfigurationInit
// 1346             CPss21::ModbusInit();
        RCALL   ??ModbusInit
// 1347             CSpi::Init();
        CALL    ??Init_5
// 1348             CPss21::AddressBusInit();
        RCALL   ??AddressBusInit
// 1349             CPss21::SearchModules();
        RCALL   ??SearchModules
// 1350             CPss21::CreateDevices();
        RCALL   ??CreateDevices
// 1351             m_xBuzzerNotifyerControl.AlarmSet(BEEP_SIGNAL);
        RCALL   ??Subroutine96_0
// 1352             SetFsmState(MAIN_CYCLE_START_WAITING);
??CrossCallReturnLabel_170:
        RJMP    ??CrossCallReturnLabel_100
// 1353         }
// 1354         break;
// 1355 
// 1356     case RESTART:
// 1357         break;
// 1358 
// 1359     case MAIN_CYCLE_START_WAITING:
// 1360         CPss21::m_xModbusRtuOne.Fsm();
??MainFsm_3:
        RCALL   ?Subroutine7
// 1361 
// 1362         CPss21::KeyStateProcessing();
// 1363 
// 1364         NotifyersControlProcessing();
// 1365 
// 1366         CDataStore::Fsm();
??CrossCallReturnLabel_1:
        RCALL   ?Subroutine9
// 1367 
// 1368         if (CPss21::m_xMainCycleTimer.IsOverflow())
??CrossCallReturnLabel_219:
        BRNE    $+2+2
        RJMP    ??CrossCallReturnLabel_46
// 1369         {
// 1370             CPss21::m_xMainCycleTimer.Reset();
        RCALL   ?Subroutine60
??CrossCallReturnLabel_230:
        CALL    ??Reset
// 1371             CPlatform::WatchdogReset();
        WDR
// 1372             SetModuleIndex(0);
        LDI     R16, 0
        STS     (??m_xDeviceConfigSearch + 56), R16
// 1373             SetFsmState(MAIN_CYCLE_MODULES_INTERACTION);
        LDI     R16, 3
        RJMP    ??MainFsm_4
// 1374         }
// 1375 
// 1376         break;
// 1377 
// 1378     case MAIN_CYCLE_MODULES_INTERACTION:
// 1379         CPss21::m_xModbusRtuOne.Fsm();
??MainFsm_5:
        RCALL   ?Subroutine5
// 1380         CPss21::m_xModbusRtuLinkControl.Fsm();
// 1381 
// 1382         CPss21::KeyStateProcessing();
// 1383 
// 1384         NotifyersControlProcessing();
// 1385 
// 1386         CDataStore::Fsm();
??CrossCallReturnLabel_75:
        RCALL   ?Subroutine54
// 1387 
// 1388         if (CPss21::ModulesInteraction(GetModuleIndex()))
??CrossCallReturnLabel_47:
        LDS     R16, (??m_xDeviceConfigSearch + 56)
        RCALL   ??ModulesInteraction
        TST     R16
        BREQ    ??MainFsm_6
// 1389         {
// 1390             SetFsmState(MAIN_CYCLE_DISCRETE_SIGNALS_PROCESSING);
        LDI     R16, 4
        RCALL   ??Subroutine95_0
// 1391         }
??CrossCallReturnLabel_159:
        RJMP    ??MainFsm_7
// 1392         else
// 1393         {
// 1394             SetModuleIndex(GetModuleIndex() + 1);
??MainFsm_6:
        RCALL   ?Subroutine64
??CrossCallReturnLabel_63:
        LDD     R16, Z+56
        INC     R16
        STD     Z+56, R16
// 1395         }
// 1396 
// 1397         switch (GetErrorCode())
??MainFsm_7:
        LDS     R16, (??m_xDeviceConfigSearch + 55)
        SUBI    R16, 3
        BREQ    ??MainFsm_2
        DEC     R16
        BREQ    ??MainFsm_2
        DEC     R16
        BREQ    ??MainFsm_8
        RET
// 1398         {
// 1399 //        case IMD_ERROR:
// 1400 //        case OMD_ERROR:
// 1401         case CFG_ERROR:
// 1402         case DB_ERROR:
// 1403             SetFsmState(ERROR_START);
??MainFsm_2:
        LDI     R16, 8
??MainFsm_4:
        RJMP    ??Subroutine95_0
// 1404             break;
// 1405 
// 1406         case MBS_ERROR:
// 1407             SetFsmState(LINK_CONTROL_ERROR_START);
??MainFsm_8:
        LDI     R16, 10
        RJMP    ??MainFsm_4
// 1408             break;
// 1409 
// 1410         default:
// 1411             break;
// 1412         }
// 1413         break;
// 1414 
// 1415     case MAIN_CYCLE_DISCRETE_SIGNALS_PROCESSING:
// 1416         CPss21::DiscreteSignalsProcessing();
??MainFsm_9:
        RCALL   ??DiscreteSignalsProcessing
// 1417         SetFsmState(MAIN_CYCLE_END);
        LDI     R16, 5
        RJMP    ??MainFsm_4
// 1418         break;
// 1419 
// 1420     case MAIN_CYCLE_END:
// 1421         CPss21::ReceiptResetGlobalFlagsClear();
??MainFsm_10:
        RCALL   ?Subroutine53
// 1422         SetFsmState(MAIN_CYCLE_START_WAITING);
??CrossCallReturnLabel_100:
        LDI     R16, 2
        RJMP    ??MainFsm_4
// 1423         break;
// 1424 
// 1425 //-----------------------------------------------------------------------------------------------------
// 1426     case TEST_START:
// 1427         SaveContextNotifyerControl();
??MainFsm_11:
        RCALL   ??SaveContextNotifyerControl
// 1428         AlarmTypeSet(PREVENTIVE);
        LDI     R16, 2
        RCALL   ??Subroutine98_0
// 1429         CPss21::AllAlarmWindowOn(PREVENTIVE);
??CrossCallReturnLabel_179:
        LDI     R16, 2
        RCALL   ??AllAlarmWindowOn
// 1430         CPss21::m_xMainCycleTimer.Set(TEST_ON_TIME());
        LDI     R18, 136
        LDI     R19, 19
        RCALL   ??Subroutine105_0
// 1431         SetFsmState(TEST_ON);
??CrossCallReturnLabel_226:
        LDI     R16, 7
        RJMP    ??MainFsm_12
// 1432 
// 1433         CPlatform::WatchdogReset();
// 1434         break;
// 1435 
// 1436     case TEST_ON:
// 1437         if (CPss21::m_xMainCycleTimer.IsOverflow())
??MainFsm_13:
        RCALL   ??Subroutine104_0
??CrossCallReturnLabel_221:
        BREQ    ??CrossCallReturnLabel_160
// 1438         {
// 1439             CPss21::AllAlarmWindowOff();
        RCALL   ?Subroutine6
// 1440             RestoreContextNotifyerControl();
// 1441             CPss21::m_xMainCycleTimer.Set(MAIN_CYCLE_PERIOD_TIME);
// 1442             SetFsmState(MAIN_CYCLE_START_WAITING);
??CrossCallReturnLabel_228:
        LDI     R16, 2
        RCALL   ??Subroutine95_0
// 1443         }
// 1444 
// 1445         TestMainCycle();
??CrossCallReturnLabel_160:
        RJMP    ??TestMainCycle
// 1446         break;
// 1447 
// 1448 //-----------------------------------------------------------------------------------------------------
// 1449     case ERROR_START:
// 1450         // Устанавливаем настройки Modbus по умолчанию на текущую сессию.
// 1451         ModbusDefaultInit();
??MainFsm_14:
        RCALL   ??ModbusDefaultInit
// 1452         ErrorWindowOn(GetErrorCode() - 1);
        RCALL   ?Subroutine14
// 1453         SetErrorCode(0);
// 1454 
// 1455         m_xPreventiveAlarmWindowNotifyerControl.AlarmSet(INDICATION);
// 1456         m_xEmergencyAlarmWindowNotifyerControl.AlarmSet(INDICATION);
// 1457         m_xStatusLedNotifyerControl.AlarmSet(ERROR);
// 1458         m_xBuzzerNotifyerControl.AlarmSet(ERROR);
// 1459 
// 1460         SetFsmState(ERROR_ON);
??CrossCallReturnLabel_214:
        LDI     R16, 9
??MainFsm_12:
        RCALL   ??Subroutine95_0
// 1461 
// 1462         CPlatform::WatchdogReset();
??CrossCallReturnLabel_161:
        RJMP    ??Subroutine102_0
// 1463         break;
// 1464 
// 1465     case ERROR_ON:
// 1466         ErrorMainCycle();
??MainFsm_15:
        RJMP    ??ErrorMainCycle
// 1467         break;
// 1468 
// 1469 //-----------------------------------------------------------------------------------------------------
// 1470     case LINK_CONTROL_ERROR_START:
// 1471         SaveContextNotifyerControl();
??MainFsm_16:
        RCALL   ??SaveContextNotifyerControl
// 1472         ErrorWindowOn(GetErrorCode() - 1);
        RCALL   ?Subroutine14
// 1473         SetErrorCode(0);
// 1474 
// 1475         m_xPreventiveAlarmWindowNotifyerControl.AlarmSet(INDICATION);
// 1476         m_xEmergencyAlarmWindowNotifyerControl.AlarmSet(INDICATION);
// 1477         m_xStatusLedNotifyerControl.AlarmSet(ERROR);
// 1478         m_xBuzzerNotifyerControl.AlarmSet(ERROR);
// 1479 
// 1480         CPlatform::WatchdogReset();
??CrossCallReturnLabel_215:
        WDR
// 1481         SetFsmState(LINK_CONTROL_ERROR_ON);
        LDI     R16, 11
        RJMP    ??MainFsm_4
// 1482         break;
// 1483 
// 1484     case LINK_CONTROL_ERROR_ON:
// 1485         LinkControlErrorMainCycle();
??MainFsm_17:
        RJMP    ??LinkControlErrorMainCycle
// 1486         break;
// 1487 
// 1488     case LINK_CONTROL_ERROR_OFF:
// 1489         CPss21::AllAlarmWindowOff();
??MainFsm_18:
        RCALL   ?Subroutine6
// 1490         RestoreContextNotifyerControl();
// 1491         CPss21::m_xMainCycleTimer.Set(MAIN_CYCLE_PERIOD_TIME);
// 1492 
// 1493         CPlatform::WatchdogReset();
??CrossCallReturnLabel_227:
        WDR
// 1494         SetFsmState(MAIN_CYCLE_START_WAITING);
        RJMP    ??CrossCallReturnLabel_100
// 1495         break;
// 1496 
// 1497 //-----------------------------------------------------------------------------------------------------
// 1498     case PROGRAMMING_START:
// 1499         // После приёма последнего блока базы данных произойдёт перезагрузка
// 1500         // через "PROGRAMMING_TIME + WDTO_2S", чтобы применить изменения конфигурации.
// 1501         CPss21::m_xMainCycleTimer.Set(PROGRAMMING_TIME);
??MainFsm_19:
        LDI     R18, 232
        LDI     R19, 3
        RCALL   ??Subroutine105_0
// 1502         SetFsmState(PROGRAMMING_ON);
??CrossCallReturnLabel_225:
        LDI     R16, 14
        RJMP    ??MainFsm_12
// 1503 
// 1504         CPlatform::WatchdogReset();
// 1505         break;
// 1506 
// 1507     case PROGRAMMING_ON:
// 1508         CPss21::m_xModbusRtuOne.Fsm();
??MainFsm_20:
        RCALL   ?Subroutine55
// 1509 
// 1510         CDataStore::Fsm();
??CrossCallReturnLabel_52:
        RCALL   ?Subroutine9
// 1511 
// 1512         if (CPss21::m_xMainCycleTimer.IsOverflow())
??CrossCallReturnLabel_220:
        BREQ    ??CrossCallReturnLabel_161
// 1513         {
// 1514             SetFsmState(REBOOT);
        LDI     R16, 15
        RCALL   ??Subroutine95_0
// 1515         }
// 1516 
// 1517         CPlatform::WatchdogReset();
??CrossCallReturnLabel_162:
        RJMP    ??CrossCallReturnLabel_161
// 1518         break;
// 1519 
// 1520     case REBOOT:
// 1521         // Через "WDTO_2S" - перезагрузка, чтобы применить изменения конфигурации.
// 1522         CPss21::m_xModbusRtuOne.Fsm();
??MainFsm_21:
        RCALL   ?Subroutine55
// 1523 
// 1524         CDataStore::Fsm();
??CrossCallReturnLabel_53:
        RCALL   ?Subroutine54
// 1525         break;
// 1526 
// 1527 //-----------------------------------------------------------------------------------------------------
// 1528     default:
// 1529         break;
// 1530     }
// 1531 }
??CrossCallReturnLabel_46:
        RET
        REQUIRE _A_WDTCR

        RSEG CODE:CODE:NOROOT(1)
?Subroutine54:
        JMP     ??Fsm_3

        RSEG CODE:CODE:NOROOT(1)
?Subroutine14:
        LDS     R16, (??m_xDeviceConfigSearch + 55)
        DEC     R16
        RCALL   ??ErrorWindowOn
        LDI     R16, 0
        STS     (??m_xDeviceConfigSearch + 55), R16
        REQUIRE ?Subroutine59
        REQUIRE ??Subroutine103_0
        ;               // Fall through to label ??Subroutine103_0

        RSEG CODE:CODE:NOROOT(1)
??Subroutine103_0:
        LDI     R18, 1
        RCALL   ?Subroutine56
??CrossCallReturnLabel_207:
        LDI     R18, 1
        RCALL   ?Subroutine57
??CrossCallReturnLabel_209:
        LDI     R18, 6
        RCALL   ?Subroutine58
??CrossCallReturnLabel_211:
        LDI     R18, 6
        REQUIRE ?Subroutine59
        ;               // Fall through to label ?Subroutine59

        RSEG CODE:CODE:NOROOT(1)
?Subroutine59:
        LDI     R16, LOW((??m_xDeviceConfigSearch + 177))
        LDI     R17, HIGH((??m_xDeviceConfigSearch + 177))
        JMP     ??AlarmSet

        RSEG CODE:CODE:NOROOT(1)
?Subroutine57:
        LDI     R16, LOW((??m_xDeviceConfigSearch + 153))
        LDI     R17, HIGH((??m_xDeviceConfigSearch + 153))
        JMP     ??AlarmSet_2

        RSEG CODE:CODE:NOROOT(1)
?Subroutine56:
        LDI     R16, LOW((??m_xDeviceConfigSearch + 141))
        LDI     R17, HIGH((??m_xDeviceConfigSearch + 141))
        JMP     ??AlarmSet_1

        RSEG CODE:CODE:NOROOT(1)
?Subroutine55:
        LDI     R16, LOW(??m_xModbusRtuOne)
        LDI     R17, (??m_xModbusRtuOne) >> 8
        JMP     ??Fsm_1

        RSEG CODE:CODE:NOROOT(1)
?Subroutine9:
        CALL    ??Fsm_3
        REQUIRE ??Subroutine104_0
        ;               // Fall through to label ??Subroutine104_0

        RSEG CODE:CODE:NOROOT(1)
??Subroutine104_0:
        RCALL   ?Subroutine60
??CrossCallReturnLabel_231:
        CALL    ??IsOverflow
        RJMP    ?Subroutine83

        RSEG CODE:CODE:NOROOT(1)
?Subroutine60:
        LDI     R16, LOW((??m_xDeviceConfigSearch + 135))
        LDI     R17, HIGH((??m_xDeviceConfigSearch + 135))
        RET

        RSEG CODE:CODE:NOROOT(1)
?Subroutine7:
        RCALL   ?Subroutine55
??CrossCallReturnLabel_50:
        RJMP    ?Subroutine69

        RSEG CODE:CODE:NOROOT(1)
?Subroutine6:
        RCALL   ??AllAlarmWindowOff
        RCALL   ??RestoreContextNotifyerControl
        LDI     R18, 100
        LDI     R19, 0
        REQUIRE ??Subroutine105_0
        ;               // Fall through to label ??Subroutine105_0

        RSEG CODE:CODE:NOROOT(1)
??Subroutine105_0:
        RCALL   ?Subroutine60
??CrossCallReturnLabel_232:
        JMP     ??Set_1

        RSEG CODE:CODE:NOROOT(1)
?Subroutine5:
        RCALL   ?Subroutine55
??CrossCallReturnLabel_49:
        LDI     R16, LOW((??m_xDeviceConfigSearch + 9))
        LDI     R17, HIGH((??m_xDeviceConfigSearch + 9))
        CALL    ??Fsm_2
        REQUIRE ?Subroutine69
        ;               // Fall through to label ?Subroutine69

        RSEG CODE:CODE:NOROOT(1)
?Subroutine69:
        RCALL   ??KeyStateProcessing
        RJMP    ??NotifyersControlProcessing

        RSEG CODE:CODE:NOROOT(1)
// __version_3 uint8_t CPlatform::KeyOneState()
??KeyOneState:
        LDI     R16, 0
        SBIC    0x13, 0x02
        LDI     R16, 1
??KeyOneState_1:
        LDI     R17, 1
        EOR     R16, R17
        RET
        REQUIRE _A_PINC

        RSEG CODE:CODE:NOROOT(1)
// __version_3 uint8_t CPlatform::KeyTwoState()
??KeyTwoState:
        LDI     R16, 0
        SBIC    0x13, 0x01
        LDI     R16, 1
??KeyTwoState_1:
        LDI     R17, 1
        EOR     R16, R17
        RET
        REQUIRE _A_PINC

        RSEG CODE:CODE:NOROOT(1)
// __version_3 uint8_t CPlatform::KeyThreeState()
??KeyThreeState:
        LDI     R16, 0
        SBIC    0x13, 0x00
        LDI     R16, 1
??KeyThreeState_1:
        LDI     R17, 1
        EOR     R16, R17
        RET
        REQUIRE _A_PINC

        RSEG CODE:CODE:NOROOT(1)
// __version_3 uint8_t CPlatform::ExternalKeyState()
??ExternalKeyState:
        LDS     R17, _A_PING
        ANDI    R17, 0x01
        MOV     R16, R17
        LDI     R17, 1
        EOR     R16, R17
        RET
        REQUIRE _A_PING

        ASEGN ABSOLUTE:DATA:NOROOT,01cH
__?EECR:

        ASEGN ABSOLUTE:DATA:NOROOT,01dH
__?EEDR:

        ASEGN ABSOLUTE:DATA:NOROOT,01eH
__?EEARL:

        ASEGN ABSOLUTE:DATA:NOROOT,01fH
__?EEARH:

        RSEG INITTAB:CODE:NOROOT(0)
`?<Segment init: NEAR_Z>`:
        DC16    SFE(NEAR_Z) - SFB(NEAR_Z)
        DC16    SFB(NEAR_Z)
        DP      0
        REQUIRE ?need_segment_init

        RSEG NEAR_ID:CODE:ROOT(0)
`?<Initializer for >`:
        DC16 ?_1, ??m_xUart1, `?<Unnamed 0>`/2
`?<Initializer for >_1`:
        DC16 ?_3, ??m_xModbusRtuOne, `?<Unnamed 1>`/2
`?<Initializer for >_2`:
        DC16 ?_5, ??m_xReceiptKey, `?<Unnamed 2>`/2
`?<Initializer for >_3`:
        DC16 ?_7, ??m_xResetKey, `?<Unnamed 2>`/2
`?<Initializer for >_4`:
        DC16 ?_9, ??m_xCheckKey, `?<Unnamed 2>`/2
`?<Initializer for >_5`:
        DC16 ?_11, ??m_xExternalKey, `?<Unnamed 2>`/2
`?<Initializer for >_6`:
        DC16 ?_13, ??m_xEventUniteLogicAndOne, `?<Unnamed 3>`/2
`?<Initializer for >_7`:
        DC16 ?_15, ??m_xMainCycleTimer, `?<Unnamed 4>`/2
`?<Initializer for >_8`:
        DC16 ?_17, ??m_xPreventiveAlarmWindowNotifyerControl, `?<Unnamed 5>`/2
`?<Initializer for >_9`:
        DC16 ?_19, ??m_xEmergencyAlarmWindowNotifyerControl, `?<Unnamed 6>`/2
`?<Initializer for >_10`:
        DC16 ?_21, ??m_xStatusLedNotifyerControl, `?<Unnamed 7>`/2
`?<Initializer for >_11`:
        DC16 ?_23, ??m_xBuzzerNotifyerControl, `?<Unnamed 8>`/2
`?<Initializer for >_12`:
        DC16 ?_25, ??m_xModbusRtuLinkControl, `?<Unnamed 9>`/2
`?<Initializer for >_13`:
        DC16 ?_27, 0H, `?<Unnamed 10>`/2

        RSEG INITTAB:CODE:NOROOT(0)
`?<Segment init: NEAR_I>`:
        DC16    SFE(NEAR_I) - SFB(NEAR_I)
        DC16    SFB(NEAR_I)
        DP      SFB(NEAR_ID)
        REQUIRE ?need_segment_init

        RSEG DIFUNCT:CODE:ROOT(0)
        REQUIRE ?call_ctors
        DW      ??__sti__routine/2

        RSEG SWITCH:CODE:NOROOT(1)
`?<Jumptable for MainFsm>_0`:
        DB      0
        DB      0
        DW      (??CrossCallReturnLabel_46) /2
        DW      16
        DW      (??MainFsm_1) /2
        DW      (??CrossCallReturnLabel_46) /2
        DW      (??MainFsm_3) /2
        DW      (??MainFsm_5) /2
        DW      (??MainFsm_9) /2
        DW      (??MainFsm_10) /2
        DW      (??MainFsm_11) /2
        DW      (??MainFsm_13) /2
        DW      (??MainFsm_14) /2
        DW      (??MainFsm_15) /2
        DW      (??MainFsm_16) /2
        DW      (??MainFsm_17) /2
        DW      (??MainFsm_18) /2
        DW      (??MainFsm_19) /2
        DW      (??MainFsm_20) /2
        DW      (??MainFsm_21) /2

        END
// 1532 
// 
//   105 bytes in segment ABSOLUTE
// 3 398 bytes in segment CODE
//     2 bytes in segment DIFUNCT
//    14 bytes in segment INITTAB
//    52 bytes in segment NEAR_F
//    84 bytes in segment NEAR_I
//    84 bytes in segment NEAR_ID
// 1 645 bytes in segment NEAR_Z
//    38 bytes in segment SWITCH
// 
// 3 524 bytes of CODE memory (+  64 bytes shared)
// 1 729 bytes of DATA memory (+ 105 bytes shared)
//
//Errors: none
//Warnings: 2
