///////////////////////////////////////////////////////////////////////////////
//
// IAR C/C++ Compiler V7.10.6.1378 for Atmel AVR          22/Dec/2022  16:55:22
// Copyright 1996-2018 IAR Systems AB.
//
//    Source file  =  D:\Projects\CautoProjects\PSS48\PSS48\src\Pss21.cpp
//    Command line =  
//        -f C:\Users\ghost\AppData\Local\Temp\EWD5AB.tmp
//        (--string_literals_in_flash
//        D:\Projects\CautoProjects\PSS48\PSS48\src\Pss21.cpp --cpu=m128a -ms
//        -o D:\Projects\CautoProjects\PSS48\PSS48\Debug\Obj -lC
//        D:\Projects\CautoProjects\PSS48\PSS48\Debug\List -lB
//        D:\Projects\CautoProjects\PSS48\PSS48\Debug\List -y
//        --initializers_in_flash --root_variables --debug
//        -DENABLE_BIT_DEFINITIONS -e -I
//        D:\Projects\CautoProjects\PSS48\PSS48\include\ -I
//        D:\Projects\CautoProjects\PSS48\PSS48\Modbus\ --eeprom_size 4096
//        --dlib --dlib_config "C:\Program Files (x86)\IAR Systems\Embedded
//        Workbench 8.0\avr\LIB\DLIB\dlAVR-3s-ec_mul-n.h" -Ohz --eec++)
//    Locale       =  Russian_RUS.1251
//    List file    =  
//        D:\Projects\CautoProjects\PSS48\PSS48\Debug\List\Pss21.s90
//
///////////////////////////////////////////////////////////////////////////////

        NAME Pss21

        RSEG CSTACK:DATA:NOROOT(0)
        RSEG RSTACK:DATA:NOROOT(0)

        ERROR
//NOTE: This module defines or uses C++ features that are not
//      accessible from assembler code. Assembling this file will
//      not produce an equivalent object file to the one produced
//      by the C++ compiler.

        EXTERN ?CV_SWITCH_L06
        EXTERN ?EPILOGUE_B4_L09
        EXTERN ?EPILOGUE_B5_L09
        EXTERN ?PROLOGUE4_L09
        EXTERN ?PROLOGUE5_L09
        EXTERN ?Register_R4_is_cg_reg
        EXTERN ?SS_DIVMOD_L02
        EXTERN ?SS_SHR_L02
        EXTERN ?S_EC_MUL_L02
        EXTERN ?S_SHL_L02
        EXTERN ?UL_DIVMOD_L03
        EXTERN ?UL_SHR_L03
        EXTERN ?call_ctors
        EXTERN ?need_segment_init

        PUBWEAK `?<Segment init: NEAR_I>`
        PUBWEAK `?<Segment init: NEAR_Z>`
        PUBLIC ??ActiveAlarmWindowOff
        PUBLIC ??ActiveAlarmWindowOn
        PUBLIC ??AddressBusInit
        PUBLIC ??AlarmTypeChange
        PUBLIC ??AlarmTypeErrorChange
        PUBLIC ??AlarmTypeReceipt
        PUBLIC ??AlarmTypeReset
        PUBLIC ??AlarmTypeSet
        PUBLIC ??AlarmsProcessing
        PUBLIC ??AllAlarmWindowOff
        PUBLIC ??AllAlarmWindowOn
        PUBLIC ??BoardWindowsUpdate
        PUBLIC ??ConfigurationInit
        PUBLIC ??ConnectDevice
        PUBLIC ??CreateDevices
        PUBLIC ??DestroyDevices
        PUBLIC ??DisconnectDevice
        PUBLIC ??DiscreteOutputControlClear
        PUBLIC ??DiscreteOutputsSet
        PUBLIC ??DiscreteSignalsProcessing
        PUBLIC ??ErrorAlarmsProcessing
        PUBLIC ??ErrorMainCycle
        PUBLIC ??ErrorWindowOn
        PUBWEAK ??ExternalKeyState
        PUBLIC ??GetDiscreteInputState
        PUBLIC ??GetErrorAlarmState
        PUBLIC ??GetTimeoutModbusRtuLinkControl
        PUBLIC ??Init
        PUBLIC ??InitAllocationContext
        PUBWEAK ??KeyOneState
        PUBLIC ??KeyStateProcessing
        PUBWEAK ??KeyThreeState
        PUBWEAK ??KeyTwoState
        PUBLIC ??LinkControlErrorMainCycle
        PUBLIC ??MainFsm
        PUBLIC ??ModbusDefaultInit
        PUBLIC ??ModbusDeviceControl
        PUBLIC ??ModbusDeviceControl_1
        PUBLIC ??ModbusInit
        PUBLIC ??ModbusRtuLinkControlInProgress
        PUBLIC ??ModbusRtuLinkControlIsOn
        PUBLIC ??ModulesInteraction
        PUBLIC ??NotifyersControlProcessing
        PUBLIC ??ReceiptResetGlobalFlagsClear
        PUBLIC ??ReportType
        PUBLIC ??RestoreContextNotifyerControl
        PUBLIC ??SaveContextNotifyerControl
        PUBLIC ??SearchModules
        PUBLIC ??SendToDevicesModbusReceipt
        PUBLIC ??SendToDevicesModbusReset
        PUBLIC ??SendToDevicesReceipt
        PUBLIC ??SendToDevicesReset
        PUBLIC ??SetAlarmWindowType
        PUBLIC ??SetBytesFromBits
        PUBLIC ??SetErrorAlarmState
        PUBLIC ??SetModeModbusRtuLinkControlInProgress
        PUBLIC ??TestMainCycle
        PUBLIC ??m_apxAlarmDfa
        PUBLIC ??m_apxDrivers
        PUBLIC ??m_apxErrorAlarmDfa
        PUBLIC ??m_aucRtuDiscreteDataArray
        PUBLIC ??m_aucRtuHoldingRegistersArray
        PUBLIC ??m_aucRtuInputRegistersArray
        PUBLIC ??m_auiErrorAlarmDataArray
        PUBLIC ??m_auiErrorLedOn
        PUBLIC ??m_auiIntermediateBuff
        PUBLIC ??m_auiReceiveMessageBuff
        PUBLIC ??m_auiSpiRxBuffer
        PUBLIC ??m_auiSpiTxBuffer
        PUBLIC ??m_axAlarmWindowControl
        PUBLIC ??m_axDiscreteOutputControl
        PUBLIC ??m_uiCommonAlarmType
        PUBLIC ??m_uiCommonAlarmTypePrevious
        PUBLIC ??m_uiDiscreteSignalsReceipt
        PUBLIC ??m_uiDiscreteSignalsReset
        PUBLIC ??m_uiErrorCode
        PUBLIC ??m_uiExternalReceipt
        PUBLIC ??m_uiExternalReset
        PUBLIC ??m_uiFsmState
        PUBLIC ??m_uiModbusReceipt
        PUBLIC ??m_uiModbusReset
        PUBLIC ??m_uiModuleIndex
        PUBLIC ??m_uiPanelReceipt
        PUBLIC ??m_uiPanelReset
        PUBLIC ??m_uiType
        PUBLIC ??m_xBuzzerNotifyerControl
        PUBLIC ??m_xCheckKey
        PUBLIC ??m_xDeviceConfigSearch
        PUBLIC ??m_xDeviceConfiguration
        PUBLIC ??m_xDeviceState
        PUBLIC ??m_xDiscreteOutputDataBase
        PUBLIC ??m_xEmergencyAlarmWindowNotifyerControl
        PUBLIC ??m_xEventUniteLogicAndOne
        PUBLIC ??m_xExternalKey
        PUBLIC ??m_xMainCycleTimer
        PUBLIC ??m_xModbusRtuLinkControl
        PUBLIC ??m_xModbusRtuOne
        PUBLIC ??m_xModbusSettings
        PUBLIC ??m_xPreventiveAlarmWindowNotifyerControl
        PUBLIC ??m_xReceiptKey
        PUBLIC ??m_xResetKey
        PUBLIC ??m_xStatusLedNotifyerControl
        PUBLIC ??m_xUart1
        PUBWEAK _A_ACSR
        PUBWEAK _A_ADC
        PUBWEAK _A_ADCSRA
        PUBWEAK _A_ADMUX
        PUBWEAK _A_ASSR
        PUBWEAK _A_DDRA
        PUBWEAK _A_DDRB
        PUBWEAK _A_DDRC
        PUBWEAK _A_DDRD
        PUBWEAK _A_DDRE
        PUBWEAK _A_DDRF
        PUBWEAK _A_DDRG
        PUBWEAK _A_EEAR
        PUBWEAK _A_EECR
        PUBWEAK _A_EEDR
        PUBWEAK _A_EICRA
        PUBWEAK _A_EICRB
        PUBWEAK _A_EIFR
        PUBWEAK _A_EIMSK
        PUBWEAK _A_ETIFR
        PUBWEAK _A_ETIMSK
        PUBWEAK _A_ICR1
        PUBWEAK _A_ICR3
        PUBWEAK _A_MCUCR
        PUBWEAK _A_MCUCSR
        PUBWEAK _A_OCDR
        PUBWEAK _A_OCR0
        PUBWEAK _A_OCR1A
        PUBWEAK _A_OCR1B
        PUBWEAK _A_OCR1C
        PUBWEAK _A_OCR2
        PUBWEAK _A_OCR3A
        PUBWEAK _A_OCR3B
        PUBWEAK _A_OCR3C
        PUBWEAK _A_OSCCAL
        PUBWEAK _A_PINA
        PUBWEAK _A_PINB
        PUBWEAK _A_PINC
        PUBWEAK _A_PIND
        PUBWEAK _A_PINE
        PUBWEAK _A_PINF
        PUBWEAK _A_PING
        PUBWEAK _A_PORTA
        PUBWEAK _A_PORTB
        PUBWEAK _A_PORTC
        PUBWEAK _A_PORTD
        PUBWEAK _A_PORTE
        PUBWEAK _A_PORTF
        PUBWEAK _A_PORTG
        PUBWEAK _A_RAMPZ
        PUBWEAK _A_SFIOR
        PUBWEAK _A_SP
        PUBWEAK _A_SPCR
        PUBWEAK _A_SPDR
        PUBWEAK _A_SPMCSR
        PUBWEAK _A_SPSR
        PUBWEAK _A_SREG
        PUBWEAK _A_TCCR0
        PUBWEAK _A_TCCR1A
        PUBWEAK _A_TCCR1B
        PUBWEAK _A_TCCR1C
        PUBWEAK _A_TCCR2
        PUBWEAK _A_TCCR3A
        PUBWEAK _A_TCCR3B
        PUBWEAK _A_TCCR3C
        PUBWEAK _A_TCNT0
        PUBWEAK _A_TCNT1
        PUBWEAK _A_TCNT2
        PUBWEAK _A_TCNT3
        PUBWEAK _A_TIFR
        PUBWEAK _A_TIMSK
        PUBWEAK _A_TWAR
        PUBWEAK _A_TWBR
        PUBWEAK _A_TWCR
        PUBWEAK _A_TWDR
        PUBWEAK _A_TWSR
        PUBWEAK _A_UBRR0H
        PUBWEAK _A_UBRR0L
        PUBWEAK _A_UBRR1H
        PUBWEAK _A_UBRR1L
        PUBWEAK _A_UCSR0A
        PUBWEAK _A_UCSR0B
        PUBWEAK _A_UCSR0C
        PUBWEAK _A_UCSR1A
        PUBWEAK _A_UCSR1B
        PUBWEAK _A_UCSR1C
        PUBWEAK _A_UDR0
        PUBWEAK _A_UDR1
        PUBWEAK _A_WDTCR
        PUBWEAK _A_XDIV
        PUBWEAK _A_XMCRA
        PUBWEAK _A_XMCRB
        PUBWEAK __?EEARH
        PUBWEAK __?EEARL
        PUBWEAK __?EECR
        PUBWEAK __?EEDR

`?<Name CPlatform 130>` SYMBOL "CPlatform"
??m_pxUart1         SYMBOL "m_pxUart1", `?<Name CPlatform 130>`
`?<Name CPss21 244>` SYMBOL "CPss21"
??m_apxAlarmDfa     SYMBOL "m_apxAlarmDfa", `?<Name CPss21 244>`
??m_apxDrivers      SYMBOL "m_apxDrivers", `?<Name CPss21 244>`
??m_apxErrorAlarmDfa SYMBOL "m_apxErrorAlarmDfa", `?<Name CPss21 244>`
??m_aucRtuDiscreteDataArray SYMBOL "m_aucRtuDiscreteDataArray", `?<Name CPss21 244>`
??m_aucRtuHoldingRegistersArray SYMBOL "m_aucRtuHoldingRegistersArray", `?<Name CPss21 244>`
??m_aucRtuInputRegistersArray SYMBOL "m_aucRtuInputRegistersArray", `?<Name CPss21 244>`
??m_auiErrorAlarmDataArray SYMBOL "m_auiErrorAlarmDataArray", `?<Name CPss21 244>`
??m_auiErrorLedOn   SYMBOL "m_auiErrorLedOn", `?<Name CPss21 244>`
??m_auiIntermediateBuff SYMBOL "m_auiIntermediateBuff", `?<Name CPss21 244>`
??m_auiReceiveMessageBuff SYMBOL "m_auiReceiveMessageBuff", `?<Name CPss21 244>`
??m_auiSpiRxBuffer  SYMBOL "m_auiSpiRxBuffer", `?<Name CPss21 244>`
??m_auiSpiTxBuffer  SYMBOL "m_auiSpiTxBuffer", `?<Name CPss21 244>`
??m_axAlarmWindowControl SYMBOL "m_axAlarmWindowControl", `?<Name CPss21 244>`
??m_axDiscreteOutputControl SYMBOL "m_axDiscreteOutputControl", `?<Name CPss21 244>`
??m_uiCommonAlarmType SYMBOL "m_uiCommonAlarmType", `?<Name CPss21 244>`
??m_uiCommonAlarmTypePrevious SYMBOL "m_uiCommonAlarmTypePrevious", `?<Name CPss21 244>`
??m_uiDiscreteSignalsReceipt SYMBOL "m_uiDiscreteSignalsReceipt", `?<Name CPss21 244>`
??m_uiDiscreteSignalsReset SYMBOL "m_uiDiscreteSignalsReset", `?<Name CPss21 244>`
??m_uiErrorCode     SYMBOL "m_uiErrorCode", `?<Name CPss21 244>`
??m_uiExternalReceipt SYMBOL "m_uiExternalReceipt", `?<Name CPss21 244>`
??m_uiExternalReset SYMBOL "m_uiExternalReset", `?<Name CPss21 244>`
??m_uiFsmState      SYMBOL "m_uiFsmState", `?<Name CPss21 244>`
??m_uiModbusReceipt SYMBOL "m_uiModbusReceipt", `?<Name CPss21 244>`
??m_uiModbusReset   SYMBOL "m_uiModbusReset", `?<Name CPss21 244>`
??m_uiModuleIndex   SYMBOL "m_uiModuleIndex", `?<Name CPss21 244>`
??m_uiPanelReceipt  SYMBOL "m_uiPanelReceipt", `?<Name CPss21 244>`
??m_uiPanelReset    SYMBOL "m_uiPanelReset", `?<Name CPss21 244>`
??m_uiType          SYMBOL "m_uiType", `?<Name CPss21 244>`
??m_xBuzzerNotifyerControl SYMBOL "m_xBuzzerNotifyerControl", `?<Name CPss21 244>`
??m_xCheckKey       SYMBOL "m_xCheckKey", `?<Name CPss21 244>`
??m_xDeviceConfigSearch SYMBOL "m_xDeviceConfigSearch", `?<Name CPss21 244>`
??m_xDeviceConfiguration SYMBOL "m_xDeviceConfiguration", `?<Name CPss21 244>`
??m_xDeviceState    SYMBOL "m_xDeviceState", `?<Name CPss21 244>`
??m_xDiscreteOutputDataBase SYMBOL "m_xDiscreteOutputDataBase", `?<Name CPss21 244>`
??m_xEmergencyAlarmWindowNotifyerControl SYMBOL "m_xEmergencyAlarmWindowNotifyerControl", `?<Name CPss21 244>`
??m_xEventUniteLogicAndOne SYMBOL "m_xEventUniteLogicAndOne", `?<Name CPss21 244>`
??m_xExternalKey    SYMBOL "m_xExternalKey", `?<Name CPss21 244>`
??m_xMainCycleTimer SYMBOL "m_xMainCycleTimer", `?<Name CPss21 244>`
??m_xModbusRtuLinkControl SYMBOL "m_xModbusRtuLinkControl", `?<Name CPss21 244>`
??m_xModbusRtuOne   SYMBOL "m_xModbusRtuOne", `?<Name CPss21 244>`
??m_xModbusSettings SYMBOL "m_xModbusSettings", `?<Name CPss21 244>`
??m_xPreventiveAlarmWindowNotifyerControl SYMBOL "m_xPreventiveAlarmWindowNotifyerControl", `?<Name CPss21 244>`
??m_xReceiptKey     SYMBOL "m_xReceiptKey", `?<Name CPss21 244>`
??m_xResetKey       SYMBOL "m_xResetKey", `?<Name CPss21 244>`
??m_xStatusLedNotifyerControl SYMBOL "m_xStatusLedNotifyerControl", `?<Name CPss21 244>`
??m_xUart1          SYMBOL "m_xUart1", `?<Name CPss21 244>`

        EXTERN ??AlarmSet
        EXTERN ??AlarmSet_1
        EXTERN ??AlarmSet_2
        EXTERN ??AlarmSet_3
        EXTERN ??CAlarmWindow
        EXTERN ??CBuzzerNotifyerControl
        EXTERN ??CEmergencyAlarmWindowNotifyerControl
        EXTERN ??CEventUniteLogicAnd
        EXTERN ??CModbusRTU
        EXTERN ??CModbusRtuLinkControl
        EXTERN ??CMultiFunctionKey
        EXTERN ??CPreventiveAlarmWindowNotifyerControl
        EXTERN ??CStatusLedNotifyerControl
        EXTERN ??CTimer
        EXTERN ??CUart
        EXTERN ??Check
        EXTERN ??Disable
        EXTERN ??Enable
        EXTERN ??Exchange
        EXTERN ??Fsm
        EXTERN ??Fsm_1
        EXTERN ??Fsm_2
        EXTERN ??Fsm_3
        EXTERN ??Init_1
        EXTERN ??Init_2
        EXTERN ??Init_3
        EXTERN ??Init_4
        EXTERN ??Init_5
        EXTERN ??IsHappened
        EXTERN ??IsOverflow
        EXTERN ??KeyEventHappened
        EXTERN ??ReadBlock
        EXTERN ??Reset
        EXTERN ??Set
        EXTERN ??Set_1
        EXTERN ??SignatureCreate
        EXTERN ??SlaveSet
        EXTERN ??WriteBlock
        EXTERN ??delay_ms
        EXTERN ??iCrcSummOneByteCompare
        EXTERN ??m_pxUart1
        EXTERN `??new CEmergencyAlarmHighLevelDfa`
        EXTERN `??new CEmergencyAlarmLowLevelDfa`
        EXTERN `??new CErrorAlarmDfa`
        EXTERN `??new CIndicationAlarmHighLevelDfa`
        EXTERN `??new CIndicationAlarmLowLevelDfa`
        EXTERN `??new CModuleMrXXDriver`
        EXTERN `??new CMvsn21Driver`
        EXTERN `??new CNormalAlarmDfa`
        EXTERN `??new CPreventiveAlarmHighLevelDfa`
        EXTERN `??new CPreventiveAlarmLowLevelDfa`
        EXTERN `?~CAlarmWindow`
        EXTERN `?~CBuzzerNotifyerControl`
        EXTERN `?~CEmergencyAlarmWindowNotifyerControl`
        EXTERN `?~CEventUniteLogicAnd`
        EXTERN `?~CModbusRTU`
        EXTERN `?~CModbusRtuLinkControl`
        EXTERN `?~CMultiFunctionKey`
        EXTERN `?~CPreventiveAlarmWindowNotifyerControl`
        EXTERN `?~CStatusLedNotifyerControl`
        EXTERN `?~CTimer`
        EXTERN `?~CUart`
        EXTERN __near_vec_construct
        EXTERN __near_vec_destroy
        EXTERN __record_needed_destruction
        EXTERN memcpy
        EXTERN memset

// D:\Projects\CautoProjects\PSS48\PSS48\src\Pss21.cpp
//    1 //-----------------------------------------------------------------------------------------------------
//    2 //  Source      : FileName.cpp
//    3 //  Created     : 01.06.2022
//    4 //  Author      : Alexandr Volvenkin
//    5 //  email       : aav-36@mail.ru
//    6 //  GitHub      : https://github.com/AlexandrVolvenkin
//    7 //-----------------------------------------------------------------------------------------------------
//    8 #include "Pss21.h"

        ASEGN ABSOLUTE:DATA:ROOT,09dH
// union <unnamed> volatile __io _A_UCSR1C
_A_UCSR1C:
        DS8 1

        ASEGN ABSOLUTE:DATA:ROOT,09cH
// union <unnamed> volatile __io _A_UDR1
_A_UDR1:
        DS8 1

        ASEGN ABSOLUTE:DATA:ROOT,09bH
// union <unnamed> volatile __io _A_UCSR1A
_A_UCSR1A:
        DS8 1

        ASEGN ABSOLUTE:DATA:ROOT,09aH
// union <unnamed> volatile __io _A_UCSR1B
_A_UCSR1B:
        DS8 1

        ASEGN ABSOLUTE:DATA:ROOT,099H
// union <unnamed> volatile __io _A_UBRR1L
_A_UBRR1L:
        DS8 1

        ASEGN ABSOLUTE:DATA:ROOT,098H
// union <unnamed> volatile __io _A_UBRR1H
_A_UBRR1H:
        DS8 1

        ASEGN ABSOLUTE:DATA:ROOT,095H
// union <unnamed> volatile __io _A_UCSR0C
_A_UCSR0C:
        DS8 1

        ASEGN ABSOLUTE:DATA:ROOT,090H
// union <unnamed> volatile __io _A_UBRR0H
_A_UBRR0H:
        DS8 1

        ASEGN ABSOLUTE:DATA:ROOT,08cH
// union <unnamed> volatile __io _A_TCCR3C
_A_TCCR3C:
        DS8 1

        ASEGN ABSOLUTE:DATA:ROOT,08bH
// union <unnamed> volatile __io _A_TCCR3A
_A_TCCR3A:
        DS8 1

        ASEGN ABSOLUTE:DATA:ROOT,08aH
// union <unnamed> volatile __io _A_TCCR3B
_A_TCCR3B:
        DS8 1

        ASEGN ABSOLUTE:DATA:ROOT,088H
// union <unnamed> volatile __io _A_TCNT3
_A_TCNT3:
        DS8 2

        ASEGN ABSOLUTE:DATA:ROOT,086H
// union <unnamed> volatile __io _A_OCR3A
_A_OCR3A:
        DS8 2

        ASEGN ABSOLUTE:DATA:ROOT,084H
// union <unnamed> volatile __io _A_OCR3B
_A_OCR3B:
        DS8 2

        ASEGN ABSOLUTE:DATA:ROOT,082H
// union <unnamed> volatile __io _A_OCR3C
_A_OCR3C:
        DS8 2

        ASEGN ABSOLUTE:DATA:ROOT,080H
// union <unnamed> volatile __io _A_ICR3
_A_ICR3:
        DS8 2

        ASEGN ABSOLUTE:DATA:ROOT,07dH
// union <unnamed> volatile __io _A_ETIMSK
_A_ETIMSK:
        DS8 1

        ASEGN ABSOLUTE:DATA:ROOT,07cH
// union <unnamed> volatile __io _A_ETIFR
_A_ETIFR:
        DS8 1

        ASEGN ABSOLUTE:DATA:ROOT,07aH
// union <unnamed> volatile __io _A_TCCR1C
_A_TCCR1C:
        DS8 1

        ASEGN ABSOLUTE:DATA:ROOT,078H
// union <unnamed> volatile __io _A_OCR1C
_A_OCR1C:
        DS8 2

        ASEGN ABSOLUTE:DATA:ROOT,074H
// union <unnamed> volatile __io _A_TWCR
_A_TWCR:
        DS8 1

        ASEGN ABSOLUTE:DATA:ROOT,073H
// union <unnamed> volatile __io _A_TWDR
_A_TWDR:
        DS8 1

        ASEGN ABSOLUTE:DATA:ROOT,072H
// union <unnamed> volatile __io _A_TWAR
_A_TWAR:
        DS8 1

        ASEGN ABSOLUTE:DATA:ROOT,071H
// union <unnamed> volatile __io _A_TWSR
_A_TWSR:
        DS8 1

        ASEGN ABSOLUTE:DATA:ROOT,070H
// union <unnamed> volatile __io _A_TWBR
_A_TWBR:
        DS8 1

        ASEGN ABSOLUTE:DATA:ROOT,06fH
// union <unnamed> volatile __io _A_OSCCAL
_A_OSCCAL:
        DS8 1

        ASEGN ABSOLUTE:DATA:ROOT,06dH
// union <unnamed> volatile __io _A_XMCRA
_A_XMCRA:
        DS8 1

        ASEGN ABSOLUTE:DATA:ROOT,06cH
// union <unnamed> volatile __io _A_XMCRB
_A_XMCRB:
        DS8 1

        ASEGN ABSOLUTE:DATA:ROOT,06aH
// union <unnamed> volatile __io _A_EICRA
_A_EICRA:
        DS8 1

        ASEGN ABSOLUTE:DATA:ROOT,068H
// union <unnamed> volatile __io _A_SPMCSR
_A_SPMCSR:
        DS8 1

        ASEGN ABSOLUTE:DATA:ROOT,065H
// union <unnamed> volatile __io _A_PORTG
_A_PORTG:
        DS8 1

        ASEGN ABSOLUTE:DATA:ROOT,064H
// union <unnamed> volatile __io _A_DDRG
_A_DDRG:
        DS8 1

        ASEGN ABSOLUTE:DATA:ROOT,063H
// union <unnamed> volatile __io _A_PING
_A_PING:
        DS8 1

        ASEGN ABSOLUTE:DATA:ROOT,062H
// union <unnamed> volatile __io _A_PORTF
_A_PORTF:
        DS8 1

        ASEGN ABSOLUTE:DATA:ROOT,061H
// union <unnamed> volatile __io _A_DDRF
_A_DDRF:
        DS8 1

        ASEGN ABSOLUTE:DATA:ROOT,05fH
// union <unnamed> volatile __io _A_SREG
_A_SREG:
        DS8 1

        ASEGN ABSOLUTE:DATA:ROOT,05dH
// union <unnamed> volatile __io _A_SP
_A_SP:
        DS8 2

        ASEGN ABSOLUTE:DATA:ROOT,05cH
// union <unnamed> volatile __io _A_XDIV
_A_XDIV:
        DS8 1

        ASEGN ABSOLUTE:DATA:ROOT,05bH
// union <unnamed> volatile __io _A_RAMPZ
_A_RAMPZ:
        DS8 1

        ASEGN ABSOLUTE:DATA:ROOT,05aH
// union <unnamed> volatile __io _A_EICRB
_A_EICRB:
        DS8 1

        ASEGN ABSOLUTE:DATA:ROOT,059H
// union <unnamed> volatile __io _A_EIMSK
_A_EIMSK:
        DS8 1

        ASEGN ABSOLUTE:DATA:ROOT,058H
// union <unnamed> volatile __io _A_EIFR
_A_EIFR:
        DS8 1

        ASEGN ABSOLUTE:DATA:ROOT,057H
// union <unnamed> volatile __io _A_TIMSK
_A_TIMSK:
        DS8 1

        ASEGN ABSOLUTE:DATA:ROOT,056H
// union <unnamed> volatile __io _A_TIFR
_A_TIFR:
        DS8 1

        ASEGN ABSOLUTE:DATA:ROOT,055H
// union <unnamed> volatile __io _A_MCUCR
_A_MCUCR:
        DS8 1

        ASEGN ABSOLUTE:DATA:ROOT,054H
// union <unnamed> volatile __io _A_MCUCSR
_A_MCUCSR:
        DS8 1

        ASEGN ABSOLUTE:DATA:ROOT,053H
// union <unnamed> volatile __io _A_TCCR0
_A_TCCR0:
        DS8 1

        ASEGN ABSOLUTE:DATA:ROOT,052H
// union <unnamed> volatile __io _A_TCNT0
_A_TCNT0:
        DS8 1

        ASEGN ABSOLUTE:DATA:ROOT,051H
// union <unnamed> volatile __io _A_OCR0
_A_OCR0:
        DS8 1

        ASEGN ABSOLUTE:DATA:ROOT,050H
// union <unnamed> volatile __io _A_ASSR
_A_ASSR:
        DS8 1

        ASEGN ABSOLUTE:DATA:ROOT,04fH
// union <unnamed> volatile __io _A_TCCR1A
_A_TCCR1A:
        DS8 1

        ASEGN ABSOLUTE:DATA:ROOT,04eH
// union <unnamed> volatile __io _A_TCCR1B
_A_TCCR1B:
        DS8 1

        ASEGN ABSOLUTE:DATA:ROOT,04cH
// union <unnamed> volatile __io _A_TCNT1
_A_TCNT1:
        DS8 2

        ASEGN ABSOLUTE:DATA:ROOT,04aH
// union <unnamed> volatile __io _A_OCR1A
_A_OCR1A:
        DS8 2

        ASEGN ABSOLUTE:DATA:ROOT,048H
// union <unnamed> volatile __io _A_OCR1B
_A_OCR1B:
        DS8 2

        ASEGN ABSOLUTE:DATA:ROOT,046H
// union <unnamed> volatile __io _A_ICR1
_A_ICR1:
        DS8 2

        ASEGN ABSOLUTE:DATA:ROOT,045H
// union <unnamed> volatile __io _A_TCCR2
_A_TCCR2:
        DS8 1

        ASEGN ABSOLUTE:DATA:ROOT,044H
// union <unnamed> volatile __io _A_TCNT2
_A_TCNT2:
        DS8 1

        ASEGN ABSOLUTE:DATA:ROOT,043H
// union <unnamed> volatile __io _A_OCR2
_A_OCR2:
        DS8 1

        ASEGN ABSOLUTE:DATA:ROOT,042H
// union <unnamed> volatile __io _A_OCDR
_A_OCDR:
        DS8 1

        ASEGN ABSOLUTE:DATA:ROOT,041H
// union <unnamed> volatile __io _A_WDTCR
_A_WDTCR:
        DS8 1

        ASEGN ABSOLUTE:DATA:ROOT,040H
// union <unnamed> volatile __io _A_SFIOR
_A_SFIOR:
        DS8 1

        ASEGN ABSOLUTE:DATA:ROOT,03eH
// union <unnamed> volatile __io _A_EEAR
_A_EEAR:
        DS8 2

        ASEGN ABSOLUTE:DATA:ROOT,03dH
// union <unnamed> volatile __io _A_EEDR
_A_EEDR:
        DS8 1

        ASEGN ABSOLUTE:DATA:ROOT,03cH
// union <unnamed> volatile __io _A_EECR
_A_EECR:
        DS8 1

        ASEGN ABSOLUTE:DATA:ROOT,03bH
// union <unnamed> volatile __io _A_PORTA
_A_PORTA:
        DS8 1

        ASEGN ABSOLUTE:DATA:ROOT,03aH
// union <unnamed> volatile __io _A_DDRA
_A_DDRA:
        DS8 1

        ASEGN ABSOLUTE:DATA:ROOT,039H
// union <unnamed> volatile __io _A_PINA
_A_PINA:
        DS8 1

        ASEGN ABSOLUTE:DATA:ROOT,038H
// union <unnamed> volatile __io _A_PORTB
_A_PORTB:
        DS8 1

        ASEGN ABSOLUTE:DATA:ROOT,037H
// union <unnamed> volatile __io _A_DDRB
_A_DDRB:
        DS8 1

        ASEGN ABSOLUTE:DATA:ROOT,036H
// union <unnamed> volatile __io _A_PINB
_A_PINB:
        DS8 1

        ASEGN ABSOLUTE:DATA:ROOT,035H
// union <unnamed> volatile __io _A_PORTC
_A_PORTC:
        DS8 1

        ASEGN ABSOLUTE:DATA:ROOT,034H
// union <unnamed> volatile __io _A_DDRC
_A_DDRC:
        DS8 1

        ASEGN ABSOLUTE:DATA:ROOT,033H
// union <unnamed> volatile __io _A_PINC
_A_PINC:
        DS8 1

        ASEGN ABSOLUTE:DATA:ROOT,032H
// union <unnamed> volatile __io _A_PORTD
_A_PORTD:
        DS8 1

        ASEGN ABSOLUTE:DATA:ROOT,031H
// union <unnamed> volatile __io _A_DDRD
_A_DDRD:
        DS8 1

        ASEGN ABSOLUTE:DATA:ROOT,030H
// union <unnamed> volatile __io _A_PIND
_A_PIND:
        DS8 1

        ASEGN ABSOLUTE:DATA:ROOT,02fH
// union <unnamed> volatile __io _A_SPDR
_A_SPDR:
        DS8 1

        ASEGN ABSOLUTE:DATA:ROOT,02eH
// union <unnamed> volatile __io _A_SPSR
_A_SPSR:
        DS8 1

        ASEGN ABSOLUTE:DATA:ROOT,02dH
// union <unnamed> volatile __io _A_SPCR
_A_SPCR:
        DS8 1

        ASEGN ABSOLUTE:DATA:ROOT,02cH
// union <unnamed> volatile __io _A_UDR0
_A_UDR0:
        DS8 1

        ASEGN ABSOLUTE:DATA:ROOT,02bH
// union <unnamed> volatile __io _A_UCSR0A
_A_UCSR0A:
        DS8 1

        ASEGN ABSOLUTE:DATA:ROOT,02aH
// union <unnamed> volatile __io _A_UCSR0B
_A_UCSR0B:
        DS8 1

        ASEGN ABSOLUTE:DATA:ROOT,029H
// union <unnamed> volatile __io _A_UBRR0L
_A_UBRR0L:
        DS8 1

        ASEGN ABSOLUTE:DATA:ROOT,028H
// union <unnamed> volatile __io _A_ACSR
_A_ACSR:
        DS8 1

        ASEGN ABSOLUTE:DATA:ROOT,027H
// union <unnamed> volatile __io _A_ADMUX
_A_ADMUX:
        DS8 1

        ASEGN ABSOLUTE:DATA:ROOT,026H
// union <unnamed> volatile __io _A_ADCSRA
_A_ADCSRA:
        DS8 1

        ASEGN ABSOLUTE:DATA:ROOT,024H
// union <unnamed> volatile __io _A_ADC
_A_ADC:
        DS8 2

        ASEGN ABSOLUTE:DATA:ROOT,023H
// union <unnamed> volatile __io _A_PORTE
_A_PORTE:
        DS8 1

        ASEGN ABSOLUTE:DATA:ROOT,022H
// union <unnamed> volatile __io _A_DDRE
_A_DDRE:
        DS8 1

        ASEGN ABSOLUTE:DATA:ROOT,021H
// union <unnamed> volatile __io _A_PINE
_A_PINE:
        DS8 1

        ASEGN ABSOLUTE:DATA:ROOT,020H
// union <unnamed> volatile __io _A_PINF
_A_PINF:
        DS8 1
//    9 #include "Platform.h"
//   10 #include "InputDevice.h"
//   11 #include "Mvsn21.h"
//   12 #include "ModuleMrXX.h"
//   13 #include "Crc.h"
//   14 #include "ModbusRTU.h"
//   15 #include "DataBase.h"
//   16 #include "DataTypes.h"
//   17 #include "Alarm.h"
//   18 #include "NotifyerControl.h"
//   19 #include "Buzzer.h"
//   20 #include "Event.h"
//   21 #include "Dfa.h"
//   22 
//   23 
//   24 //uint8_t CPss21::m_aucRtuCoilsArray[];
//   25 //uint8_t CPss21::m_aucRtuDiscreteInputsArray[];
//   26 uint16_t CPss21::m_aucRtuHoldingRegistersArray[];
//   27 uint16_t CPss21::m_aucRtuInputRegistersArray[];
//   28 uint8_t CPss21::m_aucRtuDiscreteDataArray[];
//   29 uint8_t CPss21::m_auiReceiveMessageBuff[];
//   30 //uint8_t CPss21::m_auiTransmitMessageBuff[];
//   31 uint8_t CPss21::m_auiIntermediateBuff[];
//   32 uint8_t CPss21::m_auiSpiRxBuffer[];
//   33 uint8_t CPss21::m_auiSpiTxBuffer[];
//   34 
//   35 uint8_t CPss21::m_uiFsmState;
//   36 uint8_t CPss21::m_uiType;
//   37 //CDriver* CPss21::m_pxDriver;
//   38 //CDevice* CPss21::m_apxDevices[];
//   39 CDriver* CPss21::m_apxDrivers[];
//   40 

        RSEG CODE:CODE:NOROOT(1)
// static __intrinsic __version_3 void __sti__routine()
??__sti__routine:
//   41 CUart CPss21::m_xUart1(&UBRR1H, &UBRR1L, &UCSR1A, &UCSR1B, &UCSR1C, &UDR1, &DDRC, DDC7, &PORTC, PC7);
        LDI     R16, 7
        ST      -Y, R16
        LDI     R16, LOW(53)
        LDI     R17, (53) >> 8
        RCALL   ?Subroutine75
??CrossCallReturnLabel_93:
        LDI     R16, 7
        ST      -Y, R16
        LDI     R16, LOW(52)
        RCALL   ?Subroutine75
??CrossCallReturnLabel_94:
        LDI     R16, LOW(156)
        RCALL   ?Subroutine75
??CrossCallReturnLabel_95:
        LDI     R16, LOW(157)
        RCALL   ?Subroutine75
??CrossCallReturnLabel_96:
        LDI     R16, LOW(154)
        RCALL   ?Subroutine75
??CrossCallReturnLabel_97:
        LDI     R22, LOW(155)
        LDI     R23, (53) >> 8
        LDI     R20, LOW(153)
        LDI     R21, (53) >> 8
        LDI     R18, LOW(152)
        LDI     R19, (53) >> 8
        LDI     R16, LOW(??m_xUart1)
        LDI     R17, (??m_xUart1) >> 8
        CALL    ??CUart
        LDI     R16, LOW(?_0)
        LDI     R17, (?_0) >> 8
        RCALL   ?Subroutine72
//   42 CModbusRTU CPss21::m_xModbusRtuOne;
??CrossCallReturnLabel_80:
        RCALL   ??Subroutine92_0
??CrossCallReturnLabel_153:
        LDI     R16, LOW(??m_xModbusRtuOne)
        LDI     R17, (??m_xModbusRtuOne) >> 8
        CALL    ??CModbusRTU
        LDI     R16, LOW((?_0 + 6))
        LDI     R17, HIGH((?_0 + 6))
        RCALL   ?Subroutine72
//   43 
//   44 //CDataBase CPss21::m_xDataBase;
//   45 //CDataBase* CPss21::m_pxDataBase;
//   46 //CDataStore CPss21::m_xDataStore;
//   47 
//   48 CMultiFunctionKey CPss21::m_xReceiptKey(CPlatform::KeyOneState);
??CrossCallReturnLabel_81:
        LDI     R18, LOW(??KeyOneState/2)
        LDI     R19, (??KeyOneState/2) >> 8
        LDI     R16, LOW((??m_xDeviceConfigSearch + 61))
        LDI     R17, HIGH((??m_xDeviceConfigSearch + 61))
        RCALL   ?Subroutine12
??CrossCallReturnLabel_5:
        LDI     R16, LOW((?_0 + 12))
        LDI     R17, HIGH((?_0 + 12))
        RCALL   ?Subroutine72
//   49 CMultiFunctionKey CPss21::m_xResetKey(CPlatform::KeyTwoState);
??CrossCallReturnLabel_82:
        LDI     R18, LOW(??KeyTwoState/2)
        LDI     R19, (??KeyTwoState/2) >> 8
        LDI     R16, LOW((??m_xDeviceConfigSearch + 76))
        LDI     R17, HIGH((??m_xDeviceConfigSearch + 76))
        RCALL   ?Subroutine12
??CrossCallReturnLabel_4:
        LDI     R16, LOW((?_0 + 18))
        LDI     R17, HIGH((?_0 + 18))
        RCALL   ?Subroutine72
//   50 CMultiFunctionKey CPss21::m_xCheckKey(CPlatform::KeyThreeState);
??CrossCallReturnLabel_83:
        LDI     R18, LOW(??KeyThreeState/2)
        LDI     R19, (??KeyThreeState/2) >> 8
        LDI     R16, LOW((??m_xDeviceConfigSearch + 91))
        LDI     R17, HIGH((??m_xDeviceConfigSearch + 91))
        RCALL   ?Subroutine12
??CrossCallReturnLabel_3:
        LDI     R16, LOW((?_0 + 24))
        LDI     R17, HIGH((?_0 + 24))
        RCALL   ?Subroutine72
//   51 CMultiFunctionKey CPss21::m_xExternalKey(CPlatform::ExternalKeyState);
??CrossCallReturnLabel_84:
        LDI     R18, LOW(??ExternalKeyState/2)
        LDI     R19, (??ExternalKeyState/2) >> 8
        LDI     R16, LOW((??m_xDeviceConfigSearch + 106))
        LDI     R17, HIGH((??m_xDeviceConfigSearch + 106))
        RCALL   ?Subroutine12
??CrossCallReturnLabel_2:
        LDI     R16, LOW((?_0 + 30))
        LDI     R17, HIGH((?_0 + 30))
        RCALL   ?Subroutine72
//   52 
//   53 uint8_t CPss21::m_uiPanelReceipt;
//   54 uint8_t CPss21::m_uiPanelReset;
//   55 uint8_t CPss21::m_uiExternalReceipt;
//   56 uint8_t CPss21::m_uiExternalReset;
//   57 uint8_t CPss21::m_uiModbusReceipt;
//   58 uint8_t CPss21::m_uiModbusReset;
//   59 uint8_t CPss21::m_uiDiscreteSignalsReceipt;
//   60 uint8_t CPss21::m_uiDiscreteSignalsReset;
//   61 uint8_t CPss21::m_uiErrorCode;
//   62 uint8_t CPss21::m_uiModuleIndex;
//   63 CEventUniteLogicAnd CPss21::m_xEventUniteLogicAndOne(500);
??CrossCallReturnLabel_85:
        LDI     R18, 244
        LDI     R19, 1
        LDI     R16, LOW((??m_xDeviceConfigSearch + 121))
        LDI     R17, HIGH((??m_xDeviceConfigSearch + 121))
        CALL    ??CEventUniteLogicAnd
        LDI     R16, LOW((?_0 + 36))
        LDI     R17, HIGH((?_0 + 36))
        RCALL   ?Subroutine72
//   64 CTimer CPss21::m_xMainCycleTimer(MAIN_CYCLE_PERIOD_TIME);
??CrossCallReturnLabel_86:
        LDI     R18, 100
        LDI     R19, 0
        RCALL   ?Subroutine61
??CrossCallReturnLabel_229:
        CALL    ??CTimer
        LDI     R16, LOW((?_0 + 42))
        LDI     R17, HIGH((?_0 + 42))
        RCALL   ?Subroutine72
//   65 //CTimer CPss21::m_xPeripheryTimer(PERIPHERY_SCAN_TIME);
//   66 
//   67 CPreventiveAlarmWindowNotifyerControl CPss21::m_xPreventiveAlarmWindowNotifyerControl;
??CrossCallReturnLabel_87:
        LDI     R16, LOW((??m_xDeviceConfigSearch + 141))
        LDI     R17, HIGH((??m_xDeviceConfigSearch + 141))
        CALL    ??CPreventiveAlarmWindowNotifyerControl
        LDI     R16, LOW((?_0 + 48))
        LDI     R17, HIGH((?_0 + 48))
        RCALL   ?Subroutine72
//   68 CEmergencyAlarmWindowNotifyerControl CPss21::m_xEmergencyAlarmWindowNotifyerControl;
??CrossCallReturnLabel_88:
        LDI     R16, LOW((??m_xDeviceConfigSearch + 153))
        LDI     R17, HIGH((??m_xDeviceConfigSearch + 153))
        CALL    ??CEmergencyAlarmWindowNotifyerControl
        LDI     R16, LOW((?_0 + 54))
        LDI     R17, HIGH((?_0 + 54))
        RCALL   ?Subroutine72
//   69 CStatusLedNotifyerControl CPss21::m_xStatusLedNotifyerControl;
??CrossCallReturnLabel_89:
        LDI     R16, LOW((??m_xDeviceConfigSearch + 165))
        LDI     R17, HIGH((??m_xDeviceConfigSearch + 165))
        CALL    ??CStatusLedNotifyerControl
        LDI     R16, LOW((?_0 + 60))
        LDI     R17, HIGH((?_0 + 60))
        RCALL   ?Subroutine72
//   70 CBuzzerNotifyerControl CPss21::m_xBuzzerNotifyerControl;
??CrossCallReturnLabel_90:
        LDI     R16, LOW((??m_xDeviceConfigSearch + 177))
        LDI     R17, HIGH((??m_xDeviceConfigSearch + 177))
        CALL    ??CBuzzerNotifyerControl
        LDI     R16, LOW((?_0 + 66))
        LDI     R17, HIGH((?_0 + 66))
        RCALL   ?Subroutine72
//   71 CModbusRtuLinkControl CPss21::m_xModbusRtuLinkControl;
??CrossCallReturnLabel_91:
        LDI     R16, LOW((??m_xDeviceConfigSearch + 9))
        LDI     R17, HIGH((??m_xDeviceConfigSearch + 9))
        CALL    ??CModbusRtuLinkControl
        LDI     R16, LOW((?_0 + 72))
        LDI     R17, HIGH((?_0 + 72))
        RCALL   ?Subroutine72
//   72 
//   73 uint8_t CPss21::m_uiCommonAlarmType;
//   74 uint8_t CPss21::m_uiCommonAlarmTypePrevious;
//   75 //CLightBoard CPss21::m_xLightBoard;
//   76 TConfigDataPackOne CPss21::m_xDeviceConfigSearch;
//   77 TDevConfig CPss21::m_xDeviceConfiguration;
//   78 TDeviceState CPss21::m_xDeviceState;
//   79 TMBusSetting CPss21::m_xModbusSettings;
//   80 CAlarmDfa *CPss21::m_apxAlarmDfa[];
//   81 
//   82 CErrorAlarmDfa *CPss21::m_apxErrorAlarmDfa[];
//   83 uint8_t CPss21::m_auiErrorAlarmDataArray[];
//   84 
//   85 TDiscreteOutputControl CPss21::m_axDiscreteOutputControl[];
//   86 TOutputData CPss21::m_xDiscreteOutputDataBase;
//   87 CAlarmWindow CPss21::m_axAlarmWindowControl[];
??CrossCallReturnLabel_92:
        LDI     R22, LOW(??CAlarmWindow/2)
        LDI     R23, (??CAlarmWindow/2) >> 8
        RCALL   ?Subroutine16
??CrossCallReturnLabel_125:
        CALL    __near_vec_construct
        LDI     R16, LOW((?_0 + 78))
        LDI     R17, HIGH((?_0 + 78))
        REQUIRE ?Subroutine72
        REQUIRE _A_UBRR1H
        REQUIRE _A_UBRR1L
        REQUIRE _A_UCSR1A
        REQUIRE _A_UCSR1B
        REQUIRE _A_UCSR1C
        REQUIRE _A_UDR1
        REQUIRE _A_DDRC
        REQUIRE _A_PORTC
        ;               // Fall through to label ?Subroutine72

        RSEG CODE:CODE:NOROOT(1)
?Subroutine72:
        JMP     __record_needed_destruction

        RSEG CODE:CODE:NOROOT(1)
?Subroutine12:
        JMP     ??CMultiFunctionKey

        RSEG CODE:CODE:NOROOT(1)
`?<Unnamed 0>`:
        RCALL   ?Subroutine18
??CrossCallReturnLabel_141:
        JMP     `?~CUart`

        RSEG CODE:CODE:NOROOT(1)
`?<Unnamed 1>`:
        RCALL   ?Subroutine18
??CrossCallReturnLabel_142:
        JMP     `?~CModbusRTU`

        RSEG CODE:CODE:NOROOT(1)
`?<Unnamed 2>`:
        RCALL   ?Subroutine18
??CrossCallReturnLabel_143:
        JMP     `?~CMultiFunctionKey`

        RSEG CODE:CODE:NOROOT(1)
`?<Unnamed 3>`:
        RCALL   ?Subroutine18
??CrossCallReturnLabel_144:
        JMP     `?~CEventUniteLogicAnd`

        RSEG CODE:CODE:NOROOT(1)
`?<Unnamed 4>`:
        RCALL   ?Subroutine18
??CrossCallReturnLabel_145:
        JMP     `?~CTimer`

        RSEG CODE:CODE:NOROOT(1)
`?<Unnamed 5>`:
        RCALL   ?Subroutine18
??CrossCallReturnLabel_146:
        JMP     `?~CPreventiveAlarmWindowNotifyerControl`

        RSEG CODE:CODE:NOROOT(1)
`?<Unnamed 6>`:
        RCALL   ?Subroutine18
??CrossCallReturnLabel_147:
        JMP     `?~CEmergencyAlarmWindowNotifyerControl`

        RSEG NEAR_Z:DATA:ROOT(0)
        REQUIRE `?<Segment init: NEAR_Z>`
??m_xDeviceConfiguration:
        DS8 20
??m_xModbusSettings:
        DS8 7
??m_xDeviceState:
        DS8 8
??m_aucRtuHoldingRegistersArray:
        DS8 16
??m_aucRtuInputRegistersArray:
        DS8 16

        RSEG NEAR_Z:DATA:ROOT(0)
        REQUIRE `?<Segment init: NEAR_Z>`
??m_aucRtuDiscreteDataArray:
        DS8 120

        RSEG NEAR_Z:DATA:ROOT(0)
        REQUIRE `?<Segment init: NEAR_Z>`
??m_auiReceiveMessageBuff:
        DS8 256

        RSEG NEAR_Z:DATA:ROOT(0)
        REQUIRE `?<Segment init: NEAR_Z>`
??m_auiIntermediateBuff:
        DS8 256

        RSEG NEAR_Z:DATA:ROOT(0)
        REQUIRE `?<Segment init: NEAR_Z>`
??m_auiSpiRxBuffer:
        DS8 64

        RSEG NEAR_Z:DATA:ROOT(0)
        REQUIRE `?<Segment init: NEAR_Z>`
??m_auiSpiTxBuffer:
        DS8 64

        RSEG NEAR_Z:DATA:ROOT(0)
        REQUIRE `?<Segment init: NEAR_Z>`
??m_xDeviceConfigSearch:
        DS8 9
??m_xModbusRtuLinkControl:
        DS8 11
??m_apxDrivers:
        DS8 6
??m_apxErrorAlarmDfa:
        DS8 4
??m_axDiscreteOutputControl:
        DS8 16
??m_uiFsmState:
        DS8 1
??m_uiPanelReceipt:
        DS8 1
??m_uiPanelReset:
        DS8 1
??m_uiExternalReceipt:
        DS8 1
??m_uiExternalReset:
        DS8 1
??m_uiModbusReceipt:
        DS8 1
??m_uiModbusReset:
        DS8 1
??m_uiDiscreteSignalsReceipt:
        DS8 1
??m_uiDiscreteSignalsReset:
        DS8 1
??m_uiErrorCode:
        DS8 1
??m_uiModuleIndex:
        DS8 1
??m_uiCommonAlarmType:
        DS8 1
??m_uiCommonAlarmTypePrevious:
        DS8 1
??m_auiErrorAlarmDataArray:
        DS8 2
??m_xReceiptKey:
        DS8 15
??m_xResetKey:
        DS8 15
??m_xCheckKey:
        DS8 15
??m_xExternalKey:
        DS8 15
??m_xEventUniteLogicAndOne:
        DS8 14
??m_xMainCycleTimer:
        DS8 6
??m_xPreventiveAlarmWindowNotifyerControl:
        DS8 12
??m_xEmergencyAlarmWindowNotifyerControl:
        DS8 12
??m_xStatusLedNotifyerControl:
        DS8 12
??m_xBuzzerNotifyerControl:
        DS8 12
??m_xDiscreteOutputDataBase:
        DS8 24

        RSEG NEAR_Z:DATA:ROOT(0)
        REQUIRE `?<Segment init: NEAR_Z>`
??m_uiType:
        DS8 1

        RSEG NEAR_Z:DATA:ROOT(0)
        REQUIRE `?<Segment init: NEAR_Z>`
??m_xUart1:
        DS8 47

        RSEG NEAR_Z:DATA:ROOT(0)
        REQUIRE `?<Segment init: NEAR_Z>`
?_1:
        DS8 2

        RSEG NEAR_Z:DATA:ROOT(0)
        REQUIRE `?<Segment init: NEAR_Z>`
??m_xModbusRtuOne:
        DS8 49

        RSEG NEAR_Z:DATA:ROOT(0)
        REQUIRE `?<Segment init: NEAR_Z>`
?_3:
        DS8 2

        RSEG NEAR_Z:DATA:ROOT(0)
        REQUIRE `?<Segment init: NEAR_Z>`
?_5:
        DS8 2

        RSEG NEAR_Z:DATA:ROOT(0)
        REQUIRE `?<Segment init: NEAR_Z>`
?_7:
        DS8 2

        RSEG NEAR_Z:DATA:ROOT(0)
        REQUIRE `?<Segment init: NEAR_Z>`
?_9:
        DS8 2

        RSEG NEAR_Z:DATA:ROOT(0)
        REQUIRE `?<Segment init: NEAR_Z>`
?_11:
        DS8 2

        RSEG NEAR_Z:DATA:ROOT(0)
        REQUIRE `?<Segment init: NEAR_Z>`
?_13:
        DS8 2

        RSEG NEAR_Z:DATA:ROOT(0)
        REQUIRE `?<Segment init: NEAR_Z>`
?_15:
        DS8 2

        RSEG NEAR_Z:DATA:ROOT(0)
        REQUIRE `?<Segment init: NEAR_Z>`
?_17:
        DS8 2

        RSEG NEAR_Z:DATA:ROOT(0)
        REQUIRE `?<Segment init: NEAR_Z>`
?_19:
        DS8 2

        RSEG NEAR_Z:DATA:ROOT(0)
        REQUIRE `?<Segment init: NEAR_Z>`
?_21:
        DS8 2

        RSEG NEAR_Z:DATA:ROOT(0)
        REQUIRE `?<Segment init: NEAR_Z>`
?_23:
        DS8 2

        RSEG NEAR_Z:DATA:ROOT(0)
        REQUIRE `?<Segment init: NEAR_Z>`
?_25:
        DS8 2

        RSEG NEAR_Z:DATA:ROOT(0)
        REQUIRE `?<Segment init: NEAR_Z>`
??m_apxAlarmDfa:
        DS8 192

        RSEG NEAR_I:DATA:ROOT(0)
        REQUIRE `?<Segment init: NEAR_I>`
?_0:
        DS8 6
        REQUIRE `?<Initializer for >`
        DS8 6
        REQUIRE `?<Initializer for >_1`
        DS8 6
        REQUIRE `?<Initializer for >_2`
        DS8 6
        REQUIRE `?<Initializer for >_3`
        DS8 6
        REQUIRE `?<Initializer for >_4`
        DS8 6
        REQUIRE `?<Initializer for >_5`
        DS8 6
        REQUIRE `?<Initializer for >_6`
        DS8 6
        REQUIRE `?<Initializer for >_7`
        DS8 6
        REQUIRE `?<Initializer for >_8`
        DS8 6
        REQUIRE `?<Initializer for >_9`
        DS8 6
        REQUIRE `?<Initializer for >_10`
        DS8 6
        REQUIRE `?<Initializer for >_11`
        DS8 6
        REQUIRE `?<Initializer for >_12`
        DS8 6
        REQUIRE `?<Initializer for >_13`

        RSEG NEAR_Z:DATA:ROOT(0)
        REQUIRE `?<Segment init: NEAR_Z>`
??m_axAlarmWindowControl:
        DS8 288

        RSEG NEAR_Z:DATA:ROOT(0)
        REQUIRE `?<Segment init: NEAR_Z>`
?_27:
        DS8 2

        RSEG NEAR_F:CODE:ROOT(0)
        DC8 0, 0, 0, 0
//   88 

        RSEG NEAR_F:CODE:ROOT(0)
//   89 __flash uint8_t CPss21::m_auiErrorLedOn[] =
??m_auiErrorLedOn:
        DC8 1, 1, 1, 1, 1, 1, 1, 1, 1, 0, 0, 0, 0, 0, 0, 1, 1, 0, 0, 0, 0, 0, 0
        DC8 1, 1, 0, 0, 0, 0, 0, 0, 1, 1, 0, 0, 0, 0, 0, 0, 1, 1, 1, 1, 1, 1, 1
        DC8 1, 1

        RSEG CODE:CODE:NOROOT(1)
?Subroutine18:
        LDI     R18, 2
        REQUIRE ?Subroutine78
        ;               // Fall through to label ?Subroutine78

        RSEG CODE:CODE:NOROOT(1)
?Subroutine78:
        LDI     R19, 0
        RET

        RSEG CODE:CODE:NOROOT(1)
`?<Unnamed 7>`:
        RCALL   ?Subroutine18
??CrossCallReturnLabel_148:
        JMP     `?~CStatusLedNotifyerControl`

        RSEG CODE:CODE:NOROOT(1)
`?<Unnamed 8>`:
        RCALL   ?Subroutine18
??CrossCallReturnLabel_149:
        JMP     `?~CBuzzerNotifyerControl`

        RSEG CODE:CODE:NOROOT(1)
`?<Unnamed 9>`:
        RCALL   ?Subroutine18
??CrossCallReturnLabel_150:
        JMP     `?~CModbusRtuLinkControl`

        RSEG CODE:CODE:NOROOT(1)
`?<Unnamed 10>`:
        LDI     R22, LOW(`?<Unnamed 11>`/2)
        LDI     R23, (`?<Unnamed 11>`/2) >> 8
        RCALL   ?Subroutine16
??CrossCallReturnLabel_126:
        JMP     __near_vec_destroy

        RSEG CODE:CODE:NOROOT(1)
?Subroutine16:
        LDI     R20, 6
        LDI     R21, 0
        LDI     R18, 48
        LDI     R19, 0
        REQUIRE ?Subroutine73
        ;               // Fall through to label ?Subroutine73

        RSEG CODE:CODE:NOROOT(1)
?Subroutine73:
        LDI     R16, LOW(??m_axAlarmWindowControl)
        LDI     R17, (??m_axAlarmWindowControl) >> 8
        RET

        RSEG CODE:CODE:NOROOT(1)
`?<Unnamed 11>`:
        RCALL   ?Subroutine18
??CrossCallReturnLabel_151:
        JMP     `?~CAlarmWindow`
//   90 {
//   91     1, 1, 1, 1,    1, 1, 1, 1,
//   92     1, 0, 0, 0,    0, 0, 0, 1,
//   93     1, 0, 0, 0,    0, 0, 0, 1,
//   94     1, 0, 0, 0,    0, 0, 0, 1,
//   95     1, 0, 0, 0,    0, 0, 0, 1,
//   96     1, 1, 1, 1,    1, 1, 1, 1,
//   97 };
//   98 
//   99 ////-----------------------------------------------------------------------------------------------------
//  100 //CPss21::CPss21(uint8_t uiType, CDriver* pxDriver)// :
//  101 ////    m_uiType(uiType),
//  102 ////    m_pxDriver(pxDriver)
//  103 //{
//  104 //
//  105 //}
//  106 //
//  107 ////-----------------------------------------------------------------------------------------------------
//  108 //CPss21::~CPss21()
//  109 //{
//  110 //
//  111 //}
//  112 
//  113 //-----------------------------------------------------------------------------------------------------

        RSEG CODE:CODE:NOROOT(1)
//  114 void CPss21::ModbusInit(void)
??ModbusInit:
//  115 {
        ST      -Y, R27
        ST      -Y, R26
//  116     CPlatform::m_pxUart1 = &m_xUart1;
        LDI     R16, LOW(??m_xUart1)
        LDI     R17, (??m_xUart1) >> 8
        LDI     R30, LOW(??m_pxUart1)
        LDI     R31, (??m_pxUart1) >> 8
        ST      Z, R16
        STD     Z+1, R17
//  117     m_xModbusRtuOne.Init(CPlatform::m_pxUart1,
//  118                          static_cast<uint32_t>((F_CPU / ((CPss21::m_xModbusSettings.BaudRate) + 1)) / 16UL),
//  119                          'N',
//  120                          8,
//  121                          1,
//  122                          CPss21::m_auiReceiveMessageBuff,
//  123                          CPss21::m_auiReceiveMessageBuff,//reinterpret_cast<uint8_t*>(CPss21::m_aucRtuHoldingRegistersArray),//m_auiTransmitMessageBuff,//
//  124                          CPss21::m_aucRtuDiscreteDataArray,//CPss21::m_aucRtuCoilsArray,
//  125                          CPss21::m_aucRtuDiscreteDataArray,//CPss21::m_aucRtuDiscreteInputsArray,
//  126                          CPss21::m_aucRtuHoldingRegistersArray,
//  127                          CPss21::m_aucRtuInputRegistersArray,
//  128                          DISCRETE_DATA_ARRAY_LENGTH,
//  129                          DISCRETE_DATA_ARRAY_LENGTH,
//  130                          HOLDING_REGISTERS_ARRAY_LENGTH,
//  131                          INPUT_REGISTERS_ARRAY_LENGTH);
        LDI     R16, 8
        LDI     R17, 0
        RCALL   ?Subroutine2
??CrossCallReturnLabel_100:
        LDI     R16, 120
        RCALL   ?Subroutine2
??CrossCallReturnLabel_101:
        LDI     R16, LOW((??m_xDeviceConfiguration + 51))
        LDI     R17, HIGH((??m_xDeviceConfiguration + 51))
        RCALL   ?Subroutine75
??CrossCallReturnLabel_98:
        LDI     R16, LOW((??m_xDeviceConfiguration + 35))
        LDI     R17, HIGH((??m_xDeviceConfiguration + 35))
        RCALL   ?Subroutine75
??CrossCallReturnLabel_99:
        LDI     R16, LOW(??m_aucRtuDiscreteDataArray)
        LDI     R17, (??m_aucRtuDiscreteDataArray) >> 8
        RCALL   ?Subroutine2
??CrossCallReturnLabel_102:
        LDI     R16, LOW(??m_auiReceiveMessageBuff)
        LDI     R17, (??m_auiReceiveMessageBuff) >> 8
        RCALL   ?Subroutine2
??CrossCallReturnLabel_103:
        LDI     R16, 1
        ST      -Y, R16
        LDI     R16, 8
        ST      -Y, R16
        LDI     R16, 78
        ST      -Y, R16
        LDS     R20, (??m_xDeviceConfiguration + 21)
        LDI     R21, 0
        SUBI    R20, 255
        SBCI    R21, 255
        MOV     R22, R21
        LSL     R22
        SBC     R22, R22
        MOV     R23, R22
        LDI     R16, 0
        LDI     R17, 128
        LDI     R18, 112
        LDI     R19, 0
        CALL    ?UL_DIVMOD_L03
        LDI     R20, 4
        CALL    ?UL_SHR_L03
        MOVW    R21:R20, R17:R16
        MOVW    R23:R22, R19:R18
        LDI     R18, LOW(??m_xUart1)
        LDI     R19, (??m_xUart1) >> 8
        LDI     R16, LOW(??m_xModbusRtuOne)
        LDI     R17, (??m_xModbusRtuOne) >> 8
        CALL    ??Init_1
//  132     m_xModbusRtuOne.SlaveSet(CPss21::m_xModbusSettings.NetAddress);
        LDS     R18, (??m_xDeviceConfiguration + 20)
        LDI     R30, LOW(??m_xModbusRtuOne)
        LDI     R31, (??m_xModbusRtuOne) >> 8
        LDD     R16, Z+13
        LDD     R17, Z+14
        CALL    ??SlaveSet
//  133     m_xModbusRtuOne.SetFsmState(CModbus::START_REQUEST);
        LDI     R26, LOW((??m_xModbusRtuOne + 13))
        LDI     R27, HIGH((??m_xModbusRtuOne + 13))
        RCALL   ??Subroutine93_0
??CrossCallReturnLabel_158:
        LDI     R16, 2
        ST      Z, R16
//  134 }
        REQUIRE ?Subroutine74
        ;               // Fall through to label ?Subroutine74

        RSEG CODE:CODE:NOROOT(1)
?Subroutine74:
        LD      R26, Y+
        LD      R27, Y+
        RET

        RSEG CODE:CODE:NOROOT(1)
?Subroutine75:
        ST      -Y, R17
        ST      -Y, R16
        RET

        RSEG CODE:CODE:NOROOT(1)
?Subroutine2:
        ST      -Y, R17
        ST      -Y, R16
        RJMP    ?Subroutine75
//  135 
//  136 //-----------------------------------------------------------------------------------------------------

        RSEG CODE:CODE:NOROOT(1)
//  137 void CPss21::ModbusDefaultInit(void)
??ModbusDefaultInit:
//  138 {
//  139     CPss21::m_xModbusSettings.NetAddress = 1;
        LDI     R30, LOW(??m_xDeviceConfiguration)
        LDI     R31, (??m_xDeviceConfiguration) >> 8
        LDI     R16, 1
        STD     Z+20, R16
//  140     // 9600 baud.
//  141     CPss21::m_xModbusSettings.BaudRate = 47;
        LDI     R16, 47
        STD     Z+21, R16
//  142     // Два стоп бита.
//  143     CPss21::m_xModbusSettings.LinkParam = 0x08;
        LDI     R16, 8
        STD     Z+22, R16
//  144 
//  145     ModbusInit();
        RJMP    ??ModbusInit
//  146 }

        RSEG CODE:CODE:NOROOT(1)
??AllAlarmWindowOff:
        RCALL   ??Subroutine98_0
??CrossCallReturnLabel_189:
        MOV     R16, R18
        RCALL   ?Subroutine20
??CrossCallReturnLabel_10:
        RCALL   ??Subroutine99_0
??CrossCallReturnLabel_194:
        BRNE    ??CrossCallReturnLabel_189
        RJMP    ?Subroutine85
//  147 
//  148 //-----------------------------------------------------------------------------------------------------

        RSEG CODE:CODE:NOROOT(1)
//  149 void CPss21::Init(void)
??Init:
//  150 {
//  151     CLightBoard::Init(m_axAlarmWindowControl);
        RCALL   ?Subroutine73
??CrossCallReturnLabel_124:
        CALL    ??Init_2
//  152     m_uiCommonAlarmType = NORMAL;
        RCALL   ?Subroutine65
??CrossCallReturnLabel_62:
        LDI     R16, 0
        STD     Z+57, R16
//  153     m_uiCommonAlarmTypePrevious = NORMAL;
        STD     Z+58, R16
//  154     SetErrorCode(0);
        STD     Z+55, R16
//  155     // Сбросим все ошибки.
//  156     memset(CPss21::m_auiErrorAlarmDataArray, 0, HANDLED_ERROR_NUMBER);
        LDI     R20, 2
        RCALL   ?Subroutine4
??CrossCallReturnLabel_154:
        LDI     R16, LOW((??m_xDeviceConfigSearch + 59))
        LDI     R17, HIGH((??m_xDeviceConfigSearch + 59))
        RCALL   ?Subroutine34
//  157     CPss21::AllAlarmWindowOff();
??CrossCallReturnLabel_24:
        RJMP    ??AllAlarmWindowOff
//  158 }
//  159 
//  160 //-----------------------------------------------------------------------------------------------------

        RSEG CODE:CODE:NOROOT(1)
//  161 void CPss21::AddressBusInit(void)
??AddressBusInit:
//  162 {
//  163     CPlatform::SpiSlaveSelectAddress0SetPinOutput();
        SBI     0x11, 0x07
//  164     CPlatform::SpiSlaveSelectAddress1SetPinOutput();
        SBI     0x11, 0x06
//  165     CPlatform::SpiSlaveSelectAddress2SetPinOutput();
        SBI     0x11, 0x05
//  166     CPlatform::SpiSlaveSelectAddress3SetPinOutput();
        SBI     0x11, 0x04
//  167     CPlatform::SpiSlaveSelectEnableSetPinOutput();
        SBI     0x11, 0x01
//  168     CPlatform::SpiSlaveSelectAddress0On();
        SBI     0x12, 0x07
//  169     CPlatform::SpiSlaveSelectAddress1On();
        SBI     0x12, 0x06
//  170     CPlatform::SpiSlaveSelectAddress2On();
        SBI     0x12, 0x05
//  171     CPlatform::SpiSlaveSelectAddress3On();
        SBI     0x12, 0x04
//  172     CPlatform::SpiSlaveSelectEnableOff();
        CBI     0x12, 0x01
//  173 };
        RET
        REQUIRE _A_DDRD
        REQUIRE _A_PORTD
//  174 
//  175 //-----------------------------------------------------------------------------------------------------

        RSEG CODE:CODE:NOROOT(1)
//  176 void CPss21::ConnectDevice(uint8_t uiAddress)
??ConnectDevice:
//  177 {
//  178     uiAddress &= 0x0F;
//  179 
//  180     if (uiAddress &  BIT(0))
        BST     R16, 0
        BRTC    ??ConnectDevice_1
//  181     {
//  182         CPlatform::SpiSlaveSelectAddress0Off();
        CBI     0x12, 0x07
//  183     }
        RJMP    ??ConnectDevice_2
//  184     else
//  185     {
//  186         CPlatform::SpiSlaveSelectAddress0On();
??ConnectDevice_1:
        SBI     0x12, 0x07
//  187     }
//  188     if (uiAddress &  BIT(1))
??ConnectDevice_2:
        BST     R16, 1
        BRTC    ??ConnectDevice_3
//  189     {
//  190         CPlatform::SpiSlaveSelectAddress1Off();
        CBI     0x12, 0x06
//  191     }
        RJMP    ??ConnectDevice_4
//  192     else
//  193     {
//  194         CPlatform::SpiSlaveSelectAddress1On();
??ConnectDevice_3:
        SBI     0x12, 0x06
//  195     }
//  196     if (uiAddress &  BIT(2))
??ConnectDevice_4:
        BST     R16, 2
        BRTC    ??ConnectDevice_5
//  197     {
//  198         CPlatform::SpiSlaveSelectAddress2Off();
        CBI     0x12, 0x05
//  199     }
        RJMP    ??ConnectDevice_6
//  200     else
//  201     {
//  202         CPlatform::SpiSlaveSelectAddress2On();
??ConnectDevice_5:
        SBI     0x12, 0x05
//  203     }
//  204     if (uiAddress &  BIT(3))
??ConnectDevice_6:
        BST     R16, 3
        BRTC    ??ConnectDevice_7
//  205     {
//  206         CPlatform::SpiSlaveSelectAddress3Off();
        CBI     0x12, 0x04
//  207     }
        RJMP    ??ConnectDevice_8
//  208     else
//  209     {
//  210         CPlatform::SpiSlaveSelectAddress3On();
??ConnectDevice_7:
        SBI     0x12, 0x04
//  211     }
//  212 
//  213     CPlatform::SpiSlaveSelectEnableOn();
??ConnectDevice_8:
        SBI     0x12, 0x01
//  214     CSpi::Enable();
        JMP     ??Enable
        REQUIRE _A_PORTD
//  215 };
//  216 
//  217 //-----------------------------------------------------------------------------------------------------

        RSEG CODE:CODE:NOROOT(1)
//  218 void CPss21::DisconnectDevice(void)
??DisconnectDevice:
//  219 {
//  220     CSpi::Disable();
        CALL    ??Disable
//  221     CPlatform::SpiSlaveSelectEnableOff();
        CBI     0x12, 0x01
//  222     CPlatform::SpiSlaveSelectAddress0Off();
        CBI     0x12, 0x07
//  223     CPlatform::SpiSlaveSelectAddress1Off();
        CBI     0x12, 0x06
//  224     CPlatform::SpiSlaveSelectAddress2Off();
        CBI     0x12, 0x05
//  225     CPlatform::SpiSlaveSelectAddress3Off();
        CBI     0x12, 0x04
//  226 };
        RET
        REQUIRE _A_PORTD
//  227 
//  228 //-----------------------------------------------------------------------------------------------------

        RSEG CODE:CODE:NOROOT(1)
//  229 void CPss21::SearchModules(void)
??SearchModules:
//  230 {
        CALL    ?PROLOGUE5_L09
        REQUIRE ?Register_R4_is_cg_reg
//  231     delay_ms(500);
        LDI     R16, 244
        LDI     R17, 1
        CALL    ??delay_ms
//  232     CPlatform::WatchdogReset();
        WDR
//  233 
//  234     memset(reinterpret_cast<uint8_t*>(&m_xDeviceConfigSearch),
//  235            0,
//  236            sizeof(struct TConfigDataPackOne));
        LDI     R20, 9
        RCALL   ?Subroutine4
??CrossCallReturnLabel_155:
        LDI     R16, LOW(??m_xDeviceConfigSearch)
        LDI     R17, (??m_xDeviceConfigSearch) >> 8
        RCALL   ?Subroutine34
//  237 
//  238     // опросим интерфейс SPI. какие модули присутствуют?
//  239     for (uint8_t i = 0; i < SPI_MAX_BUS_ADDRESS; i++)
??CrossCallReturnLabel_23:
        LDI     R24, 0
        LDI     R25, 16
        LDI     R26, LOW(??m_xDeviceConfigSearch)
        LDI     R27, (??m_xDeviceConfigSearch) >> 8
//  240     {
//  241         // если модуль не ответил MODULE_REQUEST_QUANTITY раз,
//  242         // то его нет или он неисправен.
//  243         for (uint8_t j = 0; j < MODULE_REQUEST_QUANTITY; j++)
??SearchModules_1:
        LDI     R16, 5
        MOV     R4, R16
//  244         {
//  245             CPlatform::WatchdogReset();
??SearchModules_2:
        WDR
//  246             delay_ms(5);
//  247 
//  248             m_auiSpiTxBuffer[0] = GET_MODULE_TYPE_COMMAND;
//  249             ConnectDevice(i);
//  250             delay_us(500);
//  251             CSpi::Exchange(m_auiSpiRxBuffer,
//  252                            m_auiSpiTxBuffer,
//  253                            GET_MODULE_TYPE_REQUEST_LENGTH);
//  254             DisconnectDevice();
//  255 
//  256             // модуль отвечает?
//  257             if (m_auiSpiRxBuffer[SPI_COMMAND_BYTE_OFFSET] ==
//  258                     GET_MODULE_TYPE_COMMAND)
//  259             {
//  260                 // обмен данными прошёл без ошибок?
//  261                 if (iCrcSummOneByteCompare(&m_auiSpiRxBuffer[SPI_COMMAND_BYTE_OFFSET], 2))
//  262                 {
//  263                     // сохраним тип модуля в массиве для упорядочивания следования модулей при поиске на SPI.
//  264                     m_xDeviceConfigSearch.axModulesContext[m_xDeviceConfigSearch.uiModulesQuantity].uiType =
//  265                         m_auiSpiRxBuffer[MODULE_TYPE_OFFSET];
//  266                     // сохраним адрес модуля в массиве для упорядочивания следования модулей при поиске на SPI.
//  267                     m_xDeviceConfigSearch.axModulesContext[m_xDeviceConfigSearch.uiModulesQuantity].uiAddress = i;
//  268                     // модуль присутствует. увеличим значение переменной -
//  269                     // фактическое количество модулей в системе.
//  270                     (m_xDeviceConfigSearch.uiModulesQuantity)++;
//  271 
//  272                     if (m_xDeviceConfigSearch.uiModulesQuantity >=
//  273                             INTERNAL_MODULE_QUANTITY)
//  274                     {
//  275                         return;
//  276                     }
//  277                     // перейдём к опросу следующего адреса.
//  278                     break;
//  279                 }
//  280             }
//  281         }
//  282     }
        LDI     R16, 5
        LDI     R17, 0
        CALL    ??delay_ms
        LDI     R16, 145
        STS     ??m_auiSpiTxBuffer, R16
        MOV     R16, R24
        RCALL   ?Subroutine36
??CrossCallReturnLabel_29:
        LDI     R20, 4
        RCALL   ?Subroutine19
??CrossCallReturnLabel_9:
        LDS     R16, (??m_auiSpiRxBuffer + 1)
        CPI     R16, 145
        BRNE    ??SearchModules_3
        RCALL   ?Subroutine18
??CrossCallReturnLabel_152:
        LDI     R16, LOW((??m_auiSpiRxBuffer + 1))
        LDI     R17, HIGH((??m_auiSpiRxBuffer + 1))
        CALL    ??iCrcSummOneByteCompare
        OR      R16, R17
        BREQ    ??SearchModules_3
        LDS     R16, (??m_auiSpiRxBuffer + 2)
        LDS     R17, ??m_xDeviceConfigSearch
        LDI     R18, 2
        MUL     R17, R18
        MOVW    R31:R30, R27:R26
        ADD     R30, R0
        ADC     R31, R1
        STD     Z+1, R16
        LDS     R16, ??m_xDeviceConfigSearch
        MUL     R16, R18
        MOVW    R31:R30, R27:R26
        ADD     R30, R0
        ADC     R31, R1
        STD     Z+2, R24
        LD      R16, X
        INC     R16
        ST      X, R16
        CPI     R16, 3
        BRCS    ??SearchModules_4
        RJMP    ??SearchModules_5
??SearchModules_3:
        DEC     R4
        BRNE    ??SearchModules_2
??SearchModules_4:
        INC     R24
        DEC     R25
        BRNE    ??SearchModules_1
//  283 
//  284     if(m_xDeviceConfiguration.FixConfig)
        LDS     R16, (??m_xDeviceConfiguration + 3)
        SBRS    R16, 0
        RJMP    ??SearchModules_5
//  285     {
//  286         // Предыдущая сохранённая и текущая конфигурации не совпадают?
//  287         if((m_xDeviceConfiguration.ICount != m_xDeviceConfigSearch.uiDiscreteInputQuantity) ||
//  288                 (m_xDeviceConfiguration.OCount != m_xDeviceConfigSearch.uiDiscreteOutputQuantity))
        LDS     R16, ??m_xDeviceConfiguration
        LDS     R17, (??m_xDeviceConfigSearch + 8)
        CP      R16, R17
        BRNE    ??SearchModules_6
        LDS     R16, (??m_xDeviceConfiguration + 1)
        LDS     R17, (??m_xDeviceConfigSearch + 7)
        CP      R16, R17
        BREQ    ??SearchModules_5
//  289         {
//  290             SetErrorCode(CFG_ERROR);
??SearchModules_6:
        LDI     R16, 3
        STS     (??m_xDeviceConfigSearch + 55), R16
//  291         }
//  292     }
//  293 };
??SearchModules_5:
        REQUIRE ?Subroutine86
        ;               // Fall through to label ?Subroutine86

        RSEG CODE:CODE:NOROOT(1)
?Subroutine86:
        LDI     R30, 5
        JMP     ?EPILOGUE_B5_L09

        RSEG CODE:CODE:NOROOT(1)
?Subroutine4:
        LDI     R21, 0
        REQUIRE ??Subroutine92_0
        ;               // Fall through to label ??Subroutine92_0

        RSEG CODE:CODE:NOROOT(1)
??Subroutine92_0:
        LDI     R18, 0
        RJMP    ?Subroutine78
//  294 
//  295 //-----------------------------------------------------------------------------------------------------

        RSEG CODE:CODE:NOROOT(1)
//  296 void CPss21::InitAllocationContext(TMemoryAllocationConext &xMemoryAllocationConext)
??InitAllocationContext:
//  297 {
//  298     // Подготовим к отправке текущие адреса объектов системы используемых драйверами устройств.
//  299 
//  300     xMemoryAllocationConext.puiRxBuffer = m_auiSpiRxBuffer;
        LDI     R18, LOW(??m_auiSpiRxBuffer)
        LDI     R19, (??m_auiSpiRxBuffer) >> 8
        MOVW    R31:R30, R17:R16
        STD     Z+1, R18
        STD     Z+2, R19
//  301     xMemoryAllocationConext.puiTxBuffer = m_auiSpiTxBuffer;
        LDI     R18, LOW(??m_auiSpiTxBuffer)
        LDI     R19, (??m_auiSpiTxBuffer) >> 8
        STD     Z+3, R18
        STD     Z+4, R19
//  302     xMemoryAllocationConext.puiErrorCode = &m_uiErrorCode;
        LDI     R18, LOW((??m_xDeviceConfigSearch + 55))
        LDI     R19, HIGH((??m_xDeviceConfigSearch + 55))
        STD     Z+5, R18
        STD     Z+6, R19
//  303 
//  304     // Обнулим общий объём выделенной памяти.
//  305     xMemoryAllocationConext.uiUsedDiscreteInputs = 0;
        LDI     R18, 0
        STD     Z+9, R18
//  306     // Подключим буфер для хранения состояний дискретных входов.
//  307     xMemoryAllocationConext.puiDiscreteInputs =
//  308         &m_aucRtuDiscreteDataArray[DISCRETE_INPUTS_BIT_ARRAY_OFFSET];
        LDI     R18, LOW((??m_aucRtuDiscreteDataArray + 16))
        LDI     R19, HIGH((??m_aucRtuDiscreteDataArray + 16))
        STD     Z+7, R18
        STD     Z+8, R19
//  309 
//  310     // Обнулим общий объём выделенной памяти.
//  311     xMemoryAllocationConext.uiUsedDiscreteOutputState = 0;
        LDI     R18, 0
        STD     Z+12, R18
//  312     // Подключим буфер для хранения состояний дискретных выходов.
//  313     xMemoryAllocationConext.puiDiscreteOutputState =
//  314         &m_aucRtuDiscreteDataArray[DISCRETE_OUTPUT_BIT_ARRAY_OFFSET];
        LDI     R18, LOW((??m_aucRtuDiscreteDataArray + 112))
        LDI     R19, HIGH((??m_aucRtuDiscreteDataArray + 112))
        STD     Z+10, R18
        STD     Z+11, R19
//  315 
//  316     // Обнулим общий объём выделенной памяти.
//  317     xMemoryAllocationConext.uiUsedDiscreteOutputs = 0;
        LDI     R18, 0
        STD     Z+15, R18
//  318     // Подключим буфер для управления дискретными выходами.
//  319     xMemoryAllocationConext.pxDiscreteOutputControl = m_axDiscreteOutputControl;
        LDI     R18, LOW((??m_xDeviceConfigSearch + 30))
        LDI     R19, HIGH((??m_xDeviceConfigSearch + 30))
        STD     Z+13, R18
        STD     Z+14, R19
//  320 
//  321     // Обнулим общий объём выделенной памяти.
//  322     xMemoryAllocationConext.uiUsedDiscreteOutputDataBase = 0;
        LDI     R18, 0
        STD     Z+18, R18
//  323     // Подключим буфер с базой данных модулей дискретных выходов.
//  324     xMemoryAllocationConext.pxDiscreteOutputDataBase = &m_xDiscreteOutputDataBase;
        LDI     R18, LOW((??m_xDeviceConfigSearch + 189))
        LDI     R19, HIGH((??m_xDeviceConfigSearch + 189))
        STD     Z+16, R18
        STD     Z+17, R19
//  325 
//  326     // Обнулим общий объём выделенной памяти.
//  327     xMemoryAllocationConext.uiUsedErrorAlarmDataArray = 0;
        LDI     R18, 0
        STD     Z+21, R18
//  328     // Подключим буфер для хранения состояний ошибок.
//  329     xMemoryAllocationConext.puiErrorAlarmDataArray = m_auiErrorAlarmDataArray;
        LDI     R18, LOW((??m_xDeviceConfigSearch + 59))
        LDI     R19, HIGH((??m_xDeviceConfigSearch + 59))
        STD     Z+19, R18
        STD     Z+20, R19
//  330 };
        RET
//  331 
//  332 //-----------------------------------------------------------------------------------------------------

        RSEG CODE:CODE:NOROOT(1)
//  333 void CPss21::CreateDevices(void)
??CreateDevices:
//  334 {
        CALL    ?PROLOGUE5_L09
        REQUIRE ?Register_R4_is_cg_reg
        SBIW    R29:R28, 22
//  335     TMemoryAllocationConext xMemoryAllocationConext;
//  336     InitAllocationContext(xMemoryAllocationConext);
        MOVW    R17:R16, R29:R28
        RCALL   ??InitAllocationContext
//  337 
//  338     for (uint8_t i = 0;
        CLR     R4
        RJMP    ??CreateDevices_1
//  339             i < (m_xDeviceConfigSearch.uiModulesQuantity);
//  340             i++)
//  341     {
//  342         CPlatform::WatchdogReset();
//  343 
//  344         uint8_t uiType = m_xDeviceConfigSearch.axModulesContext[i].uiType;
//  345         switch (uiType)
//  346         {
//  347         case MODULE_TYPE_MVSN:
//  348 //        case MODULE_TYPE_MVDI:
//  349 //        case MODULE_TYPE_MVDS9:
//  350             if (m_xDeviceConfigSearch.uiDiscreteInputQuantity <
//  351                     DISCRETE_INPUT_MODULE_MAX_NUMBER)
//  352             {
//  353 //            m_apxDevices[i] = new CMvsn21;
//  354 //            m_apxDevices[i] -> m_pxDriver = new CMvsn21Driver(uiType);
//  355                 m_apxDrivers[i] = new CMvsn21Driver(uiType);
//  356                 xMemoryAllocationConext.uiAddress = m_xDeviceConfigSearch.axModulesContext[i].uiAddress;
//  357 //            m_apxDevices[i] -> m_pxDriver -> Allocate(xMemoryAllocationConext);
//  358                 m_apxDrivers[i] -> Allocate(xMemoryAllocationConext);
//  359                 m_xDeviceConfigSearch.uiDiscreteInputQuantity += 1;
//  360             }
//  361             break;
//  362 
//  363         case MODULE_TYPE_MVDO5:
//  364             break;
//  365 
//  366         case MODULE_TYPE_MR53:
//  367         case MODULE_TYPE_MR54:
//  368             if (m_xDeviceConfigSearch.uiDiscreteOutputQuantity <
//  369                     DISCRETE_OUTPUT_MODULE_MAX_NUMBER)
??CreateDevices_2:
        LDS     R17, (??m_xDeviceConfigSearch + 7)
        TST     R17
        BRNE    ??CreateDevices_3
//  370             {
//  371 //            m_apxDevices[i] = new CModuleMrXX;
//  372 //            m_apxDevices[i] -> m_pxDriver = new CModuleMrXXDriver(uiType);
//  373                 m_apxDrivers[i] = new CModuleMrXXDriver(uiType);
        CALL    `??new CModuleMrXXDriver`
        RCALL   ?Subroutine28
//  374                 xMemoryAllocationConext.uiAddress = m_xDeviceConfigSearch.axModulesContext[i].uiAddress;
//  375 //            m_apxDevices[i] -> m_pxDriver -> Allocate(xMemoryAllocationConext);
//  376                 m_apxDrivers[i] -> Allocate(xMemoryAllocationConext);
//  377                 m_xDeviceConfigSearch.uiDiscreteOutputQuantity += 1;
//  378             }
??CrossCallReturnLabel_17:
        LDD     R16, Z+7
        INC     R16
        STD     Z+7, R16
??CreateDevices_3:
        INC     R4
??CreateDevices_1:
        LDS     R16, ??m_xDeviceConfigSearch
        CP      R4, R16
        BRCC    ??CreateDevices_4
        WDR
        LDI     R16, 2
        MUL     R4, R16
        RCALL   ?Subroutine63
??CrossCallReturnLabel_58:
        MOVW    R31:R30, R27:R26
        LDD     R16, Z+1
        MOV     R17, R16
        DEC     R17
        BREQ    ??CreateDevices_5
        SUBI    R17, 2
        BREQ    ??CreateDevices_2
        DEC     R17
        BREQ    ??CreateDevices_2
        RJMP    ??CreateDevices_3
??CreateDevices_5:
        LDS     R16, (??m_xDeviceConfigSearch + 8)
        CPI     R16, 2
        BRCC    ??CreateDevices_3
        LDI     R16, 1
        CALL    `??new CMvsn21Driver`
        RCALL   ?Subroutine28
//  379             break;
//  380 
//  381         case MODULE_TYPE_MVI:
//  382             break;
//  383 
//  384         default:
//  385             break;
//  386         }
//  387     }
??CrossCallReturnLabel_16:
        LDD     R16, Z+8
        INC     R16
        STD     Z+8, R16
        RJMP    ??CreateDevices_3
//  388 };
??CreateDevices_4:
        ADIW    R29:R28, 22
        RJMP    ?Subroutine86

        RSEG CODE:CODE:NOROOT(1)
?Subroutine28:
        MOV     R20, R16
        MOVW    R31:R30, R27:R26
        STD     Z+20, R16
        STD     Z+21, R17
        LDD     R16, Z+2
        ST      Y, R16
        MOVW    R19:R18, R29:R28
        MOV     R16, R20
        MOV     R30, R20
        MOV     R31, R17
        LDD     R20, Z+9
        LDD     R31, Z+10
        MOV     R30, R20
        LPM     R20, Z+
        LPM     R31, Z
        MOV     R30, R20
        ICALL
        RJMP    ?Subroutine65
//  389 
//  390 //-----------------------------------------------------------------------------------------------------

        RSEG CODE:CODE:NOROOT(1)
//  391 void CPss21::DestroyDevices(uint8_t uiLength)
??DestroyDevices:
//  392 {
//  393     for (uint16_t i = 0; i < uiLength; i++)
        LDI     R30, 0
        LDI     R31, 0
        LDI     R17, 0
        RJMP    ??DestroyDevices_1
??DestroyDevices_2:
        ADIW    R31:R30, 1
??DestroyDevices_1:
        CP      R30, R16
        CPC     R31, R17
        BRCS    ??DestroyDevices_2
//  394     {
//  395 //        delete m_apxDevices[i];
//  396 //        delete m_apxDrivers[i];
//  397     }
//  398 };
        RET
//  399 
//  400 //-----------------------------------------------------------------------------------------------------

        RSEG CODE:CODE:NOROOT(1)
//  401 uint16_t CPss21::ReportType(uint8_t *puiDestination, uint16_t uiLength)
??ReportType:
//  402 {
//  403     memset(m_auiSpiTxBuffer, 0, 6);
        LDI     R20, 6
        RCALL   ?Subroutine4
??CrossCallReturnLabel_156:
        LDI     R16, LOW(??m_auiSpiTxBuffer)
        LDI     R17, (??m_auiSpiTxBuffer) >> 8
        RCALL   ?Subroutine34
//  404     uint8_t uiLengthLocal = 0;
//  405     m_auiSpiTxBuffer[uiLengthLocal++] = GET_MODULE_TYPE_COMMAND;
??CrossCallReturnLabel_22:
        LDI     R30, LOW(??m_auiSpiTxBuffer)
        LDI     R31, (??m_auiSpiTxBuffer) >> 8
        LDI     R16, 145
        ST      Z, R16
//  406     m_auiSpiTxBuffer[uiLengthLocal++] = 0;
        LDI     R16, 0
        STD     Z+1, R16
//  407     m_auiSpiTxBuffer[uiLengthLocal++] = 0;
        STD     Z+2, R16
//  408     m_auiSpiTxBuffer[uiLengthLocal++] = 0;
        STD     Z+3, R16
//  409     m_auiSpiTxBuffer[uiLengthLocal++] = 0;
        STD     Z+4, R16
//  410 
//  411     ConnectDevice(0);
        RCALL   ?Subroutine36
//  412     delay_us(500);
//  413     CSpi::Exchange(m_auiSpiRxBuffer,
//  414                    m_auiSpiTxBuffer,
//  415                    uiLengthLocal);
??CrossCallReturnLabel_30:
        LDI     R20, 5
        RCALL   ?Subroutine19
//  416     DisconnectDevice();
//  417 
//  418     return 1;
??CrossCallReturnLabel_8:
        LDI     R16, 1
        LDI     R17, 0
        RET
//  419 }

        RSEG CODE:CODE:NOROOT(1)
?Subroutine36:
        RCALL   ??ConnectDevice
        LDI     R16, 106
        LDI     R17, 3
        SUBI    R16, 1
        SBCI    R17, 0
        BRNE    $-4
        RJMP    $+2
        NOP
        RET

        RSEG CODE:CODE:NOROOT(1)
?Subroutine34:
        JMP     memset

        RSEG CODE:CODE:NOROOT(1)
?Subroutine19:
        LDI     R21, 0
        LDI     R18, LOW(??m_auiSpiTxBuffer)
        LDI     R19, (??m_auiSpiTxBuffer) >> 8
        LDI     R16, LOW(??m_auiSpiRxBuffer)
        LDI     R17, (??m_auiSpiRxBuffer) >> 8
        CALL    ??Exchange
        RJMP    ??DisconnectDevice
//  420 
//  421 //-----------------------------------------------------------------------------------------------------

        RSEG CODE:CODE:NOROOT(1)
//  422 void CPss21::SetBytesFromBits(uint8_t *uiDestination,
??SetBytesFromBits:
//  423                               uint8_t *uiSource,
//  424                               uint16_t uiLength)
//  425 {
        RCALL   ?Subroutine41
??CrossCallReturnLabel_37:
        MOVW    R23:R22, R17:R16
        MOVW    R3:R2, R21:R20
//  426     int16_t shift = 0;
        LDI     R26, 0
        LDI     R27, 0
//  427 
//  428     for (int16_t i = 0; i < uiLength; i++)
        RCALL   ?Subroutine35
??CrossCallReturnLabel_25:
        RJMP    ??SetBytesFromBits_1
//  429     {
//  430         uiDestination[i] = uiSource[(i) / 8] & (1 << shift) ? 1 : 0;
??SetBytesFromBits_2:
        LDI     R16, 0
??SetBytesFromBits_3:
        MOVW    R31:R30, R23:R22
        ADD     R30, R24
        ADC     R31, R25
        ST      Z, R16
//  431         /* gcc doesn't like: shift = (++shift) % 8; */
//  432         shift++;
//  433         shift %= 8;
        ADIW    R27:R26, 1
        LDI     R20, 8
        LDI     R21, 0
        MOVW    R17:R16, R27:R26
        CALL    ?SS_DIVMOD_L02
        LDI     R20, 3
        RCALL   ?Subroutine66
??CrossCallReturnLabel_179:
        SUB     R26, R16
        SBC     R27, R17
        ADIW    R25:R24, 1
??SetBytesFromBits_1:
        CP      R24, R2
        CPC     R25, R3
        BRCC    ??SetBytesFromBits_4
        LDI     R20, 8
        LDI     R21, 0
        MOVW    R17:R16, R25:R24
        CALL    ?SS_DIVMOD_L02
        MOVW    R31:R30, R19:R18
        ADD     R30, R16
        ADC     R31, R17
        LD      R21, Z
        MOV     R20, R26
        RCALL   ??Subroutine96_0
//  434     }
??CrossCallReturnLabel_176:
        BREQ    ??SetBytesFromBits_2
        LDI     R16, 1
        RJMP    ??SetBytesFromBits_3
//  435 }
??SetBytesFromBits_4:
        REQUIRE ?Subroutine87
        ;               // Fall through to label ?Subroutine87

        RSEG CODE:CODE:NOROOT(1)
?Subroutine87:
        LDI     R30, 4
        JMP     ?EPILOGUE_B4_L09

        RSEG CODE:CODE:NOROOT(1)
??SendToDevicesModbusReset:
        RCALL   ?Subroutine45
??CrossCallReturnLabel_107:
        RJMP    ??SendToDevicesModbusReset_1
??SendToDevicesModbusReset_2:
        RCALL   ?Subroutine44
??CrossCallReturnLabel_42:
        ADIW    R27:R26, 4
        LDI     R17, 1
        ST      X, R17
        INC     R16
??SendToDevicesModbusReset_1:
        RCALL   ?Subroutine37
??CrossCallReturnLabel_119:
        BRCS    ??SendToDevicesModbusReset_2
        REQUIRE ?Subroutine79
        ;               // Fall through to label ?Subroutine79
//  436 
//  437 //-----------------------------------------------------------------------------------------------------
//  438 void CPss21::ModbusDeviceControl(uint8_t* puiData, uint16_t uiLength, uint16_t uiAddress)
//  439 {
//  440     // Команда - "Квитирование"?
//  441     if (uiAddress == MODBUS_RECEIPT_ADDRESS)
//  442     {
//  443         if (*puiData)
//  444         {
//  445             CPss21::SetModbusReceipt(1);
//  446             SetDiscreteSignalsReceipt(1);
//  447             SendToDevicesModbusReceipt();
//  448         }
//  449     }
//  450     // Команда - "Сброс"?
//  451     else if (uiAddress == MODBUS_RESET_ADDRESS)
//  452     {
//  453         if (*puiData)
//  454         {
//  455             CPss21::SetModbusReset(1);
//  456             SetDiscreteSignalsReset(1);
//  457             SendToDevicesModbusReset();
//  458         }
//  459     }
//  460     // Изменение состояния окон сигнализации?
//  461     else if ((uiAddress >= ALARM_WINDOWS_BIT_ARRAY_OFFSET) &&
//  462              (uiAddress < (ALARM_WINDOWS_BIT_ARRAY_OFFSET +
//  463                            ALARM_WINDOWS_ARRAY_LENGTH)))
//  464     {
//  465         SetBytesFromBits(&m_aucRtuDiscreteDataArray[uiAddress],
//  466                          puiData,
//  467                          uiLength);
//  468         // Сообщим автомату о состоявшемся сеансе связи.
//  469         m_xModbusRtuLinkControl.SetFsmEvent(CModbusRtuLinkControl::LINK_SESSION_HAPPENED_FSM_EVENT);
//  470     }
//  471 ////    // Изменение состояния окон сигнализации?
//  472 //    else if ((uiAddress >= DISCRETE_INPUTS_BIT_ARRAY_OFFSET) &&//debag//
//  473 //             (uiAddress < (ALARM_WINDOWS_BIT_ARRAY_OFFSET +
//  474 //                           ALARM_WINDOWS_ARRAY_LENGTH)))
//  475 //    {
//  476 //        SetBytesFromBits(&m_aucRtuDiscreteDataArray[uiAddress],
//  477 //                         puiData,
//  478 //                         uiLength);
//  479 //        // Сообщим автомату о состоявшемся сеансе связи.
//  480 //        m_xModbusRtuLinkControl.SetFsmEvent(CModbusRtuLinkControl::LINK_SESSION_HAPPENED_FSM_EVENT);
//  481 //    }
//  482 }
//  483 
//  484 //-----------------------------------------------------------------------------------------------------
//  485 void CPss21::ModbusDeviceControl(uint8_t uiData, uint16_t uiAddress)
//  486 {
//  487     ModbusDeviceControl(&uiData, 1, uiAddress);
//  488 }
//  489 
//  490 //-----------------------------------------------------------------------------------------------------
//  491 bool CPss21::ModbusRtuLinkControlIsOn(void)
//  492 {
//  493     if (m_xDeviceConfiguration.MBTimeout != 0)
//  494     {
//  495         return true;
//  496     }
//  497     else
//  498     {
//  499         return false;
//  500     }
//  501 }
//  502 
//  503 //-----------------------------------------------------------------------------------------------------
//  504 uint16_t CPss21::GetTimeoutModbusRtuLinkControl(void)
//  505 {
//  506     return (m_xDeviceConfiguration.MBTimeout * 1000);
//  507 }
//  508 
//  509 //-----------------------------------------------------------------------------------------------------
//  510 bool CPss21::ModbusRtuLinkControlInProgress(void)
//  511 {
//  512     if (m_xDeviceState.ModbusRtuLinkControlInProgress)
//  513     {
//  514         return true;
//  515     }
//  516     else
//  517     {
//  518         return false;
//  519     }
//  520 }
//  521 
//  522 //-----------------------------------------------------------------------------------------------------
//  523 void CPss21::SetModeModbusRtuLinkControlInProgress(bool bData)
//  524 {
//  525     m_xDeviceState.ModbusRtuLinkControlInProgress = bData;
//  526     // Сохраним текущую конфигурацию.
//  527     CDataBase::WriteBlock(reinterpret_cast<uint8_t*>(&m_xDeviceState),
//  528                           TDataBase::DEVICE_STATE);
//  529     // База данных изменена при записи блока.
//  530     // Поставим подтверждающую подпись.
//  531     CDataBase::SignatureCreate();
//  532 }
//  533 
//  534 //-----------------------------------------------------------------------------------------------------

        RSEG CODE:CODE:NOROOT(1)
?Subroutine79:
//  535 void CPss21::SendToDevicesReceipt(void)
//  536 {
//  537     for (uint8_t i = 0;
//  538             i < (m_xDeviceConfigSearch.uiModulesQuantity);
//  539             i++)
//  540     {
//  541         m_apxDrivers[i] -> SetReceipt(1);
//  542     }
//  543 
//  544     // Сообщим автомату о состоявшемся квитировании.
//  545     m_xModbusRtuLinkControl.SetFsmEvent(CModbusRtuLinkControl::RECEIPT_HAPPENED_FSM_EVENT);
//  546 }
//  547 
//  548 //-----------------------------------------------------------------------------------------------------
//  549 void CPss21::SendToDevicesReset(void)
//  550 {
//  551     for (uint8_t i = 0;
//  552             i < (m_xDeviceConfigSearch.uiModulesQuantity);
//  553             i++)
//  554     {
//  555         m_apxDrivers[i] -> SetReset(1);
//  556     }
//  557 }
        MOVW    R27:R26, R19:R18
        RET

        RSEG CODE:CODE:NOROOT(1)
??SendToDevicesModbusReceipt:
        RCALL   ?Subroutine45
??CrossCallReturnLabel_108:
        RJMP    ??SendToDevicesModbusReceipt_1
??SendToDevicesModbusReceipt_2:
        RCALL   ?Subroutine26
??CrossCallReturnLabel_160:
        LDI     R17, 1
        STD     Z+3, R17
        INC     R16
??SendToDevicesModbusReceipt_1:
        RCALL   ?Subroutine37
??CrossCallReturnLabel_120:
        BRCS    ??SendToDevicesModbusReceipt_2
        RJMP    ?Subroutine27

        RSEG CODE:CODE:NOROOT(1)
?Subroutine26:
        LDI     R17, 2
        MUL     R16, R17
        RCALL   ?Subroutine63
??CrossCallReturnLabel_59:
        ADIW    R27:R26, 20
        REQUIRE ??Subroutine93_0
        ;               // Fall through to label ??Subroutine93_0

        RSEG CODE:CODE:NOROOT(1)
??Subroutine93_0:
        LD      R30, X+
        LD      R31, X
        RET

        RSEG CODE:CODE:NOROOT(1)
?Subroutine63:
        LDI     R26, LOW(??m_xDeviceConfigSearch)
        LDI     R27, (??m_xDeviceConfigSearch) >> 8
        ADD     R26, R0
        ADC     R27, R1
        RET

        RSEG CODE:CODE:NOROOT(1)
??ModbusDeviceControl:
        MOVW    R23:R22, R21:R20
        OR      R20, R23
        BRNE    ??ModbusDeviceControl_2
        MOVW    R31:R30, R17:R16
        LD      R16, Z
        TST     R16
        BREQ    ??ModbusDeviceControl_3
        RCALL   ?Subroutine30
??CrossCallReturnLabel_111:
        STD     Z+51, R16
        STD     Z+53, R16
        RJMP    ??SendToDevicesModbusReceipt
??ModbusDeviceControl_2:
        CPI     R22, 1
        LDI     R20, 0
        CPC     R21, R20
        BRNE    ??ModbusDeviceControl_4
        MOVW    R31:R30, R17:R16
        LD      R16, Z
        TST     R16
        BREQ    ??ModbusDeviceControl_3
        RCALL   ?Subroutine30
??CrossCallReturnLabel_112:
        STD     Z+52, R16
        STD     Z+54, R16
        RJMP    ??SendToDevicesModbusReset
??ModbusDeviceControl_4:
        MOV     R30, R22
        MOV     R31, R21
        SUBI    R30, 64
        SBCI    R31, 0
        SBIW    R31:R30, 48
        BRCC    ??ModbusDeviceControl_3
        MOVW    R21:R20, R19:R18
        MOVW    R19:R18, R17:R16
        LDI     R16, LOW(??m_aucRtuDiscreteDataArray)
        LDI     R17, (??m_aucRtuDiscreteDataArray) >> 8
        ADD     R16, R22
        ADC     R17, R23
        RCALL   ??SetBytesFromBits
        LDI     R16, 1
        STS     (??m_xDeviceConfigSearch + 13), R16
??ModbusDeviceControl_3:
        RET

        RSEG CODE:CODE:NOROOT(1)
??ModbusDeviceControl_1:
        SBIW    R29:R28, 1
        ST      Y, R16
        MOVW    R21:R20, R19:R18
        LDI     R18, 1
        LDI     R19, 0
        MOVW    R17:R16, R29:R28
        RCALL   ??ModbusDeviceControl
        ADIW    R29:R28, 1
        RET

        RSEG CODE:CODE:NOROOT(1)
??ModbusRtuLinkControlIsOn:
        LDS     R16, (??m_xDeviceConfiguration + 5)
        TST     R16
        BREQ    ??ModbusRtuLinkControlIsOn_1
        RJMP    ?Subroutine81
??ModbusRtuLinkControlIsOn_1:
        REQUIRE ?Subroutine80
        ;               // Fall through to label ?Subroutine80

        RSEG CODE:CODE:NOROOT(1)
?Subroutine80:
        LDI     R16, 0
        RET

        RSEG CODE:CODE:NOROOT(1)
??GetTimeoutModbusRtuLinkControl:
        LDS     R16, (??m_xDeviceConfiguration + 5)
        LDI     R17, 0
        LDI     R20, 232
        LDI     R21, 3
        REQUIRE ?Subroutine88
        ;               // Fall through to label ?Subroutine88

        RSEG CODE:CODE:NOROOT(1)
?Subroutine88:
        JMP     ?S_EC_MUL_L02

        RSEG CODE:CODE:NOROOT(1)
??ModbusRtuLinkControlInProgress:
        LDS     R16, (??m_xDeviceConfiguration + 27)
        SBRC    R16, 0
        RJMP    ?Subroutine81
??ModbusRtuLinkControlInProgress_1:
        RJMP    ?Subroutine80

        RSEG CODE:CODE:NOROOT(1)
??SetModeModbusRtuLinkControlInProgress:
        LDI     R30, LOW(??m_xDeviceConfiguration)
        LDI     R31, (??m_xDeviceConfiguration) >> 8
        BST     R16, 0
        LDD     R16, Z+27
        BLD     R16, 0
        STD     Z+27, R16
        LDI     R18, 10
        LDI     R16, LOW((??m_xDeviceConfiguration + 27))
        LDI     R17, HIGH((??m_xDeviceConfiguration + 27))
        CALL    ??WriteBlock
        JMP     ??SignatureCreate

        RSEG CODE:CODE:NOROOT(1)
??SendToDevicesReceipt:
        RCALL   ?Subroutine45
??CrossCallReturnLabel_109:
        RJMP    ??SendToDevicesReceipt_1
??SendToDevicesReceipt_2:
        RCALL   ?Subroutine26
??CrossCallReturnLabel_161:
        LDI     R17, 1
        STD     Z+1, R17
        INC     R16
??SendToDevicesReceipt_1:
        RCALL   ?Subroutine37
??CrossCallReturnLabel_121:
        BRCS    ??SendToDevicesReceipt_2
        RJMP    ?Subroutine27

        RSEG CODE:CODE:NOROOT(1)
?Subroutine45:
        MOVW    R19:R18, R27:R26
        RJMP    ?Subroutine80

        RSEG CODE:CODE:NOROOT(1)
?Subroutine37:
        LDS     R17, ??m_xDeviceConfigSearch
        REQUIRE ?Subroutine82
        ;               // Fall through to label ?Subroutine82

        RSEG CODE:CODE:NOROOT(1)
?Subroutine82:
        CP      R16, R17
        RET

        RSEG CODE:CODE:NOROOT(1)
?Subroutine27:
        LDI     R16, 2
        STS     (??m_xDeviceConfigSearch + 13), R16
        RJMP    ?Subroutine79

        RSEG CODE:CODE:NOROOT(1)
??SendToDevicesReset:
        RCALL   ?Subroutine45
??CrossCallReturnLabel_110:
        RJMP    ??SendToDevicesReset_1
??SendToDevicesReset_2:
        RCALL   ?Subroutine44
??CrossCallReturnLabel_43:
        ADIW    R27:R26, 2
        LDI     R17, 1
        ST      X, R17
        INC     R16
??SendToDevicesReset_1:
        RCALL   ?Subroutine37
??CrossCallReturnLabel_122:
        BRCS    ??SendToDevicesReset_2
        RJMP    ?Subroutine79

        RSEG CODE:CODE:NOROOT(1)
?Subroutine44:
        LDI     R17, 2
        MUL     R16, R17
        MOVW    R31:R30, R1:R0
        SUBI    R30, LOW((-(??m_xDeviceConfigSearch) & 0xFFFF))
        SBCI    R31, (-(??m_xDeviceConfigSearch) & 0xFFFF) >> 8
        LDD     R26, Z+20
        LDD     R27, Z+21
        RET
//  558 
//  559 //-----------------------------------------------------------------------------------------------------
//  560 void CPss21::SendToDevicesModbusReceipt(void)
//  561 {
//  562     for (uint8_t i = 0;
//  563             i < (m_xDeviceConfigSearch.uiModulesQuantity);
//  564             i++)
//  565     {
//  566         m_apxDrivers[i] -> SetModbusReceipt(1);
//  567     }
//  568 
//  569     // Сообщим автомату о состоявшемся квитировании.
//  570     m_xModbusRtuLinkControl.SetFsmEvent(CModbusRtuLinkControl::RECEIPT_HAPPENED_FSM_EVENT);
//  571 }
//  572 
//  573 //-----------------------------------------------------------------------------------------------------
//  574 void CPss21::SendToDevicesModbusReset(void)
//  575 {
//  576     for (uint8_t i = 0;
//  577             i < (m_xDeviceConfigSearch.uiModulesQuantity);
//  578             i++)
//  579     {
//  580         m_apxDrivers[i] -> SetModbusReset(1);
//  581     }
//  582 }
//  583 
//  584 //-----------------------------------------------------------------------------------------------------

        RSEG CODE:CODE:NOROOT(1)
//  585 void CPss21::KeyStateProcessing(void)
??KeyStateProcessing:
//  586 {
        ST      -Y, R24
//  587 //    m_xReceiptKey.Fsm();
//  588 //    m_xResetKey.Fsm();
//  589 //    m_xCheckKey.Fsm();
//  590 //    m_xExternalKey.Fsm();
//  591 
//  592     if (m_xReceiptKey.KeyEventHappened(CMultiFunctionKey::KEY_EVENT_PRESSED_PUSH))
        LDI     R18, 2
        RCALL   ?Subroutine11
??CrossCallReturnLabel_75:
        TST     R16
        BREQ    ??CrossCallReturnLabel_174
//  593     {
//  594         SetPanelReceipt(1);
        RCALL   ?Subroutine30
??CrossCallReturnLabel_113:
        STD     Z+47, R16
//  595         SetDiscreteSignalsReceipt(1);
        RCALL   ?Subroutine15
//  596         SendToDevicesReceipt();
//  597         m_xBuzzerNotifyerControl.AlarmSet(BEEP_SIGNAL);
//  598     }
//  599 
//  600     if (m_xResetKey.KeyEventHappened(CMultiFunctionKey::KEY_EVENT_PRESSED_PUSH))
??CrossCallReturnLabel_174:
        LDI     R18, 2
        LDI     R16, LOW((??m_xDeviceConfigSearch + 76))
        LDI     R17, HIGH((??m_xDeviceConfigSearch + 76))
        RCALL   ?Subroutine68
??CrossCallReturnLabel_77:
        TST     R16
        BREQ    ??CrossCallReturnLabel_168
//  601     {
//  602         SetPanelReset(1);
        RCALL   ?Subroutine30
??CrossCallReturnLabel_114:
        STD     Z+48, R16
//  603         SetDiscreteSignalsReset(1);
        RCALL   ?Subroutine46
//  604         SendToDevicesReset();
//  605         m_xBuzzerNotifyerControl.AlarmSet(BEEP_SIGNAL);
??CrossCallReturnLabel_45:
        RCALL   ??Subroutine95_0
//  606     }
//  607 
//  608     if (m_xCheckKey.KeyEventHappened(CMultiFunctionKey::KEY_EVENT_PRESSED_PUSH))
??CrossCallReturnLabel_168:
        LDI     R18, 2
        RCALL   ?Subroutine13
??CrossCallReturnLabel_6:
        TST     R16
        BREQ    ??CrossCallReturnLabel_169
//  609     {
//  610         // Включим режим тестирования.
//  611         SetFsmState(TEST_START);
        RCALL   ?Subroutine47
//  612         m_xBuzzerNotifyerControl.AlarmSet(BEEP_SIGNAL);
??CrossCallReturnLabel_166:
        RCALL   ??Subroutine95_0
//  613     }
//  614 
//  615     if (m_xExternalKey.KeyEventHappened(CMultiFunctionKey::KEY_EVENT_PRESSED_RECEIPT))
??CrossCallReturnLabel_169:
        LDI     R18, 2
        RCALL   ?Subroutine8
??CrossCallReturnLabel_222:
        BREQ    ??CrossCallReturnLabel_175
//  616     {
//  617         SetExternalReceipt(1);
        RCALL   ?Subroutine30
??CrossCallReturnLabel_115:
        STD     Z+49, R16
//  618         SetDiscreteSignalsReceipt(1);
        RCALL   ?Subroutine15
//  619         SendToDevicesReceipt();
//  620         m_xBuzzerNotifyerControl.AlarmSet(BEEP_SIGNAL);
//  621     }
//  622 
//  623     if (m_xExternalKey.KeyEventHappened(CMultiFunctionKey::KEY_EVENT_PRESSED_RESET))
??CrossCallReturnLabel_175:
        LDI     R18, 3
        RCALL   ?Subroutine8
??CrossCallReturnLabel_223:
        BREQ    ??CrossCallReturnLabel_170
//  624     {
//  625         SetExternalReset(1);
        RCALL   ?Subroutine30
??CrossCallReturnLabel_116:
        STD     Z+50, R16
//  626         SetDiscreteSignalsReset(1);
        RCALL   ?Subroutine46
//  627         SendToDevicesReset();
//  628         m_xBuzzerNotifyerControl.AlarmSet(BEEP_SIGNAL);
??CrossCallReturnLabel_44:
        RCALL   ??Subroutine95_0
//  629     }
//  630 
//  631     if (m_xExternalKey.KeyEventHappened(CMultiFunctionKey::KEY_EVENT_PRESSED_CHECK))
??CrossCallReturnLabel_170:
        LDI     R18, 4
        RCALL   ?Subroutine8
??CrossCallReturnLabel_224:
        BREQ    ??CrossCallReturnLabel_171
//  632     {
//  633         // Включим режим тестирования.
//  634         SetFsmState(TEST_START);
        RCALL   ?Subroutine47
//  635         m_xBuzzerNotifyerControl.AlarmSet(BEEP_SIGNAL);
??CrossCallReturnLabel_167:
        RCALL   ??Subroutine95_0
//  636     }
//  637 
//  638     // Кнопки "Квитирование" и "Контроль" нажаты дольше 7 секунд?
//  639     if (m_xEventUniteLogicAndOne.IsHappened((m_xReceiptKey.KeyEventHappened(CMultiFunctionKey::KEY_EVENT_PRESSED_SET_DEFAULT)),
//  640                                             (m_xCheckKey.KeyEventHappened(CMultiFunctionKey::KEY_EVENT_PRESSED_SET_DEFAULT))))
??CrossCallReturnLabel_171:
        LDI     R18, 5
        RCALL   ?Subroutine13
??CrossCallReturnLabel_7:
        MOV     R24, R16
        LDI     R18, 5
        RCALL   ?Subroutine11
??CrossCallReturnLabel_76:
        MOV     R18, R16
        MOV     R19, R24
        LDI     R16, LOW((??m_xDeviceConfigSearch + 121))
        LDI     R17, HIGH((??m_xDeviceConfigSearch + 121))
        CALL    ??IsHappened
        TST     R16
        BREQ    ??CrossCallReturnLabel_172
//  641     {
//  642         // Устанавливаем настройки Modbus по умолчанию на текущую сессию.
//  643         CPss21::ModbusDefaultInit();
        RCALL   ??ModbusDefaultInit
//  644         m_xBuzzerNotifyerControl.AlarmSet(BEEP_SIGNAL);
        RCALL   ??Subroutine95_0
//  645     }
//  646 }
??CrossCallReturnLabel_172:
        REQUIRE ?Subroutine83
        ;               // Fall through to label ?Subroutine83

        RSEG CODE:CODE:NOROOT(1)
?Subroutine83:
        LD      R24, Y+
        RET

        RSEG CODE:CODE:NOROOT(1)
?Subroutine47:
        LDI     R16, 6
        REQUIRE ??Subroutine94_0
        ;               // Fall through to label ??Subroutine94_0

        RSEG CODE:CODE:NOROOT(1)
??Subroutine94_0:
        STS     (??m_xDeviceConfigSearch + 46), R16
        RET

        RSEG CODE:CODE:NOROOT(1)
?Subroutine46:
        STD     Z+54, R16
        RJMP    ??SendToDevicesReset

        RSEG CODE:CODE:NOROOT(1)
?Subroutine30:
        RCALL   ?Subroutine65
??CrossCallReturnLabel_68:
        REQUIRE ?Subroutine81
        ;               // Fall through to label ?Subroutine81

        RSEG CODE:CODE:NOROOT(1)
?Subroutine81:
        LDI     R16, 1
        RET

        RSEG CODE:CODE:NOROOT(1)
?Subroutine15:
        STD     Z+53, R16
        RCALL   ??SendToDevicesReceipt
        REQUIRE ??Subroutine95_0
        ;               // Fall through to label ??Subroutine95_0

        RSEG CODE:CODE:NOROOT(1)
??Subroutine95_0:
        LDI     R18, 7
        RJMP    ?Subroutine60

        RSEG CODE:CODE:NOROOT(1)
?Subroutine13:
        LDI     R16, LOW((??m_xDeviceConfigSearch + 91))
        LDI     R17, HIGH((??m_xDeviceConfigSearch + 91))
        RJMP    ?Subroutine68

        RSEG CODE:CODE:NOROOT(1)
?Subroutine11:
        LDI     R16, LOW((??m_xDeviceConfigSearch + 61))
        LDI     R17, HIGH((??m_xDeviceConfigSearch + 61))
        REQUIRE ?Subroutine68
        ;               // Fall through to label ?Subroutine68

        RSEG CODE:CODE:NOROOT(1)
?Subroutine68:
        JMP     ??KeyEventHappened

        RSEG CODE:CODE:NOROOT(1)
?Subroutine8:
        LDI     R16, LOW((??m_xDeviceConfigSearch + 106))
        LDI     R17, HIGH((??m_xDeviceConfigSearch + 106))
        RCALL   ?Subroutine68
??CrossCallReturnLabel_74:
        REQUIRE ?Subroutine84
        ;               // Fall through to label ?Subroutine84

        RSEG CODE:CODE:NOROOT(1)
?Subroutine84:
        TST     R16
        RET
//  647 
//  648 //-----------------------------------------------------------------------------------------------------

        RSEG CODE:CODE:NOROOT(1)
//  649 void CPss21::ReceiptResetGlobalFlagsClear(void)
??ReceiptResetGlobalFlagsClear:
//  650 {
//  651     SetPanelReceipt(0);
        RCALL   ?Subroutine65
??CrossCallReturnLabel_63:
        LDI     R16, 0
        STD     Z+47, R16
//  652     SetExternalReceipt(0);
        STD     Z+49, R16
//  653     SetModbusReceipt(0);
        STD     Z+51, R16
//  654     SetPanelReset(0);
        STD     Z+48, R16
//  655     SetExternalReset(0);
        STD     Z+50, R16
//  656     SetModbusReset(0);
        STD     Z+52, R16
//  657 }
        RET
//  658 
//  659 //-----------------------------------------------------------------------------------------------------

        RSEG CODE:CODE:NOROOT(1)
//  660 uint8_t CPss21::ModulesInteraction(uint8_t uiModuleIndex)
??ModulesInteraction:
//  661 {
        ST      -Y, R27
        ST      -Y, R26
//  662     if (uiModuleIndex < (m_xDeviceConfigSearch.uiModulesQuantity))
        RCALL   ?Subroutine37
??CrossCallReturnLabel_123:
        BRCC    ??ModulesInteraction_1
        LDI     R17, 2
        MUL     R16, R17
        RCALL   ?Subroutine31
??CrossCallReturnLabel_18:
        LDD     R26, Z+20
        LDD     R27, Z+21
        MOVW    R17:R16, R27:R26
        ADIW    R27:R26, 9
        RCALL   ??Subroutine93_0
??CrossCallReturnLabel_159:
        RCALL   ?Subroutine64
//  663     {
//  664         m_apxDrivers[uiModuleIndex] -> DataExchange();
//  665         return 0;
??CrossCallReturnLabel_61:
        LDI     R16, 0
        RJMP    ??ModulesInteraction_2
//  666     }
//  667     else
//  668     {
//  669         return 1;
??ModulesInteraction_1:
        LDI     R16, 1
//  670     }
??ModulesInteraction_2:
        RJMP    ?Subroutine74
//  671 };
//  672 
//  673 //-----------------------------------------------------------------------------------------------------

        RSEG CODE:CODE:NOROOT(1)
//  674 void CPss21::ConfigurationInit(void)
??ConfigurationInit:
//  675 {
        RCALL   ?Subroutine41
//  676     uint8_t* puiTempBuffer = m_auiIntermediateBuff;
??CrossCallReturnLabel_38:
        LDI     R26, LOW(??m_auiIntermediateBuff)
        LDI     R27, (??m_auiIntermediateBuff) >> 8
//  677     uint8_t* puiAlarmDfaInit = m_auiReceiveMessageBuff;
//  678 
//  679     memset(puiAlarmDfaInit, 0, DISCRETE_SIGNALS_NUMBER);
        LDI     R20, 96
        RCALL   ?Subroutine4
??CrossCallReturnLabel_157:
        LDI     R16, LOW(??m_auiReceiveMessageBuff)
        LDI     R17, (??m_auiReceiveMessageBuff) >> 8
        RCALL   ?Subroutine34
//  680 
//  681     // Установим конфигурацию устройства.
//  682     // Считаем во временный буфер блок БД - "Конфигурация устройства".
//  683     CDataBase::ReadBlock(puiTempBuffer, TDataBase::DEV_CONFIG);
??CrossCallReturnLabel_21:
        LDI     R18, 0
        RCALL   ?Subroutine42
//  684     memcpy(reinterpret_cast<uint8_t*>(&m_xDeviceConfiguration),
//  685            puiTempBuffer,
//  686            sizeof(struct TDevConfig));
??CrossCallReturnLabel_131:
        LDI     R20, 20
        LDI     R21, 0
        MOVW    R19:R18, R27:R26
        LDI     R16, LOW(??m_xDeviceConfiguration)
        LDI     R17, (??m_xDeviceConfiguration) >> 8
        RCALL   ?Subroutine50
//  687 
//  688     // Установим параметры интерфейса ModBus.
//  689     // Считаем во временный буфер блок БД - "Параметры интерфейса ModBus".
//  690     CDataBase::ReadBlock(puiTempBuffer, TDataBase::MODBUS_SET);
??CrossCallReturnLabel_49:
        LDI     R18, 1
        RCALL   ?Subroutine42
//  691     memcpy(reinterpret_cast<uint8_t*>(&m_xModbusSettings),
//  692            puiTempBuffer,
//  693            sizeof(struct TMBusSetting));
??CrossCallReturnLabel_130:
        LDI     R20, 7
        LDI     R21, 0
        MOVW    R19:R18, R27:R26
        LDI     R16, LOW((??m_xDeviceConfiguration + 20))
        LDI     R17, HIGH((??m_xDeviceConfiguration + 20))
        RCALL   ?Subroutine50
//  694 
//  695     // Считаем во временный буфер блок БД - "БД модулей вывода".
//  696     CDataBase::ReadBlock(puiTempBuffer, TDataBase::OUT_BASE);
??CrossCallReturnLabel_48:
        LDI     R18, 5
        RCALL   ?Subroutine42
//  697     memcpy(reinterpret_cast<uint8_t*>(&m_xDiscreteOutputDataBase),
//  698            puiTempBuffer,
//  699            sizeof(struct TOutputData));
??CrossCallReturnLabel_129:
        LDI     R20, 24
        LDI     R21, 0
        MOVW    R19:R18, R27:R26
        LDI     R16, LOW((??m_xDeviceConfigSearch + 189))
        LDI     R17, HIGH((??m_xDeviceConfigSearch + 189))
        RCALL   ?Subroutine50
//  700 
//  701     // Установим уровень дискретного сигнала интерпретируемый как активный.
//  702     // Считаем во временный буфер блок БД - "Уровень дискретного сигнала интерпретируемый как активный".
//  703     CDataBase::ReadBlock(puiTempBuffer, TDataBase::ACTIVITY_LEVEL);
??CrossCallReturnLabel_47:
        LDI     R18, 2
        RCALL   ?Subroutine42
//  704     for (uint8_t i = 0;
??CrossCallReturnLabel_128:
        LDI     R18, 0
//  705             i < DISCRETE_INPUTS_NUMBER;
//  706         )
//  707     {
//  708         uint8_t uiData = *puiTempBuffer;
??ConfigurationInit_1:
        LD      R22, X+
//  709         for (uint8_t j = 0;
        LDI     R21, 0
        LDI     R19, 8
//  710                 j < 8;
//  711                 j++)
//  712         {
//  713             // Установим уровень текущего дискретного сигнала интерпретируемый как активный.
//  714             if (((uiData >> j) & 0x01))
??ConfigurationInit_2:
        LDI     R17, 0
        LDI     R30, LOW(??m_auiReceiveMessageBuff)
        LDI     R31, (??m_auiReceiveMessageBuff) >> 8
        ADD     R30, R18
        ADC     R31, R17
        MOV     R16, R22
        MOV     R20, R21
        CALL    ?SS_SHR_L02
        ANDI    R16, 0x01
        BREQ    ??ConfigurationInit_3
//  715             {
//  716                 puiAlarmDfaInit[i] = 0x80;
        LDI     R16, 128
        RJMP    ??ConfigurationInit_4
//  717             }
//  718             else
//  719             {
//  720                 puiAlarmDfaInit[i] = 0;
??ConfigurationInit_3:
        LDI     R16, 0
??ConfigurationInit_4:
        ST      Z, R16
//  721             }
//  722             i++;
        INC     R18
//  723         }
        INC     R21
        DEC     R19
        BRNE    ??ConfigurationInit_2
//  724         puiTempBuffer++;
//  725     }
        CPI     R18, 48
        BRCS    ??ConfigurationInit_1
//  726 
//  727     puiTempBuffer = m_auiIntermediateBuff;
//  728     // Привяжем окна сигнализации к дискретным сигналам.
//  729     // Считаем во временный буфер блок БД - "Индекс окна сигнализации которое привязано к текущему дискретному сигналу".
//  730     CDataBase::ReadBlock(puiTempBuffer, TDataBase::ALARM_WINDOW_INDEX);
        RCALL   ?Subroutine48
//  731     for (uint8_t i = 0;
??CrossCallReturnLabel_132:
        LDI     R18, 0
        LDI     R16, 96
//  732             i < DISCRETE_SIGNALS_NUMBER;
//  733             i++)
//  734     {
//  735         // Привяжем окно сигнализации к текущему дискретному сигналу.
//  736         puiAlarmDfaInit[i] |= (puiTempBuffer[i] & ~(0x80));
??ConfigurationInit_5:
        MOV     R30, R18
        LDI     R31, 0
        SUBI    R30, LOW((-(??m_auiIntermediateBuff) & 0xFFFF))
        SBCI    R31, (-(??m_auiIntermediateBuff) & 0xFFFF) >> 8
        LD      R17, Z
        ANDI    R17, 0x7F
        MOV     R30, R18
        LDI     R31, 0
        SUBI    R30, LOW((-(??m_auiReceiveMessageBuff) & 0xFFFF))
        SBCI    R31, (-(??m_auiReceiveMessageBuff) & 0xFFFF) >> 8
        LD      R19, Z
        OR      R19, R17
        ST      Z, R19
//  737     }
        INC     R18
        DEC     R16
        BRNE    ??ConfigurationInit_5
//  738 
//  739     // Считаем во временный буфер блок БД - "Тип сигнализации привязанный к окну".
//  740     CDataBase::ReadBlock(puiTempBuffer, TDataBase::ALARM_TYPE);
        LDI     R18, 4
        RCALL   ?Subroutine69
//  741     for (uint8_t i = 0;
??CrossCallReturnLabel_134:
        LDI     R18, 0
        LDI     R17, 96
//  742             i < DISCRETE_SIGNALS_NUMBER;
//  743             i++)
//  744     {
//  745         uint8_t uiWindowIndex = (puiAlarmDfaInit[i] & ~(0x80));
??ConfigurationInit_6:
        LDI     R19, 0
        LDI     R30, LOW(??m_auiReceiveMessageBuff)
        LDI     R31, (??m_auiReceiveMessageBuff) >> 8
        ADD     R30, R18
        ADC     R31, R19
        LD      R19, Z
        MOV     R16, R19
        ANDI    R16, 0x7F
//  746         // Для текущего дискретного сигнала запрограммирована сигнализация?
//  747         if (uiWindowIndex < ALARM_WINDOWS_NUMBER)
        CPI     R16, 48
        ANDI    R19, 0x80
        BRCC    ??ConfigurationInit_7
//  748         {
//  749             // Очистим индекс привязанного окна, больше не нужен.
//  750             // Оставим уровень дискретного сигнала интерпретируемый как активный.
//  751             puiAlarmDfaInit[i] &= 0x80;
//  752             // Установим тип сигнализации по привязанному окну.
//  753             puiAlarmDfaInit[i] |= puiTempBuffer[uiWindowIndex];
        LDI     R27, 0
        SUBI    R16, LOW((-(??m_auiIntermediateBuff) & 0xFFFF))
        MOV     R26, R16
        SBCI    R27, (-(??m_auiIntermediateBuff) & 0xFFFF) >> 8
        LD      R16, X
        OR      R19, R16
//  754         }
//  755         else
//  756         {
//  757             // Очистим индекс привязанного окна, больше не нужен.
//  758             // Оставим уровень дискретного сигнала интерпретируемый как активный.
//  759             puiAlarmDfaInit[i] &= 0x80;
??ConfigurationInit_7:
        ST      Z, R19
//  760         }
//  761     }
        INC     R18
        DEC     R17
        BRNE    ??ConfigurationInit_6
//  762 
//  763     // Создадим объекты автоматов обработки сигнализаций дискретных сигналов.
//  764     for (uint8_t i = 0;
        LDI     R24, 0
        LDI     R25, 96
//  765             i < DISCRETE_SIGNALS_NUMBER;
//  766             i++)
//  767     {
//  768         // Какой тип сигнализации связан с дискретным сигналом?
//  769         switch (puiAlarmDfaInit[i] & 0x03)
??ConfigurationInit_8:
        LDI     R16, 2
        MUL     R24, R16
        LDI     R26, LOW(??m_apxAlarmDfa)
        LDI     R27, (??m_apxAlarmDfa) >> 8
        ADD     R26, R0
        ADC     R27, R1
        LDI     R17, 0
        LDI     R30, LOW(??m_auiReceiveMessageBuff)
        LDI     R31, (??m_auiReceiveMessageBuff) >> 8
        ADD     R30, R24
        ADC     R31, R17
        LD      R16, Z
        ANDI    R16, 0x03
        BREQ    ??ConfigurationInit_9
        DEC     R16
        BREQ    ??ConfigurationInit_10
        DEC     R16
        BREQ    ??ConfigurationInit_11
        DEC     R16
        BREQ    ??ConfigurationInit_12
        RJMP    ??ConfigurationInit_9
//  770         {
//  771         case NORMAL:
//  772             m_apxAlarmDfa[i] = new CNormalAlarmDfa;
//  773             break;
//  774 
//  775         case INDICATION:
//  776             // Уровень дискретного сигнала интерпретируемый как активный - высокий?
//  777             if (puiAlarmDfaInit[i] & 0x80)
??ConfigurationInit_10:
        LD      R16, Z
        SBRS    R16, 7
        RJMP    ??ConfigurationInit_13
//  778             {
//  779                 m_apxAlarmDfa[i] = new CIndicationAlarmHighLevelDfa;
        CALL    `??new CIndicationAlarmHighLevelDfa`
        RJMP    ??ConfigurationInit_14
//  780             }
//  781             else
//  782             {
//  783                 m_apxAlarmDfa[i] = new CIndicationAlarmLowLevelDfa;
??ConfigurationInit_13:
        CALL    `??new CIndicationAlarmLowLevelDfa`
        RJMP    ??ConfigurationInit_14
//  784             }
//  785             break;
//  786 
//  787         case PREVENTIVE:
//  788             // Уровень дискретного сигнала интерпретируемый как активный - высокий?
//  789             if (puiAlarmDfaInit[i] & 0x80)
??ConfigurationInit_11:
        LD      R16, Z
        SBRS    R16, 7
        RJMP    ??ConfigurationInit_15
//  790             {
//  791                 m_apxAlarmDfa[i] = new CPreventiveAlarmHighLevelDfa;
        CALL    `??new CPreventiveAlarmHighLevelDfa`
        RJMP    ??ConfigurationInit_14
//  792             }
//  793             else
//  794             {
//  795                 m_apxAlarmDfa[i] = new CPreventiveAlarmLowLevelDfa;
??ConfigurationInit_15:
        CALL    `??new CPreventiveAlarmLowLevelDfa`
        RJMP    ??ConfigurationInit_14
//  796             }
//  797             break;
//  798 
//  799         case EMERGENCY:
//  800             // Уровень дискретного сигнала интерпретируемый как активный - высокий?
//  801             if (puiAlarmDfaInit[i] & 0x80)
??ConfigurationInit_12:
        LD      R16, Z
        SBRS    R16, 7
        RJMP    ??ConfigurationInit_16
//  802             {
//  803                 m_apxAlarmDfa[i] = new CEmergencyAlarmHighLevelDfa;
        CALL    `??new CEmergencyAlarmHighLevelDfa`
        RJMP    ??ConfigurationInit_14
//  804             }
//  805             else
//  806             {
//  807                 m_apxAlarmDfa[i] = new CEmergencyAlarmLowLevelDfa;
??ConfigurationInit_16:
        CALL    `??new CEmergencyAlarmLowLevelDfa`
        RJMP    ??ConfigurationInit_14
//  808             }
//  809             break;
//  810 
//  811         case IND_PREVENTIVE:
//  812             m_apxAlarmDfa[i] = new CNormalAlarmDfa;
//  813             break;
//  814 
//  815         case IND_EMERGENCY:
//  816             m_apxAlarmDfa[i] = new CNormalAlarmDfa;
//  817             break;
//  818 
//  819         default:
//  820             m_apxAlarmDfa[i] = new CNormalAlarmDfa;
??ConfigurationInit_9:
        CALL    `??new CNormalAlarmDfa`
??ConfigurationInit_14:
        ST      X+, R16
        ST      X, R17
//  821             break;
//  822         }
//  823     }
        INC     R24
        DEC     R25
        BRNE    ??ConfigurationInit_8
//  824 
//  825     // Привяжем окна сигнализации к созданным объектам сигнализаций дискретных сигналов.
//  826     // Считаем во временный буфер блок БД - "Индекс окна сигнализации которое привязано к текущему дискретному сигналу".
//  827     CDataBase::ReadBlock(puiTempBuffer, TDataBase::ALARM_WINDOW_INDEX);
        RCALL   ?Subroutine48
//  828     for (uint8_t i = 0;
??CrossCallReturnLabel_133:
        LDI     R20, 0
        LDI     R18, 96
//  829             i < DISCRETE_SIGNALS_NUMBER;
//  830             i++)
//  831     {
//  832         // Для текущего дискретного сигнала запрограммирована сигнализация?
//  833         if (puiTempBuffer[i] < ALARM_WINDOWS_NUMBER)
??ConfigurationInit_17:
        RCALL   ?Subroutine25
??CrossCallReturnLabel_14:
        LDD     R17, Z+1
        RCALL   ?Subroutine39
??CrossCallReturnLabel_33:
        CPI     R19, 48
        MOVW    R31:R30, R17:R16
        BRCC    ??ConfigurationInit_18
//  834         {
//  835             // Привяжем окно сигнализации к текущему дискретному сигналу.
//  836             m_apxAlarmDfa[i] ->
//  837             SetAlarmWindowIndex(puiTempBuffer[i]);
        STD     Z+3, R19
//  838         }
        RJMP    ??ConfigurationInit_19
//  839         else
//  840         {
//  841             m_apxAlarmDfa[i] ->
//  842             SetAlarmWindowIndex(0);
??ConfigurationInit_18:
        LDI     R16, 0
        STD     Z+3, R16
//  843         }
//  844     }
??ConfigurationInit_19:
        INC     R20
        DEC     R18
        BRNE    ??ConfigurationInit_17
//  845 
//  846     // Считаем во временный буфер блок БД - "Выходные реле, сопоставленные физическим входам".
//  847     CDataBase::ReadBlock(puiTempBuffer, TDataBase::RELAY);
        LDI     R18, 6
        RCALL   ?Subroutine69
//  848     // Получим связанные выходы на МР.
//  849     for (uint8_t i = 0;
??CrossCallReturnLabel_135:
        LDI     R20, 0
        LDI     R18, 96
//  850             i < DISCRETE_SIGNALS_NUMBER;
//  851             i++)
//  852     {
//  853         *(m_apxAlarmDfa[i] -> GetLinkedDiscreteOutputsPointer()) = puiTempBuffer[i];
??ConfigurationInit_20:
        RCALL   ?Subroutine39
??CrossCallReturnLabel_34:
        RCALL   ?Subroutine25
??CrossCallReturnLabel_15:
        LDD     R31, Z+1
        MOV     R30, R16
        STD     Z+4, R19
        INC     R20
        DEC     R18
        BRNE    ??ConfigurationInit_20
//  854     };
//  855 
//  856     // Получим индексы источников состояния дискретных сигналов - дискретные входы модулей.
//  857     for (uint8_t i = 0;
        LDI     R17, 0
        LDI     R16, 48
        LDI     R18, 2
//  858             i < DISCRETE_INPUTS_NUMBER;
//  859             i++)
//  860     {
//  861         m_apxAlarmDfa[i] -> SetDiscreteStateIndex(i);
??ConfigurationInit_21:
        MUL     R17, R18
        RCALL   ?Subroutine67
??CrossCallReturnLabel_71:
        LD      R26, Z
        LDD     R27, Z+1
        ADIW    R27:R26, 5
        ST      X, R17
//  862     };
        INC     R17
        DEC     R16
        BRNE    ??ConfigurationInit_21
//  863     // Получим индексы источников состояния дискретных сигналов - состояние ячеек(coils Modbus).
//  864     for (uint8_t i = 0;
        LDI     R17, 0
        LDI     R16, 48
        LDI     R19, 2
//  865             i < ALARM_WINDOWS_NUMBER;
//  866             i++)
//  867     {
//  868         m_apxAlarmDfa[DISCRETE_INPUTS_NUMBER + i] -> SetDiscreteStateIndex(DISCRETE_INPUTS_NUMBER + i);
??ConfigurationInit_22:
        MOV     R18, R17
        SUBI    R18, 208
        MUL     R17, R19
        MOVW    R31:R30, R1:R0
        SUBI    R30, LOW((-(??m_apxAlarmDfa + 96) & 0xFFFF))
        SBCI    R31, HIGH((-(??m_apxAlarmDfa + 96) & 0xFFFF))
        LD      R26, Z
        LDD     R27, Z+1
        ADIW    R27:R26, 5
        ST      X, R18
//  869 //        m_apxAlarmDfa[DISCRETE_INPUTS_NUMBER + i] -> SetDiscreteStateIndex(i);
//  870     };
        INC     R17
        DEC     R16
        BRNE    ??ConfigurationInit_22
//  871 
//  872     // Восстановим  состояние устройства.
//  873     // Считаем во временный буфер блок БД - "Состояние устройства хранимое в EEPROM".
//  874     CDataBase::ReadBlock(puiTempBuffer, TDataBase::DEVICE_STATE);
        LDI     R18, 10
        RCALL   ?Subroutine69
//  875     memcpy(reinterpret_cast<uint8_t*>(&m_xDeviceState),
//  876            puiTempBuffer,
//  877            sizeof(struct TDeviceState));
??CrossCallReturnLabel_136:
        LDI     R20, 8
        LDI     R21, 0
        LDI     R18, LOW(??m_auiIntermediateBuff)
        LDI     R19, (??m_auiIntermediateBuff) >> 8
        LDI     R16, LOW((??m_xDeviceConfiguration + 27))
        LDI     R17, HIGH((??m_xDeviceConfiguration + 27))
        RCALL   ?Subroutine50
//  878 
//  879 //    // Создадим автоматы обработки ошибок.
//  880 //    uint8_t uiIndex = 0;
//  881 //
//  882 //    m_apxErrorAlarmDfa[uiIndex] = new CErrorAlarmDfa;
//  883 //    // Привяжем окно сигнализации к созданному объекту сигнализации ошибки.
//  884 //    m_apxErrorAlarmDfa[uiIndex] -> SetAlarmWindowIndex(IMD_ERROR);
//  885 //    // Установим индекс источника состояния ошибки.
//  886 //    m_apxErrorAlarmDfa[uiIndex] -> SetDiscreteStateIndex(IMD_ERROR);
//  887 //    uiIndex++;
//  888 //
//  889 //    m_apxErrorAlarmDfa[uiIndex] = new CErrorAlarmDfa;
//  890 //    // Привяжем окно сигнализации к созданному объекту сигнализации ошибки.
//  891 //    m_apxErrorAlarmDfa[uiIndex] -> SetAlarmWindowIndex(OMD_ERROR);
//  892 //    // Установим индекс источника состояния ошибки.
//  893 //    m_apxErrorAlarmDfa[uiIndex] -> SetDiscreteStateIndex(OMD_ERROR);
//  894 //    uiIndex++;
//  895 //
//  896 //    m_apxErrorAlarmDfa[uiIndex] = new CErrorAlarmDfa;
//  897 //    // Привяжем окно сигнализации к созданному объекту сигнализации ошибки.
//  898 //    m_apxErrorAlarmDfa[uiIndex] -> SetAlarmWindowIndex(CFG_ERROR);
//  899 //    // Установим индекс источника состояния ошибки.
//  900 //    m_apxErrorAlarmDfa[uiIndex] -> SetDiscreteStateIndex(CFG_ERROR);
//  901 //    uiIndex++;
//  902 //
//  903 //    m_apxErrorAlarmDfa[uiIndex] = new CErrorAlarmDfa;
//  904 //    // Привяжем окно сигнализации к созданному объекту сигнализации ошибки.
//  905 //    m_apxErrorAlarmDfa[uiIndex] -> SetAlarmWindowIndex(DB_ERROR);
//  906 //    // Установим индекс источника состояния ошибки.
//  907 //    m_apxErrorAlarmDfa[uiIndex] -> SetDiscreteStateIndex(DB_ERROR);
//  908 //    uiIndex++;
//  909 //
//  910 //    m_apxErrorAlarmDfa[uiIndex] = new CErrorAlarmDfa;
//  911 //    // Привяжем окно сигнализации к созданному объекту сигнализации ошибки.
//  912 //    m_apxErrorAlarmDfa[uiIndex] -> SetAlarmWindowIndex(MBS_ERROR);
//  913 //    // Установим индекс источника состояния ошибки.
//  914 //    m_apxErrorAlarmDfa[uiIndex] -> SetDiscreteStateIndex(MBS_ERROR);
//  915 //    uiIndex++;
//  916 
//  917     // Создадим автоматы обработки ошибок.
//  918     for (uint8_t i = 0;
??CrossCallReturnLabel_46:
        LDI     R25, 0
        LDI     R24, 2
//  919             i < HANDLED_ERROR_NUMBER;
//  920             i++)
//  921     {
//  922         m_apxErrorAlarmDfa[i] = new CErrorAlarmDfa;
??ConfigurationInit_23:
        CALL    `??new CErrorAlarmDfa`
        LDI     R18, 2
        MUL     R25, R18
        RCALL   ?Subroutine31
??CrossCallReturnLabel_19:
        STD     Z+26, R16
        STD     Z+27, R17
//  923         // Привяжем окно сигнализации к созданному объекту сигнализации ошибки.
//  924         m_apxErrorAlarmDfa[i] -> SetAlarmWindowIndex(i);
        MOVW    R27:R26, R17:R16
        ADIW    R27:R26, 3
        ST      X, R25
//  925         // Установим индекс источника состояния ошибки.
//  926         m_apxErrorAlarmDfa[i] -> SetDiscreteStateIndex(i);
        LDD     R16, Z+26
        LDD     R31, Z+27
        MOV     R30, R16
        STD     Z+4, R25
//  927     };
        INC     R25
        DEC     R24
        BRNE    ??ConfigurationInit_23
//  928 }
        RJMP    ?Subroutine87

        RSEG CODE:CODE:NOROOT(1)
?Subroutine50:
        JMP     memcpy

        RSEG CODE:CODE:NOROOT(1)
?Subroutine48:
        LDI     R18, 3
        REQUIRE ?Subroutine69
        ;               // Fall through to label ?Subroutine69

        RSEG CODE:CODE:NOROOT(1)
?Subroutine69:
        LDI     R16, LOW(??m_auiIntermediateBuff)
        LDI     R17, (??m_auiIntermediateBuff) >> 8
        REQUIRE ?Subroutine89
        ;               // Fall through to label ?Subroutine89

        RSEG CODE:CODE:NOROOT(1)
?Subroutine89:
        JMP     ??ReadBlock

        RSEG CODE:CODE:NOROOT(1)
?Subroutine42:
        MOVW    R17:R16, R27:R26
        RJMP    ?Subroutine89

        RSEG CODE:CODE:NOROOT(1)
?Subroutine41:
        JMP     ?PROLOGUE4_L09

        RSEG CODE:CODE:NOROOT(1)
?Subroutine39:
        LDI     R31, 0
        MOV     R30, R20
        SUBI    R30, LOW((-(??m_auiIntermediateBuff) & 0xFFFF))
        SBCI    R31, (-(??m_auiIntermediateBuff) & 0xFFFF) >> 8
        LD      R19, Z
        RET

        RSEG CODE:CODE:NOROOT(1)
?Subroutine31:
        RCALL   ?Subroutine65
??CrossCallReturnLabel_69:
        ADD     R30, R0
        ADC     R31, R1
        RET

        RSEG CODE:CODE:NOROOT(1)
?Subroutine25:
        LDI     R16, 2
        MUL     R20, R16
        RCALL   ?Subroutine67
??CrossCallReturnLabel_73:
        LD      R16, Z
        RET

        RSEG CODE:CODE:NOROOT(1)
?Subroutine67:
        MOVW    R31:R30, R1:R0
        SUBI    R30, LOW((-(??m_apxAlarmDfa) & 0xFFFF))
        SBCI    R31, (-(??m_apxAlarmDfa) & 0xFFFF) >> 8
        RET
//  929 
//  930 //-----------------------------------------------------------------------------------------------------

        RSEG CODE:CODE:NOROOT(1)
//  931 void CPss21::DiscreteOutputControlClear(void)
??DiscreteOutputControlClear:
//  932 {
        MOVW    R21:R20, R25:R24
//  933     // Приведение буферов управления модулями дискретных выходов(реле) в исходное состояние.
//  934     for (int j = 0;
//  935             j < DISCRETE_OUTPUT_MODULE_MAX_NUMBER;
//  936             j++)
//  937     {
//  938         // цикл выбора реле.
//  939         for (int k = 0;
        RCALL   ?Subroutine35
??CrossCallReturnLabel_26:
        LDI     R16, 8
        LDI     R17, 0
//  940                 k < MR_DISCRETE_OUTPUT_NUMBER;
//  941                 k++)
//  942         {
//  943             // Сбросим флаг - новое нарушение.
//  944             m_axDiscreteOutputControl[(j * MR_DISCRETE_OUTPUT_NUMBER) + k].uiNewActivation = 0;
??DiscreteOutputControlClear_1:
        MOVW    R19:R18, R25:R24
        LSL     R18
        ROL     R19
        RCALL   ?Subroutine65
??CrossCallReturnLabel_64:
        ADD     R30, R18
        ADC     R31, R19
        STD     Z+30, R17
//  945             // Сбросим флаг - требование включения реле.
//  946             m_axDiscreteOutputControl[(j * MR_DISCRETE_OUTPUT_NUMBER) + k].uiRelayActivationRequest = 0;
        STD     Z+31, R17
//  947         }
        ADIW    R25:R24, 1
        DEC     R16
        BRNE    ??DiscreteOutputControlClear_1
//  948     }
//  949 }
        MOVW    R25:R24, R21:R20
        RET

        RSEG CODE:CODE:NOROOT(1)
?Subroutine35:
        LDI     R24, 0
        LDI     R25, 0
        RET
//  950 
//  951 //-----------------------------------------------------------------------------------------------------

        RSEG CODE:CODE:NOROOT(1)
//  952 void CPss21::DiscreteOutputsSet(uint8_t *puiLinkedDiscreteOutputs, uint8_t uiNewViolation)
??DiscreteOutputsSet:
//  953 {
        RCALL   ?Subroutine41
??CrossCallReturnLabel_39:
        MOVW    R23:R22, R17:R16
//  954     // Дискретный сигнал был активен на предыдущем шаге?
//  955     if (!uiNewViolation)
        TST     R18
        LDI     R26, 0
        LDI     R27, 0
        LDI     R19, 1
        BRNE    ??DiscreteOutputsSet_1
//  956     {
//  957         // Не новое нарушение.
//  958         // установим флаги - требования включения, для запрограммированных реле,
//  959         // в буфере выходов требований включения реле - блокировка.
//  960         // цикл выбора модуля.
//  961         for (int j = 0;
//  962                 j < DISCRETE_OUTPUT_MODULE_MAX_NUMBER;
//  963                 j++)
//  964         {
//  965             // цикл выбора реле.
//  966             for (int k = 0;
??DiscreteOutputsSet_2:
        RCALL   ?Subroutine35
??CrossCallReturnLabel_27:
        LDI     R18, 8
//  967                     k < MR_DISCRETE_OUTPUT_NUMBER;
//  968                     k++)
//  969             {
//  970                 // Текущий - (j, k) дискретный выход(реле) привязан?
//  971                 if (puiLinkedDiscreteOutputs[j] & (0x01 << k))
??DiscreteOutputsSet_3:
        RCALL   ?Subroutine24
??CrossCallReturnLabel_177:
        BREQ    ??DiscreteOutputsSet_4
//  972                 {
//  973                     // установим флаг - требование включения реле.
//  974                     m_axDiscreteOutputControl[(j * MR_DISCRETE_OUTPUT_NUMBER) + k].uiRelayActivationRequest = 1;
        RCALL   ?Subroutine43
//  975                 }
//  976             }
??CrossCallReturnLabel_40:
        MOVW    R31:R30, R17:R16
        SUBI    R30, LOW((-(??m_xDeviceConfigSearch) & 0xFFFF))
        SBCI    R31, (-(??m_xDeviceConfigSearch) & 0xFFFF) >> 8
        LDI     R16, 1
        STD     Z+31, R16
??DiscreteOutputsSet_4:
        ADIW    R25:R24, 1
        DEC     R18
        BRNE    ??DiscreteOutputsSet_3
//  977         }
        ADIW    R27:R26, 1
        DEC     R19
        BREQ    ??DiscreteOutputsSet_5
        RJMP    ??DiscreteOutputsSet_2
//  978     }
//  979     else
//  980     {
//  981         // новое нарушение.
//  982         // установим флаги - новое нарушение, для запрограммированных реле
//  983         // в буфере выходов управления реле - новое нарушение.
//  984         // установим флаги - требования включения, для запрограммированных реле,
//  985         // в буфере выходов требований включения реле - блокировка.
//  986         // цикл выбора модуля.
//  987         for (int j = 0;
//  988                 j < DISCRETE_OUTPUT_MODULE_MAX_NUMBER;
//  989                 j++)
//  990         {
//  991             // цикл выбора реле.
//  992             for (int k = 0;
??DiscreteOutputsSet_1:
        RCALL   ?Subroutine35
??CrossCallReturnLabel_28:
        LDI     R18, 8
//  993                     k < MR_DISCRETE_OUTPUT_NUMBER;
//  994                     k++)
//  995             {
//  996                 // Текущий - (j, k) дискретный выход(реле) привязан?
//  997                 if (puiLinkedDiscreteOutputs[j] & (0x01 << k))
??DiscreteOutputsSet_6:
        RCALL   ?Subroutine24
??CrossCallReturnLabel_178:
        BREQ    ??DiscreteOutputsSet_7
//  998                 {
//  999                     // установим флаг - новое нарушение.
// 1000                     m_axDiscreteOutputControl[(j * MR_DISCRETE_OUTPUT_NUMBER) + k].uiNewActivation = 1;
        RCALL   ?Subroutine43
??CrossCallReturnLabel_41:
        RCALL   ?Subroutine65
??CrossCallReturnLabel_65:
        ADD     R30, R16
        ADC     R31, R17
        LDI     R16, 1
        STD     Z+30, R16
// 1001                     // установим флаг - требование включения реле.
// 1002                     m_axDiscreteOutputControl[(j * MR_DISCRETE_OUTPUT_NUMBER) + k].uiRelayActivationRequest = 1;
        STD     Z+31, R16
// 1003                 }
// 1004             }
??DiscreteOutputsSet_7:
        ADIW    R25:R24, 1
        DEC     R18
        BRNE    ??DiscreteOutputsSet_6
// 1005         }
        ADIW    R27:R26, 1
        DEC     R19
        BRNE    ??DiscreteOutputsSet_1
// 1006     }
// 1007 }
??DiscreteOutputsSet_5:
        RJMP    ?Subroutine87

        RSEG CODE:CODE:NOROOT(1)
?Subroutine43:
        LDI     R20, 3
        MOVW    R17:R16, R27:R26
        RCALL   ?Subroutine66
??CrossCallReturnLabel_180:
        ADD     R16, R24
        ADC     R17, R25
        LSL     R16
        ROL     R17
        RET

        RSEG CODE:CODE:NOROOT(1)
?Subroutine66:
        JMP     ?S_SHL_L02

        RSEG CODE:CODE:NOROOT(1)
?Subroutine65:
        LDI     R30, LOW(??m_xDeviceConfigSearch)
        LDI     R31, (??m_xDeviceConfigSearch) >> 8
        RET

        RSEG CODE:CODE:NOROOT(1)
?Subroutine24:
        MOVW    R31:R30, R23:R22
        ADD     R30, R26
        ADC     R31, R27
        LD      R21, Z
        MOV     R20, R24
        REQUIRE ??Subroutine96_0
        ;               // Fall through to label ??Subroutine96_0

        RSEG CODE:CODE:NOROOT(1)
??Subroutine96_0:
        LDI     R16, 1
        LDI     R17, 0
        RCALL   ?Subroutine66
??CrossCallReturnLabel_181:
        AND     R21, R16
        RET
// 1008 
// 1009 //-----------------------------------------------------------------------------------------------------

        RSEG CODE:CODE:NOROOT(1)
// 1010 void CPss21::AlarmsProcessing(void)
??AlarmsProcessing:
// 1011 {
        ST      -Y, R25
        ST      -Y, R24
// 1012     // Обработаем все дискретные сигналы.
// 1013     for (uint8_t i = 0;
        LDI     R25, 0
        LDI     R24, 96
// 1014             i < DISCRETE_SIGNALS_NUMBER;
// 1015             i++)
// 1016     {
// 1017         m_apxAlarmDfa[i] -> Fsm();
??AlarmsProcessing_1:
        LDI     R16, 2
        MUL     R25, R16
        RCALL   ?Subroutine67
// 1018     }
??CrossCallReturnLabel_72:
        LD      R18, Z
        LDD     R19, Z+1
        RCALL   ?Subroutine38
??CrossCallReturnLabel_31:
        BRNE    ??AlarmsProcessing_1
// 1019 }
        REQUIRE ?Subroutine76
        ;               // Fall through to label ?Subroutine76

        RSEG CODE:CODE:NOROOT(1)
?Subroutine76:
        LD      R24, Y+
        LD      R25, Y+
        RET
// 1020 
// 1021 //-----------------------------------------------------------------------------------------------------

        RSEG CODE:CODE:NOROOT(1)
// 1022 void CPss21::ErrorAlarmsProcessing(void)
??ErrorAlarmsProcessing:
// 1023 {
        ST      -Y, R25
        ST      -Y, R24
// 1024     // Обработаем все дискретные сигналы.
// 1025     for (uint8_t i = 0;
        LDI     R25, 0
        LDI     R24, 2
??ErrorAlarmsProcessing_1:
        LDI     R16, 2
        MUL     R25, R16
        RCALL   ?Subroutine31
// 1026             i < HANDLED_ERROR_NUMBER;
// 1027             i++)
// 1028     {
// 1029         m_apxErrorAlarmDfa[i] -> Fsm();
// 1030     }
??CrossCallReturnLabel_20:
        LDD     R18, Z+26
        LDD     R19, Z+27
        RCALL   ?Subroutine38
??CrossCallReturnLabel_32:
        BRNE    ??ErrorAlarmsProcessing_1
// 1031 }
        RJMP    ?Subroutine76

        RSEG CODE:CODE:NOROOT(1)
?Subroutine38:
        MOVW    R17:R16, R19:R18
        MOVW    R31:R30, R19:R18
        LDD     R18, Z+1
        LDD     R31, Z+2
        MOV     R30, R18
        RCALL   ?Subroutine64
??CrossCallReturnLabel_60:
        INC     R25
        DEC     R24
        RET

        RSEG CODE:CODE:NOROOT(1)
?Subroutine64:
        ADIW    R31:R30, 2
        LPM     R18, Z+
        LPM     R31, Z
        MOV     R30, R18
        IJMP
// 1032 
// 1033 //-----------------------------------------------------------------------------------------------------

        RSEG CODE:CODE:NOROOT(1)
// 1034 uint8_t CPss21::GetDiscreteInputState(uint8_t uiIndex)
??GetDiscreteInputState:
// 1035 {
// 1036 //    // Не вышли за границы массива дискретных сигналов?
// 1037 //    if ((uiIndex >= 0) &&
// 1038 //            (uiIndex < (DISCRETE_INPUTS_NUMBER + ALARM_WINDOWS_NUMBER)))
// 1039 //    {
// 1040 //        // Получим состояние дискретного сигнала - дискретные входы модулей.
// 1041 //        return m_aucRtuDiscreteDataArray[DISCRETE_INPUTS_BIT_ARRAY_OFFSET + uiIndex];
// 1042 //    }
// 1043 //    else
// 1044 //    {
// 1045 //        // Получим состояние дискретного сигнала - дискретные входы модулей, вход 0.
// 1046 //        return m_aucRtuDiscreteDataArray[DISCRETE_INPUTS_BIT_ARRAY_OFFSET];
// 1047 //    }
// 1048 
// 1049     if (uiIndex < DISCRETE_INPUTS_NUMBER)
// 1050     {
// 1051         // Получим состояние дискретного сигнала - дискретные входы модулей.
// 1052         return m_aucRtuDiscreteDataArray[DISCRETE_INPUTS_BIT_ARRAY_OFFSET + uiIndex];
// 1053     }
// 1054     else
// 1055     {
// 1056         // Получим состояние дискретного сигнала - состояние ячеек(coils Modbus).
// 1057         return m_aucRtuDiscreteDataArray[ALARM_WINDOWS_BIT_ARRAY_OFFSET + (uiIndex - DISCRETE_INPUTS_NUMBER)];
        LDI     R31, 0
        MOV     R30, R16
        SUBI    R30, LOW((-(??m_aucRtuDiscreteDataArray) & 0xFFFF))
        SBCI    R31, (-(??m_aucRtuDiscreteDataArray) & 0xFFFF) >> 8
        LDD     R16, Z+16
        RET
// 1058     }
// 1059 }
// 1060 
// 1061 //-----------------------------------------------------------------------------------------------------

        RSEG CODE:CODE:NOROOT(1)
// 1062 void CPss21::SetErrorAlarmState(uint8_t uiIndex, uint8_t uiData)
??SetErrorAlarmState:
// 1063 {
// 1064     // Установим состояние источника ошибки.
// 1065     m_auiErrorAlarmDataArray[uiIndex] = uiData;
        RCALL   ?Subroutine40
??CrossCallReturnLabel_35:
        STD     Z+59, R17
// 1066 }
        RET
// 1067 
// 1068 //-----------------------------------------------------------------------------------------------------

        RSEG CODE:CODE:NOROOT(1)
// 1069 uint8_t CPss21::GetErrorAlarmState(uint8_t uiIndex)
??GetErrorAlarmState:
// 1070 {
// 1071     // Получим состояние источника ошибки.
// 1072     return m_auiErrorAlarmDataArray[uiIndex];
        RCALL   ?Subroutine40
??CrossCallReturnLabel_36:
        LDD     R16, Z+59
        RET
// 1073 }

        RSEG CODE:CODE:NOROOT(1)
?Subroutine40:
        LDI     R31, 0
        MOV     R30, R16
        SUBI    R30, LOW((-(??m_xDeviceConfigSearch) & 0xFFFF))
        SBCI    R31, (-(??m_xDeviceConfigSearch) & 0xFFFF) >> 8
        RET
// 1074 
// 1075 //-----------------------------------------------------------------------------------------------------

        RSEG CODE:CODE:NOROOT(1)
// 1076 void CPss21::AlarmTypeSet(uint8_t uiAlarmType)
??AlarmTypeSet:
// 1077 {
        ST      -Y, R24
        MOV     R24, R16
// 1078     m_xPreventiveAlarmWindowNotifyerControl.AlarmSet(uiAlarmType);
        MOV     R18, R16
        RCALL   ?Subroutine57
// 1079     m_xEmergencyAlarmWindowNotifyerControl.AlarmSet(uiAlarmType);
??CrossCallReturnLabel_208:
        MOV     R18, R24
        RCALL   ?Subroutine58
// 1080     m_xStatusLedNotifyerControl.AlarmSet(uiAlarmType);
??CrossCallReturnLabel_210:
        MOV     R18, R24
        RCALL   ?Subroutine59
// 1081     m_xBuzzerNotifyerControl.AlarmSet(uiAlarmType);
??CrossCallReturnLabel_212:
        MOV     R18, R24
        RCALL   ?Subroutine60
// 1082 }
??CrossCallReturnLabel_217:
        RJMP    ?Subroutine83
// 1083 
// 1084 //-----------------------------------------------------------------------------------------------------

        RSEG CODE:CODE:NOROOT(1)
// 1085 void CPss21::AlarmTypeChange(void)
??AlarmTypeChange:
// 1086 {
// 1087     if (m_uiCommonAlarmType != m_uiCommonAlarmTypePrevious)
        RCALL   ?Subroutine32
??CrossCallReturnLabel_117:
        BREQ    ??CrossCallReturnLabel_184
// 1088     {
// 1089         m_uiCommonAlarmTypePrevious = m_uiCommonAlarmType;
        STD     Z+58, R16
// 1090         AlarmTypeSet(m_uiCommonAlarmType);
        RCALL   ??Subroutine97_0
// 1091     }
// 1092 }
??CrossCallReturnLabel_184:
        RET
// 1093 
// 1094 //-----------------------------------------------------------------------------------------------------

        RSEG CODE:CODE:NOROOT(1)
// 1095 void CPss21::AlarmTypeErrorChange(void)
??AlarmTypeErrorChange:
// 1096 {
// 1097     if (m_uiCommonAlarmType != m_uiCommonAlarmTypePrevious)
        RCALL   ?Subroutine32
??CrossCallReturnLabel_118:
        BREQ    ??CrossCallReturnLabel_216
// 1098     {
// 1099         m_uiCommonAlarmTypePrevious = m_uiCommonAlarmType;
        STD     Z+58, R16
// 1100 
// 1101         m_xPreventiveAlarmWindowNotifyerControl.AlarmSet(INDICATION);
        RCALL   ??Subroutine102_0
// 1102         m_xEmergencyAlarmWindowNotifyerControl.AlarmSet(INDICATION);
// 1103         m_xStatusLedNotifyerControl.AlarmSet(ERROR);
// 1104         m_xBuzzerNotifyerControl.AlarmSet(ERROR);
// 1105     }
// 1106 }
??CrossCallReturnLabel_216:
        RET

        RSEG CODE:CODE:NOROOT(1)
?Subroutine32:
        RCALL   ?Subroutine65
??CrossCallReturnLabel_70:
        LDD     R16, Z+57
        LDD     R17, Z+58
        RJMP    ?Subroutine82
// 1107 
// 1108 //-----------------------------------------------------------------------------------------------------

        RSEG CODE:CODE:NOROOT(1)
// 1109 void CPss21::AlarmTypeReceipt(void)
??AlarmTypeReceipt:
// 1110 {
// 1111     m_uiCommonAlarmType = INDICATION;
        LDI     R16, 1
        REQUIRE ?Subroutine90
        ;               // Fall through to label ?Subroutine90
// 1112     m_uiCommonAlarmTypePrevious = INDICATION;
// 1113     AlarmTypeSet(INDICATION);
// 1114 }

        RSEG CODE:CODE:NOROOT(1)
?Subroutine90:
        RCALL   ?Subroutine53
??CrossCallReturnLabel_137:
        REQUIRE ??Subroutine97_0
        ;               // Fall through to label ??Subroutine97_0

        RSEG CODE:CODE:NOROOT(1)
??Subroutine97_0:
        RJMP    ??AlarmTypeSet
// 1115 
// 1116 //-----------------------------------------------------------------------------------------------------

        RSEG CODE:CODE:NOROOT(1)
// 1117 void CPss21::AlarmTypeReset(void)
??AlarmTypeReset:
// 1118 {
// 1119     m_uiCommonAlarmType = NORMAL;
        LDI     R16, 0
        RJMP    ?Subroutine90
// 1120     m_uiCommonAlarmTypePrevious = NORMAL;
// 1121     AlarmTypeSet(NORMAL);
// 1122 }

        RSEG CODE:CODE:NOROOT(1)
?Subroutine53:
        STS     (??m_xDeviceConfigSearch + 57), R16
        STS     (??m_xDeviceConfigSearch + 58), R16
        RET
// 1123 
// 1124 //-----------------------------------------------------------------------------------------------------

        RSEG CODE:CODE:NOROOT(1)
// 1125 void CPss21::NotifyersControlProcessing(void)
??NotifyersControlProcessing:
// 1126 {
// 1127     m_xPreventiveAlarmWindowNotifyerControl.Fsm();
        LDI     R16, LOW((??m_xDeviceConfigSearch + 141))
        LDI     R17, HIGH((??m_xDeviceConfigSearch + 141))
        RCALL   ?Subroutine91
// 1128     m_xEmergencyAlarmWindowNotifyerControl.Fsm();
??CrossCallReturnLabel_140:
        LDI     R16, LOW((??m_xDeviceConfigSearch + 153))
        LDI     R17, HIGH((??m_xDeviceConfigSearch + 153))
        RCALL   ?Subroutine91
// 1129     m_xStatusLedNotifyerControl.Fsm();
??CrossCallReturnLabel_139:
        LDI     R16, LOW((??m_xDeviceConfigSearch + 165))
        LDI     R17, HIGH((??m_xDeviceConfigSearch + 165))
        RCALL   ?Subroutine91
// 1130     m_xBuzzerNotifyerControl.Fsm();
??CrossCallReturnLabel_138:
        LDI     R16, LOW((??m_xDeviceConfigSearch + 177))
        LDI     R17, HIGH((??m_xDeviceConfigSearch + 177))
        REQUIRE ?Subroutine91
        ;               // Fall through to label ?Subroutine91
// 1131 }

        RSEG CODE:CODE:NOROOT(1)
?Subroutine91:
        JMP     ??Fsm
// 1132 
// 1133 //-----------------------------------------------------------------------------------------------------

        RSEG CODE:CODE:NOROOT(1)
// 1134 void CPss21::SetAlarmWindowType(uint8_t uiAlarmWindowIndex, uint8_t uiAlarmType)
??SetAlarmWindowType:
// 1135 {
        MOV     R18, R17
// 1136     GetAlarmWindowControlPointer(uiAlarmWindowIndex) -> SetAlarmType(uiAlarmType);
        LDI     R17, 0
        LDI     R20, 6
        RCALL   ?Subroutine71
??CrossCallReturnLabel_205:
        MOVW    R31:R30, R17:R16
        SUBI    R30, LOW((-(??m_axAlarmWindowControl) & 0xFFFF))
        SBCI    R31, (-(??m_axAlarmWindowControl) & 0xFFFF) >> 8
        STD     Z+2, R18
// 1137 }
        RET
// 1138 
// 1139 //-----------------------------------------------------------------------------------------------------

        RSEG CODE:CODE:NOROOT(1)
// 1140 void CPss21::SaveContextNotifyerControl(void)
??SaveContextNotifyerControl:
// 1141 {
// 1142 //    // Сохраним текущее состояние автоматов управления извещателями.
// 1143 //    m_xPreventiveAlarmWindowNotifyerControl.SetSavedFsmState(m_xPreventiveAlarmWindowNotifyerControl.GetFsmState());
// 1144 //    m_xEmergencyAlarmWindowNotifyerControl.SetSavedFsmState(m_xEmergencyAlarmWindowNotifyerControl.GetFsmState());
// 1145 //    m_xStatusLedNotifyerControl.SetSavedFsmState(m_xStatusLedNotifyerControl.GetFsmState());
// 1146 //    m_xBuzzerNotifyerControl.SetSavedFsmState(m_xBuzzerNotifyerControl.GetFsmState());
// 1147 
// 1148     // Сохраним текущее состояние извещателей - окон сигнализации.
// 1149     for (uint8_t i = 0;
        RCALL   ??Subroutine98_0
// 1150             i < ALARM_WINDOWS_NUMBER;
// 1151             i++)
// 1152     {
// 1153         m_axAlarmWindowControl[i].SetSavedAlarmType(m_axAlarmWindowControl[i].GetAlarmType());
??CrossCallReturnLabel_190:
        RCALL   ?Subroutine62
??CrossCallReturnLabel_200:
        LDD     R16, Z+2
        STD     Z+3, R16
// 1154         m_axAlarmWindowControl[i].SetSavedActivityState(m_axAlarmWindowControl[i].GetActivityState());
        LD      R16, Z
        STD     Z+1, R16
// 1155     };
        RCALL   ??Subroutine99_0
??CrossCallReturnLabel_195:
        BRNE    ??CrossCallReturnLabel_190
// 1156 }
        RET
// 1157 
// 1158 //-----------------------------------------------------------------------------------------------------

        RSEG CODE:CODE:NOROOT(1)
// 1159 void CPss21::RestoreContextNotifyerControl(void)
??RestoreContextNotifyerControl:
// 1160 {
// 1161 //    // Восстановим предыдущее состояние автоматов управления извещателями.
// 1162 //    m_xPreventiveAlarmWindowNotifyerControl.SetFsmState(m_xPreventiveAlarmWindowNotifyerControl.GetSavedFsmState());
// 1163 //    m_xEmergencyAlarmWindowNotifyerControl.SetFsmState(m_xEmergencyAlarmWindowNotifyerControl.GetSavedFsmState());
// 1164 //    m_xStatusLedNotifyerControl.SetFsmState(m_xStatusLedNotifyerControl.GetSavedFsmState());
// 1165 //    m_xBuzzerNotifyerControl.SetFsmState(m_xBuzzerNotifyerControl.GetSavedFsmState());
// 1166     AlarmTypeSet(GetCommonAlarmType());
        LDS     R16, (??m_xDeviceConfigSearch + 57)
        RCALL   ??Subroutine97_0
// 1167 
// 1168     // Восстановим предыдущее состояние извещателей - окон сигнализации.
// 1169     for (uint8_t i = 0;
??CrossCallReturnLabel_183:
        RCALL   ??Subroutine98_0
// 1170             i < ALARM_WINDOWS_NUMBER;
// 1171             i++)
// 1172     {
// 1173         m_axAlarmWindowControl[i].SetAlarmType(m_axAlarmWindowControl[i].GetSavedAlarmType());
??CrossCallReturnLabel_191:
        RCALL   ?Subroutine62
??CrossCallReturnLabel_201:
        LDD     R16, Z+3
        STD     Z+2, R16
// 1174         m_axAlarmWindowControl[i].SetActivityState(m_axAlarmWindowControl[i].GetSavedActivityState());
        LDD     R16, Z+1
        RCALL   ?Subroutine29
// 1175     };
??CrossCallReturnLabel_192:
        BRNE    ??CrossCallReturnLabel_191
// 1176 }
        RET
// 1177 
// 1178 //-----------------------------------------------------------------------------------------------------

        RSEG CODE:CODE:NOROOT(1)
// 1179 void CPss21::DiscreteSignalsProcessing(void)
??DiscreteSignalsProcessing:
// 1180 {
// 1181     DiscreteOutputControlClear();
        RCALL   ??DiscreteOutputControlClear
// 1182     AlarmsProcessing();
        RCALL   ??AlarmsProcessing
// 1183     ErrorAlarmsProcessing();
        RCALL   ??ErrorAlarmsProcessing
// 1184     SetDiscreteSignalsReceipt(0);
        LDI     R16, 0
        STS     (??m_xDeviceConfigSearch + 53), R16
// 1185     SetDiscreteSignalsReset(0);
        STS     (??m_xDeviceConfigSearch + 54), R16
// 1186 }
        RET
// 1187 
// 1188 //-----------------------------------------------------------------------------------------------------

        RSEG CODE:CODE:NOROOT(1)
// 1189 void CPss21::BoardWindowsUpdate(void)
??BoardWindowsUpdate:
// 1190 {
// 1191     CLightBoard::Set(m_axAlarmWindowControl);
        RJMP    ?Subroutine85
// 1192 }
// 1193 
// 1194 //-----------------------------------------------------------------------------------------------------

        RSEG CODE:CODE:NOROOT(1)
// 1195 void CPss21::ActiveAlarmWindowOn(uint8_t uiAlarmType)
??ActiveAlarmWindowOn:
// 1196 {
        RCALL   ?Subroutine1
// 1197     for (uint8_t i = 0;
// 1198             i < ALARM_WINDOWS_NUMBER;
// 1199             i++)
// 1200     {
// 1201         // Тип сигнализации окна и тип сигнализации извещателя совпадают?
// 1202         if (m_axAlarmWindowControl[i].GetAlarmType() == uiAlarmType)
??CrossCallReturnLabel_185:
        RCALL   ?Subroutine21
??CrossCallReturnLabel_12:
        BRNE    ??ActiveAlarmWindowOn_1
// 1203         {
// 1204             // Актмвизируем окно сигнализации, для отображения извещателем.
// 1205             m_axAlarmWindowControl[i].SetActivityState(1);
        LDI     R16, 1
        ST      Z, R16
// 1206         }
// 1207 
// 1208 //        CPss21::m_aucRtuHoldingRegistersArray[i] = m_axAlarmWindowControl[i].GetActivityState();
// 1209     };
??ActiveAlarmWindowOn_1:
        RCALL   ??Subroutine99_0
??CrossCallReturnLabel_196:
        BRNE    ??CrossCallReturnLabel_185
// 1210 
// 1211     BoardWindowsUpdate();
        RJMP    ?Subroutine85
// 1212 }

        RSEG CODE:CODE:NOROOT(1)
?Subroutine1:
        MOV     R22, R16
        REQUIRE ??Subroutine98_0
        ;               // Fall through to label ??Subroutine98_0

        RSEG CODE:CODE:NOROOT(1)
??Subroutine98_0:
        LDI     R18, 0
        LDI     R19, 48
        LDI     R20, 6
        RET
// 1213 
// 1214 //-----------------------------------------------------------------------------------------------------

        RSEG CODE:CODE:NOROOT(1)
// 1215 void CPss21::ActiveAlarmWindowOff(uint8_t uiAlarmType)
??ActiveAlarmWindowOff:
// 1216 {
        RCALL   ?Subroutine1
// 1217     for (uint8_t i = 0;
// 1218             i < ALARM_WINDOWS_NUMBER;
// 1219             i++)
// 1220     {
// 1221         // Тип сигнализации окна и тип сигнализации извещателя совпадают?
// 1222         if (m_axAlarmWindowControl[i].GetAlarmType() == uiAlarmType)
??CrossCallReturnLabel_186:
        RCALL   ?Subroutine21
??CrossCallReturnLabel_13:
        BREQ    ??ActiveAlarmWindowOff_1
// 1223         {
// 1224             // Деактмвируем окно сигнализации, для прекращения отображения извещателем.
// 1225             m_axAlarmWindowControl[i].SetActivityState(0);
// 1226         }
// 1227         else if (m_axAlarmWindowControl[i].GetAlarmType() == NORMAL)
        TST     R16
        BRNE    ??ActiveAlarmWindowOff_2
// 1228         {
// 1229             // Деактмвируем окно сигнализации, для прекращения отображения извещателем.
// 1230             m_axAlarmWindowControl[i].SetActivityState(0);
??ActiveAlarmWindowOff_1:
        ST      Z, R21
// 1231         }
// 1232 
// 1233 //        CPss21::m_aucRtuHoldingRegistersArray[i] = m_axAlarmWindowControl[i].GetActivityState();
// 1234     };
??ActiveAlarmWindowOff_2:
        RCALL   ??Subroutine99_0
??CrossCallReturnLabel_197:
        BRNE    ??CrossCallReturnLabel_186
// 1235 
// 1236     BoardWindowsUpdate();
        REQUIRE ?Subroutine85
        ;               // Fall through to label ?Subroutine85
// 1237 }

        RSEG CODE:CODE:NOROOT(1)
?Subroutine85:
        RCALL   ?Subroutine73
??CrossCallReturnLabel_127:
        JMP     ??Set

        RSEG CODE:CODE:NOROOT(1)
?Subroutine29:
        ST      Z, R16
        REQUIRE ??Subroutine99_0
        ;               // Fall through to label ??Subroutine99_0

        RSEG CODE:CODE:NOROOT(1)
??Subroutine99_0:
        INC     R18
        DEC     R19
        RET

        RSEG CODE:CODE:NOROOT(1)
?Subroutine21:
        RCALL   ?Subroutine62
??CrossCallReturnLabel_204:
        LDD     R16, Z+2
        CP      R16, R22
        RET
// 1238 
// 1239 //-----------------------------------------------------------------------------------------------------

        RSEG CODE:CODE:NOROOT(1)
// 1240 void CPss21::AllAlarmWindowOn(uint8_t uiAlarmType)
??AllAlarmWindowOn:
// 1241 {
        RCALL   ?Subroutine1
// 1242 //    CAlarmWindow axAlarmWindowControl[ALARM_WINDOWS_NUMBER];
// 1243 
// 1244     for (uint8_t i = 0;
// 1245             i < ALARM_WINDOWS_NUMBER;
// 1246             i++)
// 1247     {
// 1248         // Актмвизируем окно сигнализации, для отображения извещателем.
// 1249         m_axAlarmWindowControl[i].SetAlarmType(uiAlarmType);
??CrossCallReturnLabel_187:
        RCALL   ?Subroutine62
??CrossCallReturnLabel_202:
        STD     Z+2, R22
// 1250         // Актмвизируем окно сигнализации, для отображения извещателем.
// 1251         m_axAlarmWindowControl[i].SetActivityState(1);
        LDI     R16, 1
        RCALL   ?Subroutine29
// 1252     };
??CrossCallReturnLabel_193:
        BRNE    ??CrossCallReturnLabel_187
// 1253 
// 1254     BoardWindowsUpdate();
        RJMP    ?Subroutine85
// 1255 }

        RSEG CODE:CODE:NOROOT(1)
?Subroutine62:
        MOV     R16, R18
        REQUIRE ??Subroutine100_0
        ;               // Fall through to label ??Subroutine100_0

        RSEG CODE:CODE:NOROOT(1)
??Subroutine100_0:
        LDI     R17, 0
        RCALL   ?Subroutine71
??CrossCallReturnLabel_206:
        LDI     R30, LOW(??m_axAlarmWindowControl)
        LDI     R31, (??m_axAlarmWindowControl) >> 8
        ADD     R30, R16
        ADC     R31, R17
        RET

        RSEG CODE:CODE:NOROOT(1)
?Subroutine71:
        LDI     R21, 0
        RJMP    ?Subroutine88
// 1256 
// 1257 //-----------------------------------------------------------------------------------------------------

        RSEG CODE:CODE:NOROOT(1)
// 1258 void CPss21::ErrorWindowOn(uint8_t uiIndex)
??ErrorWindowOn:
// 1259 {
        RCALL   ?Subroutine1
// 1260     // Актмвируем окна сигнализации - ошибка.
// 1261     for (uint8_t i = 0;
// 1262             i < ALARM_WINDOWS_NUMBER;
// 1263             i++)
// 1264     {
// 1265         if (m_auiErrorLedOn[i])
??CrossCallReturnLabel_188:
        MOV     R30, R18
        LDI     R31, 0
        SUBI    R30, LOW((-(??m_auiErrorLedOn) & 0xFFFF))
        SBCI    R31, (-(??m_auiErrorLedOn) & 0xFFFF) >> 8
        LPM     R16, Z
        TST     R16
        BREQ    ??ErrorWindowOn_1
// 1266         {
// 1267             // Актмвизируем окно сигнализации, для отображения извещателем.
// 1268             m_axAlarmWindowControl[i].SetAlarmType(INDICATION);
        RCALL   ?Subroutine62
??CrossCallReturnLabel_203:
        LDI     R16, 1
        STD     Z+2, R16
// 1269             m_axAlarmWindowControl[i].SetActivityState(1);
        ST      Z, R16
// 1270         }
// 1271     };
??ErrorWindowOn_1:
        RCALL   ??Subroutine99_0
??CrossCallReturnLabel_198:
        BRNE    ??CrossCallReturnLabel_188
// 1272 
// 1273     if (uiIndex < ALARM_WINDOWS_NUMBER)
        CPI     R22, 48
        BRCC    ??CrossCallReturnLabel_11
// 1274     {
// 1275         m_axAlarmWindowControl[uiIndex].SetAlarmType(NORMAL);
        MOV     R16, R22
        RCALL   ?Subroutine20
// 1276         m_axAlarmWindowControl[uiIndex].SetActivityState(0);
// 1277     }
// 1278 
// 1279     BoardWindowsUpdate();
??CrossCallReturnLabel_11:
        RJMP    ?Subroutine85
// 1280 }

        RSEG CODE:CODE:NOROOT(1)
?Subroutine20:
        RCALL   ??Subroutine100_0
??CrossCallReturnLabel_199:
        STD     Z+2, R21
// 1281 
// 1282 //-----------------------------------------------------------------------------------------------------
// 1283 void CPss21::AllAlarmWindowOff(void)
// 1284 {
// 1285     for (uint8_t i = 0;
// 1286             i < ALARM_WINDOWS_NUMBER;
// 1287             i++)
// 1288     {
// 1289         // Деактмвируем окно сигнализации, для прекращения отображения извещателем.
// 1290         m_axAlarmWindowControl[i].SetAlarmType(NORMAL);
// 1291         // Деактмвируем окно сигнализации, для прекращения отображения извещателем.
// 1292         m_axAlarmWindowControl[i].SetActivityState(0);
        ST      Z, R21
        RET
// 1293     };
// 1294 
// 1295     BoardWindowsUpdate();
// 1296 }
// 1297 
// 1298 //-----------------------------------------------------------------------------------------------------

        RSEG CODE:CODE:NOROOT(1)
// 1299 void CPss21::TestMainCycle(void)
??TestMainCycle:
// 1300 {
// 1301     CPss21::m_xModbusRtuOne.Fsm();
        RCALL   ?Subroutine7
// 1302 
// 1303     CPss21::KeyStateProcessing();
// 1304 
// 1305     NotifyersControlProcessing();
// 1306 
// 1307     CPss21::ReceiptResetGlobalFlagsClear();
??CrossCallReturnLabel_0:
        REQUIRE ?Subroutine77
        ;               // Fall through to label ?Subroutine77
// 1308 
// 1309     CPlatform::WatchdogReset();
// 1310 }

        RSEG CODE:CODE:NOROOT(1)
?Subroutine77:
        RCALL   ?Subroutine51
??CrossCallReturnLabel_106:
        REQUIRE ??Subroutine101_0
        ;               // Fall through to label ??Subroutine101_0

        RSEG CODE:CODE:NOROOT(1)
??Subroutine101_0:
        WDR
        RET
// 1311 
// 1312 //-----------------------------------------------------------------------------------------------------

        RSEG CODE:CODE:NOROOT(1)
// 1313 void CPss21::ErrorMainCycle(void)
??ErrorMainCycle:
// 1314 {
// 1315     CPss21::m_xModbusRtuOne.Fsm();
        RCALL   ?Subroutine56
// 1316 
// 1317     CPss21::KeyStateProcessing();
??CrossCallReturnLabel_55:
        RCALL   ??KeyStateProcessing
// 1318 
// 1319     // Есть команда - "квитировать"?
// 1320     if ((GetPanelReceipt()) ||
// 1321             (GetExternalReceipt()) ||
// 1322             (GetModbusReceipt()))
        RCALL   ?Subroutine65
??CrossCallReturnLabel_66:
        LDD     R16, Z+47
        TST     R16
        BRNE    ??ErrorMainCycle_1
        LDD     R16, Z+49
        TST     R16
        BRNE    ??ErrorMainCycle_1
        LDD     R16, Z+51
        TST     R16
        BREQ    ??CrossCallReturnLabel_218
// 1323     {
// 1324 //        m_xPreventiveAlarmWindowNotifyerControl.AlarmSet(INDICATION);
// 1325 //        m_xEmergencyAlarmWindowNotifyerControl.AlarmSet(INDICATION);
// 1326         m_xStatusLedNotifyerControl.AlarmSet(NORMAL);
??ErrorMainCycle_1:
        LDI     R18, 0
        RCALL   ?Subroutine59
// 1327         m_xBuzzerNotifyerControl.AlarmSet(NORMAL);
??CrossCallReturnLabel_213:
        LDI     R18, 0
        RCALL   ?Subroutine60
// 1328     }
// 1329 
// 1330     NotifyersControlProcessing();
??CrossCallReturnLabel_218:
        RCALL   ??NotifyersControlProcessing
// 1331 
// 1332     CPss21::ReceiptResetGlobalFlagsClear();
        RJMP    ?Subroutine77
// 1333 
// 1334     CPlatform::WatchdogReset();
// 1335 }

        RSEG CODE:CODE:NOROOT(1)
?Subroutine59:
        LDI     R16, LOW((??m_xDeviceConfigSearch + 165))
        LDI     R17, HIGH((??m_xDeviceConfigSearch + 165))
        JMP     ??AlarmSet_3
// 1336 
// 1337 //-----------------------------------------------------------------------------------------------------

        RSEG CODE:CODE:NOROOT(1)
// 1338 void CPss21::LinkControlErrorMainCycle(void)
??LinkControlErrorMainCycle:
// 1339 {
// 1340     CPss21::m_xModbusRtuOne.Fsm();
        RCALL   ?Subroutine5
// 1341     CPss21::m_xModbusRtuLinkControl.Fsm();
// 1342 
// 1343     CPss21::KeyStateProcessing();
// 1344 
// 1345     NotifyersControlProcessing();
// 1346 
// 1347     CPss21::ReceiptResetGlobalFlagsClear();
??CrossCallReturnLabel_78:
        RCALL   ?Subroutine51
// 1348 
// 1349     CDataStore::Fsm();
??CrossCallReturnLabel_105:
        RCALL   ?Subroutine55
// 1350 
// 1351     CPlatform::WatchdogReset();
??CrossCallReturnLabel_52:
        RJMP    ??Subroutine101_0
// 1352 }

        RSEG CODE:CODE:NOROOT(1)
?Subroutine51:
        RJMP    ??ReceiptResetGlobalFlagsClear
// 1353 
// 1354 //-----------------------------------------------------------------------------------------------------

        RSEG CODE:CODE:NOROOT(1)
// 1355 void CPss21::MainFsm(void)
??MainFsm:
// 1356 {
        LDS     R16, (??m_xDeviceConfigSearch + 46)
        LDI     R30, LOW(`?<Jumptable for MainFsm>_0`)
        LDI     R31, (`?<Jumptable for MainFsm>_0`) >> 16
        OUT     0x3B, R31
        LDI     R31, HIGH(`?<Jumptable for MainFsm>_0`)
        JMP     ?CV_SWITCH_L06
// 1357     switch (GetFsmState())
// 1358     {
// 1359     case START:
// 1360         CPlatform::WatchdogEnable();
??MainFsm_1:
        WDR
        IN      R16, 0x21
        ORI     R16, 0x18
        OUT     0x21, R16
        IN      R16, 0x21
        ORI     R16, 0x07
        OUT     0x21, R16
// 1361         CPlatform::Init();
        CALL    ??Init_3
// 1362         CPss21::Init();
        RCALL   ??Init
// 1363         CBuzzer::Init();
        CALL    ??Init_4
// 1364         if (!(CDataBase::Check()))
        CALL    ??Check
        TST     R16
        BREQ    ??MainFsm_2
// 1365         {
// 1366             SetFsmState(ERROR_START);
// 1367         }
// 1368         else
// 1369         {
// 1370             CPss21::ConfigurationInit();
        RCALL   ??ConfigurationInit
// 1371             CPss21::ModbusInit();
        RCALL   ??ModbusInit
// 1372             CSpi::Init();
        CALL    ??Init_5
// 1373             CPss21::AddressBusInit();
        RCALL   ??AddressBusInit
// 1374             CPss21::SearchModules();
        RCALL   ??SearchModules
// 1375             CPss21::CreateDevices();
        RCALL   ??CreateDevices
// 1376             m_xBuzzerNotifyerControl.AlarmSet(BEEP_SIGNAL);
        RCALL   ??Subroutine95_0
// 1377             SetFsmState(MAIN_CYCLE_START_WAITING);
??CrossCallReturnLabel_173:
        RJMP    ??CrossCallReturnLabel_104
// 1378         }
// 1379         break;
// 1380 
// 1381     case RESTART:
// 1382         break;
// 1383 
// 1384     case MAIN_CYCLE_START_WAITING:
// 1385         CPss21::m_xModbusRtuOne.Fsm();
??MainFsm_3:
        RCALL   ?Subroutine7
// 1386 
// 1387         CPss21::KeyStateProcessing();
// 1388 
// 1389         NotifyersControlProcessing();
// 1390 
// 1391         CDataStore::Fsm();
??CrossCallReturnLabel_1:
        RCALL   ?Subroutine9
// 1392 
// 1393         if (CPss21::m_xMainCycleTimer.IsOverflow())
??CrossCallReturnLabel_219:
        BRNE    $+2+2
        RJMP    ??CrossCallReturnLabel_50
// 1394         {
// 1395             CPss21::m_xMainCycleTimer.Reset();
        RCALL   ?Subroutine61
??CrossCallReturnLabel_230:
        CALL    ??Reset
// 1396             CPlatform::WatchdogReset();
        WDR
// 1397             SetModuleIndex(0);
        LDI     R16, 0
        STS     (??m_xDeviceConfigSearch + 56), R16
// 1398             SetFsmState(MAIN_CYCLE_MODULES_INTERACTION);
        LDI     R16, 3
        RJMP    ??MainFsm_4
// 1399         }
// 1400 
// 1401         break;
// 1402 
// 1403     case MAIN_CYCLE_MODULES_INTERACTION:
// 1404         CPss21::m_xModbusRtuOne.Fsm();
??MainFsm_5:
        RCALL   ?Subroutine5
// 1405         CPss21::m_xModbusRtuLinkControl.Fsm();
// 1406 
// 1407         CPss21::KeyStateProcessing();
// 1408 
// 1409         NotifyersControlProcessing();
// 1410 
// 1411         CDataStore::Fsm();
??CrossCallReturnLabel_79:
        RCALL   ?Subroutine55
// 1412 
// 1413         if (CPss21::ModulesInteraction(GetModuleIndex()))
??CrossCallReturnLabel_51:
        LDS     R16, (??m_xDeviceConfigSearch + 56)
        RCALL   ??ModulesInteraction
        TST     R16
        BREQ    ??MainFsm_6
// 1414         {
// 1415             SetFsmState(MAIN_CYCLE_DISCRETE_SIGNALS_PROCESSING);
        LDI     R16, 4
        RCALL   ??Subroutine94_0
// 1416         }
??CrossCallReturnLabel_162:
        RJMP    ??MainFsm_7
// 1417         else
// 1418         {
// 1419             SetModuleIndex(GetModuleIndex() + 1);
??MainFsm_6:
        RCALL   ?Subroutine65
??CrossCallReturnLabel_67:
        LDD     R16, Z+56
        INC     R16
        STD     Z+56, R16
// 1420         }
// 1421 
// 1422         switch (GetErrorCode())
??MainFsm_7:
        LDS     R16, (??m_xDeviceConfigSearch + 55)
        SUBI    R16, 3
        BREQ    ??MainFsm_2
        DEC     R16
        BREQ    ??MainFsm_2
        DEC     R16
        BREQ    ??MainFsm_8
        RET
// 1423         {
// 1424 //        case IMD_ERROR:
// 1425 //        case OMD_ERROR:
// 1426         case CFG_ERROR:
// 1427         case DB_ERROR:
// 1428             SetFsmState(ERROR_START);
??MainFsm_2:
        LDI     R16, 8
??MainFsm_4:
        RJMP    ??Subroutine94_0
// 1429             break;
// 1430 
// 1431         case MBS_ERROR:
// 1432             SetFsmState(LINK_CONTROL_ERROR_START);
??MainFsm_8:
        LDI     R16, 10
        RJMP    ??MainFsm_4
// 1433             break;
// 1434 
// 1435         default:
// 1436             break;
// 1437         }
// 1438         break;
// 1439 
// 1440     case MAIN_CYCLE_DISCRETE_SIGNALS_PROCESSING:
// 1441         CPss21::DiscreteSignalsProcessing();
??MainFsm_9:
        RCALL   ??DiscreteSignalsProcessing
// 1442         SetFsmState(MAIN_CYCLE_END);
        LDI     R16, 5
        RJMP    ??MainFsm_4
// 1443         break;
// 1444 
// 1445     case MAIN_CYCLE_END:
// 1446         CPss21::ReceiptResetGlobalFlagsClear();
??MainFsm_10:
        RCALL   ?Subroutine51
// 1447         SetFsmState(MAIN_CYCLE_START_WAITING);
??CrossCallReturnLabel_104:
        LDI     R16, 2
        RJMP    ??MainFsm_4
// 1448         break;
// 1449 
// 1450 //-----------------------------------------------------------------------------------------------------
// 1451     case TEST_START:
// 1452         SaveContextNotifyerControl();
??MainFsm_11:
        RCALL   ??SaveContextNotifyerControl
// 1453         AlarmTypeSet(PREVENTIVE);
        LDI     R16, 2
        RCALL   ??Subroutine97_0
// 1454         CPss21::AllAlarmWindowOn(PREVENTIVE);
??CrossCallReturnLabel_182:
        LDI     R16, 2
        RCALL   ??AllAlarmWindowOn
// 1455         CPss21::m_xMainCycleTimer.Set(TEST_ON_TIME());
        LDI     R18, 136
        LDI     R19, 19
        RCALL   ??Subroutine104_0
// 1456         SetFsmState(TEST_ON);
??CrossCallReturnLabel_226:
        LDI     R16, 7
        RJMP    ??MainFsm_12
// 1457 
// 1458         CPlatform::WatchdogReset();
// 1459         break;
// 1460 
// 1461     case TEST_ON:
// 1462         if (CPss21::m_xMainCycleTimer.IsOverflow())
??MainFsm_13:
        RCALL   ??Subroutine103_0
??CrossCallReturnLabel_221:
        BREQ    ??CrossCallReturnLabel_163
// 1463         {
// 1464             CPss21::AllAlarmWindowOff();
        RCALL   ?Subroutine6
// 1465             RestoreContextNotifyerControl();
// 1466             CPss21::m_xMainCycleTimer.Set(MAIN_CYCLE_PERIOD_TIME);
// 1467             SetFsmState(MAIN_CYCLE_START_WAITING);
??CrossCallReturnLabel_228:
        LDI     R16, 2
        RCALL   ??Subroutine94_0
// 1468         }
// 1469 
// 1470         TestMainCycle();
??CrossCallReturnLabel_163:
        RJMP    ??TestMainCycle
// 1471         break;
// 1472 
// 1473 //-----------------------------------------------------------------------------------------------------
// 1474     case ERROR_START:
// 1475         // Устанавливаем настройки Modbus по умолчанию на текущую сессию.
// 1476         ModbusDefaultInit();
??MainFsm_14:
        RCALL   ??ModbusDefaultInit
// 1477         ErrorWindowOn(GetErrorCode() - 1);
        RCALL   ?Subroutine14
// 1478         SetErrorCode(0);
// 1479 
// 1480         m_xPreventiveAlarmWindowNotifyerControl.AlarmSet(INDICATION);
// 1481         m_xEmergencyAlarmWindowNotifyerControl.AlarmSet(INDICATION);
// 1482         m_xStatusLedNotifyerControl.AlarmSet(ERROR);
// 1483         m_xBuzzerNotifyerControl.AlarmSet(ERROR);
// 1484 
// 1485         SetFsmState(ERROR_ON);
??CrossCallReturnLabel_214:
        LDI     R16, 9
??MainFsm_12:
        RCALL   ??Subroutine94_0
// 1486 
// 1487         CPlatform::WatchdogReset();
??CrossCallReturnLabel_164:
        RJMP    ??Subroutine101_0
// 1488         break;
// 1489 
// 1490     case ERROR_ON:
// 1491         ErrorMainCycle();
??MainFsm_15:
        RJMP    ??ErrorMainCycle
// 1492         break;
// 1493 
// 1494 //-----------------------------------------------------------------------------------------------------
// 1495     case LINK_CONTROL_ERROR_START:
// 1496         SaveContextNotifyerControl();
??MainFsm_16:
        RCALL   ??SaveContextNotifyerControl
// 1497         ErrorWindowOn(GetErrorCode() - 1);
        RCALL   ?Subroutine14
// 1498         SetErrorCode(0);
// 1499 
// 1500         m_xPreventiveAlarmWindowNotifyerControl.AlarmSet(INDICATION);
// 1501         m_xEmergencyAlarmWindowNotifyerControl.AlarmSet(INDICATION);
// 1502         m_xStatusLedNotifyerControl.AlarmSet(ERROR);
// 1503         m_xBuzzerNotifyerControl.AlarmSet(ERROR);
// 1504 
// 1505         CPlatform::WatchdogReset();
??CrossCallReturnLabel_215:
        WDR
// 1506         SetFsmState(LINK_CONTROL_ERROR_ON);
        LDI     R16, 11
        RJMP    ??MainFsm_4
// 1507         break;
// 1508 
// 1509     case LINK_CONTROL_ERROR_ON:
// 1510         LinkControlErrorMainCycle();
??MainFsm_17:
        RJMP    ??LinkControlErrorMainCycle
// 1511         break;
// 1512 
// 1513     case LINK_CONTROL_ERROR_OFF:
// 1514         CPss21::AllAlarmWindowOff();
??MainFsm_18:
        RCALL   ?Subroutine6
// 1515         RestoreContextNotifyerControl();
// 1516         CPss21::m_xMainCycleTimer.Set(MAIN_CYCLE_PERIOD_TIME);
// 1517 
// 1518         CPlatform::WatchdogReset();
??CrossCallReturnLabel_227:
        WDR
// 1519         SetFsmState(MAIN_CYCLE_START_WAITING);
        RJMP    ??CrossCallReturnLabel_104
// 1520         break;
// 1521 
// 1522 //-----------------------------------------------------------------------------------------------------
// 1523     case PROGRAMMING_START:
// 1524         // После приёма последнего блока базы данных произойдёт перезагрузка
// 1525         // через "PROGRAMMING_TIME + WDTO_2S", чтобы применить изменения конфигурации.
// 1526         CPss21::m_xMainCycleTimer.Set(PROGRAMMING_TIME);
??MainFsm_19:
        LDI     R18, 232
        LDI     R19, 3
        RCALL   ??Subroutine104_0
// 1527         SetFsmState(PROGRAMMING_ON);
??CrossCallReturnLabel_225:
        LDI     R16, 14
        RJMP    ??MainFsm_12
// 1528 
// 1529         CPlatform::WatchdogReset();
// 1530         break;
// 1531 
// 1532     case PROGRAMMING_ON:
// 1533         CPss21::m_xModbusRtuOne.Fsm();
??MainFsm_20:
        RCALL   ?Subroutine56
// 1534 
// 1535         CDataStore::Fsm();
??CrossCallReturnLabel_56:
        RCALL   ?Subroutine9
// 1536 
// 1537         if (CPss21::m_xMainCycleTimer.IsOverflow())
??CrossCallReturnLabel_220:
        BREQ    ??CrossCallReturnLabel_164
// 1538         {
// 1539             SetFsmState(REBOOT);
        LDI     R16, 15
        RCALL   ??Subroutine94_0
// 1540         }
// 1541 
// 1542         CPlatform::WatchdogReset();
??CrossCallReturnLabel_165:
        RJMP    ??CrossCallReturnLabel_164
// 1543         break;
// 1544 
// 1545     case REBOOT:
// 1546         // Через "WDTO_2S" - перезагрузка, чтобы применить изменения конфигурации.
// 1547         CPss21::m_xModbusRtuOne.Fsm();
??MainFsm_21:
        RCALL   ?Subroutine56
// 1548 
// 1549         CDataStore::Fsm();
??CrossCallReturnLabel_57:
        RCALL   ?Subroutine55
// 1550         break;
// 1551 
// 1552 //-----------------------------------------------------------------------------------------------------
// 1553     default:
// 1554         break;
// 1555     }
// 1556 }
??CrossCallReturnLabel_50:
        RET
        REQUIRE _A_WDTCR

        RSEG CODE:CODE:NOROOT(1)
?Subroutine55:
        JMP     ??Fsm_3

        RSEG CODE:CODE:NOROOT(1)
?Subroutine14:
        LDS     R16, (??m_xDeviceConfigSearch + 55)
        DEC     R16
        RCALL   ??ErrorWindowOn
        LDI     R16, 0
        STS     (??m_xDeviceConfigSearch + 55), R16
        REQUIRE ?Subroutine60
        REQUIRE ??Subroutine102_0
        ;               // Fall through to label ??Subroutine102_0

        RSEG CODE:CODE:NOROOT(1)
??Subroutine102_0:
        LDI     R18, 1
        RCALL   ?Subroutine57
??CrossCallReturnLabel_207:
        LDI     R18, 1
        RCALL   ?Subroutine58
??CrossCallReturnLabel_209:
        LDI     R18, 6
        RCALL   ?Subroutine59
??CrossCallReturnLabel_211:
        LDI     R18, 6
        REQUIRE ?Subroutine60
        ;               // Fall through to label ?Subroutine60

        RSEG CODE:CODE:NOROOT(1)
?Subroutine60:
        LDI     R16, LOW((??m_xDeviceConfigSearch + 177))
        LDI     R17, HIGH((??m_xDeviceConfigSearch + 177))
        JMP     ??AlarmSet

        RSEG CODE:CODE:NOROOT(1)
?Subroutine58:
        LDI     R16, LOW((??m_xDeviceConfigSearch + 153))
        LDI     R17, HIGH((??m_xDeviceConfigSearch + 153))
        JMP     ??AlarmSet_2

        RSEG CODE:CODE:NOROOT(1)
?Subroutine57:
        LDI     R16, LOW((??m_xDeviceConfigSearch + 141))
        LDI     R17, HIGH((??m_xDeviceConfigSearch + 141))
        JMP     ??AlarmSet_1

        RSEG CODE:CODE:NOROOT(1)
?Subroutine56:
        LDI     R16, LOW(??m_xModbusRtuOne)
        LDI     R17, (??m_xModbusRtuOne) >> 8
        JMP     ??Fsm_1

        RSEG CODE:CODE:NOROOT(1)
?Subroutine9:
        CALL    ??Fsm_3
        REQUIRE ??Subroutine103_0
        ;               // Fall through to label ??Subroutine103_0

        RSEG CODE:CODE:NOROOT(1)
??Subroutine103_0:
        RCALL   ?Subroutine61
??CrossCallReturnLabel_231:
        CALL    ??IsOverflow
        RJMP    ?Subroutine84

        RSEG CODE:CODE:NOROOT(1)
?Subroutine61:
        LDI     R16, LOW((??m_xDeviceConfigSearch + 135))
        LDI     R17, HIGH((??m_xDeviceConfigSearch + 135))
        RET

        RSEG CODE:CODE:NOROOT(1)
?Subroutine7:
        RCALL   ?Subroutine56
??CrossCallReturnLabel_54:
        RJMP    ?Subroutine70

        RSEG CODE:CODE:NOROOT(1)
?Subroutine6:
        RCALL   ??AllAlarmWindowOff
        RCALL   ??RestoreContextNotifyerControl
        LDI     R18, 100
        LDI     R19, 0
        REQUIRE ??Subroutine104_0
        ;               // Fall through to label ??Subroutine104_0

        RSEG CODE:CODE:NOROOT(1)
??Subroutine104_0:
        RCALL   ?Subroutine61
??CrossCallReturnLabel_232:
        JMP     ??Set_1

        RSEG CODE:CODE:NOROOT(1)
?Subroutine5:
        RCALL   ?Subroutine56
??CrossCallReturnLabel_53:
        LDI     R16, LOW((??m_xDeviceConfigSearch + 9))
        LDI     R17, HIGH((??m_xDeviceConfigSearch + 9))
        CALL    ??Fsm_2
        REQUIRE ?Subroutine70
        ;               // Fall through to label ?Subroutine70

        RSEG CODE:CODE:NOROOT(1)
?Subroutine70:
        RCALL   ??KeyStateProcessing
        RJMP    ??NotifyersControlProcessing

        RSEG CODE:CODE:NOROOT(1)
// __version_3 uint8_t CPlatform::KeyOneState()
??KeyOneState:
        LDI     R16, 0
        SBIC    0x13, 0x02
        LDI     R16, 1
??KeyOneState_1:
        LDI     R17, 1
        EOR     R16, R17
        RET
        REQUIRE _A_PINC

        RSEG CODE:CODE:NOROOT(1)
// __version_3 uint8_t CPlatform::KeyTwoState()
??KeyTwoState:
        LDI     R16, 0
        SBIC    0x13, 0x01
        LDI     R16, 1
??KeyTwoState_1:
        LDI     R17, 1
        EOR     R16, R17
        RET
        REQUIRE _A_PINC

        RSEG CODE:CODE:NOROOT(1)
// __version_3 uint8_t CPlatform::KeyThreeState()
??KeyThreeState:
        LDI     R16, 0
        SBIC    0x13, 0x00
        LDI     R16, 1
??KeyThreeState_1:
        LDI     R17, 1
        EOR     R16, R17
        RET
        REQUIRE _A_PINC

        RSEG CODE:CODE:NOROOT(1)
// __version_3 uint8_t CPlatform::ExternalKeyState()
??ExternalKeyState:
        LDS     R17, _A_PING
        ANDI    R17, 0x01
        MOV     R16, R17
        LDI     R17, 1
        EOR     R16, R17
        RET
        REQUIRE _A_PING

        ASEGN ABSOLUTE:DATA:NOROOT,01cH
__?EECR:

        ASEGN ABSOLUTE:DATA:NOROOT,01dH
__?EEDR:

        ASEGN ABSOLUTE:DATA:NOROOT,01eH
__?EEARL:

        ASEGN ABSOLUTE:DATA:NOROOT,01fH
__?EEARH:

        RSEG INITTAB:CODE:NOROOT(0)
`?<Segment init: NEAR_Z>`:
        DC16    SFE(NEAR_Z) - SFB(NEAR_Z)
        DC16    SFB(NEAR_Z)
        DP      0
        REQUIRE ?need_segment_init

        RSEG NEAR_ID:CODE:ROOT(0)
`?<Initializer for >`:
        DC16 ?_1, ??m_xUart1, `?<Unnamed 0>`/2
`?<Initializer for >_1`:
        DC16 ?_3, ??m_xModbusRtuOne, `?<Unnamed 1>`/2
`?<Initializer for >_2`:
        DC16 ?_5, ??m_xReceiptKey, `?<Unnamed 2>`/2
`?<Initializer for >_3`:
        DC16 ?_7, ??m_xResetKey, `?<Unnamed 2>`/2
`?<Initializer for >_4`:
        DC16 ?_9, ??m_xCheckKey, `?<Unnamed 2>`/2
`?<Initializer for >_5`:
        DC16 ?_11, ??m_xExternalKey, `?<Unnamed 2>`/2
`?<Initializer for >_6`:
        DC16 ?_13, ??m_xEventUniteLogicAndOne, `?<Unnamed 3>`/2
`?<Initializer for >_7`:
        DC16 ?_15, ??m_xMainCycleTimer, `?<Unnamed 4>`/2
`?<Initializer for >_8`:
        DC16 ?_17, ??m_xPreventiveAlarmWindowNotifyerControl, `?<Unnamed 5>`/2
`?<Initializer for >_9`:
        DC16 ?_19, ??m_xEmergencyAlarmWindowNotifyerControl, `?<Unnamed 6>`/2
`?<Initializer for >_10`:
        DC16 ?_21, ??m_xStatusLedNotifyerControl, `?<Unnamed 7>`/2
`?<Initializer for >_11`:
        DC16 ?_23, ??m_xBuzzerNotifyerControl, `?<Unnamed 8>`/2
`?<Initializer for >_12`:
        DC16 ?_25, ??m_xModbusRtuLinkControl, `?<Unnamed 9>`/2
`?<Initializer for >_13`:
        DC16 ?_27, 0H, `?<Unnamed 10>`/2

        RSEG INITTAB:CODE:NOROOT(0)
`?<Segment init: NEAR_I>`:
        DC16    SFE(NEAR_I) - SFB(NEAR_I)
        DC16    SFB(NEAR_I)
        DP      SFB(NEAR_ID)
        REQUIRE ?need_segment_init

        RSEG DIFUNCT:CODE:ROOT(0)
        REQUIRE ?call_ctors
        DW      ??__sti__routine/2

        RSEG SWITCH:CODE:NOROOT(1)
`?<Jumptable for MainFsm>_0`:
        DB      0
        DB      0
        DW      (??CrossCallReturnLabel_50) /2
        DW      16
        DW      (??MainFsm_1) /2
        DW      (??CrossCallReturnLabel_50) /2
        DW      (??MainFsm_3) /2
        DW      (??MainFsm_5) /2
        DW      (??MainFsm_9) /2
        DW      (??MainFsm_10) /2
        DW      (??MainFsm_11) /2
        DW      (??MainFsm_13) /2
        DW      (??MainFsm_14) /2
        DW      (??MainFsm_15) /2
        DW      (??MainFsm_16) /2
        DW      (??MainFsm_17) /2
        DW      (??MainFsm_18) /2
        DW      (??MainFsm_19) /2
        DW      (??MainFsm_20) /2
        DW      (??MainFsm_21) /2

        END
// 1557 
// 
//   105 bytes in segment ABSOLUTE
// 3 398 bytes in segment CODE
//     2 bytes in segment DIFUNCT
//    14 bytes in segment INITTAB
//    52 bytes in segment NEAR_F
//    84 bytes in segment NEAR_I
//    84 bytes in segment NEAR_ID
// 1 645 bytes in segment NEAR_Z
//    38 bytes in segment SWITCH
// 
// 3 524 bytes of CODE memory (+  64 bytes shared)
// 1 729 bytes of DATA memory (+ 105 bytes shared)
//
//Errors: none
//Warnings: 2
